Archive member included because of file (symbol)

/home/leon/git/swp-report/iMX6_Platform_SDK/output/mx6dq/lib/libsdk.a(ccm_pll.o)
                              /home/leon/git/swp-report/iMX6_Platform_SDK/output/mx6dq/sdk_unit_test/smart_device_rev_c/obj/apps/common/platform_init.o (ccm_init)
/home/leon/git/swp-report/iMX6_Platform_SDK/output/mx6dq/lib/libsdk.a(cortexA9.o)
                              /home/leon/git/swp-report/iMX6_Platform_SDK/output/mx6dq/sdk_unit_test/smart_device_rev_c/obj/apps/common/platform_init.o (arm_set_interrupt_state)
/home/leon/git/swp-report/iMX6_Platform_SDK/output/mx6dq/lib/libsdk.a(gic.o)
                              /home/leon/git/swp-report/iMX6_Platform_SDK/output/mx6dq/sdk_unit_test/smart_device_rev_c/obj/apps/common/platform_init.o (gic_init)
/home/leon/git/swp-report/iMX6_Platform_SDK/output/mx6dq/lib/libsdk.a(mmu.o)
                              /home/leon/git/swp-report/iMX6_Platform_SDK/output/mx6dq/sdk_unit_test/smart_device_rev_c/obj/apps/common/platform_init.o (mmu_init)
/home/leon/git/swp-report/iMX6_Platform_SDK/output/mx6dq/lib/libsdk.a(startup.o)
                              (_start)
/home/leon/git/swp-report/iMX6_Platform_SDK/output/mx6dq/lib/libsdk.a(vectors.o)
                              /home/leon/git/swp-report/iMX6_Platform_SDK/output/mx6dq/lib/libsdk.a(startup.o) (vectors)
/home/leon/git/swp-report/iMX6_Platform_SDK/output/mx6dq/lib/libsdk.a(menu.o)
                              /home/leon/git/swp-report/iMX6_Platform_SDK/output/mx6dq/sdk_unit_test/smart_device_rev_c/obj/apps/sdk_unit_test/src/all_test.o (menuitem_cmd_exitmenu)
/home/leon/git/swp-report/iMX6_Platform_SDK/output/mx6dq/lib/libsdk.a(sdk_version.o)
                              /home/leon/git/swp-report/iMX6_Platform_SDK/output/mx6dq/sdk_unit_test/smart_device_rev_c/obj/apps/common/print_version.o (k_sdk_version)
/home/leon/git/swp-report/iMX6_Platform_SDK/output/mx6dq/lib/libsdk.a(system_util.o)
                              /home/leon/git/swp-report/iMX6_Platform_SDK/output/mx6dq/lib/libsdk.a(startup.o) (_sys_exit)
/home/leon/git/swp-report/iMX6_Platform_SDK/output/mx6dq/lib/libsdk.a(text_color.o)
                              /home/leon/git/swp-report/iMX6_Platform_SDK/output/mx6dq/lib/libsdk.a(menu.o) (g_TextAttributeDefault)
/home/leon/git/swp-report/iMX6_Platform_SDK/output/mx6dq/lib/libsdk.a(board_id.o)
                              /home/leon/git/swp-report/iMX6_Platform_SDK/output/mx6dq/sdk_unit_test/smart_device_rev_c/obj/apps/common/print_version.o (chip_name)
/home/leon/git/swp-report/iMX6_Platform_SDK/output/mx6dq/lib/libsdk.a(timer.o)
                              /home/leon/git/swp-report/iMX6_Platform_SDK/output/mx6dq/sdk_unit_test/smart_device_rev_c/obj/apps/common/platform_init.o (system_time_init)
/home/leon/git/swp-report/iMX6_Platform_SDK/output/mx6dq/lib/libsdk.a(imx_uart.o)
                              /home/leon/git/swp-report/iMX6_Platform_SDK/output/mx6dq/sdk_unit_test/smart_device_rev_c/obj/apps/common/platform_init.o (uart_getchar)
/home/leon/git/swp-report/iMX6_Platform_SDK/output/mx6dq/lib/libsdk.a(arm_abort.o)
                              /home/leon/git/swp-report/iMX6_Platform_SDK/output/mx6dq/lib/libsdk.a(vectors.o) (data_abort_handler)
/home/leon/git/swp-report/iMX6_Platform_SDK/output/mx6dq/lib/libsdk.a(interrupt.o)
                              /home/leon/git/swp-report/iMX6_Platform_SDK/output/mx6dq/lib/libsdk.a(vectors.o) (IRQ_HDLR)
/home/leon/git/swp-report/iMX6_Platform_SDK/output/mx6dq/lib/libsdk.a(epit.o)
                              /home/leon/git/swp-report/iMX6_Platform_SDK/output/mx6dq/lib/libsdk.a(timer.o) (epit_get_compare_event)
/home/leon/git/swp-report/iMX6_Platform_SDK/output/mx6dq/lib/libsdk.a(abort_handler.o)
                              /home/leon/git/swp-report/iMX6_Platform_SDK/output/mx6dq/lib/libsdk.a(arm_abort.o) (dump_regs)
/home/leon/git/swp-report/iMX6_Platform_SDK/output/mx6dq/lib/libboard_smart_device_rev_c.a(board_io_expanders.o)
                              /home/leon/git/swp-report/iMX6_Platform_SDK/output/mx6dq/sdk_unit_test/smart_device_rev_c/obj/apps/common/platform_init.o (board_ioexpander_init)
/home/leon/git/swp-report/iMX6_Platform_SDK/output/mx6dq/lib/libboard_smart_device_rev_c.a(hardware_modules.o)
                              /home/leon/git/swp-report/iMX6_Platform_SDK/output/mx6dq/sdk_unit_test/smart_device_rev_c/obj/apps/common/platform_init.o (g_debug_uart_port)
/home/leon/git/swp-report/iMX6_Platform_SDK/output/mx6dq/lib/libboard_smart_device_rev_c.a(dcd.o)
                              /home/leon/git/swp-report/iMX6_Platform_SDK/output/mx6dq/sdk_unit_test/smart_device_rev_c/obj/apps/common/ivt.o (input_dcd_hdr)
/home/leon/git/swp-report/iMX6_Platform_SDK/output/mx6dq/lib/libboard_smart_device_rev_c.a(uart_iomux_config.o)
                              /home/leon/git/swp-report/iMX6_Platform_SDK/output/mx6dq/lib/libsdk.a(imx_uart.o) (uart_iomux_config)
/home/leon/git/swp-report/iMX6_Platform_SDK/output/mx6dq/lib/libboard_smart_device_rev_c.a(iomux_config.o)
                              /home/leon/git/swp-report/iMX6_Platform_SDK/output/mx6dq/lib/libboard_smart_device_rev_c.a(uart_iomux_config.o) (uart2_iomux_config)
/home/leon/git/swp-report/iMX6_Platform_SDK/output/mx6dq/lib/libboard_smart_device_rev_c.a(ipu1_iomux_config.o)
                              /home/leon/git/swp-report/iMX6_Platform_SDK/output/mx6dq/lib/libboard_smart_device_rev_c.a(iomux_config.o) (ipu1_iomux_config)
/home/leon/git/swp-report/iMX6_Platform_SDK/output/mx6dq/lib/libboard_smart_device_rev_c.a(mmdc_iomux_config.o)
                              /home/leon/git/swp-report/iMX6_Platform_SDK/output/mx6dq/lib/libboard_smart_device_rev_c.a(iomux_config.o) (mmdc_iomux_config)
/home/leon/git/swp-report/iMX6_Platform_SDK/output/mx6dq/lib/libboard_smart_device_rev_c.a(pwm1_iomux_config.o)
                              /home/leon/git/swp-report/iMX6_Platform_SDK/output/mx6dq/lib/libboard_smart_device_rev_c.a(iomux_config.o) (pwm1_iomux_config)
/home/leon/git/swp-report/iMX6_Platform_SDK/output/mx6dq/lib/libboard_smart_device_rev_c.a(sjc_iomux_config.o)
                              /home/leon/git/swp-report/iMX6_Platform_SDK/output/mx6dq/lib/libboard_smart_device_rev_c.a(iomux_config.o) (sjc_iomux_config)
/home/leon/git/swp-report/iMX6_Platform_SDK/output/mx6dq/lib/libboard_smart_device_rev_c.a(uart1_iomux_config.o)
                              /home/leon/git/swp-report/iMX6_Platform_SDK/output/mx6dq/lib/libboard_smart_device_rev_c.a(uart_iomux_config.o) (uart1_iomux_config)
/home/leon/git/swp-report/iMX6_Platform_SDK/output/mx6dq/lib/libboard_smart_device_rev_c.a(usb_iomux_config.o)
                              /home/leon/git/swp-report/iMX6_Platform_SDK/output/mx6dq/lib/libboard_smart_device_rev_c.a(iomux_config.o) (usb_iomux_config)
/home/leon/git/swp-report/iMX6_Platform_SDK/output/mx6dq/lib/libboard_smart_device_rev_c.a(usdhc2_iomux_config.o)
                              /home/leon/git/swp-report/iMX6_Platform_SDK/output/mx6dq/lib/libboard_smart_device_rev_c.a(iomux_config.o) (usdhc2_iomux_config)
/home/leon/git/swp-report/iMX6_Platform_SDK/output/mx6dq/lib/libboard_smart_device_rev_c.a(usdhc3_iomux_config.o)
                              /home/leon/git/swp-report/iMX6_Platform_SDK/output/mx6dq/lib/libboard_smart_device_rev_c.a(iomux_config.o) (usdhc3_iomux_config)
/home/leon/git/swp-report/iMX6_Platform_SDK/output/mx6dq/lib/libboard_smart_device_rev_c.a(usdhc4_iomux_config.o)
                              /home/leon/git/swp-report/iMX6_Platform_SDK/output/mx6dq/lib/libboard_smart_device_rev_c.a(iomux_config.o) (usdhc4_iomux_config)
/home/leon/git/swp-report/iMX6_Platform_SDK/output/mx6dq/lib/libboard_smart_device_rev_c.a(audmux_iomux_config.o)
                              /home/leon/git/swp-report/iMX6_Platform_SDK/output/mx6dq/lib/libboard_smart_device_rev_c.a(iomux_config.o) (audmux_iomux_config)
/home/leon/git/swp-report/iMX6_Platform_SDK/output/mx6dq/lib/libboard_smart_device_rev_c.a(ccm_iomux_config.o)
                              /home/leon/git/swp-report/iMX6_Platform_SDK/output/mx6dq/lib/libboard_smart_device_rev_c.a(iomux_config.o) (ccm_iomux_config)
/home/leon/git/swp-report/iMX6_Platform_SDK/output/mx6dq/lib/libboard_smart_device_rev_c.a(ecspi1_iomux_config.o)
                              /home/leon/git/swp-report/iMX6_Platform_SDK/output/mx6dq/lib/libboard_smart_device_rev_c.a(iomux_config.o) (ecspi1_iomux_config)
/home/leon/git/swp-report/iMX6_Platform_SDK/output/mx6dq/lib/libboard_smart_device_rev_c.a(enet_iomux_config.o)
                              /home/leon/git/swp-report/iMX6_Platform_SDK/output/mx6dq/lib/libboard_smart_device_rev_c.a(iomux_config.o) (enet_iomux_config)
/home/leon/git/swp-report/iMX6_Platform_SDK/output/mx6dq/lib/libboard_smart_device_rev_c.a(flexcan1_iomux_config.o)
                              /home/leon/git/swp-report/iMX6_Platform_SDK/output/mx6dq/lib/libboard_smart_device_rev_c.a(iomux_config.o) (flexcan1_iomux_config)
/home/leon/git/swp-report/iMX6_Platform_SDK/output/mx6dq/lib/libboard_smart_device_rev_c.a(gpio1_iomux_config.o)
                              /home/leon/git/swp-report/iMX6_Platform_SDK/output/mx6dq/lib/libboard_smart_device_rev_c.a(iomux_config.o) (gpio1_iomux_config)
/home/leon/git/swp-report/iMX6_Platform_SDK/output/mx6dq/lib/libboard_smart_device_rev_c.a(gpio2_iomux_config.o)
                              /home/leon/git/swp-report/iMX6_Platform_SDK/output/mx6dq/lib/libboard_smart_device_rev_c.a(iomux_config.o) (gpio2_iomux_config)
/home/leon/git/swp-report/iMX6_Platform_SDK/output/mx6dq/lib/libboard_smart_device_rev_c.a(gpio3_iomux_config.o)
                              /home/leon/git/swp-report/iMX6_Platform_SDK/output/mx6dq/lib/libboard_smart_device_rev_c.a(iomux_config.o) (gpio3_iomux_config)
/home/leon/git/swp-report/iMX6_Platform_SDK/output/mx6dq/lib/libboard_smart_device_rev_c.a(gpio4_iomux_config.o)
                              /home/leon/git/swp-report/iMX6_Platform_SDK/output/mx6dq/lib/libboard_smart_device_rev_c.a(iomux_config.o) (gpio4_iomux_config)
/home/leon/git/swp-report/iMX6_Platform_SDK/output/mx6dq/lib/libboard_smart_device_rev_c.a(gpio5_iomux_config.o)
                              /home/leon/git/swp-report/iMX6_Platform_SDK/output/mx6dq/lib/libboard_smart_device_rev_c.a(iomux_config.o) (gpio5_iomux_config)
/home/leon/git/swp-report/iMX6_Platform_SDK/output/mx6dq/lib/libboard_smart_device_rev_c.a(gpio6_iomux_config.o)
                              /home/leon/git/swp-report/iMX6_Platform_SDK/output/mx6dq/lib/libboard_smart_device_rev_c.a(iomux_config.o) (gpio6_iomux_config)
/home/leon/git/swp-report/iMX6_Platform_SDK/output/mx6dq/lib/libboard_smart_device_rev_c.a(gpio7_iomux_config.o)
                              /home/leon/git/swp-report/iMX6_Platform_SDK/output/mx6dq/lib/libboard_smart_device_rev_c.a(iomux_config.o) (gpio7_iomux_config)
/home/leon/git/swp-report/iMX6_Platform_SDK/output/mx6dq/lib/libboard_smart_device_rev_c.a(gps_iomux_config.o)
                              /home/leon/git/swp-report/iMX6_Platform_SDK/output/mx6dq/lib/libboard_smart_device_rev_c.a(iomux_config.o) (gps_iomux_config)
/home/leon/git/swp-report/iMX6_Platform_SDK/output/mx6dq/lib/libboard_smart_device_rev_c.a(i2c1_iomux_config.o)
                              /home/leon/git/swp-report/iMX6_Platform_SDK/output/mx6dq/lib/libboard_smart_device_rev_c.a(iomux_config.o) (i2c1_iomux_config)
/home/leon/git/swp-report/iMX6_Platform_SDK/output/mx6dq/lib/libboard_smart_device_rev_c.a(i2c2_iomux_config.o)
                              /home/leon/git/swp-report/iMX6_Platform_SDK/output/mx6dq/lib/libboard_smart_device_rev_c.a(iomux_config.o) (i2c2_iomux_config)
/home/leon/git/swp-report/iMX6_Platform_SDK/output/mx6dq/lib/libboard_smart_device_rev_c.a(i2c3_iomux_config.o)
                              /home/leon/git/swp-report/iMX6_Platform_SDK/output/mx6dq/lib/libboard_smart_device_rev_c.a(iomux_config.o) (i2c3_iomux_config)
/home/leon/git/swp-report/iMX6_Platform_SDK/output/mx6dq/sdk_unit_test/smart_device_rev_c/libsdk_unit_test.a(audio_test.o)
                              /home/leon/git/swp-report/iMX6_Platform_SDK/output/mx6dq/sdk_unit_test/smart_device_rev_c/obj/apps/sdk_unit_test/src/all_test.o (audio_test)
/home/leon/git/swp-report/iMX6_Platform_SDK/output/mx6dq/sdk_unit_test/smart_device_rev_c/libsdk_unit_test.a(wav_file.o)
                              /home/leon/git/swp-report/iMX6_Platform_SDK/output/mx6dq/sdk_unit_test/smart_device_rev_c/libsdk_unit_test.a(audio_test.o) (wavefile_start)
/home/leon/git/swp-report/iMX6_Platform_SDK/output/mx6dq/sdk_unit_test/smart_device_rev_c/libsdk_unit_test.a(gic_test.o)
                              /home/leon/git/swp-report/iMX6_Platform_SDK/output/mx6dq/sdk_unit_test/smart_device_rev_c/obj/apps/sdk_unit_test/src/all_test.o (gic_test)
/home/leon/git/swp-report/iMX6_Platform_SDK/output/mx6dq/sdk_unit_test/smart_device_rev_c/libsdk_unit_test.a(cpu_wp_test.o)
                              /home/leon/git/swp-report/iMX6_Platform_SDK/output/mx6dq/sdk_unit_test/smart_device_rev_c/obj/apps/sdk_unit_test/src/all_test.o (cpu_wp_test)
/home/leon/git/swp-report/iMX6_Platform_SDK/output/mx6dq/sdk_unit_test/smart_device_rev_c/libsdk_unit_test.a(multicore_test.o)
                              /home/leon/git/swp-report/iMX6_Platform_SDK/output/mx6dq/sdk_unit_test/smart_device_rev_c/obj/apps/sdk_unit_test/src/all_test.o (multicore_test)
/home/leon/git/swp-report/iMX6_Platform_SDK/output/mx6dq/sdk_unit_test/smart_device_rev_c/libsdk_unit_test.a(ocotp_test.o)
                              /home/leon/git/swp-report/iMX6_Platform_SDK/output/mx6dq/sdk_unit_test/smart_device_rev_c/obj/apps/sdk_unit_test/src/all_test.o (ocotp_test)
/home/leon/git/swp-report/iMX6_Platform_SDK/output/mx6dq/sdk_unit_test/smart_device_rev_c/libsdk_unit_test.a(snvs_rtc_test.o)
                              /home/leon/git/swp-report/iMX6_Platform_SDK/output/mx6dq/sdk_unit_test/smart_device_rev_c/obj/apps/sdk_unit_test/src/all_test.o (snvs_rtc_test)
/home/leon/git/swp-report/iMX6_Platform_SDK/output/mx6dq/sdk_unit_test/smart_device_rev_c/libsdk_unit_test.a(snvs_srtc_test.o)
                              /home/leon/git/swp-report/iMX6_Platform_SDK/output/mx6dq/sdk_unit_test/smart_device_rev_c/obj/apps/sdk_unit_test/src/all_test.o (snvs_srtc_test)
/home/leon/git/swp-report/iMX6_Platform_SDK/output/mx6dq/sdk_unit_test/smart_device_rev_c/libsdk_unit_test.a(i2c_test.o)
                              /home/leon/git/swp-report/iMX6_Platform_SDK/output/mx6dq/sdk_unit_test/smart_device_rev_c/obj/apps/sdk_unit_test/src/all_test.o (i2c_test)
/home/leon/git/swp-report/iMX6_Platform_SDK/output/mx6dq/sdk_unit_test/smart_device_rev_c/libsdk_unit_test.a(imx6_i2c_device.o)
                              /home/leon/git/swp-report/iMX6_Platform_SDK/output/mx6dq/sdk_unit_test/smart_device_rev_c/libsdk_unit_test.a(i2c_test.o) (i2c_imx6_slave_test)
/home/leon/git/swp-report/iMX6_Platform_SDK/output/mx6dq/sdk_unit_test/smart_device_rev_c/libsdk_unit_test.a(tempmon_test.o)
                              /home/leon/git/swp-report/iMX6_Platform_SDK/output/mx6dq/sdk_unit_test/smart_device_rev_c/obj/apps/sdk_unit_test/src/all_test.o (tempmon_test)
/home/leon/git/swp-report/iMX6_Platform_SDK/output/mx6dq/sdk_unit_test/smart_device_rev_c/libsdk_unit_test.a(sdma_test.o)
                              /home/leon/git/swp-report/iMX6_Platform_SDK/output/mx6dq/sdk_unit_test/smart_device_rev_c/obj/apps/sdk_unit_test/src/all_test.o (sdma_test)
/home/leon/git/swp-report/iMX6_Platform_SDK/output/mx6dq/sdk_unit_test/smart_device_rev_c/libsdk_unit_test.a(spi_lpb.o)
                              /home/leon/git/swp-report/iMX6_Platform_SDK/output/mx6dq/sdk_unit_test/smart_device_rev_c/libsdk_unit_test.a(sdma_test.o) (ecspi_shp_test)
/home/leon/git/swp-report/iMX6_Platform_SDK/output/mx6dq/sdk_unit_test/smart_device_rev_c/libsdk_unit_test.a(uart_loopback.o)
                              /home/leon/git/swp-report/iMX6_Platform_SDK/output/mx6dq/sdk_unit_test/smart_device_rev_c/libsdk_unit_test.a(sdma_test.o) (uart_app_test)
/home/leon/git/swp-report/iMX6_Platform_SDK/output/mx6dq/sdk_unit_test/smart_device_rev_c/libsdk_unit_test.a(uart_test.o)
                              /home/leon/git/swp-report/iMX6_Platform_SDK/output/mx6dq/sdk_unit_test/smart_device_rev_c/obj/apps/sdk_unit_test/src/all_test.o (uart_test)
/home/leon/git/swp-report/iMX6_Platform_SDK/output/mx6dq/sdk_unit_test/smart_device_rev_c/libsdk_unit_test.a(epit_test.o)
                              /home/leon/git/swp-report/iMX6_Platform_SDK/output/mx6dq/sdk_unit_test/smart_device_rev_c/obj/apps/sdk_unit_test/src/all_test.o (epit_test)
/home/leon/git/swp-report/iMX6_Platform_SDK/output/mx6dq/sdk_unit_test/smart_device_rev_c/libsdk_unit_test.a(gpt_test.o)
                              /home/leon/git/swp-report/iMX6_Platform_SDK/output/mx6dq/sdk_unit_test/smart_device_rev_c/obj/apps/sdk_unit_test/src/all_test.o (gpt_test)
/home/leon/git/swp-report/iMX6_Platform_SDK/output/mx6dq/sdk_unit_test/smart_device_rev_c/libsdk_unit_test.a(timer_test.o)
                              /home/leon/git/swp-report/iMX6_Platform_SDK/output/mx6dq/sdk_unit_test/smart_device_rev_c/obj/apps/sdk_unit_test/src/all_test.o (microseconds_test)
/home/leon/git/swp-report/iMX6_Platform_SDK/output/mx6dq/sdk_unit_test/smart_device_rev_c/libsdk_unit_test.a(usdhc_test.o)
                              /home/leon/git/swp-report/iMX6_Platform_SDK/output/mx6dq/sdk_unit_test/smart_device_rev_c/obj/apps/sdk_unit_test/src/all_test.o (usdhc_test)
/home/leon/git/swp-report/iMX6_Platform_SDK/output/mx6dq/sdk_unit_test/smart_device_rev_c/libsdk_unit_test.a(pwm_test.o)
                              /home/leon/git/swp-report/iMX6_Platform_SDK/output/mx6dq/sdk_unit_test/smart_device_rev_c/obj/apps/sdk_unit_test/src/all_test.o (pwm_test)
/home/leon/git/swp-report/iMX6_Platform_SDK/output/mx6dq/sdk_unit_test/smart_device_rev_c/libsdk_unit_test.a(watchdog_test.o)
                              /home/leon/git/swp-report/iMX6_Platform_SDK/output/mx6dq/sdk_unit_test/smart_device_rev_c/obj/apps/sdk_unit_test/src/all_test.o (wdog_test)
/home/leon/git/swp-report/iMX6_Platform_SDK/output/mx6dq/sdk_unit_test/smart_device_rev_c/libsdk_unit_test.a(hdmi_test.o)
                              /home/leon/git/swp-report/iMX6_Platform_SDK/output/mx6dq/sdk_unit_test/smart_device_rev_c/obj/apps/sdk_unit_test/src/all_test.o (hdmi_test)
/home/leon/git/swp-report/iMX6_Platform_SDK/output/mx6dq/sdk_unit_test/smart_device_rev_c/libsdk_unit_test.a(init_dma_data.o)
                              /home/leon/git/swp-report/iMX6_Platform_SDK/output/mx6dq/sdk_unit_test/smart_device_rev_c/libsdk_unit_test.a(hdmi_test.o) (init_dma_data)
/home/leon/git/swp-report/iMX6_Platform_SDK/output/mx6dq/sdk_unit_test/smart_device_rev_c/libsdk_unit_test.a(ips_display.o)
                              /home/leon/git/swp-report/iMX6_Platform_SDK/output/mx6dq/sdk_unit_test/smart_device_rev_c/libsdk_unit_test.a(hdmi_test.o) (ips_hdmi_stream)
/home/leon/git/swp-report/iMX6_Platform_SDK/output/mx6dq/sdk_unit_test/smart_device_rev_c/libsdk_unit_test.a(ips_test.o)
                              /home/leon/git/swp-report/iMX6_Platform_SDK/output/mx6dq/sdk_unit_test/smart_device_rev_c/obj/apps/sdk_unit_test/src/all_test.o (ipu_test)
/home/leon/git/swp-report/iMX6_Platform_SDK/output/mx6dq/sdk_unit_test/smart_device_rev_c/libsdk_unit_test.a(ipu_image.o)
                              /home/leon/git/swp-report/iMX6_Platform_SDK/output/mx6dq/sdk_unit_test/smart_device_rev_c/libsdk_unit_test.a(ips_display.o) (load_centralized_image)
/home/leon/git/swp-report/iMX6_Platform_SDK/output/mx6dq/sdk_unit_test/smart_device_rev_c/libsdk_unit_test.a(camera_test.o)
                              /home/leon/git/swp-report/iMX6_Platform_SDK/output/mx6dq/sdk_unit_test/smart_device_rev_c/obj/apps/sdk_unit_test/src/all_test.o (camera_test)
/home/leon/git/swp-report/iMX6_Platform_SDK/output/mx6dq/sdk_unit_test/smart_device_rev_c/libsdk_unit_test.a(csi_test_mode.o)
                              /home/leon/git/swp-report/iMX6_Platform_SDK/output/mx6dq/sdk_unit_test/smart_device_rev_c/libsdk_unit_test.a(camera_test.o) (csi_test_mode)
/home/leon/git/swp-report/iMX6_Platform_SDK/output/mx6dq/sdk_unit_test/smart_device_rev_c/libsdk_unit_test.a(sensor_capture.o)
                              /home/leon/git/swp-report/iMX6_Platform_SDK/output/mx6dq/sdk_unit_test/smart_device_rev_c/libsdk_unit_test.a(camera_test.o) (sensor_capture)
/home/leon/git/swp-report/iMX6_Platform_SDK/output/mx6dq/sdk_unit_test/smart_device_rev_c/libsdk_unit_test.a(keypad_test.o)
                              /home/leon/git/swp-report/iMX6_Platform_SDK/output/mx6dq/sdk_unit_test/smart_device_rev_c/obj/apps/sdk_unit_test/src/all_test.o (keypad_test)
/home/leon/git/swp-report/iMX6_Platform_SDK/output/mx6dq/sdk_unit_test/smart_device_rev_c/libsdk_unit_test.a(pcie_test_rc.o)
                              /home/leon/git/swp-report/iMX6_Platform_SDK/output/mx6dq/sdk_unit_test/smart_device_rev_c/obj/apps/sdk_unit_test/src/all_test.o (pcie_test)
/home/leon/git/swp-report/iMX6_Platform_SDK/output/mx6dq/sdk_unit_test/smart_device_rev_c/libsdk_unit_test.a(usb_test.o)
                              /home/leon/git/swp-report/iMX6_Platform_SDK/output/mx6dq/sdk_unit_test/smart_device_rev_c/obj/apps/sdk_unit_test/src/all_test.o (usb_test)
/home/leon/git/swp-report/iMX6_Platform_SDK/output/mx6dq/sdk_unit_test/smart_device_rev_c/libsdk_unit_test.a(enet_test.o)
                              /home/leon/git/swp-report/iMX6_Platform_SDK/output/mx6dq/sdk_unit_test/smart_device_rev_c/obj/apps/sdk_unit_test/src/all_test.o (enet_test)
/home/leon/git/swp-report/iMX6_Platform_SDK/output/mx6dq/sdk_unit_test/smart_device_rev_c/libsdk_unit_test.a(spi_test.o)
                              /home/leon/git/swp-report/iMX6_Platform_SDK/output/mx6dq/sdk_unit_test/smart_device_rev_c/obj/apps/sdk_unit_test/src/all_test.o (spi_test)
/home/leon/git/swp-report/iMX6_Platform_SDK/output/mx6dq/sdk_unit_test/smart_device_rev_c/libsdk_unit_test.a(accelerometer_test.o)
                              /home/leon/git/swp-report/iMX6_Platform_SDK/output/mx6dq/sdk_unit_test/smart_device_rev_c/obj/apps/sdk_unit_test/src/all_test.o (accelerometer_test)
/home/leon/git/swp-report/iMX6_Platform_SDK/output/mx6dq/sdk_unit_test/smart_device_rev_c/libsdk_unit_test.a(sata_test.o)
                              /home/leon/git/swp-report/iMX6_Platform_SDK/output/mx6dq/sdk_unit_test/smart_device_rev_c/obj/apps/sdk_unit_test/src/all_test.o (sata_test)
/home/leon/git/swp-report/iMX6_Platform_SDK/output/mx6dq/sdk_unit_test/smart_device_rev_c/libsdk_unit_test.a(at24cxx.o)
                              /home/leon/git/swp-report/iMX6_Platform_SDK/output/mx6dq/sdk_unit_test/smart_device_rev_c/libsdk_unit_test.a(i2c_test.o) (i2c_eeprom_at24cxx_test)
/home/leon/git/swp-report/iMX6_Platform_SDK/output/mx6dq/sdk_unit_test/smart_device_rev_c/libsdk_unit_test.a(mem_2_mem.o)
                              /home/leon/git/swp-report/iMX6_Platform_SDK/output/mx6dq/sdk_unit_test/smart_device_rev_c/libsdk_unit_test.a(sdma_test.o) (mem_2_mem_test)
/home/leon/git/swp-report/iMX6_Platform_SDK/output/mx6dq/sdk_unit_test/smart_device_rev_c/libsdk_unit_test.a(pwm_output.o)
                              /home/leon/git/swp-report/iMX6_Platform_SDK/output/mx6dq/sdk_unit_test/smart_device_rev_c/libsdk_unit_test.a(pwm_test.o) (pwm_output_test)
/home/leon/git/swp-report/iMX6_Platform_SDK/output/mx6dq/sdk_unit_test/smart_device_rev_c/libsdk_unit_test.a(ips_combiner.o)
                              /home/leon/git/swp-report/iMX6_Platform_SDK/output/mx6dq/sdk_unit_test/smart_device_rev_c/libsdk_unit_test.a(ips_test.o) (ips_combiner_test)
/home/leon/git/swp-report/iMX6_Platform_SDK/output/mx6dq/sdk_unit_test/smart_device_rev_c/libsdk_unit_test.a(ips_csc.o)
                              /home/leon/git/swp-report/iMX6_Platform_SDK/output/mx6dq/sdk_unit_test/smart_device_rev_c/libsdk_unit_test.a(ips_test.o) (ips_csc_test)
/home/leon/git/swp-report/iMX6_Platform_SDK/output/mx6dq/sdk_unit_test/smart_device_rev_c/libsdk_unit_test.a(ips_resize.o)
                              /home/leon/git/swp-report/iMX6_Platform_SDK/output/mx6dq/sdk_unit_test/smart_device_rev_c/libsdk_unit_test.a(ips_test.o) (ips_resize_test)
/home/leon/git/swp-report/iMX6_Platform_SDK/output/mx6dq/sdk_unit_test/smart_device_rev_c/libsdk_unit_test.a(ips_rotate.o)
                              /home/leon/git/swp-report/iMX6_Platform_SDK/output/mx6dq/sdk_unit_test/smart_device_rev_c/libsdk_unit_test.a(ips_test.o) (ips_rotate_test)
/home/leon/git/swp-report/iMX6_Platform_SDK/output/mx6dq/sdk_unit_test/smart_device_rev_c/libsdk_unit_test.a(usb0_device_mouse_test.o)
                              /home/leon/git/swp-report/iMX6_Platform_SDK/output/mx6dq/sdk_unit_test/smart_device_rev_c/libsdk_unit_test.a(usb_test.o) (usb0_device_mouse_test)
/home/leon/git/swp-report/iMX6_Platform_SDK/output/mx6dq/sdk_unit_test/smart_device_rev_c/libsdk_unit_test.a(usb0_host_test.o)
                              /home/leon/git/swp-report/iMX6_Platform_SDK/output/mx6dq/sdk_unit_test/smart_device_rev_c/libsdk_unit_test.a(usb_test.o) (usb0_host_test)
/home/leon/git/swp-report/iMX6_Platform_SDK/output/mx6dq/sdk_unit_test/smart_device_rev_c/libsdk_unit_test.a(usb0_host_testmodes_test.o)
                              /home/leon/git/swp-report/iMX6_Platform_SDK/output/mx6dq/sdk_unit_test/smart_device_rev_c/libsdk_unit_test.a(usb_test.o) (usb0_host_testmodes_test)
/home/leon/git/swp-report/iMX6_Platform_SDK/output/mx6dq/sdk_unit_test/smart_device_rev_c/libsdk_unit_test.a(spi_nor_numonyx.o)
                              /home/leon/git/swp-report/iMX6_Platform_SDK/output/mx6dq/sdk_unit_test/smart_device_rev_c/libsdk_unit_test.a(spi_test.o) (spi_nor_query_numonyx)
/home/leon/riotboard/arm-2012.09/bin/../arm-none-eabi/lib//libm.a(lib_a-sf_cos.o)
                              /home/leon/git/swp-report/iMX6_Platform_SDK/output/mx6dq/sdk_unit_test/smart_device_rev_c/libsdk_unit_test.a(usb0_device_mouse_test.o) (cosf)
/home/leon/riotboard/arm-2012.09/bin/../arm-none-eabi/lib//libm.a(lib_a-sf_fabs.o)
                              /home/leon/git/swp-report/iMX6_Platform_SDK/output/mx6dq/sdk_unit_test/smart_device_rev_c/libsdk_unit_test.a(accelerometer_test.o) (fabsf)
/home/leon/riotboard/arm-2012.09/bin/../arm-none-eabi/lib//libm.a(lib_a-sf_modf.o)
                              /home/leon/git/swp-report/iMX6_Platform_SDK/output/mx6dq/sdk_unit_test/smart_device_rev_c/libsdk_unit_test.a(accelerometer_test.o) (modff)
/home/leon/riotboard/arm-2012.09/bin/../arm-none-eabi/lib//libm.a(lib_a-sf_sin.o)
                              /home/leon/git/swp-report/iMX6_Platform_SDK/output/mx6dq/sdk_unit_test/smart_device_rev_c/libsdk_unit_test.a(usb0_device_mouse_test.o) (sinf)
/home/leon/riotboard/arm-2012.09/bin/../arm-none-eabi/lib//libm.a(lib_a-ef_rem_pio2.o)
                              /home/leon/riotboard/arm-2012.09/bin/../arm-none-eabi/lib//libm.a(lib_a-sf_cos.o) (__ieee754_rem_pio2f)
/home/leon/riotboard/arm-2012.09/bin/../arm-none-eabi/lib//libm.a(lib_a-kf_cos.o)
                              /home/leon/riotboard/arm-2012.09/bin/../arm-none-eabi/lib//libm.a(lib_a-sf_cos.o) (__kernel_cosf)
/home/leon/riotboard/arm-2012.09/bin/../arm-none-eabi/lib//libm.a(lib_a-kf_rem_pio2.o)
                              /home/leon/riotboard/arm-2012.09/bin/../arm-none-eabi/lib//libm.a(lib_a-ef_rem_pio2.o) (__kernel_rem_pio2f)
/home/leon/riotboard/arm-2012.09/bin/../arm-none-eabi/lib//libm.a(lib_a-kf_sin.o)
                              /home/leon/riotboard/arm-2012.09/bin/../arm-none-eabi/lib//libm.a(lib_a-sf_cos.o) (__kernel_sinf)
/home/leon/riotboard/arm-2012.09/bin/../arm-none-eabi/lib//libm.a(lib_a-sf_floor.o)
                              /home/leon/riotboard/arm-2012.09/bin/../arm-none-eabi/lib//libm.a(lib_a-kf_rem_pio2.o) (floorf)
/home/leon/riotboard/arm-2012.09/bin/../arm-none-eabi/lib//libm.a(lib_a-sf_scalbn.o)
                              /home/leon/riotboard/arm-2012.09/bin/../arm-none-eabi/lib//libm.a(lib_a-kf_rem_pio2.o) (scalbnf)
/home/leon/riotboard/arm-2012.09/bin/../arm-none-eabi/lib//libm.a(lib_a-sf_copysign.o)
                              /home/leon/riotboard/arm-2012.09/bin/../arm-none-eabi/lib//libm.a(lib_a-sf_scalbn.o) (copysignf)
/home/leon/riotboard/arm-2012.09/bin/../arm-none-eabi/lib//libc.a(lib_a-assert.o)
                              /home/leon/git/swp-report/iMX6_Platform_SDK/output/mx6dq/lib/libsdk.a(gic.o) (__assert_func)
/home/leon/riotboard/arm-2012.09/bin/../arm-none-eabi/lib//libc.a(lib_a-bzero.o)
                              /home/leon/git/swp-report/iMX6_Platform_SDK/output/mx6dq/lib/libsdk.a(mmu.o) (bzero)
/home/leon/riotboard/arm-2012.09/bin/../arm-none-eabi/lib//libc.a(lib_a-fflush.o)
                              /home/leon/git/swp-report/iMX6_Platform_SDK/output/mx6dq/sdk_unit_test/smart_device_rev_c/libsdk_unit_test.a(accelerometer_test.o) (fflush)
/home/leon/riotboard/arm-2012.09/bin/../arm-none-eabi/lib//libc.a(lib_a-findfp.o)
                              /home/leon/riotboard/arm-2012.09/bin/../arm-none-eabi/lib//libc.a(lib_a-fflush.o) (__sinit)
/home/leon/riotboard/arm-2012.09/bin/../arm-none-eabi/lib//libc.a(lib_a-fiprintf.o)
                              /home/leon/riotboard/arm-2012.09/bin/../arm-none-eabi/lib//libc.a(lib_a-assert.o) (fiprintf)
/home/leon/riotboard/arm-2012.09/bin/../arm-none-eabi/lib//libc.a(lib_a-fputc.o)
                              /home/leon/git/swp-report/iMX6_Platform_SDK/output/mx6dq/lib/libsdk.a(menu.o) (fputc)
/home/leon/riotboard/arm-2012.09/bin/../arm-none-eabi/lib//libc.a(lib_a-fputs.o)
                              /home/leon/git/swp-report/iMX6_Platform_SDK/output/mx6dq/sdk_unit_test/smart_device_rev_c/libsdk_unit_test.a(accelerometer_test.o) (fputs)
/home/leon/riotboard/arm-2012.09/bin/../arm-none-eabi/lib//libc.a(lib_a-freer.o)
                              /home/leon/riotboard/arm-2012.09/bin/../arm-none-eabi/lib//libc.a(lib_a-fflush.o) (_free_r)
/home/leon/riotboard/arm-2012.09/bin/../arm-none-eabi/lib//libc.a(lib_a-fvwrite.o)
                              /home/leon/riotboard/arm-2012.09/bin/../arm-none-eabi/lib//libc.a(lib_a-fputs.o) (__sfvwrite_r)
/home/leon/riotboard/arm-2012.09/bin/../arm-none-eabi/lib//libc.a(lib_a-fwalk.o)
                              /home/leon/riotboard/arm-2012.09/bin/../arm-none-eabi/lib//libc.a(lib_a-findfp.o) (_fwalk)
/home/leon/riotboard/arm-2012.09/bin/../arm-none-eabi/lib//libc.a(lib_a-impure.o)
                              /home/leon/riotboard/arm-2012.09/bin/../arm-none-eabi/lib//libc.a(lib_a-fflush.o) (_global_impure_ptr)
/home/leon/riotboard/arm-2012.09/bin/../arm-none-eabi/lib//libc.a(lib_a-init.o)
                              /home/leon/git/swp-report/iMX6_Platform_SDK/output/mx6dq/lib/libsdk.a(startup.o) (__libc_init_array)
/home/leon/riotboard/arm-2012.09/bin/../arm-none-eabi/lib//libc.a(lib_a-malloc.o)
                              /home/leon/git/swp-report/iMX6_Platform_SDK/output/mx6dq/lib/libsdk.a(system_util.o) (malloc)
/home/leon/riotboard/arm-2012.09/bin/../arm-none-eabi/lib//libc.a(lib_a-mallocr.o)
                              /home/leon/riotboard/arm-2012.09/bin/../arm-none-eabi/lib//libc.a(lib_a-findfp.o) (_malloc_r)
/home/leon/riotboard/arm-2012.09/bin/../arm-none-eabi/lib//libc.a(lib_a-memchr.o)
                              /home/leon/riotboard/arm-2012.09/bin/../arm-none-eabi/lib//libc.a(lib_a-fvwrite.o) (memchr)
/home/leon/riotboard/arm-2012.09/bin/../arm-none-eabi/lib//libc.a(lib_a-memcpy.o)
                              /home/leon/git/swp-report/iMX6_Platform_SDK/output/mx6dq/lib/libsdk.a(menu.o) (memcpy)
/home/leon/riotboard/arm-2012.09/bin/../arm-none-eabi/lib//libc.a(lib_a-memmove.o)
                              /home/leon/riotboard/arm-2012.09/bin/../arm-none-eabi/lib//libc.a(lib_a-fvwrite.o) (memmove)
/home/leon/riotboard/arm-2012.09/bin/../arm-none-eabi/lib//libc.a(lib_a-memset.o)
                              /home/leon/git/swp-report/iMX6_Platform_SDK/output/mx6dq/sdk_unit_test/smart_device_rev_c/obj/apps/common/print_version.o (memset)
/home/leon/riotboard/arm-2012.09/bin/../arm-none-eabi/lib//libc.a(lib_a-mlock.o)
                              /home/leon/riotboard/arm-2012.09/bin/../arm-none-eabi/lib//libc.a(lib_a-freer.o) (__malloc_lock)
/home/leon/riotboard/arm-2012.09/bin/../arm-none-eabi/lib//libc.a(lib_a-printf.o)
                              /home/leon/git/swp-report/iMX6_Platform_SDK/output/mx6dq/sdk_unit_test/smart_device_rev_c/obj/apps/common/print_clock_info.o (printf)
/home/leon/riotboard/arm-2012.09/bin/../arm-none-eabi/lib//libc.a(lib_a-putc.o)
                              /home/leon/riotboard/arm-2012.09/bin/../arm-none-eabi/lib//libc.a(lib_a-fputc.o) (_putc_r)
/home/leon/riotboard/arm-2012.09/bin/../arm-none-eabi/lib//libc.a(lib_a-realloc.o)
                              /home/leon/git/swp-report/iMX6_Platform_SDK/output/mx6dq/lib/libsdk.a(system_util.o) (realloc)
/home/leon/riotboard/arm-2012.09/bin/../arm-none-eabi/lib//libc.a(lib_a-reallocr.o)
                              /home/leon/riotboard/arm-2012.09/bin/../arm-none-eabi/lib//libc.a(lib_a-fvwrite.o) (_realloc_r)
/home/leon/riotboard/arm-2012.09/bin/../arm-none-eabi/lib//libc.a(lib_a-rget.o)
                              /home/leon/git/swp-report/iMX6_Platform_SDK/output/mx6dq/lib/libsdk.a(menu.o) (__srget_r)
/home/leon/riotboard/arm-2012.09/bin/../arm-none-eabi/lib//libc.a(lib_a-sbrkr.o)
                              /home/leon/riotboard/arm-2012.09/bin/../arm-none-eabi/lib//libc.a(lib_a-freer.o) (_sbrk_r)
/home/leon/riotboard/arm-2012.09/bin/../arm-none-eabi/lib//libc.a(lib_a-sprintf.o)
                              /home/leon/git/swp-report/iMX6_Platform_SDK/output/mx6dq/lib/libsdk.a(board_id.o) (sprintf)
/home/leon/riotboard/arm-2012.09/bin/../arm-none-eabi/lib//libc.a(lib_a-stdio.o)
                              /home/leon/riotboard/arm-2012.09/bin/../arm-none-eabi/lib//libc.a(lib_a-findfp.o) (__sread)
/home/leon/riotboard/arm-2012.09/bin/../arm-none-eabi/lib//libc.a(lib_a-strlen.o)
                              /home/leon/git/swp-report/iMX6_Platform_SDK/output/mx6dq/lib/libsdk.a(menu.o) (strlen)
/home/leon/riotboard/arm-2012.09/bin/../arm-none-eabi/lib//libc.a(lib_a-strncasecmp.o)
                              /home/leon/git/swp-report/iMX6_Platform_SDK/output/mx6dq/lib/libsdk.a(menu.o) (strncasecmp)
/home/leon/riotboard/arm-2012.09/bin/../arm-none-eabi/lib//libc.a(lib_a-svfprintf.o)
                              /home/leon/riotboard/arm-2012.09/bin/../arm-none-eabi/lib//libc.a(lib_a-sprintf.o) (_svfprintf_r)
/home/leon/riotboard/arm-2012.09/bin/../arm-none-eabi/lib//libc.a(lib_a-vfiprintf.o)
                              /home/leon/riotboard/arm-2012.09/bin/../arm-none-eabi/lib//libc.a(lib_a-fiprintf.o) (_vfiprintf_r)
/home/leon/riotboard/arm-2012.09/bin/../arm-none-eabi/lib//libc.a(lib_a-vfprintf.o)
                              /home/leon/riotboard/arm-2012.09/bin/../arm-none-eabi/lib//libc.a(lib_a-printf.o) (_vfprintf_r)
/home/leon/riotboard/arm-2012.09/bin/../arm-none-eabi/lib//libc.a(lib_a-vprintf.o)
                              /home/leon/git/swp-report/iMX6_Platform_SDK/output/mx6dq/lib/libsdk.a(text_color.o) (vprintf)
/home/leon/riotboard/arm-2012.09/bin/../arm-none-eabi/lib//libc.a(lib_a-wbuf.o)
                              /home/leon/riotboard/arm-2012.09/bin/../arm-none-eabi/lib//libc.a(lib_a-putc.o) (__swbuf_r)
/home/leon/riotboard/arm-2012.09/bin/../arm-none-eabi/lib//libc.a(lib_a-writer.o)
                              /home/leon/riotboard/arm-2012.09/bin/../arm-none-eabi/lib//libc.a(lib_a-stdio.o) (_write_r)
/home/leon/riotboard/arm-2012.09/bin/../arm-none-eabi/lib//libc.a(lib_a-wsetup.o)
                              /home/leon/riotboard/arm-2012.09/bin/../arm-none-eabi/lib//libc.a(lib_a-fvwrite.o) (__swsetup_r)
/home/leon/riotboard/arm-2012.09/bin/../arm-none-eabi/lib//libc.a(lib_a-abort.o)
                              /home/leon/riotboard/arm-2012.09/bin/../arm-none-eabi/lib//libc.a(lib_a-assert.o) (abort)
/home/leon/riotboard/arm-2012.09/bin/../arm-none-eabi/lib//libc.a(lib_a-closer.o)
                              /home/leon/riotboard/arm-2012.09/bin/../arm-none-eabi/lib//libc.a(lib_a-stdio.o) (_close_r)
/home/leon/riotboard/arm-2012.09/bin/../arm-none-eabi/lib//libc.a(lib_a-ctype_.o)
                              /home/leon/riotboard/arm-2012.09/bin/../arm-none-eabi/lib//libc.a(lib_a-strncasecmp.o) (__ctype_ptr__)
/home/leon/riotboard/arm-2012.09/bin/../arm-none-eabi/lib//libc.a(lib_a-dtoa.o)
                              /home/leon/riotboard/arm-2012.09/bin/../arm-none-eabi/lib//libc.a(lib_a-svfprintf.o) (_dtoa_r)
/home/leon/riotboard/arm-2012.09/bin/../arm-none-eabi/lib//libc.a(lib_a-fclose.o)
                              /home/leon/riotboard/arm-2012.09/bin/../arm-none-eabi/lib//libc.a(lib_a-findfp.o) (fclose)
/home/leon/riotboard/arm-2012.09/bin/../arm-none-eabi/lib//libc.a(lib_a-fputwc.o)
                              /home/leon/riotboard/arm-2012.09/bin/../arm-none-eabi/lib//libc.a(lib_a-vfiprintf.o) (_fputwc_r)
/home/leon/riotboard/arm-2012.09/bin/../arm-none-eabi/lib//libc.a(lib_a-locale.o)
                              /home/leon/riotboard/arm-2012.09/bin/../arm-none-eabi/lib//libc.a(lib_a-fputwc.o) (__locale_mb_cur_max)
/home/leon/riotboard/arm-2012.09/bin/../arm-none-eabi/lib//libc.a(lib_a-lseekr.o)
                              /home/leon/riotboard/arm-2012.09/bin/../arm-none-eabi/lib//libc.a(lib_a-stdio.o) (_lseek_r)
/home/leon/riotboard/arm-2012.09/bin/../arm-none-eabi/lib//libc.a(lib_a-makebuf.o)
                              /home/leon/riotboard/arm-2012.09/bin/../arm-none-eabi/lib//libc.a(lib_a-wsetup.o) (__smakebuf_r)
/home/leon/riotboard/arm-2012.09/bin/../arm-none-eabi/lib//libc.a(lib_a-mprec.o)
                              /home/leon/riotboard/arm-2012.09/bin/../arm-none-eabi/lib//libc.a(lib_a-dtoa.o) (_Balloc)
/home/leon/riotboard/arm-2012.09/bin/../arm-none-eabi/lib//libc.a(lib_a-readr.o)
                              /home/leon/riotboard/arm-2012.09/bin/../arm-none-eabi/lib//libc.a(lib_a-stdio.o) (_read_r)
/home/leon/riotboard/arm-2012.09/bin/../arm-none-eabi/lib//libc.a(lib_a-reent.o)
                              /home/leon/riotboard/arm-2012.09/bin/../arm-none-eabi/lib//libc.a(lib_a-sbrkr.o) (errno)
/home/leon/riotboard/arm-2012.09/bin/../arm-none-eabi/lib//libc.a(lib_a-refill.o)
                              /home/leon/riotboard/arm-2012.09/bin/../arm-none-eabi/lib//libc.a(lib_a-rget.o) (__srefill_r)
/home/leon/riotboard/arm-2012.09/bin/../arm-none-eabi/lib//libc.a(lib_a-s_fpclassify.o)
                              /home/leon/riotboard/arm-2012.09/bin/../arm-none-eabi/lib//libc.a(lib_a-svfprintf.o) (__fpclassifyd)
/home/leon/riotboard/arm-2012.09/bin/../arm-none-eabi/lib//libc.a(lib_a-signal.o)
                              /home/leon/riotboard/arm-2012.09/bin/../arm-none-eabi/lib//libc.a(lib_a-abort.o) (raise)
/home/leon/riotboard/arm-2012.09/bin/../arm-none-eabi/lib//libc.a(lib_a-signalr.o)
                              /home/leon/riotboard/arm-2012.09/bin/../arm-none-eabi/lib//libc.a(lib_a-signal.o) (_kill_r)
/home/leon/riotboard/arm-2012.09/bin/../arm-none-eabi/lib//libc.a(lib_a-strcmp.o)
                              /home/leon/riotboard/arm-2012.09/bin/../arm-none-eabi/lib//libc.a(lib_a-locale.o) (strcmp)
/home/leon/riotboard/arm-2012.09/bin/../arm-none-eabi/lib//libc.a(lib_a-svfiprintf.o)
                              /home/leon/riotboard/arm-2012.09/bin/../arm-none-eabi/lib//libc.a(lib_a-svfprintf.o) (__ssprint_r)
/home/leon/riotboard/arm-2012.09/bin/../arm-none-eabi/lib//libc.a(lib_a-wcrtomb.o)
                              /home/leon/riotboard/arm-2012.09/bin/../arm-none-eabi/lib//libc.a(lib_a-fputwc.o) (_wcrtomb_r)
/home/leon/riotboard/arm-2012.09/bin/../arm-none-eabi/lib//libc.a(lib_a-wctomb_r.o)
                              /home/leon/riotboard/arm-2012.09/bin/../arm-none-eabi/lib//libc.a(lib_a-wcrtomb.o) (__wctomb)
/home/leon/riotboard/arm-2012.09/bin/../arm-none-eabi/lib//libc.a(lib_a-callocr.o)
                              /home/leon/riotboard/arm-2012.09/bin/../arm-none-eabi/lib//libc.a(lib_a-mprec.o) (_calloc_r)
/home/leon/riotboard/arm-2012.09/bin/../arm-none-eabi/lib//libc.a(lib_a-fstatr.o)
                              /home/leon/riotboard/arm-2012.09/bin/../arm-none-eabi/lib//libc.a(lib_a-makebuf.o) (_fstat_r)
/home/leon/riotboard/arm-2012.09/bin/../arm-none-eabi/lib//libc.a(lib_a-isattyr.o)
                              /home/leon/riotboard/arm-2012.09/bin/../arm-none-eabi/lib//libc.a(lib_a-makebuf.o) (_isatty_r)
/home/leon/riotboard/arm-2012.09/bin/../lib/gcc/arm-none-eabi/4.7.2//libgcc.a(_udivsi3.o)
                              /home/leon/git/swp-report/iMX6_Platform_SDK/output/mx6dq/lib/libsdk.a(ccm_pll.o) (__aeabi_uidiv)
/home/leon/riotboard/arm-2012.09/bin/../lib/gcc/arm-none-eabi/4.7.2//libgcc.a(_dvmd_tls.o)
                              /home/leon/riotboard/arm-2012.09/bin/../lib/gcc/arm-none-eabi/4.7.2//libgcc.a(_udivsi3.o) (__aeabi_idiv0)
/home/leon/riotboard/arm-2012.09/bin/../lib/gcc/arm-none-eabi/4.7.2//libgcc.a(_arm_addsubdf3.o)
                              /home/leon/riotboard/arm-2012.09/bin/../arm-none-eabi/lib//libc.a(lib_a-dtoa.o) (__aeabi_dsub)
/home/leon/riotboard/arm-2012.09/bin/../lib/gcc/arm-none-eabi/4.7.2//libgcc.a(_arm_muldivdf3.o)
                              /home/leon/riotboard/arm-2012.09/bin/../arm-none-eabi/lib//libc.a(lib_a-dtoa.o) (__aeabi_dmul)
/home/leon/riotboard/arm-2012.09/bin/../lib/gcc/arm-none-eabi/4.7.2//libgcc.a(_arm_cmpdf2.o)
                              /home/leon/riotboard/arm-2012.09/bin/../arm-none-eabi/lib//libc.a(lib_a-svfprintf.o) (__aeabi_dcmpeq)
/home/leon/riotboard/arm-2012.09/bin/../lib/gcc/arm-none-eabi/4.7.2//libgcc.a(_arm_fixdfsi.o)
                              /home/leon/riotboard/arm-2012.09/bin/../arm-none-eabi/lib//libc.a(lib_a-dtoa.o) (__aeabi_d2iz)
/home/leon/riotboard/arm-2012.09/bin/../lib/gcc/arm-none-eabi/4.7.2//libgcc.a(_arm_addsubsf3.o)
                              /home/leon/riotboard/arm-2012.09/bin/../arm-none-eabi/lib//libm.a(lib_a-sf_cos.o) (__aeabi_fsub)
/home/leon/riotboard/arm-2012.09/bin/../lib/gcc/arm-none-eabi/4.7.2//libgcc.a(_arm_muldivsf3.o)
                              /home/leon/riotboard/arm-2012.09/bin/../arm-none-eabi/lib//libm.a(lib_a-ef_rem_pio2.o) (__aeabi_fmul)
/home/leon/riotboard/arm-2012.09/bin/../lib/gcc/arm-none-eabi/4.7.2//libgcc.a(_arm_cmpsf2.o)
                              /home/leon/riotboard/arm-2012.09/bin/../arm-none-eabi/lib//libm.a(lib_a-ef_rem_pio2.o) (__aeabi_fcmpeq)
/home/leon/riotboard/arm-2012.09/bin/../lib/gcc/arm-none-eabi/4.7.2//libgcc.a(_arm_fixsfsi.o)
                              /home/leon/riotboard/arm-2012.09/bin/../arm-none-eabi/lib//libm.a(lib_a-ef_rem_pio2.o) (__aeabi_f2iz)
/home/leon/riotboard/arm-2012.09/bin/../lib/gcc/arm-none-eabi/4.7.2//libgcc.a(_aeabi_uldivmod.o)
                              /home/leon/git/swp-report/iMX6_Platform_SDK/output/mx6dq/lib/libsdk.a(timer.o) (__aeabi_uldivmod)
/home/leon/riotboard/arm-2012.09/bin/../lib/gcc/arm-none-eabi/4.7.2//libgcc.a(bpabi.o)
                              /home/leon/riotboard/arm-2012.09/bin/../lib/gcc/arm-none-eabi/4.7.2//libgcc.a(_aeabi_uldivmod.o) (__gnu_uldivmod_helper)
/home/leon/riotboard/arm-2012.09/bin/../lib/gcc/arm-none-eabi/4.7.2//libgcc.a(_divdi3.o)
                              /home/leon/riotboard/arm-2012.09/bin/../lib/gcc/arm-none-eabi/4.7.2//libgcc.a(bpabi.o) (__divdi3)
/home/leon/riotboard/arm-2012.09/bin/../lib/gcc/arm-none-eabi/4.7.2//libgcc.a(_udivdi3.o)
                              /home/leon/riotboard/arm-2012.09/bin/../lib/gcc/arm-none-eabi/4.7.2//libgcc.a(bpabi.o) (__udivdi3)
/home/leon/riotboard/arm-2012.09/bin/../lib/gcc/arm-none-eabi/4.7.2//libgcc.a(_clzsi2.o)
                              /home/leon/riotboard/arm-2012.09/bin/../lib/gcc/arm-none-eabi/4.7.2//libgcc.a(_divdi3.o) (__clzsi2)
/home/leon/git/swp-report/iMX6_Platform_SDK/output/mx6dq/lib/libsdk.a(profile.o)
                              /home/leon/git/swp-report/iMX6_Platform_SDK/output/mx6dq/sdk_unit_test/smart_device_rev_c/libsdk_unit_test.a(mem_2_mem.o) (StartPerfCounter)
/home/leon/git/swp-report/iMX6_Platform_SDK/output/mx6dq/lib/libsdk.a(armv7_cache.o)
                              /home/leon/git/swp-report/iMX6_Platform_SDK/output/mx6dq/sdk_unit_test/smart_device_rev_c/libsdk_unit_test.a(cpu_wp_test.o) (arm_dcache_state_query)
/home/leon/git/swp-report/iMX6_Platform_SDK/output/mx6dq/lib/libsdk.a(runtime_support.o)
                              /home/leon/riotboard/arm-2012.09/bin/../arm-none-eabi/lib//libc.a(lib_a-isattyr.o) (_isatty)
/home/leon/git/swp-report/iMX6_Platform_SDK/output/mx6dq/lib/libsdk.a(mma8451.o)
                              /home/leon/git/swp-report/iMX6_Platform_SDK/output/mx6dq/sdk_unit_test/smart_device_rev_c/libsdk_unit_test.a(accelerometer_test.o) (mma8451_init)
/home/leon/git/swp-report/iMX6_Platform_SDK/output/mx6dq/lib/libsdk.a(smd_sensor.o)
                              /home/leon/git/swp-report/iMX6_Platform_SDK/output/mx6dq/sdk_unit_test/smart_device_rev_c/libsdk_unit_test.a(sensor_capture.o) (sensor_config)
/home/leon/git/swp-report/iMX6_Platform_SDK/output/mx6dq/lib/libsdk.a(cpu_get_cores.o)
                              /home/leon/git/swp-report/iMX6_Platform_SDK/output/mx6dq/sdk_unit_test/smart_device_rev_c/libsdk_unit_test.a(multicore_test.o) (cpu_get_cores)
/home/leon/git/swp-report/iMX6_Platform_SDK/output/mx6dq/lib/libsdk.a(cpu_multicore.o)
                              /home/leon/git/swp-report/iMX6_Platform_SDK/output/mx6dq/sdk_unit_test/smart_device_rev_c/libsdk_unit_test.a(multicore_test.o) (cpu_start_secondary)
/home/leon/git/swp-report/iMX6_Platform_SDK/output/mx6dq/lib/libsdk.a(cpu_workpoint.o)
                              /home/leon/git/swp-report/iMX6_Platform_SDK/output/mx6dq/sdk_unit_test/smart_device_rev_c/libsdk_unit_test.a(cpu_wp_test.o) (cpu_workpoint_set)
/home/leon/git/swp-report/iMX6_Platform_SDK/output/mx6dq/lib/libsdk.a(enet_drv.o)
                              /home/leon/git/swp-report/iMX6_Platform_SDK/output/mx6dq/sdk_unit_test/smart_device_rev_c/libsdk_unit_test.a(enet_test.o) (imx_enet_phy_init)
/home/leon/git/swp-report/iMX6_Platform_SDK/output/mx6dq/lib/libsdk.a(gpio.o)
                              /home/leon/git/swp-report/iMX6_Platform_SDK/output/mx6dq/sdk_unit_test/smart_device_rev_c/libsdk_unit_test.a(accelerometer_test.o) (gpio_set_gpio)
/home/leon/git/swp-report/iMX6_Platform_SDK/output/mx6dq/lib/libsdk.a(imx6dq_gpio_map.o)
                              /home/leon/git/swp-report/iMX6_Platform_SDK/output/mx6dq/lib/libsdk.a(gpio.o) (k_gpio_mux_registers)
/home/leon/git/swp-report/iMX6_Platform_SDK/output/mx6dq/lib/libsdk.a(hdmi_tx.o)
                              /home/leon/git/swp-report/iMX6_Platform_SDK/output/mx6dq/sdk_unit_test/smart_device_rev_c/libsdk_unit_test.a(hdmi_test.o) (hdmi_config_input_source)
/home/leon/git/swp-report/iMX6_Platform_SDK/output/mx6dq/lib/libsdk.a(hdmi_tx_audio.o)
                              /home/leon/git/swp-report/iMX6_Platform_SDK/output/mx6dq/sdk_unit_test/smart_device_rev_c/libsdk_unit_test.a(hdmi_test.o) (hdmi_audio_mute)
/home/leon/git/swp-report/iMX6_Platform_SDK/output/mx6dq/lib/libsdk.a(hdmi_tx_phy.o)
                              /home/leon/git/swp-report/iMX6_Platform_SDK/output/mx6dq/sdk_unit_test/smart_device_rev_c/libsdk_unit_test.a(hdmi_test.o) (hdmi_phy_init)
/home/leon/git/swp-report/iMX6_Platform_SDK/output/mx6dq/lib/libsdk.a(imx_i2c.o)
                              /home/leon/git/swp-report/iMX6_Platform_SDK/output/mx6dq/lib/libsdk.a(smd_sensor.o) (i2c_xfer)
/home/leon/git/swp-report/iMX6_Platform_SDK/output/mx6dq/lib/libsdk.a(imx_i2c_slave.o)
                              /home/leon/git/swp-report/iMX6_Platform_SDK/output/mx6dq/sdk_unit_test/smart_device_rev_c/libsdk_unit_test.a(imx6_i2c_device.o) (i2c_slave_xfer)
/home/leon/git/swp-report/iMX6_Platform_SDK/output/mx6dq/lib/libsdk.a(ips_disp_panel.o)
                              /home/leon/git/swp-report/iMX6_Platform_SDK/output/mx6dq/sdk_unit_test/smart_device_rev_c/libsdk_unit_test.a(ips_display.o) (search_panel)
/home/leon/git/swp-report/iMX6_Platform_SDK/output/mx6dq/lib/libsdk.a(ipu_common.o)
                              /home/leon/git/swp-report/iMX6_Platform_SDK/output/mx6dq/sdk_unit_test/smart_device_rev_c/libsdk_unit_test.a(ips_display.o) (ipu_enable_display)
/home/leon/git/swp-report/iMX6_Platform_SDK/output/mx6dq/lib/libsdk.a(ipu_csi.o)
                              /home/leon/git/swp-report/iMX6_Platform_SDK/output/mx6dq/lib/libsdk.a(ipu_common.o) (ipu_csi_config)
/home/leon/git/swp-report/iMX6_Platform_SDK/output/mx6dq/lib/libsdk.a(ipu_dc.o)
                              /home/leon/git/swp-report/iMX6_Platform_SDK/output/mx6dq/lib/libsdk.a(ipu_common.o) (ipu_dc_config)
/home/leon/git/swp-report/iMX6_Platform_SDK/output/mx6dq/lib/libsdk.a(ipu_di.o)
                              /home/leon/git/swp-report/iMX6_Platform_SDK/output/mx6dq/lib/libsdk.a(ipu_common.o) (ipu_di_config)
/home/leon/git/swp-report/iMX6_Platform_SDK/output/mx6dq/lib/libsdk.a(ipu_dmfc.o)
                              /home/leon/git/swp-report/iMX6_Platform_SDK/output/mx6dq/lib/libsdk.a(ipu_common.o) (ipu_dmfc_config)
/home/leon/git/swp-report/iMX6_Platform_SDK/output/mx6dq/lib/libsdk.a(ipu_dp.o)
                              /home/leon/git/swp-report/iMX6_Platform_SDK/output/mx6dq/sdk_unit_test/smart_device_rev_c/libsdk_unit_test.a(ips_combiner.o) (ipu_dp_config)
/home/leon/git/swp-report/iMX6_Platform_SDK/output/mx6dq/lib/libsdk.a(ipu_ic.o)
                              /home/leon/git/swp-report/iMX6_Platform_SDK/output/mx6dq/sdk_unit_test/smart_device_rev_c/libsdk_unit_test.a(ips_csc.o) (ipu_ic_enable)
/home/leon/git/swp-report/iMX6_Platform_SDK/output/mx6dq/lib/libsdk.a(ipu_idmac.o)
                              /home/leon/git/swp-report/iMX6_Platform_SDK/output/mx6dq/lib/libsdk.a(ipu_common.o) (ipu_cpmem_set_field)
/home/leon/git/swp-report/iMX6_Platform_SDK/output/mx6dq/lib/libsdk.a(ipu_vdi.o)
                              /home/leon/git/swp-report/iMX6_Platform_SDK/output/mx6dq/lib/libsdk.a(ipu_common.o) (ips_deinterlace_proc)
/home/leon/git/swp-report/iMX6_Platform_SDK/output/mx6dq/lib/libsdk.a(keypad_port.o)
                              /home/leon/git/swp-report/iMX6_Platform_SDK/output/mx6dq/sdk_unit_test/smart_device_rev_c/libsdk_unit_test.a(keypad_test.o) (kpp_get_keypad_state)
/home/leon/git/swp-report/iMX6_Platform_SDK/output/mx6dq/lib/libsdk.a(ldb.o)
                              /home/leon/git/swp-report/iMX6_Platform_SDK/output/mx6dq/lib/libsdk.a(ips_disp_panel.o) (ldb_config)
/home/leon/git/swp-report/iMX6_Platform_SDK/output/mx6dq/lib/libsdk.a(ocotp.o)
                              /home/leon/git/swp-report/iMX6_Platform_SDK/output/mx6dq/sdk_unit_test/smart_device_rev_c/libsdk_unit_test.a(ocotp_test.o) (ocotp_sense_fuse)
/home/leon/git/swp-report/iMX6_Platform_SDK/output/mx6dq/lib/libsdk.a(pcie.o)
                              /home/leon/git/swp-report/iMX6_Platform_SDK/output/mx6dq/sdk_unit_test/smart_device_rev_c/libsdk_unit_test.a(pcie_test_rc.o) (pcie_func_clk_setup)
/home/leon/git/swp-report/iMX6_Platform_SDK/output/mx6dq/lib/libsdk.a(pcie_phy.o)
                              /home/leon/git/swp-report/iMX6_Platform_SDK/output/mx6dq/lib/libsdk.a(pcie.o) (pcie_phy_cr_read)
/home/leon/git/swp-report/iMX6_Platform_SDK/output/mx6dq/lib/libsdk.a(pcie_prot.o)
                              /home/leon/git/swp-report/iMX6_Platform_SDK/output/mx6dq/sdk_unit_test/smart_device_rev_c/libsdk_unit_test.a(pcie_test_rc.o) (pcie_dump_cfg_header)
/home/leon/git/swp-report/iMX6_Platform_SDK/output/mx6dq/lib/libsdk.a(pmu_driver.o)
                              /home/leon/git/swp-report/iMX6_Platform_SDK/output/mx6dq/lib/libsdk.a(cpu_workpoint.o) (pmu_init)
/home/leon/git/swp-report/iMX6_Platform_SDK/output/mx6dq/lib/libsdk.a(pwm.o)
                              /home/leon/git/swp-report/iMX6_Platform_SDK/output/mx6dq/sdk_unit_test/smart_device_rev_c/libsdk_unit_test.a(pwm_output.o) (pwm_init)
/home/leon/git/swp-report/iMX6_Platform_SDK/output/mx6dq/lib/libsdk.a(rtc.o)
                              /home/leon/git/swp-report/iMX6_Platform_SDK/output/mx6dq/sdk_unit_test/smart_device_rev_c/libsdk_unit_test.a(snvs_rtc_test.o) (rtc_init)
/home/leon/git/swp-report/iMX6_Platform_SDK/output/mx6dq/lib/libsdk.a(srtc.o)
                              /home/leon/git/swp-report/iMX6_Platform_SDK/output/mx6dq/sdk_unit_test/smart_device_rev_c/libsdk_unit_test.a(snvs_srtc_test.o) (srtc_init)
/home/leon/git/swp-report/iMX6_Platform_SDK/output/mx6dq/lib/libsdk.a(sata.o)
                              /home/leon/git/swp-report/iMX6_Platform_SDK/output/mx6dq/sdk_unit_test/smart_device_rev_c/libsdk_unit_test.a(sata_test.o) (sata_disk_read_sector)
/home/leon/git/swp-report/iMX6_Platform_SDK/output/mx6dq/lib/libsdk.a(sdma.o)
                              /home/leon/git/swp-report/iMX6_Platform_SDK/output/mx6dq/sdk_unit_test/smart_device_rev_c/libsdk_unit_test.a(spi_lpb.o) (sdma_channel_start)
/home/leon/git/swp-report/iMX6_Platform_SDK/output/mx6dq/lib/libsdk.a(sdma_script_info.o)
                              /home/leon/git/swp-report/iMX6_Platform_SDK/output/mx6dq/lib/libsdk.a(sdma.o) (script_info)
/home/leon/git/swp-report/iMX6_Platform_SDK/output/mx6dq/lib/libsdk.a(snvs.o)
                              /home/leon/git/swp-report/iMX6_Platform_SDK/output/mx6dq/lib/libsdk.a(rtc.o) (snvs_rtc_counter)
/home/leon/git/swp-report/iMX6_Platform_SDK/output/mx6dq/lib/libsdk.a(ecspi.o)
                              /home/leon/git/swp-report/iMX6_Platform_SDK/output/mx6dq/sdk_unit_test/smart_device_rev_c/libsdk_unit_test.a(spi_test.o) (ecspi_configure)
/home/leon/git/swp-report/iMX6_Platform_SDK/output/mx6dq/lib/libsdk.a(tempmon.o)
                              /home/leon/git/swp-report/iMX6_Platform_SDK/output/mx6dq/sdk_unit_test/smart_device_rev_c/libsdk_unit_test.a(tempmon_test.o) (tempmon_get_temp)
/home/leon/git/swp-report/iMX6_Platform_SDK/output/mx6dq/lib/libsdk.a(gpt.o)
                              /home/leon/git/swp-report/iMX6_Platform_SDK/output/mx6dq/sdk_unit_test/smart_device_rev_c/libsdk_unit_test.a(gpt_test.o) (gpt_get_rollover_event)
/home/leon/git/swp-report/iMX6_Platform_SDK/output/mx6dq/lib/libsdk.a(usb_common.o)
                              /home/leon/git/swp-report/iMX6_Platform_SDK/output/mx6dq/sdk_unit_test/smart_device_rev_c/libsdk_unit_test.a(usb0_device_mouse_test.o) (usb_get_port_speed)
/home/leon/git/swp-report/iMX6_Platform_SDK/output/mx6dq/lib/libsdk.a(usbd_drv.o)
                              /home/leon/git/swp-report/iMX6_Platform_SDK/output/mx6dq/sdk_unit_test/smart_device_rev_c/libsdk_unit_test.a(usb0_device_mouse_test.o) (usbd_device_init)
/home/leon/git/swp-report/iMX6_Platform_SDK/output/mx6dq/lib/libsdk.a(usbh_drv.o)
                              /home/leon/git/swp-report/iMX6_Platform_SDK/output/mx6dq/sdk_unit_test/smart_device_rev_c/libsdk_unit_test.a(usb0_host_test.o) (usbh_init)
/home/leon/git/swp-report/iMX6_Platform_SDK/output/mx6dq/lib/libsdk.a(usdhc.o)
                              /home/leon/git/swp-report/iMX6_Platform_SDK/output/mx6dq/sdk_unit_test/smart_device_rev_c/libsdk_unit_test.a(usdhc_test.o) (set_card_access_mode)
/home/leon/git/swp-report/iMX6_Platform_SDK/output/mx6dq/lib/libsdk.a(usdhc_host.o)
                              /home/leon/git/swp-report/iMX6_Platform_SDK/output/mx6dq/lib/libsdk.a(usdhc.o) (usdhc1_isr)
/home/leon/git/swp-report/iMX6_Platform_SDK/output/mx6dq/lib/libsdk.a(usdhc_mmc.o)
                              /home/leon/git/swp-report/iMX6_Platform_SDK/output/mx6dq/lib/libsdk.a(usdhc.o) (mmc_init)
/home/leon/git/swp-report/iMX6_Platform_SDK/output/mx6dq/lib/libsdk.a(usdhc_sd.o)
                              /home/leon/git/swp-report/iMX6_Platform_SDK/output/mx6dq/lib/libsdk.a(usdhc.o) (sd_init)
/home/leon/git/swp-report/iMX6_Platform_SDK/output/mx6dq/lib/libsdk.a(spinlock.o)
                              /home/leon/git/swp-report/iMX6_Platform_SDK/output/mx6dq/lib/libsdk.a(keypad_port.o) (spinlock_init)
/home/leon/git/swp-report/iMX6_Platform_SDK/output/mx6dq/lib/libsdk.a(spinlock_lock_unlock.o)
                              /home/leon/git/swp-report/iMX6_Platform_SDK/output/mx6dq/lib/libsdk.a(keypad_port.o) (spinlock_lock)
/home/leon/git/swp-report/iMX6_Platform_SDK/output/mx6dq/lib/libsdk.a(camera_profile.o)
                              /home/leon/git/swp-report/iMX6_Platform_SDK/output/mx6dq/lib/libsdk.a(smd_sensor.o) (g_camera_profiles)
/home/leon/git/swp-report/iMX6_Platform_SDK/output/mx6dq/lib/libsdk.a(hdmi_common.o)
                              /home/leon/git/swp-report/iMX6_Platform_SDK/output/mx6dq/lib/libsdk.a(hdmi_tx.o) (isColorSpaceConversion)
/home/leon/git/swp-report/iMX6_Platform_SDK/output/mx6dq/lib/libsdk.a(mx6x_usb.o)
                              /home/leon/git/swp-report/iMX6_Platform_SDK/output/mx6dq/lib/libsdk.a(usbd_drv.o) (usbEnableClocks)
/home/leon/git/swp-report/iMX6_Platform_SDK/output/mx6dq/lib/libboard_smart_device_rev_c.a(board_audio.o)
                              /home/leon/git/swp-report/iMX6_Platform_SDK/output/mx6dq/lib/libsdk.a(smd_sensor.o) (audio_codec_power_on)
/home/leon/git/swp-report/iMX6_Platform_SDK/output/mx6dq/lib/libboard_smart_device_rev_c.a(board_camera.o)
                              /home/leon/git/swp-report/iMX6_Platform_SDK/output/mx6dq/lib/libsdk.a(smd_sensor.o) (g_camera_i2c_port)
/home/leon/git/swp-report/iMX6_Platform_SDK/output/mx6dq/lib/libboard_smart_device_rev_c.a(board_display.o)
                              /home/leon/git/swp-report/iMX6_Platform_SDK/output/mx6dq/lib/libsdk.a(ips_disp_panel.o) (lvds_power_on)
/home/leon/git/swp-report/iMX6_Platform_SDK/output/mx6dq/lib/libboard_smart_device_rev_c.a(board_hdmi.o)
                              /home/leon/git/swp-report/iMX6_Platform_SDK/output/mx6dq/lib/libsdk.a(ips_disp_panel.o) (hdmi_pgm_iomux)
/home/leon/git/swp-report/iMX6_Platform_SDK/output/mx6dq/lib/libboard_smart_device_rev_c.a(board_i2c.o)
                              /home/leon/git/swp-report/iMX6_Platform_SDK/output/mx6dq/sdk_unit_test/smart_device_rev_c/libsdk_unit_test.a(at24cxx.o) (g_at24cx_i2c_device)
/home/leon/git/swp-report/iMX6_Platform_SDK/output/mx6dq/lib/libboard_smart_device_rev_c.a(board_mipi.o)
                              /home/leon/git/swp-report/iMX6_Platform_SDK/output/mx6dq/lib/libsdk.a(ips_disp_panel.o) (mipi_backlight_en)
/home/leon/git/swp-report/iMX6_Platform_SDK/output/mx6dq/lib/libboard_smart_device_rev_c.a(board_network.o)
                              /home/leon/git/swp-report/iMX6_Platform_SDK/output/mx6dq/sdk_unit_test/smart_device_rev_c/libsdk_unit_test.a(enet_test.o) (imx_enet_iomux)
/home/leon/git/swp-report/iMX6_Platform_SDK/output/mx6dq/lib/libboard_smart_device_rev_c.a(board_pcie.o)
                              /home/leon/git/swp-report/iMX6_Platform_SDK/output/mx6dq/sdk_unit_test/smart_device_rev_c/libsdk_unit_test.a(pcie_test_rc.o) (pcie_clk_setup)
/home/leon/git/swp-report/iMX6_Platform_SDK/output/mx6dq/lib/libboard_smart_device_rev_c.a(board_sata.o)
                              /home/leon/git/swp-report/iMX6_Platform_SDK/output/mx6dq/lib/libsdk.a(sata.o) (sata_power_on)
/home/leon/git/swp-report/iMX6_Platform_SDK/output/mx6dq/lib/libboard_smart_device_rev_c.a(board_usb.o)
                              /home/leon/git/swp-report/iMX6_Platform_SDK/output/mx6dq/lib/libsdk.a(usbh_drv.o) (usbEnableVbus)
/home/leon/git/swp-report/iMX6_Platform_SDK/output/mx6dq/lib/libboard_smart_device_rev_c.a(board_usdhc.o)
                              /home/leon/git/swp-report/iMX6_Platform_SDK/output/mx6dq/lib/libsdk.a(usdhc_host.o) (usdhc_gpio_config)
/home/leon/git/swp-report/iMX6_Platform_SDK/output/mx6dq/lib/libboard_smart_device_rev_c.a(ecspi_iomux_config.o)
                              /home/leon/git/swp-report/iMX6_Platform_SDK/output/mx6dq/lib/libsdk.a(ecspi.o) (ecspi_iomux_config)
/home/leon/git/swp-report/iMX6_Platform_SDK/output/mx6dq/lib/libboard_smart_device_rev_c.a(i2c_iomux_config.o)
                              /home/leon/git/swp-report/iMX6_Platform_SDK/output/mx6dq/lib/libsdk.a(imx_i2c.o) (i2c_iomux_config)
/home/leon/git/swp-report/iMX6_Platform_SDK/output/mx6dq/lib/libboard_smart_device_rev_c.a(pwm_iomux_config.o)
                              /home/leon/git/swp-report/iMX6_Platform_SDK/output/mx6dq/sdk_unit_test/smart_device_rev_c/libsdk_unit_test.a(pwm_output.o) (pwm_iomux_config)
/home/leon/git/swp-report/iMX6_Platform_SDK/output/mx6dq/lib/libboard_smart_device_rev_c.a(usdhc_iomux_config.o)
                              /home/leon/git/swp-report/iMX6_Platform_SDK/output/mx6dq/lib/libsdk.a(usdhc_host.o) (usdhc_iomux_config)
/home/leon/riotboard/arm-2012.09/bin/../arm-none-eabi/lib//libstdc++.a(pure.o)
                              /home/leon/git/swp-report/iMX6_Platform_SDK/output/mx6dq/lib/libsdk.a(pmu_driver.o) (__cxa_pure_virtual)
/home/leon/riotboard/arm-2012.09/bin/../arm-none-eabi/lib//libstdc++.a(eh_terminate.o)
                              /home/leon/riotboard/arm-2012.09/bin/../arm-none-eabi/lib//libstdc++.a(pure.o) (std::terminate())
/home/leon/riotboard/arm-2012.09/bin/../arm-none-eabi/lib//libstdc++.a(eh_unex_handler.o)
                              /home/leon/riotboard/arm-2012.09/bin/../arm-none-eabi/lib//libstdc++.a(eh_terminate.o) (__cxxabiv1::__unexpected_handler)
/home/leon/riotboard/arm-2012.09/bin/../arm-none-eabi/lib//libstdc++.a(eh_call.o)
                              /home/leon/riotboard/arm-2012.09/bin/../arm-none-eabi/lib//libstdc++.a(eh_terminate.o) (__cxa_call_unexpected)
/home/leon/riotboard/arm-2012.09/bin/../arm-none-eabi/lib//libstdc++.a(eh_throw.o)
                              /home/leon/riotboard/arm-2012.09/bin/../arm-none-eabi/lib//libstdc++.a(eh_call.o) (__cxa_throw)
/home/leon/riotboard/arm-2012.09/bin/../arm-none-eabi/lib//libstdc++.a(eh_arm.o)
                              /home/leon/riotboard/arm-2012.09/bin/../arm-none-eabi/lib//libstdc++.a(eh_terminate.o) (__cxa_end_cleanup)
/home/leon/riotboard/arm-2012.09/bin/../arm-none-eabi/lib//libstdc++.a(eh_exception.o)
                              /home/leon/riotboard/arm-2012.09/bin/../arm-none-eabi/lib//libstdc++.a(eh_call.o) (std::bad_exception::~bad_exception())
/home/leon/riotboard/arm-2012.09/bin/../arm-none-eabi/lib//libstdc++.a(eh_alloc.o)
                              /home/leon/riotboard/arm-2012.09/bin/../arm-none-eabi/lib//libstdc++.a(eh_call.o) (__cxa_allocate_exception)
/home/leon/riotboard/arm-2012.09/bin/../arm-none-eabi/lib//libstdc++.a(eh_globals.o)
                              /home/leon/riotboard/arm-2012.09/bin/../arm-none-eabi/lib//libstdc++.a(eh_call.o) (__cxa_get_globals_fast)
/home/leon/riotboard/arm-2012.09/bin/../arm-none-eabi/lib//libstdc++.a(si_class_type_info.o)
                              /home/leon/riotboard/arm-2012.09/bin/../arm-none-eabi/lib//libstdc++.a(eh_exception.o) (vtable for __cxxabiv1::__si_class_type_info)
/home/leon/riotboard/arm-2012.09/bin/../arm-none-eabi/lib//libstdc++.a(eh_personality.o)
                              /home/leon/riotboard/arm-2012.09/bin/../arm-none-eabi/lib//libstdc++.a(eh_terminate.o) (__gxx_personality_v0)
/home/leon/riotboard/arm-2012.09/bin/../arm-none-eabi/lib//libstdc++.a(eh_term_handler.o)
                              /home/leon/riotboard/arm-2012.09/bin/../arm-none-eabi/lib//libstdc++.a(eh_terminate.o) (__cxxabiv1::__terminate_handler)
/home/leon/riotboard/arm-2012.09/bin/../arm-none-eabi/lib//libstdc++.a(eh_catch.o)
                              /home/leon/riotboard/arm-2012.09/bin/../arm-none-eabi/lib//libstdc++.a(eh_terminate.o) (__cxa_begin_catch)
/home/leon/riotboard/arm-2012.09/bin/../arm-none-eabi/lib//libstdc++.a(class_type_info.o)
                              /home/leon/riotboard/arm-2012.09/bin/../arm-none-eabi/lib//libstdc++.a(si_class_type_info.o) (__cxxabiv1::__class_type_info::__do_upcast(__cxxabiv1::__class_type_info const*, void**) const)
/home/leon/riotboard/arm-2012.09/bin/../arm-none-eabi/lib//libstdc++.a(vterminate.o)
                              /home/leon/riotboard/arm-2012.09/bin/../arm-none-eabi/lib//libstdc++.a(eh_term_handler.o) (__gnu_cxx::__verbose_terminate_handler())
/home/leon/riotboard/arm-2012.09/bin/../arm-none-eabi/lib//libstdc++.a(cp-demangle.o)
                              /home/leon/riotboard/arm-2012.09/bin/../arm-none-eabi/lib//libstdc++.a(vterminate.o) (__cxa_demangle)
/home/leon/riotboard/arm-2012.09/bin/../arm-none-eabi/lib//libstdc++.a(eh_type.o)
                              /home/leon/riotboard/arm-2012.09/bin/../arm-none-eabi/lib//libstdc++.a(vterminate.o) (__cxa_current_exception_type)
/home/leon/riotboard/arm-2012.09/bin/../arm-none-eabi/lib//libstdc++.a(del_op.o)
                              /home/leon/riotboard/arm-2012.09/bin/../arm-none-eabi/lib//libstdc++.a(eh_exception.o) (operator delete(void*))
/home/leon/riotboard/arm-2012.09/bin/../arm-none-eabi/lib//libstdc++.a(tinfo.o)
                              /home/leon/riotboard/arm-2012.09/bin/../arm-none-eabi/lib//libstdc++.a(class_type_info.o) (std::type_info::~type_info())
/home/leon/riotboard/arm-2012.09/bin/../arm-none-eabi/lib//libc.a(lib_a-fwrite.o)
                              /home/leon/riotboard/arm-2012.09/bin/../arm-none-eabi/lib//libstdc++.a(vterminate.o) (fwrite)
/home/leon/riotboard/arm-2012.09/bin/../arm-none-eabi/lib//libc.a(lib_a-memcmp.o)
                              /home/leon/riotboard/arm-2012.09/bin/../arm-none-eabi/lib//libstdc++.a(cp-demangle.o) (memcmp)
/home/leon/riotboard/arm-2012.09/bin/../arm-none-eabi/lib//libc.a(lib_a-strncmp.o)
                              /home/leon/riotboard/arm-2012.09/bin/../arm-none-eabi/lib//libstdc++.a(cp-demangle.o) (strncmp)
/home/leon/riotboard/arm-2012.09/bin/../arm-none-eabi/lib//libc.a(lib_a-syswrite.o)
                              /home/leon/riotboard/arm-2012.09/bin/../arm-none-eabi/lib//libstdc++.a(pure.o) (write)
/home/leon/riotboard/arm-2012.09/bin/../lib/gcc/arm-none-eabi/4.7.2//libgcc.a(_divsi3.o)
                              /home/leon/git/swp-report/iMX6_Platform_SDK/output/mx6dq/lib/libsdk.a(ipu_common.o) (__aeabi_idiv)
/home/leon/riotboard/arm-2012.09/bin/../lib/gcc/arm-none-eabi/4.7.2//libgcc.a(unwind-arm.o)
                              /home/leon/riotboard/arm-2012.09/bin/../arm-none-eabi/lib//libstdc++.a(eh_throw.o) (__aeabi_unwind_cpp_pr0)
/home/leon/riotboard/arm-2012.09/bin/../lib/gcc/arm-none-eabi/4.7.2//libgcc.a(libunwind.o)
                              /home/leon/riotboard/arm-2012.09/bin/../lib/gcc/arm-none-eabi/4.7.2//libgcc.a(unwind-arm.o) (restore_core_regs)
/home/leon/riotboard/arm-2012.09/bin/../lib/gcc/arm-none-eabi/4.7.2//libgcc.a(pr-support.o)
                              /home/leon/riotboard/arm-2012.09/bin/../lib/gcc/arm-none-eabi/4.7.2//libgcc.a(unwind-arm.o) (__gnu_unwind_execute)
/home/leon/git/swp-report/iMX6_Platform_SDK/output/mx6dq/lib/libsdk.a(max7310.o)
                              /home/leon/git/swp-report/iMX6_Platform_SDK/output/mx6dq/lib/libboard_smart_device_rev_c.a(board_sata.o) (max7310_set_gpio_output)

Allocating common symbols
Common symbol       size              file

errno               0x4               /home/leon/riotboard/arm-2012.09/bin/../arm-none-eabi/lib//libc.a(lib_a-reent.o)

Discarded input sections

 .group         0x00000000        0x8 /home/leon/git/swp-report/iMX6_Platform_SDK/output/mx6dq/lib/libsdk.a(pmu_driver.o)
 .group         0x00000000        0x8 /home/leon/git/swp-report/iMX6_Platform_SDK/output/mx6dq/lib/libsdk.a(pmu_driver.o)
 .group         0x00000000        0x8 /home/leon/git/swp-report/iMX6_Platform_SDK/output/mx6dq/lib/libsdk.a(pmu_driver.o)
 .group         0x00000000        0x8 /home/leon/git/swp-report/iMX6_Platform_SDK/output/mx6dq/lib/libsdk.a(pmu_driver.o)
 .group         0x00000000        0x8 /home/leon/git/swp-report/iMX6_Platform_SDK/output/mx6dq/lib/libsdk.a(pmu_driver.o)
 .group         0x00000000        0x8 /home/leon/git/swp-report/iMX6_Platform_SDK/output/mx6dq/lib/libsdk.a(pmu_driver.o)
 .group         0x00000000        0x8 /home/leon/git/swp-report/iMX6_Platform_SDK/output/mx6dq/lib/libsdk.a(pmu_driver.o)
 .group         0x00000000        0x8 /home/leon/git/swp-report/iMX6_Platform_SDK/output/mx6dq/lib/libsdk.a(pmu_driver.o)
 .group         0x00000000        0x8 /home/leon/git/swp-report/iMX6_Platform_SDK/output/mx6dq/lib/libsdk.a(pmu_driver.o)
 .group         0x00000000        0x8 /home/leon/git/swp-report/iMX6_Platform_SDK/output/mx6dq/lib/libsdk.a(pmu_driver.o)
 .group         0x00000000        0x8 /home/leon/git/swp-report/iMX6_Platform_SDK/output/mx6dq/lib/libsdk.a(pmu_driver.o)
 .group         0x00000000        0x8 /home/leon/git/swp-report/iMX6_Platform_SDK/output/mx6dq/lib/libsdk.a(pmu_driver.o)
 .group         0x00000000        0x8 /home/leon/git/swp-report/iMX6_Platform_SDK/output/mx6dq/lib/libsdk.a(pmu_driver.o)
 .group         0x00000000        0x8 /home/leon/git/swp-report/iMX6_Platform_SDK/output/mx6dq/lib/libsdk.a(pmu_driver.o)
 .group         0x00000000        0x8 /home/leon/git/swp-report/iMX6_Platform_SDK/output/mx6dq/lib/libsdk.a(pmu_driver.o)
 .group         0x00000000        0x8 /home/leon/git/swp-report/iMX6_Platform_SDK/output/mx6dq/lib/libsdk.a(pmu_driver.o)
 .group         0x00000000        0x8 /home/leon/git/swp-report/iMX6_Platform_SDK/output/mx6dq/lib/libsdk.a(pmu_driver.o)
 .group         0x00000000        0x8 /home/leon/git/swp-report/iMX6_Platform_SDK/output/mx6dq/lib/libsdk.a(pmu_driver.o)
 .group         0x00000000        0x8 /home/leon/git/swp-report/iMX6_Platform_SDK/output/mx6dq/lib/libsdk.a(pmu_driver.o)
 .group         0x00000000        0x8 /home/leon/git/swp-report/iMX6_Platform_SDK/output/mx6dq/lib/libsdk.a(pmu_driver.o)
 .group         0x00000000        0x8 /home/leon/git/swp-report/iMX6_Platform_SDK/output/mx6dq/lib/libsdk.a(pmu_driver.o)
 .group         0x00000000        0x8 /home/leon/git/swp-report/iMX6_Platform_SDK/output/mx6dq/lib/libsdk.a(pmu_driver.o)
 .group         0x00000000        0x8 /home/leon/git/swp-report/iMX6_Platform_SDK/output/mx6dq/lib/libsdk.a(pmu_driver.o)
 .group         0x00000000        0x8 /home/leon/git/swp-report/iMX6_Platform_SDK/output/mx6dq/lib/libsdk.a(pmu_driver.o)
 .group         0x00000000        0x8 /home/leon/git/swp-report/iMX6_Platform_SDK/output/mx6dq/lib/libsdk.a(pmu_driver.o)
 .group         0x00000000        0x8 /home/leon/git/swp-report/iMX6_Platform_SDK/output/mx6dq/lib/libsdk.a(pmu_driver.o)
 .group         0x00000000        0x8 /home/leon/git/swp-report/iMX6_Platform_SDK/output/mx6dq/lib/libsdk.a(pmu_driver.o)
 .group         0x00000000        0x8 /home/leon/git/swp-report/iMX6_Platform_SDK/output/mx6dq/lib/libsdk.a(pmu_driver.o)
 .group         0x00000000        0x8 /home/leon/git/swp-report/iMX6_Platform_SDK/output/mx6dq/lib/libsdk.a(pmu_driver.o)
 .group         0x00000000        0x8 /home/leon/git/swp-report/iMX6_Platform_SDK/output/mx6dq/lib/libsdk.a(pmu_driver.o)
 .group         0x00000000        0x8 /home/leon/git/swp-report/iMX6_Platform_SDK/output/mx6dq/lib/libsdk.a(pmu_driver.o)
 .group         0x00000000        0x8 /home/leon/git/swp-report/iMX6_Platform_SDK/output/mx6dq/lib/libsdk.a(pmu_driver.o)
 .group         0x00000000        0x8 /home/leon/git/swp-report/iMX6_Platform_SDK/output/mx6dq/lib/libsdk.a(pmu_driver.o)
 .group         0x00000000        0x8 /home/leon/git/swp-report/iMX6_Platform_SDK/output/mx6dq/lib/libsdk.a(pmu_driver.o)
 .group         0x00000000        0x8 /home/leon/git/swp-report/iMX6_Platform_SDK/output/mx6dq/lib/libsdk.a(pmu_driver.o)
 .group         0x00000000        0x8 /home/leon/git/swp-report/iMX6_Platform_SDK/output/mx6dq/lib/libsdk.a(pmu_driver.o)
 .group         0x00000000        0x8 /home/leon/git/swp-report/iMX6_Platform_SDK/output/mx6dq/lib/libsdk.a(pmu_driver.o)
 .group         0x00000000        0x8 /home/leon/git/swp-report/iMX6_Platform_SDK/output/mx6dq/lib/libsdk.a(pmu_driver.o)
 .group         0x00000000        0x8 /home/leon/git/swp-report/iMX6_Platform_SDK/output/mx6dq/lib/libsdk.a(pmu_driver.o)

Memory Configuration

Name             Origin             Length             Attributes
OCRAM            0x00900000         0x00040000         xrw
DDR              0x10000000         0x40000000         xrw
*default*        0x00000000         0xffffffff

Linker script and memory map

LOAD /home/leon/riotboard/arm-2012.09/bin/../lib/gcc/arm-none-eabi/4.7.2//crtbegin.o
LOAD /home/leon/riotboard/arm-2012.09/bin/../lib/gcc/arm-none-eabi/4.7.2//crti.o
LOAD /home/leon/riotboard/arm-2012.09/bin/../lib/gcc/arm-none-eabi/4.7.2//crtend.o
LOAD /home/leon/riotboard/arm-2012.09/bin/../lib/gcc/arm-none-eabi/4.7.2//crtn.o

.l1_page_table  0x00900000     0x4000
                0x00900000                __l1_page_table_start = .
                0x00904000                . = (. + 0x4000)
 *fill*         0x00900000     0x4000 

.heap.ocram     0x00904000    0x3bfb8
                0x00904000                __heap_ocram_start = .
                0x0093ffb8                . = (. + 0x3bfb8)
 *fill*         0x00904000    0x3bfb8 
                0x0093ffb8                __heap_ocram_end = .

.ram_vectors    0x0093ffb8       0x48
                0x0093ffb8                __ram_vectors_start = .
                0x00940000                . = (. + 0x48)
 *fill*         0x0093ffb8       0x48 
                0x00940000                __ram_vectors_end = .
                0x10000000                _start_image_add = ORIGIN (DDR)

.ivt            0x10000000      0x420
                0x10000400                . = (. + 0x400)
 *fill*         0x10000000      0x400 
 *(.ivt)
 .ivt           0x10000400       0x20 /home/leon/git/swp-report/iMX6_Platform_SDK/output/mx6dq/sdk_unit_test/smart_device_rev_c/obj/apps/common/ivt.o
                0x10000400                input_ivt

.boot_data      0x10000420        0xc
                0x10000420                __start_boot_data = .
 *(.boot_data)
 .boot_data     0x10000420        0xc /home/leon/git/swp-report/iMX6_Platform_SDK/output/mx6dq/sdk_unit_test/smart_device_rev_c/obj/apps/common/ivt.o
                0x10000420                bd

.dcd_hdr        0x10000430        0x4
                0x10000430                __start_dcd = .
 *(.dcd_hdr)
 .dcd_hdr       0x10000430        0x4 /home/leon/git/swp-report/iMX6_Platform_SDK/output/mx6dq/lib/libboard_smart_device_rev_c.a(dcd.o)
                0x10000430                input_dcd_hdr

.dcd_wrt_cmd    0x10000434        0x4
 *(.dcd_wrt_cmd)
 .dcd_wrt_cmd   0x10000434        0x4 /home/leon/git/swp-report/iMX6_Platform_SDK/output/mx6dq/lib/libboard_smart_device_rev_c.a(dcd.o)
                0x10000434                input_dcd_wrt_cmd

.dcd_data       0x10000438      0x298
 *(.dcd_data)
 .dcd_data      0x10000438      0x298 /home/leon/git/swp-report/iMX6_Platform_SDK/output/mx6dq/lib/libboard_smart_device_rev_c.a(dcd.o)
                0x10000438                input_dcd

.text           0x100006d0    0x6831c
 CREATE_OBJECT_SYMBOLS
 *(.startup)
 .startup       0x100006d0      0x138 /home/leon/git/swp-report/iMX6_Platform_SDK/output/mx6dq/lib/libsdk.a(startup.o)
                0x100006d0                _start
 *(.text .text.* .gnu.linkonce.t.*)
 .text          0x10000808      0x128 /home/leon/riotboard/arm-2012.09/bin/../lib/gcc/arm-none-eabi/4.7.2//crtbegin.o
 .text          0x10000930        0x0 /home/leon/riotboard/arm-2012.09/bin/../lib/gcc/arm-none-eabi/4.7.2//crti.o
 .text          0x10000930        0x0 /home/leon/riotboard/arm-2012.09/bin/../lib/gcc/arm-none-eabi/4.7.2//crtend.o
 .text          0x10000930        0x0 /home/leon/riotboard/arm-2012.09/bin/../lib/gcc/arm-none-eabi/4.7.2//crtn.o
 .text          0x10000930        0x0 /home/leon/git/swp-report/iMX6_Platform_SDK/output/mx6dq/sdk_unit_test/smart_device_rev_c/obj/apps/common/ivt.o
 .text          0x10000930       0xbc /home/leon/git/swp-report/iMX6_Platform_SDK/output/mx6dq/sdk_unit_test/smart_device_rev_c/obj/apps/common/platform_init.o
                0x10000930                platform_init
 .text          0x100009ec       0xfc /home/leon/git/swp-report/iMX6_Platform_SDK/output/mx6dq/sdk_unit_test/smart_device_rev_c/obj/apps/common/print_clock_info.o
                0x100009ec                show_freq
                0x10000ad8                show_ddr_config
 .text          0x10000ae8      0x15c /home/leon/git/swp-report/iMX6_Platform_SDK/output/mx6dq/sdk_unit_test/smart_device_rev_c/obj/apps/common/print_version.o
                0x10000ae8                print_version
 .text          0x10000c44       0x50 /home/leon/git/swp-report/iMX6_Platform_SDK/output/mx6dq/sdk_unit_test/smart_device_rev_c/obj/apps/sdk_unit_test/src/all_test.o
                0x10000c44                run_test
                0x10000c78                ALL_test
 .text          0x10000c94       0x2c /home/leon/git/swp-report/iMX6_Platform_SDK/output/mx6dq/sdk_unit_test/smart_device_rev_c/obj/apps/sdk_unit_test/src/unit_test_main.o
                0x10000c94                main
 .text          0x10000cc0      0xcdc /home/leon/git/swp-report/iMX6_Platform_SDK/output/mx6dq/lib/libsdk.a(ccm_pll.o)
                0x10000cc0                ccm_init
                0x10000de4                get_main_clock
                0x10001074                get_peri_clock
                0x10001224                ccm_ccgr_config
                0x1000128c                clock_gating_config
                0x1000170c                ccm_set_lpm_wakeup_source
                0x10001800                ccm_enter_low_power
                0x10001870                ipu_hsp_clk_config
                0x10001890                gpu_clock_config
 .text          0x1000199c      0x164 /home/leon/git/swp-report/iMX6_Platform_SDK/output/mx6dq/lib/libsdk.a(cortexA9.o)
                0x1000199c                arm_set_interrupt_state
                0x100019c0                cpu_get_current
                0x100019cc                enable_neon_fpu
                0x100019e8                disable_strict_align_check
                0x100019fc                disable_L1_cache
                0x10001a1c                get_arm_private_peripheral_base
                0x10001a24                arm_unified_tlb_invalidate
                0x10001a34                arm_unified_tlb_invalidate_is
                0x10001a44                arm_branch_prediction_enable
                0x10001a54                arm_branch_prediction_disable
                0x10001a64                arm_branch_target_cache_invalidate
                0x10001a70                arm_branch_target_cache_invalidate_is
                0x10001a7c                scu_enable
                0x10001a90                scu_join_smp
                0x10001aa0                scu_leave_smp
                0x10001ab0                scu_get_cpus_in_smp
                0x10001ac4                scu_enable_maintenance_broadcast
                0x10001ad4                scu_disable_maintenance_broadcast
                0x10001ae4                scu_secure_invalidate
 .text          0x10001b00      0x5e0 /home/leon/git/swp-report/iMX6_Platform_SDK/output/mx6dq/lib/libsdk.a(gic.o)
                0x10001be4                gic_enable
                0x10001c44                gic_set_irq_security
                0x10001cec                gic_enable_irq
                0x10001d68                gic_set_irq_priority
                0x10001db0                gic_set_cpu_target
                0x10001ebc                gic_send_sgi
                0x10001f10                gic_cpu_enable
                0x10001f70                gic_set_cpu_priority_mask
                0x10001fa4                gic_read_irq_ack
                0x10001fd0                gic_write_end_of_irq
                0x10002000                gic_init
                0x100020a4                gic_init_cpu
 .text          0x100020e0      0x460 /home/leon/git/swp-report/iMX6_Platform_SDK/output/mx6dq/lib/libsdk.a(mmu.o)
                0x100020e0                mmu_enable
                0x10002118                mmu_disable
                0x1000214c                mmu_init
                0x10002268                mmu_map_l1_range
                0x10002480                mmu_virtual_to_physical
 .text          0x10002540        0x0 /home/leon/git/swp-report/iMX6_Platform_SDK/output/mx6dq/lib/libsdk.a(startup.o)
 .text          0x10002540        0x4 /home/leon/git/swp-report/iMX6_Platform_SDK/output/mx6dq/lib/libsdk.a(vectors.o)
                0x10002540                exception_handler
 .text.vectors  0x10002544       0x48 /home/leon/git/swp-report/iMX6_Platform_SDK/output/mx6dq/lib/libsdk.a(vectors.o)
                0x10002544                vectors
 .text          0x1000258c      0xc78 /home/leon/git/swp-report/iMX6_Platform_SDK/output/mx6dq/lib/libsdk.a(menu.o)
                0x10002a34                menu_get_indent
                0x10002a50                menuitem_cmd_showmenu
                0x10002a74                menuitem_cmd_exitmenu
                0x10002a98                menu_append_menuitems
                0x10002bb8                menu_present
                0x10003154                menu_print_menuitem
 .text          0x10003204        0x0 /home/leon/git/swp-report/iMX6_Platform_SDK/output/mx6dq/lib/libsdk.a(sdk_version.o)
 .text          0x10003204      0x914 /home/leon/git/swp-report/iMX6_Platform_SDK/output/mx6dq/lib/libsdk.a(system_util.o)
                0x10003204                _sys_exit
                0x10003220                mybkpt
                0x10003228                is_input_char
                0x100033a8                read_input_string
                0x10003690                get_input_hex
                0x10003910                read_int
                0x10003a74                jump_to_sdp
 .text          0x10003b18       0xe0 /home/leon/git/swp-report/iMX6_Platform_SDK/output/mx6dq/lib/libsdk.a(text_color.o)
                0x10003b18                printf_color
                0x10003bb4                get_color_supported
 .text          0x10003bf8      0x7c4 /home/leon/git/swp-report/iMX6_Platform_SDK/output/mx6dq/lib/libsdk.a(board_id.o)
                0x10003bf8                chip_name
                0x10003d10                chip_revision
                0x10003de8                board_name
                0x10003eec                board_revision
                0x10003fb4                board_description
                0x100040d4                get_board_id
                0x100041b0                show_board_id
 .text          0x100043bc      0x290 /home/leon/git/swp-report/iMX6_Platform_SDK/output/mx6dq/lib/libsdk.a(timer.o)
                0x100043bc                hal_delay_us
                0x1000442c                system_time_init
                0x1000458c                time_get_microseconds
 .text          0x1000464c     0x2820 /home/leon/git/swp-report/iMX6_Platform_SDK/output/mx6dq/lib/libsdk.a(imx_uart.o)
                0x1000464c                uart_get_reffreq
                0x10004748                uart_putchar
                0x10004898                uart_getchar
                0x100049f8                uart_set_FIFO_mode
                0x10005524                uart_set_loopback_mode
                0x10005778                uart_setup_interrupt
                0x10005844                uart_init
 .text          0x10006e6c       0x98 /home/leon/git/swp-report/iMX6_Platform_SDK/output/mx6dq/lib/libsdk.a(arm_abort.o)
                0x10006e6c                common_abort_handler
                0x10006ecc                data_abort_handler
                0x10006ee4                prefetch_abort_handler
 .text          0x10006f04      0x1bc /home/leon/git/swp-report/iMX6_Platform_SDK/output/mx6dq/lib/libsdk.a(interrupt.o)
                0x10006f04                IRQ_HDLR
                0x10006fcc                disable_interrupt
                0x10007008                enable_interrupt
                0x10007060                register_interrupt_routine
                0x10007094                default_interrupt_routine
 .text          0x100070c0      0x8e0 /home/leon/git/swp-report/iMX6_Platform_SDK/output/mx6dq/lib/libsdk.a(epit.o)
                0x100070c0                epit_reload_counter
                0x10007120                epit_get_counter_value
                0x1000717c                epit_set_compare_event
                0x100071dc                epit_get_compare_event
                0x100072d4                epit_counter_disable
                0x10007498                epit_counter_enable
                0x100076f4                epit_setup_interrupt
                0x10007784                epit_init
 .text          0x100079a0      0x4bc /home/leon/git/swp-report/iMX6_Platform_SDK/output/mx6dq/lib/libsdk.a(abort_handler.o)
                0x100079a0                dump_regs
 .text          0x10007e5c       0x20 /home/leon/git/swp-report/iMX6_Platform_SDK/output/mx6dq/lib/libboard_smart_device_rev_c.a(board_io_expanders.o)
                0x10007e5c                board_ioexpander_init
                0x10007e6c                board_ioexpander_iomux_config
 .text          0x10007e7c        0x0 /home/leon/git/swp-report/iMX6_Platform_SDK/output/mx6dq/lib/libboard_smart_device_rev_c.a(hardware_modules.o)
 .text          0x10007e7c        0x0 /home/leon/git/swp-report/iMX6_Platform_SDK/output/mx6dq/lib/libboard_smart_device_rev_c.a(dcd.o)
 .text          0x10007e7c       0x90 /home/leon/git/swp-report/iMX6_Platform_SDK/output/mx6dq/lib/libboard_smart_device_rev_c.a(uart_iomux_config.o)
                0x10007e7c                uart_iomux_config
 .text          0x10007f0c      0x304 /home/leon/git/swp-report/iMX6_Platform_SDK/output/mx6dq/lib/libboard_smart_device_rev_c.a(iomux_config.o)
                0x10007f0c                iomux_config
                0x10007f80                arm_iomux_config
                0x10007f90                asrc_iomux_config
                0x10007fa0                dcic1_iomux_config
                0x10007fb0                dcic2_iomux_config
                0x10007fc0                ecspi2_iomux_config
                0x10007fd0                ecspi3_iomux_config
                0x10007fe0                ecspi4_iomux_config
                0x10007ff0                ecspi5_iomux_config
                0x10008000                eim_iomux_config
                0x10008010                epit1_iomux_config
                0x10008020                epit2_iomux_config
                0x10008030                esai_iomux_config
                0x10008040                flexcan2_iomux_config
                0x10008050                gpmi_iomux_config
                0x10008060                gpt_iomux_config
                0x10008070                hdmi_iomux_config
                0x10008080                ipu2_iomux_config
                0x10008090                kpp_iomux_config
                0x100080a0                ldb_iomux_config
                0x100080b0                mipi_csi_iomux_config
                0x100080c0                mipi_dsi_iomux_config
                0x100080d0                mipi_hsi_iomux_config
                0x100080e0                mlb_iomux_config
                0x100080f0                pcie_iomux_config
                0x10008100                pmu_iomux_config
                0x10008110                pwm2_iomux_config
                0x10008120                pwm3_iomux_config
                0x10008130                pwm4_iomux_config
                0x10008140                sata_phy_iomux_config
                0x10008150                sdma_iomux_config
                0x10008160                snvs_iomux_config
                0x10008170                spdif_iomux_config
                0x10008180                src_iomux_config
                0x10008190                uart2_iomux_config
                0x100081a0                uart3_iomux_config
                0x100081b0                uart4_iomux_config
                0x100081c0                uart5_iomux_config
                0x100081d0                usdhc1_iomux_config
                0x100081e0                wdog1_iomux_config
                0x100081f0                wdog2_iomux_config
                0x10008200                xtalosc_iomux_config
 .text          0x10008210      0x424 /home/leon/git/swp-report/iMX6_Platform_SDK/output/mx6dq/lib/libboard_smart_device_rev_c.a(ipu1_iomux_config.o)
                0x10008210                ipu1_iomux_config
 .text          0x10008634     0x2884 /home/leon/git/swp-report/iMX6_Platform_SDK/output/mx6dq/lib/libboard_smart_device_rev_c.a(mmdc_iomux_config.o)
                0x10008634                mmdc_iomux_config
 .text          0x1000aeb8       0x34 /home/leon/git/swp-report/iMX6_Platform_SDK/output/mx6dq/lib/libboard_smart_device_rev_c.a(pwm1_iomux_config.o)
                0x1000aeb8                pwm1_iomux_config
 .text          0x1000aeec       0x70 /home/leon/git/swp-report/iMX6_Platform_SDK/output/mx6dq/lib/libboard_smart_device_rev_c.a(sjc_iomux_config.o)
                0x1000aeec                sjc_iomux_config
 .text          0x1000af5c       0x78 /home/leon/git/swp-report/iMX6_Platform_SDK/output/mx6dq/lib/libboard_smart_device_rev_c.a(uart1_iomux_config.o)
                0x1000af5c                uart1_iomux_config
 .text          0x1000afd4       0x78 /home/leon/git/swp-report/iMX6_Platform_SDK/output/mx6dq/lib/libboard_smart_device_rev_c.a(usb_iomux_config.o)
                0x1000afd4                usb_iomux_config
 .text          0x1000b04c      0x178 /home/leon/git/swp-report/iMX6_Platform_SDK/output/mx6dq/lib/libboard_smart_device_rev_c.a(usdhc2_iomux_config.o)
                0x1000b04c                usdhc2_iomux_config
 .text          0x1000b1c4      0x178 /home/leon/git/swp-report/iMX6_Platform_SDK/output/mx6dq/lib/libboard_smart_device_rev_c.a(usdhc3_iomux_config.o)
                0x1000b1c4                usdhc3_iomux_config
 .text          0x1000b33c      0x178 /home/leon/git/swp-report/iMX6_Platform_SDK/output/mx6dq/lib/libboard_smart_device_rev_c.a(usdhc4_iomux_config.o)
                0x1000b33c                usdhc4_iomux_config
 .text          0x1000b4b4       0xa0 /home/leon/git/swp-report/iMX6_Platform_SDK/output/mx6dq/lib/libboard_smart_device_rev_c.a(audmux_iomux_config.o)
                0x1000b4b4                audmux_iomux_config
 .text          0x1000b554       0x34 /home/leon/git/swp-report/iMX6_Platform_SDK/output/mx6dq/lib/libboard_smart_device_rev_c.a(ccm_iomux_config.o)
                0x1000b554                ccm_iomux_config
 .text          0x1000b588       0xe0 /home/leon/git/swp-report/iMX6_Platform_SDK/output/mx6dq/lib/libboard_smart_device_rev_c.a(ecspi1_iomux_config.o)
                0x1000b588                ecspi1_iomux_config
 .text          0x1000b668      0x424 /home/leon/git/swp-report/iMX6_Platform_SDK/output/mx6dq/lib/libboard_smart_device_rev_c.a(enet_iomux_config.o)
                0x1000b668                enet_iomux_config
 .text          0x1000ba8c       0x68 /home/leon/git/swp-report/iMX6_Platform_SDK/output/mx6dq/lib/libboard_smart_device_rev_c.a(flexcan1_iomux_config.o)
                0x1000ba8c                flexcan1_iomux_config
 .text          0x1000baf4      0x208 /home/leon/git/swp-report/iMX6_Platform_SDK/output/mx6dq/lib/libboard_smart_device_rev_c.a(gpio1_iomux_config.o)
                0x1000baf4                gpio1_iomux_config
 .text          0x1000bcfc      0x164 /home/leon/git/swp-report/iMX6_Platform_SDK/output/mx6dq/lib/libboard_smart_device_rev_c.a(gpio2_iomux_config.o)
                0x1000bcfc                gpio2_iomux_config
 .text          0x1000be60      0x210 /home/leon/git/swp-report/iMX6_Platform_SDK/output/mx6dq/lib/libboard_smart_device_rev_c.a(gpio3_iomux_config.o)
                0x1000be60                gpio3_iomux_config
 .text          0x1000c070       0xc4 /home/leon/git/swp-report/iMX6_Platform_SDK/output/mx6dq/lib/libboard_smart_device_rev_c.a(gpio4_iomux_config.o)
                0x1000c070                gpio4_iomux_config
 .text          0x1000c134       0x74 /home/leon/git/swp-report/iMX6_Platform_SDK/output/mx6dq/lib/libboard_smart_device_rev_c.a(gpio5_iomux_config.o)
                0x1000c134                gpio5_iomux_config
 .text          0x1000c1a8      0x150 /home/leon/git/swp-report/iMX6_Platform_SDK/output/mx6dq/lib/libboard_smart_device_rev_c.a(gpio6_iomux_config.o)
                0x1000c1a8                gpio6_iomux_config
 .text          0x1000c2f8       0x7c /home/leon/git/swp-report/iMX6_Platform_SDK/output/mx6dq/lib/libboard_smart_device_rev_c.a(gpio7_iomux_config.o)
                0x1000c2f8                gpio7_iomux_config
 .text          0x1000c374       0xdc /home/leon/git/swp-report/iMX6_Platform_SDK/output/mx6dq/lib/libboard_smart_device_rev_c.a(gps_iomux_config.o)
                0x1000c374                gps_iomux_config
 .text          0x1000c450       0x78 /home/leon/git/swp-report/iMX6_Platform_SDK/output/mx6dq/lib/libboard_smart_device_rev_c.a(i2c1_iomux_config.o)
                0x1000c450                i2c1_iomux_config
 .text          0x1000c4c8       0x78 /home/leon/git/swp-report/iMX6_Platform_SDK/output/mx6dq/lib/libboard_smart_device_rev_c.a(i2c2_iomux_config.o)
                0x1000c4c8                i2c2_iomux_config
 .text          0x1000c540       0x78 /home/leon/git/swp-report/iMX6_Platform_SDK/output/mx6dq/lib/libboard_smart_device_rev_c.a(i2c3_iomux_config.o)
                0x1000c540                i2c3_iomux_config
 .text          0x1000c5b8      0x2d0 /home/leon/git/swp-report/iMX6_Platform_SDK/output/mx6dq/sdk_unit_test/smart_device_rev_c/libsdk_unit_test.a(audio_test.o)
                0x1000c5b8                audio_test
 .text          0x1000c888        0x0 /home/leon/git/swp-report/iMX6_Platform_SDK/output/mx6dq/sdk_unit_test/smart_device_rev_c/libsdk_unit_test.a(wav_file.o)
 .text          0x1000c888       0xc4 /home/leon/git/swp-report/iMX6_Platform_SDK/output/mx6dq/sdk_unit_test/smart_device_rev_c/libsdk_unit_test.a(gic_test.o)
                0x1000c888                gic_sgi_test_handler
                0x1000c8b4                gic_test
 .text          0x1000c94c      0x1fc /home/leon/git/swp-report/iMX6_Platform_SDK/output/mx6dq/sdk_unit_test/smart_device_rev_c/libsdk_unit_test.a(cpu_wp_test.o)
                0x1000c94c                my_memcpy
                0x1000c988                memcpy_perf_record
                0x1000ca70                cpu_wp_test
 .text          0x1000cb48      0x20c /home/leon/git/swp-report/iMX6_Platform_SDK/output/mx6dq/sdk_unit_test/smart_device_rev_c/libsdk_unit_test.a(multicore_test.o)
                0x1000cb48                SGI3_ISR
                0x1000cbe4                multicore_entry
                0x1000cd3c                multicore_test
 .text          0x1000cd54      0x3ec /home/leon/git/swp-report/iMX6_Platform_SDK/output/mx6dq/sdk_unit_test/smart_device_rev_c/libsdk_unit_test.a(ocotp_test.o)
                0x1000cd54                ocotp_test
 .text          0x1000d140      0x340 /home/leon/git/swp-report/iMX6_Platform_SDK/output/mx6dq/sdk_unit_test/smart_device_rev_c/libsdk_unit_test.a(snvs_rtc_test.o)
                0x1000d140                one_time_tick_callback
                0x1000d16c                periodic_tick_callback
                0x1000d1bc                one_time_timer_test
                0x1000d284                periodic_timer_test
                0x1000d358                snvs_rtc_test
 .text          0x1000d480      0x1fc /home/leon/git/swp-report/iMX6_Platform_SDK/output/mx6dq/sdk_unit_test/smart_device_rev_c/libsdk_unit_test.a(snvs_srtc_test.o)
                0x1000d480                srtc_one_time_tick_callback
                0x1000d4ac                srtc_one_time_timer_test
                0x1000d570                snvs_srtc_test
 .text          0x1000d67c      0x128 /home/leon/git/swp-report/iMX6_Platform_SDK/output/mx6dq/sdk_unit_test/smart_device_rev_c/libsdk_unit_test.a(i2c_test.o)
                0x1000d67c                i2c_test
 .text          0x1000d7a4      0x884 /home/leon/git/swp-report/iMX6_Platform_SDK/output/mx6dq/sdk_unit_test/smart_device_rev_c/libsdk_unit_test.a(imx6_i2c_device.o)
                0x1000d7a4                imx6_slave_receive
                0x1000d8dc                imx6_slave_transmit
                0x1000dac8                i2c_imx6_slave_test
 .text          0x1000e028      0x290 /home/leon/git/swp-report/iMX6_Platform_SDK/output/mx6dq/sdk_unit_test/smart_device_rev_c/libsdk_unit_test.a(tempmon_test.o)
                0x1000e028                over_temp_callback
                0x1000e05c                print_current_temp
                0x1000e094                tempmon_test
 .text          0x1000e2b8      0x1f4 /home/leon/git/swp-report/iMX6_Platform_SDK/output/mx6dq/sdk_unit_test/smart_device_rev_c/libsdk_unit_test.a(sdma_test.o)
                0x1000e2b8                sdma_test
 .text          0x1000e4ac      0xa1c /home/leon/git/swp-report/iMX6_Platform_SDK/output/mx6dq/sdk_unit_test/smart_device_rev_c/libsdk_unit_test.a(spi_lpb.o)
                0x1000e5ac                ecspi_app_test
                0x1000ea3c                ecspi_shp_test
 .text          0x1000eec8      0xfbc /home/leon/git/swp-report/iMX6_Platform_SDK/output/mx6dq/sdk_unit_test/smart_device_rev_c/libsdk_unit_test.a(uart_loopback.o)
                0x1000f0d4                uart_app_test
                0x1000f550                uart_shp_test
                0x1000f9dc                uart5_trans_isr
                0x1000fa18                uart_app_interrupt_test
 .text          0x1000fe84      0x24c /home/leon/git/swp-report/iMX6_Platform_SDK/output/mx6dq/sdk_unit_test/smart_device_rev_c/libsdk_unit_test.a(uart_test.o)
                0x1000fe84                uart_interrupt_handler
                0x1000fedc                uart_test
 .text          0x100100d0      0x374 /home/leon/git/swp-report/iMX6_Platform_SDK/output/mx6dq/sdk_unit_test/smart_device_rev_c/libsdk_unit_test.a(epit_test.o)
                0x100100d0                epit_test
 .text          0x10010444      0x4fc /home/leon/git/swp-report/iMX6_Platform_SDK/output/mx6dq/sdk_unit_test/smart_device_rev_c/libsdk_unit_test.a(gpt_test.o)
                0x10010444                gpt_test
                0x1001056c                gpt_out_compare_test
                0x100106c4                gpt_interrupt_routine
                0x10010758                gpt_in_capture_test
 .text          0x10010940       0xb4 /home/leon/git/swp-report/iMX6_Platform_SDK/output/mx6dq/sdk_unit_test/smart_device_rev_c/libsdk_unit_test.a(timer_test.o)
                0x10010940                microseconds_test
 .text          0x100109f4      0xcf4 /home/leon/git/swp-report/iMX6_Platform_SDK/output/mx6dq/sdk_unit_test/smart_device_rev_c/libsdk_unit_test.a(usdhc_test.o)
                0x100109f4                mmc_sd_test
                0x10010a28                usdhc_test
 .text          0x100116e8      0x1ec /home/leon/git/swp-report/iMX6_Platform_SDK/output/mx6dq/sdk_unit_test/smart_device_rev_c/libsdk_unit_test.a(pwm_test.o)
                0x100116e8                pwm_test
 .text          0x100118d4      0x244 /home/leon/git/swp-report/iMX6_Platform_SDK/output/mx6dq/sdk_unit_test/smart_device_rev_c/libsdk_unit_test.a(watchdog_test.o)
                0x10011aec                wdog_test
 .text          0x10011b18      0x82c /home/leon/git/swp-report/iMX6_Platform_SDK/output/mx6dq/sdk_unit_test/smart_device_rev_c/libsdk_unit_test.a(hdmi_test.o)
                0x10011b18                hdmi_test
                0x10011e84                init_hdmi_interrupt
                0x10011f34                hdmi_tx_ISR
                0x10011fc4                hdmi_1080P60_video_output
                0x10012184                hdmi_720P60_video_output
 .text          0x10012344      0x540 /home/leon/git/swp-report/iMX6_Platform_SDK/output/mx6dq/sdk_unit_test/smart_device_rev_c/libsdk_unit_test.a(init_dma_data.o)
                0x10012344                init_dma_data
 .text          0x10012884      0xd18 /home/leon/git/swp-report/iMX6_Platform_SDK/output/mx6dq/sdk_unit_test/smart_device_rev_c/libsdk_unit_test.a(ips_display.o)
                0x10012884                ips_display_test
                0x100129c0                ips_hdmi_stream
                0x10012b20                ips_hdmi_720P60_stream
                0x10012de4                ips_hdmi_1080P60_stream
                0x1001303c                ips_ext_hdmi_transmitter_1080P60_stream
                0x1001325c                ips_hannstar_xga_yuv_stream
                0x100134fc                ips_mipi_wvga_rgb_stream
 .text          0x1001359c      0x238 /home/leon/git/swp-report/iMX6_Platform_SDK/output/mx6dq/sdk_unit_test/smart_device_rev_c/libsdk_unit_test.a(ips_test.o)
                0x1001359c                ipu_test
 .text          0x100137d4      0x538 /home/leon/git/swp-report/iMX6_Platform_SDK/output/mx6dq/sdk_unit_test/smart_device_rev_c/libsdk_unit_test.a(ipu_image.o)
                0x100137d4                load_centralized_image
                0x10013910                load_foreground_image
                0x1001395c                load_horiz_image
                0x10013acc                set_background_margin
                0x10013bbc                load_vert_image
 .text          0x10013d0c      0x204 /home/leon/git/swp-report/iMX6_Platform_SDK/output/mx6dq/sdk_unit_test/smart_device_rev_c/libsdk_unit_test.a(camera_test.o)
                0x10013d0c                camera_test
 .text          0x10013f10      0x2f0 /home/leon/git/swp-report/iMX6_Platform_SDK/output/mx6dq/sdk_unit_test/smart_device_rev_c/libsdk_unit_test.a(csi_test_mode.o)
                0x10013f10                csi_test_mode
 .text          0x10014200      0x2b8 /home/leon/git/swp-report/iMX6_Platform_SDK/output/mx6dq/sdk_unit_test/smart_device_rev_c/libsdk_unit_test.a(sensor_capture.o)
                0x10014200                sensor_capture
 .text          0x100144b8      0x2b4 /home/leon/git/swp-report/iMX6_Platform_SDK/output/mx6dq/sdk_unit_test/smart_device_rev_c/libsdk_unit_test.a(keypad_test.o)
                0x100144b8                keypad_test
                0x100145bc                multiple_key_press_test
 .text          0x1001476c      0x758 /home/leon/git/swp-report/iMX6_Platform_SDK/output/mx6dq/sdk_unit_test/smart_device_rev_c/libsdk_unit_test.a(pcie_test_rc.o)
                0x1001476c                pcie_test
 .text          0x10014ec4      0x194 /home/leon/git/swp-report/iMX6_Platform_SDK/output/mx6dq/sdk_unit_test/smart_device_rev_c/libsdk_unit_test.a(usb_test.o)
                0x10014ec4                usb_test
 .text          0x10015058      0x4d0 /home/leon/git/swp-report/iMX6_Platform_SDK/output/mx6dq/sdk_unit_test/smart_device_rev_c/libsdk_unit_test.a(enet_test.o)
                0x100151fc                enet_test
 .text          0x10015528      0x508 /home/leon/git/swp-report/iMX6_Platform_SDK/output/mx6dq/sdk_unit_test/smart_device_rev_c/libsdk_unit_test.a(spi_test.o)
                0x1001583c                spi_test
 .text          0x10015a30      0x368 /home/leon/git/swp-report/iMX6_Platform_SDK/output/mx6dq/sdk_unit_test/smart_device_rev_c/libsdk_unit_test.a(accelerometer_test.o)
                0x10015a30                accelerometer_test
 .text          0x10015d98      0x33c /home/leon/git/swp-report/iMX6_Platform_SDK/output/mx6dq/sdk_unit_test/smart_device_rev_c/libsdk_unit_test.a(sata_test.o)
                0x10015e58                sata_test
 .text          0x100160d4      0x2ac /home/leon/git/swp-report/iMX6_Platform_SDK/output/mx6dq/sdk_unit_test/smart_device_rev_c/libsdk_unit_test.a(at24cxx.o)
                0x10016188                i2c_eeprom_at24cxx_test
 .text          0x10016380      0x404 /home/leon/git/swp-report/iMX6_Platform_SDK/output/mx6dq/sdk_unit_test/smart_device_rev_c/libsdk_unit_test.a(mem_2_mem.o)
                0x10016380                mem_2_mem_test
 .text          0x10016784      0x2f4 /home/leon/git/swp-report/iMX6_Platform_SDK/output/mx6dq/sdk_unit_test/smart_device_rev_c/libsdk_unit_test.a(pwm_output.o)
                0x10016810                pwm_output_test
 .text          0x10016a78      0x37c /home/leon/git/swp-report/iMX6_Platform_SDK/output/mx6dq/sdk_unit_test/smart_device_rev_c/libsdk_unit_test.a(ips_combiner.o)
                0x10016a78                ips_combiner_test
 .text          0x10016df4      0x52c /home/leon/git/swp-report/iMX6_Platform_SDK/output/mx6dq/sdk_unit_test/smart_device_rev_c/libsdk_unit_test.a(ips_csc.o)
                0x10016df4                ips_csc_test
 .text          0x10017320      0x738 /home/leon/git/swp-report/iMX6_Platform_SDK/output/mx6dq/sdk_unit_test/smart_device_rev_c/libsdk_unit_test.a(ips_resize.o)
                0x10017320                ips_resize_test
 .text          0x10017a58      0x3e8 /home/leon/git/swp-report/iMX6_Platform_SDK/output/mx6dq/sdk_unit_test/smart_device_rev_c/libsdk_unit_test.a(ips_rotate.o)
                0x10017a58                ips_rotate_test
 .text          0x10017e40     0x16bc /home/leon/git/swp-report/iMX6_Platform_SDK/output/mx6dq/sdk_unit_test/smart_device_rev_c/libsdk_unit_test.a(usb0_device_mouse_test.o)
                0x10017e40                usb0_device_mouse_test
                0x10018ce0                hid_device_enum
                0x100192c0                fillBuffer
 .text          0x100194fc     0x39f0 /home/leon/git/swp-report/iMX6_Platform_SDK/output/mx6dq/sdk_unit_test/smart_device_rev_c/libsdk_unit_test.a(usb0_host_test.o)
                0x100194fc                usb0_host_test
                0x1001a030                emuerateDevice
                0x1001a1b0                usbh_set_device_address
                0x1001a8d8                usbh_get_dev_desc
                0x1001b028                usbh_get_config_desc
                0x1001b7b8                usbh_get_interface_desc
                0x1001c028                usbh_set_configuration
                0x1001c764                usbh_get_report_desc
 .text          0x1001ceec      0x978 /home/leon/git/swp-report/iMX6_Platform_SDK/output/mx6dq/sdk_unit_test/smart_device_rev_c/libsdk_unit_test.a(usb0_host_testmodes_test.o)
                0x1001ceec                usb0_host_testmodes_test
 .text          0x1001d864      0xb00 /home/leon/git/swp-report/iMX6_Platform_SDK/output/mx6dq/sdk_unit_test/smart_device_rev_c/libsdk_unit_test.a(spi_nor_numonyx.o)
                0x1001db3c                spi_nor_query_numonyx
                0x1001dc08                spi_nor_erase_numonyx
                0x1001dc94                spi_nor_read_numonyx
                0x1001dedc                spi_nor_write_numonyx
 .text          0x1001e364       0xa4 /home/leon/riotboard/arm-2012.09/bin/../arm-none-eabi/lib//libm.a(lib_a-sf_cos.o)
                0x1001e364                cosf
 .text          0x1001e408        0x8 /home/leon/riotboard/arm-2012.09/bin/../arm-none-eabi/lib//libm.a(lib_a-sf_fabs.o)
                0x1001e408                fabsf
 .text          0x1001e410       0x70 /home/leon/riotboard/arm-2012.09/bin/../arm-none-eabi/lib//libm.a(lib_a-sf_modf.o)
                0x1001e410                modff
 .text          0x1001e480       0xbc /home/leon/riotboard/arm-2012.09/bin/../arm-none-eabi/lib//libm.a(lib_a-sf_sin.o)
                0x1001e480                sinf
 .text          0x1001e53c      0x460 /home/leon/riotboard/arm-2012.09/bin/../arm-none-eabi/lib//libm.a(lib_a-ef_rem_pio2.o)
                0x1001e53c                __ieee754_rem_pio2f
 .text          0x1001e99c      0x214 /home/leon/riotboard/arm-2012.09/bin/../arm-none-eabi/lib//libm.a(lib_a-kf_cos.o)
                0x1001e99c                __kernel_cosf
 .text          0x1001ebb0      0x960 /home/leon/riotboard/arm-2012.09/bin/../arm-none-eabi/lib//libm.a(lib_a-kf_rem_pio2.o)
                0x1001ebb0                __kernel_rem_pio2f
 .text          0x1001f510      0x14c /home/leon/riotboard/arm-2012.09/bin/../arm-none-eabi/lib//libm.a(lib_a-kf_sin.o)
                0x1001f510                __kernel_sinf
 .text          0x1001f65c       0xd0 /home/leon/riotboard/arm-2012.09/bin/../arm-none-eabi/lib//libm.a(lib_a-sf_floor.o)
                0x1001f65c                floorf
 .text          0x1001f72c      0x120 /home/leon/riotboard/arm-2012.09/bin/../arm-none-eabi/lib//libm.a(lib_a-sf_scalbn.o)
                0x1001f72c                scalbnf
 .text          0x1001f84c       0x10 /home/leon/riotboard/arm-2012.09/bin/../arm-none-eabi/lib//libm.a(lib_a-sf_copysign.o)
                0x1001f84c                copysignf
 .text          0x1001f85c       0x68 /home/leon/riotboard/arm-2012.09/bin/../arm-none-eabi/lib//libc.a(lib_a-assert.o)
                0x1001f85c                __assert_func
                0x1001f8b4                __assert
 .text          0x1001f8c4       0x20 /home/leon/riotboard/arm-2012.09/bin/../arm-none-eabi/lib//libc.a(lib_a-bzero.o)
                0x1001f8c4                bzero
 .text          0x1001f8e4      0x26c /home/leon/riotboard/arm-2012.09/bin/../arm-none-eabi/lib//libc.a(lib_a-fflush.o)
                0x1001f8e4                _fflush_r
                0x1001fb10                fflush
 .text          0x1001fb50      0x2c4 /home/leon/riotboard/arm-2012.09/bin/../arm-none-eabi/lib//libc.a(lib_a-findfp.o)
                0x1001fb60                _cleanup_r
                0x1001fbf4                __sfmoreglue
                0x1001fc3c                _cleanup
                0x1001fc4c                __sinit
                0x1001fcc4                __sfp
                0x1001fdbc                __sfp_lock_acquire
                0x1001fdc0                __sfp_lock_release
                0x1001fdc4                __sinit_lock_acquire
                0x1001fdc8                __sinit_lock_release
                0x1001fdcc                __fp_lock_all
                0x1001fdf0                __fp_unlock_all
 .text          0x1001fe14       0x70 /home/leon/riotboard/arm-2012.09/bin/../arm-none-eabi/lib//libc.a(lib_a-fiprintf.o)
                0x1001fe14                _fiprintf_r
                0x1001fe44                fiprintf
 .text          0x1001fe84       0x94 /home/leon/riotboard/arm-2012.09/bin/../arm-none-eabi/lib//libc.a(lib_a-fputc.o)
                0x1001fe84                _fputc_r
                0x1001fec8                fputc
 .text          0x1001ff18       0xa8 /home/leon/riotboard/arm-2012.09/bin/../arm-none-eabi/lib//libc.a(lib_a-fputs.o)
                0x1001ff18                _fputs_r
                0x1001ffa4                fputs
 .text          0x1001ffc0      0x368 /home/leon/riotboard/arm-2012.09/bin/../arm-none-eabi/lib//libc.a(lib_a-freer.o)
                0x1001ffc0                _malloc_trim_r
                0x100200bc                _free_r
 .text          0x10020328      0x4c4 /home/leon/riotboard/arm-2012.09/bin/../arm-none-eabi/lib//libc.a(lib_a-fvwrite.o)
                0x10020328                __sfvwrite_r
 .text          0x100207ec      0x114 /home/leon/riotboard/arm-2012.09/bin/../arm-none-eabi/lib//libc.a(lib_a-fwalk.o)
                0x100207ec                _fwalk
                0x10020874                _fwalk_reent
 .text          0x10020900        0x0 /home/leon/riotboard/arm-2012.09/bin/../arm-none-eabi/lib//libc.a(lib_a-impure.o)
 .text          0x10020900       0x88 /home/leon/riotboard/arm-2012.09/bin/../arm-none-eabi/lib//libc.a(lib_a-init.o)
                0x10020900                __libc_init_array
 .text          0x10020988       0x40 /home/leon/riotboard/arm-2012.09/bin/../arm-none-eabi/lib//libc.a(lib_a-malloc.o)
                0x10020988                malloc
                0x100209a8                free
 .text          0x100209c8      0x71c /home/leon/riotboard/arm-2012.09/bin/../arm-none-eabi/lib//libc.a(lib_a-mallocr.o)
                0x100209c8                _malloc_r
 .text          0x100210e4      0x11c /home/leon/riotboard/arm-2012.09/bin/../arm-none-eabi/lib//libc.a(lib_a-memchr.o)
                0x100210e4                memchr
 .text          0x10021200      0x20c /home/leon/riotboard/arm-2012.09/bin/../arm-none-eabi/lib//libc.a(lib_a-memcpy.o)
                0x10021200                memcpy
 .text          0x1002140c      0x134 /home/leon/riotboard/arm-2012.09/bin/../arm-none-eabi/lib//libc.a(lib_a-memmove.o)
                0x1002140c                memmove
 .text          0x10021540      0x134 /home/leon/riotboard/arm-2012.09/bin/../arm-none-eabi/lib//libc.a(lib_a-memset.o)
                0x10021540                memset
 .text          0x10021674        0x8 /home/leon/riotboard/arm-2012.09/bin/../arm-none-eabi/lib//libc.a(lib_a-mlock.o)
                0x10021674                __malloc_lock
                0x10021678                __malloc_unlock
 .text          0x1002167c       0x74 /home/leon/riotboard/arm-2012.09/bin/../arm-none-eabi/lib//libc.a(lib_a-printf.o)
                0x1002167c                _printf_r
                0x100216b0                printf
 .text          0x100216f0      0x170 /home/leon/riotboard/arm-2012.09/bin/../arm-none-eabi/lib//libc.a(lib_a-putc.o)
                0x100216f0                _putc_r
                0x100217a0                putc
 .text          0x10021860       0x28 /home/leon/riotboard/arm-2012.09/bin/../arm-none-eabi/lib//libc.a(lib_a-realloc.o)
                0x10021860                realloc
 .text          0x10021888      0x574 /home/leon/riotboard/arm-2012.09/bin/../arm-none-eabi/lib//libc.a(lib_a-reallocr.o)
                0x10021888                _realloc_r
 .text          0x10021dfc       0x6c /home/leon/riotboard/arm-2012.09/bin/../arm-none-eabi/lib//libc.a(lib_a-rget.o)
                0x10021dfc                __srget_r
                0x10021e54                __srget
 .text          0x10021e68       0x40 /home/leon/riotboard/arm-2012.09/bin/../arm-none-eabi/lib//libc.a(lib_a-sbrkr.o)
                0x10021e68                _sbrk_r
 .text          0x10021ea8       0xdc /home/leon/riotboard/arm-2012.09/bin/../arm-none-eabi/lib//libc.a(lib_a-sprintf.o)
                0x10021ea8                _sprintf_r
                0x10021f10                sprintf
 .text          0x10021f84       0xdc /home/leon/riotboard/arm-2012.09/bin/../arm-none-eabi/lib//libc.a(lib_a-stdio.o)
                0x10021f84                __sread
                0x10021fb8                __seofread
                0x10021fc0                __swrite
                0x10022018                __sseek
                0x1002204c                __sclose
 .text          0x10022060       0x60 /home/leon/riotboard/arm-2012.09/bin/../arm-none-eabi/lib//libc.a(lib_a-strlen.o)
                0x10022060                strlen
 .text          0x100220c0       0x78 /home/leon/riotboard/arm-2012.09/bin/../arm-none-eabi/lib//libc.a(lib_a-strncasecmp.o)
                0x100220c0                strncasecmp
 .text          0x10022138     0x1f7c /home/leon/riotboard/arm-2012.09/bin/../arm-none-eabi/lib//libc.a(lib_a-svfprintf.o)
                0x10022138                _svfprintf_r
 .text          0x100240b4     0x12c4 /home/leon/riotboard/arm-2012.09/bin/../arm-none-eabi/lib//libc.a(lib_a-vfiprintf.o)
                0x100240b4                __sprint_r
                0x10024170                _vfiprintf_r
                0x1002534c                vfiprintf
 .text          0x10025378     0x2180 /home/leon/riotboard/arm-2012.09/bin/../arm-none-eabi/lib//libc.a(lib_a-vfprintf.o)
                0x10025378                _vfprintf_r
                0x100274cc                vfprintf
 .text          0x100274f8       0x4c /home/leon/riotboard/arm-2012.09/bin/../arm-none-eabi/lib//libc.a(lib_a-vprintf.o)
                0x100274f8                vprintf
                0x10027524                _vprintf_r
 .text          0x10027544      0x14c /home/leon/riotboard/arm-2012.09/bin/../arm-none-eabi/lib//libc.a(lib_a-wbuf.o)
                0x10027544                __swbuf_r
                0x10027674                __swbuf
 .text          0x10027690       0x44 /home/leon/riotboard/arm-2012.09/bin/../arm-none-eabi/lib//libc.a(lib_a-writer.o)
                0x10027690                _write_r
 .text          0x100276d4      0x138 /home/leon/riotboard/arm-2012.09/bin/../arm-none-eabi/lib//libc.a(lib_a-wsetup.o)
                0x100276d4                __swsetup_r
 .text          0x1002780c       0x14 /home/leon/riotboard/arm-2012.09/bin/../arm-none-eabi/lib//libc.a(lib_a-abort.o)
                0x1002780c                abort
 .text          0x10027820       0x3c /home/leon/riotboard/arm-2012.09/bin/../arm-none-eabi/lib//libc.a(lib_a-closer.o)
                0x10027820                _close_r
 .text          0x1002785c        0x0 /home/leon/riotboard/arm-2012.09/bin/../arm-none-eabi/lib//libc.a(lib_a-ctype_.o)
 *fill*         0x1002785c        0x4 
 .text          0x10027860     0x18a8 /home/leon/riotboard/arm-2012.09/bin/../arm-none-eabi/lib//libc.a(lib_a-dtoa.o)
                0x10027a40                _dtoa_r
 .text          0x10029108      0x10c /home/leon/riotboard/arm-2012.09/bin/../arm-none-eabi/lib//libc.a(lib_a-fclose.o)
                0x10029108                _fclose_r
                0x10029200                fclose
 .text          0x10029214      0x19c /home/leon/riotboard/arm-2012.09/bin/../arm-none-eabi/lib//libc.a(lib_a-fputwc.o)
                0x10029214                _fputwc_r
                0x10029364                fputwc
 .text          0x100293b0       0xd0 /home/leon/riotboard/arm-2012.09/bin/../arm-none-eabi/lib//libc.a(lib_a-locale.o)
                0x100293b0                _setlocale_r
                0x1002941c                __locale_charset
                0x10029428                __locale_mb_cur_max
                0x10029438                __locale_msgcharset
                0x10029444                __locale_cjk_lang
                0x1002944c                _localeconv_r
                0x10029458                setlocale
                0x10029474                localeconv
 .text          0x10029480       0x44 /home/leon/riotboard/arm-2012.09/bin/../arm-none-eabi/lib//libc.a(lib_a-lseekr.o)
                0x10029480                _lseek_r
 .text          0x100294c4      0x15c /home/leon/riotboard/arm-2012.09/bin/../arm-none-eabi/lib//libc.a(lib_a-makebuf.o)
                0x100294c4                __smakebuf_r
 .text          0x10029620      0xd20 /home/leon/riotboard/arm-2012.09/bin/../arm-none-eabi/lib//libc.a(lib_a-mprec.o)
                0x10029620                _Balloc
                0x100296ac                _Bfree
                0x100296c8                __multadd
                0x100297a4                __s2b
                0x10029894                __hi0bits
                0x100298e4                __lo0bits
                0x10029978                __i2b
                0x1002999c                __multiply
                0x10029b80                __pow5mult
                0x10029c74                __lshift
                0x10029d78                __mcmp
                0x10029ddc                __mdiff
                0x10029f28                __ulp
                0x10029f8c                __b2d
                0x1002a058                __d2b
                0x1002a160                __ratio
                0x1002a1f0                _mprec_log10
                0x1002a244                __copybits
                0x1002a2b8                __any_on
 .text          0x1002a340       0x44 /home/leon/riotboard/arm-2012.09/bin/../arm-none-eabi/lib//libc.a(lib_a-readr.o)
                0x1002a340                _read_r
 .text          0x1002a384      0x19c /home/leon/riotboard/arm-2012.09/bin/../arm-none-eabi/lib//libc.a(lib_a-reent.o)
                0x1002a384                cleanup_glue
                0x1002a3b0                _reclaim_reent
                0x1002a4ac                _wrapup_reent
 .text          0x1002a520      0x1cc /home/leon/riotboard/arm-2012.09/bin/../arm-none-eabi/lib//libc.a(lib_a-refill.o)
                0x1002a548                __srefill_r
 .text          0x1002a6ec       0x6c /home/leon/riotboard/arm-2012.09/bin/../arm-none-eabi/lib//libc.a(lib_a-s_fpclassify.o)
                0x1002a6ec                __fpclassifyd
 .text          0x1002a758      0x24c /home/leon/riotboard/arm-2012.09/bin/../arm-none-eabi/lib//libc.a(lib_a-signal.o)
                0x1002a758                _init_signal_r
                0x1002a7b8                _signal_r
                0x1002a824                _raise_r
                0x1002a8bc                __sigtramp_r
                0x1002a950                raise
                0x1002a964                signal
                0x1002a980                _init_signal
                0x1002a990                __sigtramp
 .text          0x1002a9a4       0x50 /home/leon/riotboard/arm-2012.09/bin/../arm-none-eabi/lib//libc.a(lib_a-signalr.o)
                0x1002a9a4                _kill_r
                0x1002a9e4                _getpid_r
 .text          0x1002a9f4      0x230 /home/leon/riotboard/arm-2012.09/bin/../arm-none-eabi/lib//libc.a(lib_a-strcmp.o)
                0x1002a9f4                strcmp
 .text          0x1002ac24     0x1224 /home/leon/riotboard/arm-2012.09/bin/../arm-none-eabi/lib//libc.a(lib_a-svfiprintf.o)
                0x1002ac24                __ssprint_r
                0x1002adc8                _svfiprintf_r
 .text          0x1002be48      0x134 /home/leon/riotboard/arm-2012.09/bin/../arm-none-eabi/lib//libc.a(lib_a-wcrtomb.o)
                0x1002be48                _wcrtomb_r
                0x1002bed8                wcrtomb
 .text          0x1002bf7c       0x7c /home/leon/riotboard/arm-2012.09/bin/../arm-none-eabi/lib//libc.a(lib_a-wctomb_r.o)
                0x1002bf7c                __ascii_wctomb
                0x1002bfa8                _wctomb_r
 .text          0x1002bff8       0x94 /home/leon/riotboard/arm-2012.09/bin/../arm-none-eabi/lib//libc.a(lib_a-callocr.o)
                0x1002bff8                _calloc_r
 .text          0x1002c08c       0x40 /home/leon/riotboard/arm-2012.09/bin/../arm-none-eabi/lib//libc.a(lib_a-fstatr.o)
                0x1002c08c                _fstat_r
 .text          0x1002c0cc       0x3c /home/leon/riotboard/arm-2012.09/bin/../arm-none-eabi/lib//libc.a(lib_a-isattyr.o)
                0x1002c0cc                _isatty_r
 .text          0x1002c108      0x114 /home/leon/riotboard/arm-2012.09/bin/../lib/gcc/arm-none-eabi/4.7.2//libgcc.a(_udivsi3.o)
                0x1002c108                __udivsi3
                0x1002c108                __aeabi_uidiv
                0x1002c1fc                __aeabi_uidivmod
 .text          0x1002c21c        0x4 /home/leon/riotboard/arm-2012.09/bin/../lib/gcc/arm-none-eabi/4.7.2//libgcc.a(_dvmd_tls.o)
                0x1002c21c                __aeabi_ldiv0
                0x1002c21c                __aeabi_idiv0
 .text          0x1002c220      0x41c /home/leon/riotboard/arm-2012.09/bin/../lib/gcc/arm-none-eabi/4.7.2//libgcc.a(_arm_addsubdf3.o)
                0x1002c220                __aeabi_drsub
                0x1002c228                __aeabi_dsub
                0x1002c228                __subdf3
                0x1002c22c                __adddf3
                0x1002c22c                __aeabi_dadd
                0x1002c53c                __aeabi_ui2d
                0x1002c53c                __floatunsidf
                0x1002c560                __floatsidf
                0x1002c560                __aeabi_i2d
                0x1002c588                __extendsfdf2
                0x1002c588                __aeabi_f2d
                0x1002c5c8                __aeabi_ul2d
                0x1002c5c8                __floatundidf
                0x1002c5dc                __floatdidf
                0x1002c5dc                __aeabi_l2d
 .text          0x1002c63c      0x49c /home/leon/riotboard/arm-2012.09/bin/../lib/gcc/arm-none-eabi/4.7.2//libgcc.a(_arm_muldivdf3.o)
                0x1002c63c                __aeabi_dmul
                0x1002c63c                __muldf3
                0x1002c8cc                __aeabi_ddiv
                0x1002c8cc                __divdf3
 .text          0x1002cad8      0x144 /home/leon/riotboard/arm-2012.09/bin/../lib/gcc/arm-none-eabi/4.7.2//libgcc.a(_arm_cmpdf2.o)
                0x1002cad8                __gtdf2
                0x1002cad8                __gedf2
                0x1002cae0                __ltdf2
                0x1002cae0                __ledf2
                0x1002cae8                __cmpdf2
                0x1002cae8                __eqdf2
                0x1002cae8                __nedf2
                0x1002cb70                __aeabi_cdrcmple
                0x1002cb8c                __aeabi_cdcmple
                0x1002cb8c                __aeabi_cdcmpeq
                0x1002cba4                __aeabi_dcmpeq
                0x1002cbbc                __aeabi_dcmplt
                0x1002cbd4                __aeabi_dcmple
                0x1002cbec                __aeabi_dcmpge
                0x1002cc04                __aeabi_dcmpgt
 .text          0x1002cc1c       0x5c /home/leon/riotboard/arm-2012.09/bin/../lib/gcc/arm-none-eabi/4.7.2//libgcc.a(_arm_fixdfsi.o)
                0x1002cc1c                __fixdfsi
                0x1002cc1c                __aeabi_d2iz
 .text          0x1002cc78      0x2ac /home/leon/riotboard/arm-2012.09/bin/../lib/gcc/arm-none-eabi/4.7.2//libgcc.a(_arm_addsubsf3.o)
                0x1002cc78                __aeabi_frsub
                0x1002cc80                __subsf3
                0x1002cc80                __aeabi_fsub
                0x1002cc84                __aeabi_fadd
                0x1002cc84                __addsf3
                0x1002ce40                __aeabi_ui2f
                0x1002ce40                __floatunsisf
                0x1002ce48                __aeabi_i2f
                0x1002ce48                __floatsisf
                0x1002ce68                __floatundisf
                0x1002ce68                __aeabi_ul2f
                0x1002ce78                __floatdisf
                0x1002ce78                __aeabi_l2f
 .text          0x1002cf24      0x2f8 /home/leon/riotboard/arm-2012.09/bin/../lib/gcc/arm-none-eabi/4.7.2//libgcc.a(_arm_muldivsf3.o)
                0x1002cf24                __mulsf3
                0x1002cf24                __aeabi_fmul
                0x1002d0bc                __divsf3
                0x1002d0bc                __aeabi_fdiv
 .text          0x1002d21c      0x114 /home/leon/riotboard/arm-2012.09/bin/../lib/gcc/arm-none-eabi/4.7.2//libgcc.a(_arm_cmpsf2.o)
                0x1002d21c                __gtsf2
                0x1002d21c                __gesf2
                0x1002d224                __lesf2
                0x1002d224                __ltsf2
                0x1002d22c                __nesf2
                0x1002d22c                __eqsf2
                0x1002d22c                __cmpsf2
                0x1002d290                __aeabi_cfrcmple
                0x1002d2a0                __aeabi_cfcmple
                0x1002d2a0                __aeabi_cfcmpeq
                0x1002d2b8                __aeabi_fcmpeq
                0x1002d2d0                __aeabi_fcmplt
                0x1002d2e8                __aeabi_fcmple
                0x1002d300                __aeabi_fcmpge
                0x1002d318                __aeabi_fcmpgt
 .text          0x1002d330       0x5c /home/leon/riotboard/arm-2012.09/bin/../lib/gcc/arm-none-eabi/4.7.2//libgcc.a(_arm_fixsfsi.o)
                0x1002d330                __fixsfsi
                0x1002d330                __aeabi_f2iz
 .text          0x1002d38c       0x3c /home/leon/riotboard/arm-2012.09/bin/../lib/gcc/arm-none-eabi/4.7.2//libgcc.a(_aeabi_uldivmod.o)
                0x1002d38c                __aeabi_uldivmod
 .text          0x1002d3c8       0x84 /home/leon/riotboard/arm-2012.09/bin/../lib/gcc/arm-none-eabi/4.7.2//libgcc.a(bpabi.o)
                0x1002d3c8                __gnu_ldivmod_helper
                0x1002d40c                __gnu_uldivmod_helper
 .text          0x1002d44c      0x4f0 /home/leon/riotboard/arm-2012.09/bin/../lib/gcc/arm-none-eabi/4.7.2//libgcc.a(_divdi3.o)
                0x1002d44c                __divdi3
 .text          0x1002d93c      0x488 /home/leon/riotboard/arm-2012.09/bin/../lib/gcc/arm-none-eabi/4.7.2//libgcc.a(_udivdi3.o)
                0x1002d93c                __udivdi3
 .text          0x1002ddc4       0x48 /home/leon/riotboard/arm-2012.09/bin/../lib/gcc/arm-none-eabi/4.7.2//libgcc.a(_clzsi2.o)
                0x1002ddc4                __clzsi2
 .text          0x1002de0c       0x64 /home/leon/git/swp-report/iMX6_Platform_SDK/output/mx6dq/lib/libsdk.a(profile.o)
                0x1002de0c                StartPerfCounter
                0x1002de34                StopPerfCounter
 .text          0x1002de70      0x644 /home/leon/git/swp-report/iMX6_Platform_SDK/output/mx6dq/lib/libsdk.a(armv7_cache.o)
                0x1002de70                arm_dcache_state_query
                0x1002deb0                arm_dcache_enable
                0x1002def8                arm_dcache_disable
                0x1002df30                arm_dcache_invalidate
                0x1002dfd4                arm_dcache_invalidate_line
                0x1002e040                arm_dcache_invalidate_mlines
                0x1002e0e0                arm_dcache_flush
                0x1002e184                arm_dcache_flush_line
                0x1002e1f0                arm_dcache_flush_mlines
                0x1002e290                arm_icache_state_query
                0x1002e2d0                arm_icache_enable
                0x1002e318                arm_icache_disable
                0x1002e350                arm_icache_invalidate
                0x1002e37c                arm_icache_invalidate_is
                0x1002e3a8                arm_icache_invalidate_line
                0x1002e414                arm_icache_invalidate_mlines
 .text          0x1002e4b4      0x610 /home/leon/git/swp-report/iMX6_Platform_SDK/output/mx6dq/lib/libsdk.a(runtime_support.o)
                0x1002e4b4                _execve
                0x1002e4f0                _fork
                0x1002e518                _isatty
                0x1002e53c                _open
                0x1002e568                _close
                0x1002e58c                _lseek
                0x1002e5b8                _fstat
                0x1002e5ec                _read
                0x1002e6bc                _write
                0x1002e7a8                _raw_puts
                0x1002e828                _sbrk
                0x1002e8d8                _exit
                0x1002e8f8                _kill
                0x1002e930                _getpid
                0x1002e948                _link
                0x1002e980                _unlink
                0x1002e9b4                _stat
                0x1002e9e8                _times
                0x1002ea0c                _gettimeofday
                0x1002ea90                _wait
 .text          0x1002eac4      0x62c /home/leon/git/swp-report/iMX6_Platform_SDK/output/mx6dq/lib/libsdk.a(mma8451.o)
                0x1002eac4                mma8451_read_register
                0x1002eb94                mma8451_write_register
                0x1002ec74                mma8451_init
                0x1002ee30                mma8451_get_acceleration
 .text          0x1002f0f0      0xa88 /home/leon/git/swp-report/iMX6_Platform_SDK/output/mx6dq/lib/libsdk.a(smd_sensor.o)
                0x1002f488                sensor_config
                0x1002f4c4                sensor_search
                0x1002f654                sensor_init
                0x1002f7c8                sensor_af_trigger
                0x1002f8a8                sensor_autofocus_init
                0x1002fa28                camera_strobeflash_on
                0x1002fb04                camera_strobeflash_off
 .text          0x1002fb78       0x78 /home/leon/git/swp-report/iMX6_Platform_SDK/output/mx6dq/lib/libsdk.a(cpu_get_cores.o)
                0x1002fb78                cpu_get_cores
 .text          0x1002fbf0      0x2a8 /home/leon/git/swp-report/iMX6_Platform_SDK/output/mx6dq/lib/libsdk.a(cpu_multicore.o)
                0x1002fc54                cpu_start_secondary
                0x1002fde8                cpu_disable
 .text          0x1002fe98      0x1cc /home/leon/git/swp-report/iMX6_Platform_SDK/output/mx6dq/lib/libsdk.a(cpu_workpoint.o)
                0x1002fe98                cpu_workpoint_set
 .text          0x10030064     0x17e0 /home/leon/git/swp-report/iMX6_Platform_SDK/output/mx6dq/lib/libsdk.a(enet_drv.o)
                0x10030064                imx_enet_mii_read
                0x10030174                imx_enet_mii_write
                0x10030648                enet_phy_rework_ar8031
                0x100307bc                enet_phy_rework_ksz9021
                0x100308b0                imx_enet_phy_init
                0x10030b30                imx_enet_get_phy_status
                0x10030e58                imx_enet_phy_enable_external_loopback
                0x10030f74                imx_enet_poll
                0x1003106c                imx_enet_send
                0x10031184                imx_enet_recv
                0x10031360                imx_enet_init
                0x100314b4                imx_enet_start
                0x10031548                imx_enet_stop
                0x1003158c                imx_enet_isolate_phy
                0x10031630                imx_enet_unisolate_phy
                0x100316f8                imx_enet_mii_type
 .text          0x10031844     0x1308 /home/leon/git/swp-report/iMX6_Platform_SDK/output/mx6dq/lib/libsdk.a(gpio.o)
                0x10031874                gpio_get_port_count
                0x1003188c                gpio_set_gpio
                0x10031950                gpio_set_direction
                0x10031bac                gpio_get_direction
                0x10031cf4                gpio_set_level
                0x10032034                gpio_get_level
                0x10032194                gpio_set_interrupt_config
                0x10032598                gpio_set_interrupt_mask
                0x100327dc                gpio_get_interrupt_status
                0x10032938                gpio_clear_interrupt
 .text          0x10032b4c        0x0 /home/leon/git/swp-report/iMX6_Platform_SDK/output/mx6dq/lib/libsdk.a(imx6dq_gpio_map.o)
 .text          0x10032b4c     0x1334 /home/leon/git/swp-report/iMX6_Platform_SDK/output/mx6dq/lib/libsdk.a(hdmi_tx.o)
                0x10032b4c                hdmi_config_input_source
                0x10032b8c                hdmi_video_sample
                0x10032dd4                update_csc_coeffs
                0x100332e8                hdmi_video_csc
                0x10033488                hdmi_video_packetize
                0x10033854                preamble_filter_set
                0x10033914                hdmi_av_frame_composer
                0x10033d5c                hdmi_tx_hdcp_config
                0x10033dc8                hdmi_config_force_video
                0x10033e20                hdmi_config_forced_pixels
 .text          0x10033e80      0xd24 /home/leon/git/swp-report/iMX6_Platform_SDK/output/mx6dq/lib/libsdk.a(hdmi_tx_audio.o)
                0x10033e80                hdmi_audio_mute
                0x10033ed0                audio_PacketLayout
                0x10033f10                audio_DMA_InterruptMask
                0x10033f40                audio_DMA_InterruptPolarity
                0x10033f70                audio_DMA_ResetFIFO
                0x10033f94                audio_clk_N
                0x10033ff4                audio_clk_CTS
                0x10034094                audio_ComputeN
                0x100343b4                audio_ComputeCTS
                0x100345f0                audio_DMA_StartAddr
                0x10034668                audio_DMA_StopAddr
                0x100346e0                audio_DMA_LockEnable
                0x10034720                audio_DMA_BurstMode
                0x10034760                audio_DMA_IncrType
                0x100347a0                audio_DMA_Threshold
                0x100347d0                audio_DMA_SetCONF1
                0x10034800                audio_DMA_Start
                0x10034824                audio_Configure
                0x100348dc                Audio_ChannelCount
                0x100349cc                audio_Configure_DMA
                0x10034b64                audio_info_config
 .text          0x10034ba4     0x14fc /home/leon/git/swp-report/iMX6_Platform_SDK/output/mx6dq/lib/libsdk.a(hdmi_tx_phy.o)
                0x10034ba4                hdmi_phy_int_mask
                0x1003600c                hdmi_phy_init
 .text          0x100360a0     0x14bc /home/leon/git/swp-report/iMX6_Platform_SDK/output/mx6dq/lib/libsdk.a(imx_i2c.o)
                0x100360d0                i2c_get_request_instance
                0x10036a20                i2c_xfer
                0x1003707c                i2c_read
                0x100370ac                i2c_write
                0x100370dc                i2c_setup_interrupt
                0x100372e8                i2c_init
 .text          0x1003755c      0xba8 /home/leon/git/swp-report/iMX6_Platform_SDK/output/mx6dq/lib/libsdk.a(imx_i2c_slave.o)
                0x1003755c                i2c_slave_interrupt_routine
                0x10037668                i2c_slave_handler
                0x10037bc0                i2c_slave_xfer
 .text          0x10038104      0x474 /home/leon/git/swp-report/iMX6_Platform_SDK/output/mx6dq/lib/libsdk.a(ips_disp_panel.o)
                0x10038398                search_panel
                0x10038458                list_panel
                0x100384f0                get_panel_by_id
 .text          0x10038578      0xff4 /home/leon/git/swp-report/iMX6_Platform_SDK/output/mx6dq/lib/libsdk.a(ipu_common.o)
                0x10038578                need_csc
                0x100385e0                ipu_write_field
                0x10038698                ipu_read
                0x10038704                ipu_write
                0x1003876c                ipu_enable_display
                0x100387d8                ipu_disable_display
                0x10038858                ipu_sw_reset
                0x10038938                ipu_display_setup
                0x10038aac                ipu_dual_display_setup
                0x10038bb0                ipu_capture_setup
                0x1003901c                ipu_capture_streamoff
                0x100390f0                ipu_mipi_csi2_setup
                0x100392e8                ipu1_ch0_eobnd_isr
                0x100394c4                ipu_ch0_eobnd_interrupt_register
 .text          0x1003956c      0xcb8 /home/leon/git/swp-report/iMX6_Platform_SDK/output/mx6dq/lib/libsdk.a(ipu_csi.o)
                0x1003956c                ipu_csi_config
                0x10039bb0                ipu_smfc_fifo_allocate
                0x10039d0c                ipu_capture_disp_link
                0x10039e38                ipu_disable_csi
                0x10039ea4                ipu_disable_smfc
                0x10039ed8                ipu_csi_test_mode_color
 .text          0x1003a224     0x1bec /home/leon/git/swp-report/iMX6_Platform_SDK/output/mx6dq/lib/libsdk.a(ipu_dc.o)
                0x1003a224                ipu_dc_config
                0x1003a514                ipu_dc_write_channel_config
                0x1003a7cc                ipu_dc_display_config
                0x1003a960                ipu_dc_map
                0x1003acf4                ipu_dc_microcode_config
                0x1003bab4                ipu_dc_microcode_event
 .text          0x1003be10      0xfec /home/leon/git/swp-report/iMX6_Platform_SDK/output/mx6dq/lib/libsdk.a(ipu_di.o)
                0x1003be10                ipu_di_config
                0x1003c440                ipu_di_waveform_config
                0x1003c508                ipu_di_screen_set
                0x1003c59c                ipu_di_pointer_config
                0x1003c700                ipu_di_bsclk_gen
                0x1003c838                ipu_di_sync_config
                0x1003cb40                ipu_di_interface_set
 .text          0x1003cdfc      0x3e0 /home/leon/git/swp-report/iMX6_Platform_SDK/output/mx6dq/lib/libsdk.a(ipu_dmfc.o)
                0x1003cdfc                ipu_dmfc_config
                0x1003d090                ipu_dmfc_alloc
 .text          0x1003d1dc      0x5b0 /home/leon/git/swp-report/iMX6_Platform_SDK/output/mx6dq/lib/libsdk.a(ipu_dp.o)
                0x1003d1dc                ipu_dp_config
                0x1003d230                ipu_dp_csc_config
                0x1003d5e8                ipu_dp_fg_config
 .text          0x1003d78c     0x16a4 /home/leon/git/swp-report/iMX6_Platform_SDK/output/mx6dq/lib/libsdk.a(ipu_ic.o)
                0x1003d78c                ipu_ic_enable
                0x1003d7d8                ipu_ic_rotation_config
                0x1003d9e4                ipu_ic_resize_config
                0x1003df38                ipu_ic_deinterlace_config
                0x1003e114                ipu_ic_calc_resize_coeffs
                0x1003e22c                ipu_ic_config_resize_rate
                0x1003e368                ipu_ic_combine_config
                0x1003e524                ipu_ic_csc_config
                0x1003ec30                ipu_ic_task_enable
 .text          0x1003ee30     0x2e08 /home/leon/git/swp-report/iMX6_Platform_SDK/output/mx6dq/lib/libsdk.a(ipu_idmac.o)
                0x1003ee30                ipu_cpmem_set_field
                0x1003ef5c                ipu_cpmem_mod_field
                0x1003f0e8                ipu_cpmem_read_field
                0x1003f244                ipu_channel_buf_ready
                0x1003f3bc                ipu_channel_buf_not_ready
                0x1003f534                ipu_idmac_channel_mode_sel
                0x1003f5bc                ipu_idmac_channel_enable
                0x1003f644                ipu_idmac_channel_busy
                0x1003f704                ipu_general_idmac_config
                0x1003fcec                ipu_disp_bg_idmac_config
                0x1003fdd4                ipu_disp_fg_idmac_config
                0x1003febc                ipu_dma_update_buffer
                0x1003ffd8                ipu_idmac_chan_cur_buff
                0x10040084                ipu_rotate_idmac_config
                0x100401b8                ipu_resize_idmac_config
                0x100402f4                ipu_deinterlace_idmac_config
                0x10040448                ipu_idma_pixel_format_config
 .text          0x10041c38      0x598 /home/leon/git/swp-report/iMX6_Platform_SDK/output/mx6dq/lib/libsdk.a(ipu_vdi.o)
                0x10041c38                ipu_deinterlace_3_fields
                0x10041c88                ipu_vdi_set_top_field_man
                0x10041cfc                ipu_vdi_set_motion
                0x10041e04                ipu_vdi_init
                0x10041f48                ipu_vdi_uninit
                0x10041f90                ips_deinterlace_proc
 .text          0x100421d0      0x520 /home/leon/git/swp-report/iMX6_Platform_SDK/output/mx6dq/lib/libsdk.a(keypad_port.o)
                0x100421f0                kpp_scan_matrix
                0x10042434                kpp_get_keypad_state
                0x100424f4                kpp_wait_for_release_state
                0x1004253c                kpp_interrupt_routine
                0x1004257c                kpp_setup_interrupt
                0x100425e0                kpp_open
                0x100426a4                kpp_close
 .text          0x100426f0      0x4ac /home/leon/git/swp-report/iMX6_Platform_SDK/output/mx6dq/lib/libsdk.a(ldb.o)
                0x100428c0                ldb_config
                0x10042af8                ldb_set_vs_polarity
 .text          0x10042b9c      0x3f4 /home/leon/git/swp-report/iMX6_Platform_SDK/output/mx6dq/lib/libsdk.a(ocotp.o)
                0x10042c08                Delay4Reload
                0x10042e4c                ocotp_sense_fuse
                0x10042ebc                ocotp_fuse_blow_row
                0x10042f18                ocotp_reload_otp_shadow_registers
 .text          0x10042f90      0x55c /home/leon/git/swp-report/iMX6_Platform_SDK/output/mx6dq/lib/libsdk.a(pcie.o)
                0x10043244                pcie_map_space
                0x10043308                pcie_init
 .text          0x100434ec      0x394 /home/leon/git/swp-report/iMX6_Platform_SDK/output/mx6dq/lib/libsdk.a(pcie_phy.o)
                0x10043638                pcie_phy_cr_read
                0x10043710                pcie_phy_cr_write
 .text          0x10043880      0x70c /home/leon/git/swp-report/iMX6_Platform_SDK/output/mx6dq/lib/libsdk.a(pcie_prot.o)
                0x10043c18                pcie_dump_cfg_header
                0x10043c84                pcie_enum_resources
                0x10043f14                pcie_cfg_ep_bar
 .text          0x10043f8c     0x1bf0 /home/leon/git/swp-report/iMX6_Platform_SDK/output/mx6dq/lib/libsdk.a(pmu_driver.o)
                0x100441f8                pmu_init
                0x10044394                pmu_get_property
                0x100443f4                pmu_set_property
                0x10044458                pmu::Regulator::getProperty(_pmu_regulator_properties, void*)
                0x100446d4                pmu::Regulator::setProperty(_pmu_regulator_properties, void const*)
                0x1004484c                pmu::Regulator::setVoltageRange(unsigned long, unsigned long, unsigned long)
                0x10044898                pmu::AnalogRegulator::getProperty(_pmu_regulator_properties, void*)
                0x10044964                pmu::AnalogRegulator::setProperty(_pmu_regulator_properties, void const*)
                0x10044a24                pmu::AnalogRegulator::getOutputMillivolts() const
                0x10044a7c                pmu::AnalogRegulator::setOutputMillivolts(unsigned long)
                0x10044b64                pmu::AnalogRegulator::getBrownoutMillivolts() const
                0x10044bd4                pmu::AnalogRegulator::setBrownoutMillivolts(unsigned long)
                0x10044c6c                pmu::AnalogRegulator::isBrownoutDetectEnabled() const
                0x10044cb0                pmu::AnalogRegulator::setBrownoutDetectIsEnabled(bool)
                0x10044cfc                pmu::AnalogRegulator::isEnabled() const
                0x10044d40                pmu::AnalogRegulator::setIsEnabled(bool)
                0x10044d8c                pmu::DigitalRegulator::DigitalRegulator()
                0x10044d8c                pmu::DigitalRegulator::DigitalRegulator()
                0x10044dcc                pmu::DigitalRegulator::getProperty(_pmu_regulator_properties, void*)
                0x10044ecc                pmu::DigitalRegulator::setProperty(_pmu_regulator_properties, void const*)
                0x10044f94                pmu::DigitalRegulator::isBypassed() const
                0x10044fe0                pmu::DigitalRegulator::setIsBypassed(bool)
                0x10045094                pmu::DigitalRegulator::getOutputMillivolts() const
                0x10045130                pmu::DigitalRegulator::setOutputMillivolts(unsigned long)
                0x10045214                pmu::DigitalRegulator::getBrownoutMillivolts() const
                0x10045288                pmu::DigitalRegulator::setBrownoutMillivolts(unsigned long)
                0x10045320                pmu::DigitalRegulator::isEnabled() const
                0x1004536c                pmu::DigitalRegulator::setIsEnabled(bool)
                0x10045428                pmu::LDO1p1Regulator::LDO1p1Regulator()
                0x10045428                pmu::LDO1p1Regulator::LDO1p1Regulator()
                0x10045488                pmu::LDO1p1Regulator::getProperty(_pmu_regulator_properties, void*)
                0x10045520                pmu::LDO1p1Regulator::getOutputMillivolts() const
                0x1004557c                pmu::LDO1p1Regulator::setOutputMillivolts(unsigned long)
                0x10045670                pmu::LDO2p5Regulator::LDO2p5Regulator()
                0x10045670                pmu::LDO2p5Regulator::LDO2p5Regulator()
                0x100456d0                pmu::LDO3p0Regulator::LDO3p0Regulator()
                0x100456d0                pmu::LDO3p0Regulator::LDO3p0Regulator()
                0x10045730                pmu::LDO3p0Regulator::getProperty(_pmu_regulator_properties, void*)
                0x1004579c                pmu::LDO3p0Regulator::setProperty(_pmu_regulator_properties, void const*)
                0x1004580c                pmu::LDOARMRegulator::LDOARMRegulator()
                0x1004580c                pmu::LDOARMRegulator::LDOARMRegulator()
                0x10045864                pmu::LDOARMRegulator::setBrownoutDetectIsEnabled(bool)
                0x100458b0                pmu::LDOARMRegulator::setRampRate(unsigned long)
                0x10045910                pmu::LDOGraphicsRegulator::LDOGraphicsRegulator()
                0x10045910                pmu::LDOGraphicsRegulator::LDOGraphicsRegulator()
                0x10045968                pmu::LDOGraphicsRegulator::setBrownoutDetectIsEnabled(bool)
                0x100459b4                pmu::LDOGraphicsRegulator::setRampRate(unsigned long)
                0x10045a14                pmu::LDOSoCRegulator::LDOSoCRegulator()
                0x10045a14                pmu::LDOSoCRegulator::LDOSoCRegulator()
                0x10045a6c                pmu::LDOSoCRegulator::setBrownoutDetectIsEnabled(bool)
                0x10045ab8                pmu::LDOSoCRegulator::setRampRate(unsigned long)
 .text._ZnwjPv  0x10045b7c       0x28 /home/leon/git/swp-report/iMX6_Platform_SDK/output/mx6dq/lib/libsdk.a(pmu_driver.o)
                0x10045b7c                operator new(unsigned int, void*)
 .text._ZN3pmu9RegulatorC2Ev
                0x10045ba4       0x64 /home/leon/git/swp-report/iMX6_Platform_SDK/output/mx6dq/lib/libsdk.a(pmu_driver.o)
                0x10045ba4                pmu::Regulator::Regulator()
                0x10045ba4                pmu::Regulator::Regulator()
 .text._ZN3pmu9Regulator18setBrownoutHandlerEPFv9_pmu_regsE
                0x10045c08       0x2c /home/leon/git/swp-report/iMX6_Platform_SDK/output/mx6dq/lib/libsdk.a(pmu_driver.o)
                0x10045c08                pmu::Regulator::setBrownoutHandler(void (*)(_pmu_regs))
 .text._ZN3pmu9Regulator18getBrownoutHandlerEv
                0x10045c34       0x28 /home/leon/git/swp-report/iMX6_Platform_SDK/output/mx6dq/lib/libsdk.a(pmu_driver.o)
                0x10045c34                pmu::Regulator::getBrownoutHandler()
 .text._ZN3pmu15AnalogRegulatorC2ERV15_hw_pmu_reg_1p1
                0x10045c5c       0x50 /home/leon/git/swp-report/iMX6_Platform_SDK/output/mx6dq/lib/libsdk.a(pmu_driver.o)
                0x10045c5c                pmu::AnalogRegulator::AnalogRegulator(_hw_pmu_reg_1p1 volatile&)
                0x10045c5c                pmu::AnalogRegulator::AnalogRegulator(_hw_pmu_reg_1p1 volatile&)
 .text._ZNK3pmu15LDO1p1Regulator12isInBrownoutEv
                0x10045cac       0x70 /home/leon/git/swp-report/iMX6_Platform_SDK/output/mx6dq/lib/libsdk.a(pmu_driver.o)
                0x10045cac                pmu::LDO1p1Regulator::isInBrownout() const
 .text._ZNK3pmu15LDO1p1Regulator4isOKEv
                0x10045d1c       0x78 /home/leon/git/swp-report/iMX6_Platform_SDK/output/mx6dq/lib/libsdk.a(pmu_driver.o)
                0x10045d1c                pmu::LDO1p1Regulator::isOK() const
 .text._ZNK3pmu15LDO2p5Regulator12isInBrownoutEv
                0x10045d94       0x70 /home/leon/git/swp-report/iMX6_Platform_SDK/output/mx6dq/lib/libsdk.a(pmu_driver.o)
                0x10045d94                pmu::LDO2p5Regulator::isInBrownout() const
 .text._ZNK3pmu15LDO2p5Regulator4isOKEv
                0x10045e04       0x78 /home/leon/git/swp-report/iMX6_Platform_SDK/output/mx6dq/lib/libsdk.a(pmu_driver.o)
                0x10045e04                pmu::LDO2p5Regulator::isOK() const
 .text._ZNK3pmu15LDO3p0Regulator12isInBrownoutEv
                0x10045e7c       0x70 /home/leon/git/swp-report/iMX6_Platform_SDK/output/mx6dq/lib/libsdk.a(pmu_driver.o)
                0x10045e7c                pmu::LDO3p0Regulator::isInBrownout() const
 .text._ZNK3pmu15LDO3p0Regulator4isOKEv
                0x10045eec       0x78 /home/leon/git/swp-report/iMX6_Platform_SDK/output/mx6dq/lib/libsdk.a(pmu_driver.o)
                0x10045eec                pmu::LDO3p0Regulator::isOK() const
 .text._ZNK3pmu15LDOARMRegulator23isBrownoutDetectEnabledEv
                0x10045f64       0x44 /home/leon/git/swp-report/iMX6_Platform_SDK/output/mx6dq/lib/libsdk.a(pmu_driver.o)
                0x10045f64                pmu::LDOARMRegulator::isBrownoutDetectEnabled() const
 .text._ZNK3pmu15LDOARMRegulator12isInBrownoutEv
                0x10045fa8       0x6c /home/leon/git/swp-report/iMX6_Platform_SDK/output/mx6dq/lib/libsdk.a(pmu_driver.o)
                0x10045fa8                pmu::LDOARMRegulator::isInBrownout() const
 .text._ZNK3pmu15LDOARMRegulator4isOKEv
                0x10046014       0x24 /home/leon/git/swp-report/iMX6_Platform_SDK/output/mx6dq/lib/libsdk.a(pmu_driver.o)
                0x10046014                pmu::LDOARMRegulator::isOK() const
 .text._ZNK3pmu15LDOARMRegulator11getRampRateEv
                0x10046038       0x34 /home/leon/git/swp-report/iMX6_Platform_SDK/output/mx6dq/lib/libsdk.a(pmu_driver.o)
                0x10046038                pmu::LDOARMRegulator::getRampRate() const
 .text._ZNK3pmu15LDOARMRegulator10getTriggerEv
                0x1004606c       0x34 /home/leon/git/swp-report/iMX6_Platform_SDK/output/mx6dq/lib/libsdk.a(pmu_driver.o)
                0x1004606c                pmu::LDOARMRegulator::getTrigger() const
 .text._ZN3pmu15LDOARMRegulator10setTriggerEm
                0x100460a0       0x44 /home/leon/git/swp-report/iMX6_Platform_SDK/output/mx6dq/lib/libsdk.a(pmu_driver.o)
                0x100460a0                pmu::LDOARMRegulator::setTrigger(unsigned long)
 .text._ZNK3pmu15LDOARMRegulator11getBrownoutEv
                0x100460e4       0x34 /home/leon/git/swp-report/iMX6_Platform_SDK/output/mx6dq/lib/libsdk.a(pmu_driver.o)
                0x100460e4                pmu::LDOARMRegulator::getBrownout() const
 .text._ZN3pmu15LDOARMRegulator11setBrownoutEm
                0x10046118       0x44 /home/leon/git/swp-report/iMX6_Platform_SDK/output/mx6dq/lib/libsdk.a(pmu_driver.o)
                0x10046118                pmu::LDOARMRegulator::setBrownout(unsigned long)
 .text._ZNK3pmu20LDOGraphicsRegulator23isBrownoutDetectEnabledEv
                0x1004615c       0x44 /home/leon/git/swp-report/iMX6_Platform_SDK/output/mx6dq/lib/libsdk.a(pmu_driver.o)
                0x1004615c                pmu::LDOGraphicsRegulator::isBrownoutDetectEnabled() const
 .text._ZNK3pmu20LDOGraphicsRegulator12isInBrownoutEv
                0x100461a0       0x6c /home/leon/git/swp-report/iMX6_Platform_SDK/output/mx6dq/lib/libsdk.a(pmu_driver.o)
                0x100461a0                pmu::LDOGraphicsRegulator::isInBrownout() const
 .text._ZNK3pmu20LDOGraphicsRegulator4isOKEv
                0x1004620c       0x24 /home/leon/git/swp-report/iMX6_Platform_SDK/output/mx6dq/lib/libsdk.a(pmu_driver.o)
                0x1004620c                pmu::LDOGraphicsRegulator::isOK() const
 .text._ZNK3pmu20LDOGraphicsRegulator11getRampRateEv
                0x10046230       0x34 /home/leon/git/swp-report/iMX6_Platform_SDK/output/mx6dq/lib/libsdk.a(pmu_driver.o)
                0x10046230                pmu::LDOGraphicsRegulator::getRampRate() const
 .text._ZNK3pmu20LDOGraphicsRegulator10getTriggerEv
                0x10046264       0x34 /home/leon/git/swp-report/iMX6_Platform_SDK/output/mx6dq/lib/libsdk.a(pmu_driver.o)
                0x10046264                pmu::LDOGraphicsRegulator::getTrigger() const
 .text._ZN3pmu20LDOGraphicsRegulator10setTriggerEm
                0x10046298       0x44 /home/leon/git/swp-report/iMX6_Platform_SDK/output/mx6dq/lib/libsdk.a(pmu_driver.o)
                0x10046298                pmu::LDOGraphicsRegulator::setTrigger(unsigned long)
 .text._ZNK3pmu20LDOGraphicsRegulator11getBrownoutEv
                0x100462dc       0x34 /home/leon/git/swp-report/iMX6_Platform_SDK/output/mx6dq/lib/libsdk.a(pmu_driver.o)
                0x100462dc                pmu::LDOGraphicsRegulator::getBrownout() const
 .text._ZN3pmu20LDOGraphicsRegulator11setBrownoutEm
                0x10046310       0x44 /home/leon/git/swp-report/iMX6_Platform_SDK/output/mx6dq/lib/libsdk.a(pmu_driver.o)
                0x10046310                pmu::LDOGraphicsRegulator::setBrownout(unsigned long)
 .text._ZNK3pmu15LDOSoCRegulator23isBrownoutDetectEnabledEv
                0x10046354       0x44 /home/leon/git/swp-report/iMX6_Platform_SDK/output/mx6dq/lib/libsdk.a(pmu_driver.o)
                0x10046354                pmu::LDOSoCRegulator::isBrownoutDetectEnabled() const
 .text._ZNK3pmu15LDOSoCRegulator12isInBrownoutEv
                0x10046398       0x6c /home/leon/git/swp-report/iMX6_Platform_SDK/output/mx6dq/lib/libsdk.a(pmu_driver.o)
                0x10046398                pmu::LDOSoCRegulator::isInBrownout() const
 .text._ZNK3pmu15LDOSoCRegulator4isOKEv
                0x10046404       0x74 /home/leon/git/swp-report/iMX6_Platform_SDK/output/mx6dq/lib/libsdk.a(pmu_driver.o)
                0x10046404                pmu::LDOSoCRegulator::isOK() const
 .text._ZNK3pmu15LDOSoCRegulator11getRampRateEv
                0x10046478       0x34 /home/leon/git/swp-report/iMX6_Platform_SDK/output/mx6dq/lib/libsdk.a(pmu_driver.o)
                0x10046478                pmu::LDOSoCRegulator::getRampRate() const
 .text._ZNK3pmu15LDOSoCRegulator10getTriggerEv
                0x100464ac       0x34 /home/leon/git/swp-report/iMX6_Platform_SDK/output/mx6dq/lib/libsdk.a(pmu_driver.o)
                0x100464ac                pmu::LDOSoCRegulator::getTrigger() const
 .text._ZN3pmu15LDOSoCRegulator10setTriggerEm
                0x100464e0       0x44 /home/leon/git/swp-report/iMX6_Platform_SDK/output/mx6dq/lib/libsdk.a(pmu_driver.o)
                0x100464e0                pmu::LDOSoCRegulator::setTrigger(unsigned long)
 .text._ZNK3pmu15LDOSoCRegulator11getBrownoutEv
                0x10046524       0x34 /home/leon/git/swp-report/iMX6_Platform_SDK/output/mx6dq/lib/libsdk.a(pmu_driver.o)
                0x10046524                pmu::LDOSoCRegulator::getBrownout() const
 .text._ZN3pmu15LDOSoCRegulator11setBrownoutEm
                0x10046558       0x44 /home/leon/git/swp-report/iMX6_Platform_SDK/output/mx6dq/lib/libsdk.a(pmu_driver.o)
                0x10046558                pmu::LDOSoCRegulator::setBrownout(unsigned long)
 .text._ZN3pmu9_pmu_infoC2Ev
                0x1004659c       0x84 /home/leon/git/swp-report/iMX6_Platform_SDK/output/mx6dq/lib/libsdk.a(pmu_driver.o)
                0x1004659c                pmu::_pmu_info::_pmu_info()
                0x1004659c                pmu::_pmu_info::_pmu_info()
 .text._ZN3pmu15AnalogRegulatorC2I15_hw_pmu_reg_2p5EERVT_
                0x10046620       0x50 /home/leon/git/swp-report/iMX6_Platform_SDK/output/mx6dq/lib/libsdk.a(pmu_driver.o)
                0x10046620                pmu::AnalogRegulator::AnalogRegulator<_hw_pmu_reg_2p5>(_hw_pmu_reg_2p5 volatile&)
                0x10046620                pmu::AnalogRegulator::AnalogRegulator<_hw_pmu_reg_2p5>(_hw_pmu_reg_2p5 volatile&)
 .text._ZN3pmu15AnalogRegulatorC2I15_hw_pmu_reg_3p0EERVT_
                0x10046670       0x50 /home/leon/git/swp-report/iMX6_Platform_SDK/output/mx6dq/lib/libsdk.a(pmu_driver.o)
                0x10046670                pmu::AnalogRegulator::AnalogRegulator<_hw_pmu_reg_3p0>(_hw_pmu_reg_3p0 volatile&)
                0x10046670                pmu::AnalogRegulator::AnalogRegulator<_hw_pmu_reg_3p0>(_hw_pmu_reg_3p0 volatile&)
 .text          0x100466c0      0xb4c /home/leon/git/swp-report/iMX6_Platform_SDK/output/mx6dq/lib/libsdk.a(pwm.o)
                0x100466c0                pwm_init
                0x10046bd8                pwm_clear_int_status
                0x10046cc4                pwm_setup_interrupt
                0x10046f8c                pwm_free_interrupt
                0x10047034                pwm_isr_test_end
                0x10047078                pwm_enable
                0x10047100                pwm_disable
                0x10047190                pwm_get_clock_freq
 .text          0x1004720c      0x3b0 /home/leon/git/swp-report/iMX6_Platform_SDK/output/mx6dq/lib/libsdk.a(rtc.o)
                0x1004720c                snvs_rtc_interrupt_handler
                0x10047328                snvs_rtc_setup_interrupt
                0x1004738c                rtc_init
                0x1004740c                rtc_deinit
                0x10047468                rtc_setup_onetime_timer
                0x100474dc                rtc_setup_periodic_timer
                0x10047564                rtc_disable_periodic_timer
 .text          0x100475bc      0x210 /home/leon/git/swp-report/iMX6_Platform_SDK/output/mx6dq/lib/libsdk.a(srtc.o)
                0x100475bc                snvs_srtc_setup_interrupt
                0x10047620                snvs_srtc_interrupt_handler
                0x100476e4                srtc_init
                0x10047728                srtc_deinit
                0x10047758                srtc_setup_onetime_timer
 .text          0x100477cc     0x2a8c /home/leon/git/swp-report/iMX6_Platform_SDK/output/mx6dq/lib/libsdk.a(sata.o)
                0x100477cc                sata_pio_read_sector
                0x10047964                sata_pio_write_sector
                0x10047af0                sata_dma_read_sector
                0x10047c7c                sata_dma_write_sector
                0x10047e08                sata_disk_read_sector
                0x10047f50                sata_disk_write_sector
                0x100480ac                printf_buffer
                0x1004810c                print_identify_data
                0x10049a74                sata_init
                0x1004a000                sata_deinit
                0x1004a13c                sata_identify
 .text          0x1004a258     0x1224 /home/leon/git/swp-report/iMX6_Platform_SDK/output/mx6dq/lib/libsdk.a(sdma.o)
                0x1004a7a4                sdma_init
                0x1004a96c                sdma_deinit
                0x1004aa60                sdma_channel_start
                0x1004ab0c                sdma_channel_stop
                0x1004ab6c                sdma_channel_request
                0x1004af64                sdma_channel_release
                0x1004b184                sdma_channel_status
                0x1004b2b8                sdma_lookup_script
                0x1004b3a4                sdma_setup_interrupt
                0x1004b418                sdma_channel_isr_attach
 .text          0x1004b47c        0x0 /home/leon/git/swp-report/iMX6_Platform_SDK/output/mx6dq/lib/libsdk.a(sdma_script_info.o)
 .text          0x1004b47c      0x4e8 /home/leon/git/swp-report/iMX6_Platform_SDK/output/mx6dq/lib/libsdk.a(snvs.o)
                0x1004b47c                snvs_rtc_counter
                0x1004b524                snvs_rtc_alarm
                0x1004b5cc                snvs_rtc_periodic_interrupt
                0x1004b6b0                snvs_rtc_set_counter
                0x1004b708                snvs_rtc_set_alarm_timeout
                0x1004b760                snvs_srtc_counter
                0x1004b808                snvs_srtc_alarm
                0x1004b8b0                snvs_srtc_set_counter
                0x1004b908                snvs_srtc_set_alarm_timeout
                0x1004b944                snvs_init
                0x1004b954                snvs_deinit
 .text          0x1004b964     0x15e4 /home/leon/git/swp-report/iMX6_Platform_SDK/output/mx6dq/lib/libsdk.a(ecspi.o)
                0x1004c014                ecspi_configure
                0x1004cb1c                ecspi_open
                0x1004cbec                ecspi_close
                0x1004cd28                ecspi_xfer
 .text          0x1004cf48      0x4e8 /home/leon/git/swp-report/iMX6_Platform_SDK/output/mx6dq/lib/libsdk.a(tempmon.o)
                0x1004cf48                compute_temp
                0x1004cff8                compute_alarm
                0x1004d0f4                tempmon_init
                0x1004d1bc                tempmon_get_temp
                0x1004d29c                tempmon_set_alarm
                0x1004d3c4                tempmon_disable_alarm
 .text          0x1004d430      0x528 /home/leon/git/swp-report/iMX6_Platform_SDK/output/mx6dq/lib/libsdk.a(gpt.o)
                0x1004d450                gpt_get_rollover_event
                0x1004d49c                gpt_get_capture_event
                0x1004d54c                gpt_set_capture_event
                0x1004d5d4                gpt_get_compare_event
                0x1004d63c                gpt_set_compare_event
                0x1004d744                gpt_counter_disable
                0x1004d77c                gpt_counter_enable
                0x1004d7c4                gpt_setup_interrupt
                0x1004d828                gpt_init
 .text          0x1004d958      0x3a8 /home/leon/git/swp-report/iMX6_Platform_SDK/output/mx6dq/lib/libsdk.a(usb_common.o)
                0x1004d958                usb_get_port_speed
                0x1004daf4                swap32
                0x1004db70                get_menu_item
 .text          0x1004dd00     0x2ac4 /home/leon/git/swp-report/iMX6_Platform_SDK/output/mx6dq/lib/libsdk.a(usbd_drv.o)
                0x1004dd00                usbd_device_init
                0x1004ed28                usbd_bus_reset
                0x1004f094                usbd_get_setup_packet
                0x1004f64c                usbd_device_send_control_packet
                0x1004fa60                usbd_device_send_zero_len_packet
                0x1004fde0                usbd_endpoint_qh_init
                0x1004ff04                usbd_dtd_init
                0x10050050                usbd_add_dtd
                0x100506e4                usbd_reclaim_dtd
 .text          0x100507c4     0x37f0 /home/leon/git/swp-report/iMX6_Platform_SDK/output/mx6dq/lib/libsdk.a(usbh_drv.o)
                0x100507c4                usbh_init
                0x10051754                usbh_periodic_schedule_init
                0x10052fac                usbh_bus_reset
                0x100532b0                usbh_enable_asynchronous_schedule
                0x100535b4                usbh_disable_asynchronous_schedule
                0x100538b8                usbh_disable_Periodic_list
                0x10053bbc                usbh_qtd_init
                0x10053de4                usbh_qh_init
 .text          0x10053fb4     0x11b8 /home/leon/git/swp-report/iMX6_Platform_SDK/output/mx6dq/lib/libsdk.a(usdhc.o)
                0x100541cc                set_card_access_mode
                0x1005420c                read_usdhc_adma_mode
                0x1005422c                read_usdhc_intr_mode
                0x1005424c                card_init
                0x100543fc                card_emmc_init
                0x10054490                card_cmd_config
                0x100545a4                card_get_cid
                0x10054644                card_enter_trans
                0x10054720                card_trans_status
                0x1005481c                card_get_port
                0x10054904                card_set_blklen
                0x100549e8                card_data_read
                0x10054cd4                card_data_write
                0x10054fd4                card_xfer_result
                0x100550c8                card_wait_xfer_done
 .text          0x1005516c     0x3484 /home/leon/git/swp-report/iMX6_Platform_SDK/output/mx6dq/lib/libsdk.a(usdhc_host.o)
                0x1005654c                usdhc1_isr
                0x10056564                usdhc2_isr
                0x1005657c                usdhc3_isr
                0x10056594                usdhc4_isr
                0x100565ac                host_init
                0x100565dc                host_init_active
                0x10056684                host_send_cmd
                0x10056aac                host_cfg_clock
                0x10057248                host_set_bus_width
                0x10057280                host_reset
                0x100573b0                host_read_response
                0x100575a0                host_cfg_block
                0x1005781c                host_clear_fifo
                0x100579c8                host_setup_adma
                0x10057be8                host_data_read
                0x100580f0                host_data_write
 .text          0x100585f0      0xe04 /home/leon/git/swp-report/iMX6_Platform_SDK/output/mx6dq/lib/libsdk.a(usdhc_mmc.o)
                0x10058b90                mmc_init
                0x10058c34                emmc_init
                0x10058d60                emmc_print_cfg_info
                0x10058f98                mmc_set_boot_bus_width
                0x10059060                mmc_set_boot_partition
                0x10059160                mmc_set_boot_ack
                0x100591e4                mmc_voltage_validation
 .text          0x100593f4      0x800 /home/leon/git/swp-report/iMX6_Platform_SDK/output/mx6dq/lib/libsdk.a(usdhc_sd.o)
                0x10059788                sd_init
                0x10059840                sd_voltage_validation
 .text          0x10059bf4       0x60 /home/leon/git/swp-report/iMX6_Platform_SDK/output/mx6dq/lib/libsdk.a(spinlock.o)
                0x10059bf4                spinlock_init
                0x10059c1c                spinlock_is_locked
 .text          0x10059c54       0x60 /home/leon/git/swp-report/iMX6_Platform_SDK/output/mx6dq/lib/libsdk.a(spinlock_lock_unlock.o)
                0x10059c54                spinlock_lock
                0x10059c80                spinlock_unlock
 .text          0x10059cb4        0x0 /home/leon/git/swp-report/iMX6_Platform_SDK/output/mx6dq/lib/libsdk.a(camera_profile.o)
 .text          0x10059cb4     0x1e94 /home/leon/git/swp-report/iMX6_Platform_SDK/output/mx6dq/lib/libsdk.a(hdmi_common.o)
                0x10059cb4                isColorSpaceConversion
                0x10059cf0                isColorSpaceDecimation
                0x10059d2c                isColorSpaceInterpolation
                0x10059d80                isPixelRepetition
                0x10059db8                hdmi_set_video_mode
 .text          0x1005bb48      0x2fc /home/leon/git/swp-report/iMX6_Platform_SDK/output/mx6dq/lib/libsdk.a(mx6x_usb.o)
                0x1005bb48                usbEnableClocks
                0x1005bc70                usbEnableTransceiver
 .text          0x1005be44      0x144 /home/leon/git/swp-report/iMX6_Platform_SDK/output/mx6dq/lib/libboard_smart_device_rev_c.a(board_audio.o)
                0x1005be44                SGTL5000PowerUp_and_clockinit
                0x1005be54                spdif_get_tx_clk_freq
                0x1005be70                audio_codec_power_on
                0x1005beac                audio_clock_config
                0x1005bed4                spdif_clk_cfg
                0x1005bf38                esai_codec_power_on
                0x1005bf50                esai_clk_sel_gate_on
 .text          0x1005bf88      0x388 /home/leon/git/swp-report/iMX6_Platform_SDK/output/mx6dq/lib/libboard_smart_device_rev_c.a(board_camera.o)
                0x1005bf88                camera_power_on
                0x1005bf98                csi_port0_iomux_config
                0x1005bfc8                camera_ipu1_iomux_config
                0x1005c164                sensor_reset
                0x1005c1fc                sensor_standby
                0x1005c278                sensor_clock_setting
 .text          0x1005c310      0x3ac /home/leon/git/swp-report/iMX6_Platform_SDK/output/mx6dq/lib/libboard_smart_device_rev_c.a(board_display.o)
                0x1005c310                lvds_power_on
                0x1005c378                disable_para_panel
                0x1005c3c8                tftlcd_backlight_en
                0x1005c488                tftlcd_reset
                0x1005c520                ldb_clock_config
                0x1005c650                epdc_clock_setting
                0x1005c66c                epdc_power_supply
 .text          0x1005c6bc      0x248 /home/leon/git/swp-report/iMX6_Platform_SDK/output/mx6dq/lib/libboard_smart_device_rev_c.a(board_hdmi.o)
                0x1005c6bc                hdmi_tx_cec_pgm_iomux
                0x1005c700                hdmi_tx_ddc_pgm_iomux
                0x1005c778                hdmi_tx_phydtb_pgm_iomux
                0x1005c7c8                hdmi_pgm_iomux
                0x1005c7e8                ext_hdmi_transmitter_power_on
                0x1005c7f8                hdmi_clock_set
 .text          0x1005c904        0x0 /home/leon/git/swp-report/iMX6_Platform_SDK/output/mx6dq/lib/libboard_smart_device_rev_c.a(board_i2c.o)
 .text          0x1005c904      0x240 /home/leon/git/swp-report/iMX6_Platform_SDK/output/mx6dq/lib/libboard_smart_device_rev_c.a(board_mipi.o)
                0x1005c904                mipi_cam_power_on
                0x1005c9ac                mipi_backlight_en
                0x1005c9fc                mipi_display_reset
                0x1005ca6c                mipi_clock_set
                0x1005ca9c                mipi_csi2_clock_set
 .text          0x1005cb44       0x94 /home/leon/git/swp-report/iMX6_Platform_SDK/output/mx6dq/lib/libboard_smart_device_rev_c.a(board_network.o)
                0x1005cb44                imx_ar8031_iomux
                0x1005cb58                imx_KSZ9021RN_reset
                0x1005cb68                imx_ar8031_reset
                0x1005cbb0                imx_enet_iomux
                0x1005cbc4                imx_enet_phy_reset
 .text          0x1005cbd8      0x23c /home/leon/git/swp-report/iMX6_Platform_SDK/output/mx6dq/lib/libboard_smart_device_rev_c.a(board_pcie.o)
                0x1005cbd8                pcie_clk_setup
                0x1005cc74                pcie_card_pwr_setup
                0x1005ccdc                pcie_enable_extrn_125mhz_clk
                0x1005cd4c                pcie_enable_extrn_100mhz_clk
                0x1005cdbc                pcie_card_rst
 .text          0x1005ce14      0x1a0 /home/leon/git/swp-report/iMX6_Platform_SDK/output/mx6dq/lib/libboard_smart_device_rev_c.a(board_sata.o)
                0x1005ce14                sata_power_on
                0x1005ce50                sata_power_off
                0x1005ce74                enable_extrn_100mhz_clk
                0x1005cee4                sata_clock_enable
                0x1005cf60                sata_clock_disable
                0x1005cf8c                sata_get_phy_src_clk
 .text          0x1005cfb4      0x128 /home/leon/git/swp-report/iMX6_Platform_SDK/output/mx6dq/lib/libboard_smart_device_rev_c.a(board_usb.o)
                0x1005cfb4                usbEnableVbus
                0x1005d060                usbDisableVbus
                0x1005d0cc                reset_usb_hub
 .text          0x1005d0dc      0x154 /home/leon/git/swp-report/iMX6_Platform_SDK/output/mx6dq/lib/libboard_smart_device_rev_c.a(board_usdhc.o)
                0x1005d0dc                usdhc_gpio_config
                0x1005d120                usdhc_card_detected
                0x1005d1a8                usdhc_write_protected
 .text          0x1005d230       0x90 /home/leon/git/swp-report/iMX6_Platform_SDK/output/mx6dq/lib/libboard_smart_device_rev_c.a(ecspi_iomux_config.o)
                0x1005d230                ecspi_iomux_config
 .text          0x1005d2c0       0x74 /home/leon/git/swp-report/iMX6_Platform_SDK/output/mx6dq/lib/libboard_smart_device_rev_c.a(i2c_iomux_config.o)
                0x1005d2c0                i2c_iomux_config
 .text          0x1005d334       0x84 /home/leon/git/swp-report/iMX6_Platform_SDK/output/mx6dq/lib/libboard_smart_device_rev_c.a(pwm_iomux_config.o)
                0x1005d334                pwm_iomux_config
 .text          0x1005d3b8       0x84 /home/leon/git/swp-report/iMX6_Platform_SDK/output/mx6dq/lib/libboard_smart_device_rev_c.a(usdhc_iomux_config.o)
                0x1005d3b8                usdhc_iomux_config
 .text          0x1005d43c        0x0 /home/leon/riotboard/arm-2012.09/bin/../arm-none-eabi/lib//libstdc++.a(pure.o)
 .text.__cxa_pure_virtual
                0x1005d43c       0x1c /home/leon/riotboard/arm-2012.09/bin/../arm-none-eabi/lib//libstdc++.a(pure.o)
                0x1005d43c                __cxa_pure_virtual
 .text.__cxa_deleted_virtual
                0x1005d458       0x1c /home/leon/riotboard/arm-2012.09/bin/../arm-none-eabi/lib//libstdc++.a(pure.o)
                0x1005d458                __cxa_deleted_virtual
 .text          0x1005d474        0x0 /home/leon/riotboard/arm-2012.09/bin/../arm-none-eabi/lib//libstdc++.a(eh_terminate.o)
 .text._ZN10__cxxabiv111__terminateEPFvvE
                0x1005d474       0x34 /home/leon/riotboard/arm-2012.09/bin/../arm-none-eabi/lib//libstdc++.a(eh_terminate.o)
                0x1005d474                __cxxabiv1::__terminate(void (*)())
 .text._ZSt9terminatev
                0x1005d4a8       0x14 /home/leon/riotboard/arm-2012.09/bin/../arm-none-eabi/lib//libstdc++.a(eh_terminate.o)
                0x1005d4a8                std::terminate()
 .text._ZN10__cxxabiv112__unexpectedEPFvvE
                0x1005d4bc       0x10 /home/leon/riotboard/arm-2012.09/bin/../arm-none-eabi/lib//libstdc++.a(eh_terminate.o)
                0x1005d4bc                __cxxabiv1::__unexpected(void (*)())
 .text._ZSt10unexpectedv
                0x1005d4cc       0x14 /home/leon/riotboard/arm-2012.09/bin/../arm-none-eabi/lib//libstdc++.a(eh_terminate.o)
                0x1005d4cc                std::unexpected()
 .text._ZSt13set_terminatePFvvE
                0x1005d4e0       0x18 /home/leon/riotboard/arm-2012.09/bin/../arm-none-eabi/lib//libstdc++.a(eh_terminate.o)
                0x1005d4e0                std::set_terminate(void (*)())
 .text._ZSt14set_unexpectedPFvvE
                0x1005d4f8       0x18 /home/leon/riotboard/arm-2012.09/bin/../arm-none-eabi/lib//libstdc++.a(eh_terminate.o)
                0x1005d4f8                std::set_unexpected(void (*)())
 .text          0x1005d510        0x0 /home/leon/riotboard/arm-2012.09/bin/../arm-none-eabi/lib//libstdc++.a(eh_unex_handler.o)
 .text          0x1005d510        0x0 /home/leon/riotboard/arm-2012.09/bin/../arm-none-eabi/lib//libstdc++.a(eh_call.o)
 .text._ZN10__cxxabiv1L24__is_gxx_exception_classEPc
                0x1005d510       0x70 /home/leon/riotboard/arm-2012.09/bin/../arm-none-eabi/lib//libstdc++.a(eh_call.o)
 .text.__cxa_call_terminate
                0x1005d580       0x2c /home/leon/riotboard/arm-2012.09/bin/../arm-none-eabi/lib//libstdc++.a(eh_call.o)
                0x1005d580                __cxa_call_terminate
 .text.__cxa_call_unexpected
                0x1005d5ac      0x134 /home/leon/riotboard/arm-2012.09/bin/../arm-none-eabi/lib//libstdc++.a(eh_call.o)
                0x1005d5ac                __cxa_call_unexpected
 .text          0x1005d6e0        0x0 /home/leon/riotboard/arm-2012.09/bin/../arm-none-eabi/lib//libstdc++.a(eh_throw.o)
 .text._ZL23__gxx_exception_cleanup19_Unwind_Reason_CodeP21_Unwind_Control_Block
                0x1005d6e0       0x3c /home/leon/riotboard/arm-2012.09/bin/../arm-none-eabi/lib//libstdc++.a(eh_throw.o)
 .text.__cxa_throw
                0x1005d71c       0x94 /home/leon/riotboard/arm-2012.09/bin/../arm-none-eabi/lib//libstdc++.a(eh_throw.o)
                0x1005d71c                __cxa_throw
 .text.__cxa_rethrow
                0x1005d7b0       0xb0 /home/leon/riotboard/arm-2012.09/bin/../arm-none-eabi/lib//libstdc++.a(eh_throw.o)
                0x1005d7b0                __cxa_rethrow
 .text          0x1005d860        0x0 /home/leon/riotboard/arm-2012.09/bin/../arm-none-eabi/lib//libstdc++.a(eh_arm.o)
 .text.__cxa_end_cleanup
                0x1005d860       0x10 /home/leon/riotboard/arm-2012.09/bin/../arm-none-eabi/lib//libstdc++.a(eh_arm.o)
                0x1005d860                __cxa_end_cleanup
 .text.__cxa_type_match
                0x1005d870      0x14c /home/leon/riotboard/arm-2012.09/bin/../arm-none-eabi/lib//libstdc++.a(eh_arm.o)
                0x1005d870                __cxa_type_match
 .text.__cxa_begin_cleanup
                0x1005d9bc       0xb0 /home/leon/riotboard/arm-2012.09/bin/../arm-none-eabi/lib//libstdc++.a(eh_arm.o)
                0x1005d9bc                __cxa_begin_cleanup
 .text.__gnu_end_cleanup
                0x1005da6c       0xb0 /home/leon/riotboard/arm-2012.09/bin/../arm-none-eabi/lib//libstdc++.a(eh_arm.o)
                0x1005da6c                __gnu_end_cleanup
 .text          0x1005db1c        0x0 /home/leon/riotboard/arm-2012.09/bin/../arm-none-eabi/lib//libstdc++.a(eh_exception.o)
 .text._ZNSt9exceptionD2Ev
                0x1005db1c       0x10 /home/leon/riotboard/arm-2012.09/bin/../arm-none-eabi/lib//libstdc++.a(eh_exception.o)
                0x1005db1c                std::exception::~exception()
                0x1005db1c                std::exception::~exception()
 .text._ZNSt13bad_exceptionD2Ev
                0x1005db2c       0x10 /home/leon/riotboard/arm-2012.09/bin/../arm-none-eabi/lib//libstdc++.a(eh_exception.o)
                0x1005db2c                std::bad_exception::~bad_exception()
                0x1005db2c                std::bad_exception::~bad_exception()
 .text._ZN10__cxxabiv115__forced_unwindD2Ev
                0x1005db3c       0x10 /home/leon/riotboard/arm-2012.09/bin/../arm-none-eabi/lib//libstdc++.a(eh_exception.o)
                0x1005db3c                __cxxabiv1::__forced_unwind::~__forced_unwind()
                0x1005db3c                __cxxabiv1::__forced_unwind::~__forced_unwind()
 .text._ZN10__cxxabiv119__foreign_exceptionD2Ev
                0x1005db4c       0x10 /home/leon/riotboard/arm-2012.09/bin/../arm-none-eabi/lib//libstdc++.a(eh_exception.o)
                0x1005db4c                __cxxabiv1::__foreign_exception::~__foreign_exception()
                0x1005db4c                __cxxabiv1::__foreign_exception::~__foreign_exception()
 .text._ZNKSt9exception4whatEv
                0x1005db5c        0xc /home/leon/riotboard/arm-2012.09/bin/../arm-none-eabi/lib//libstdc++.a(eh_exception.o)
                0x1005db5c                std::exception::what() const
 .text._ZNKSt13bad_exception4whatEv
                0x1005db68        0xc /home/leon/riotboard/arm-2012.09/bin/../arm-none-eabi/lib//libstdc++.a(eh_exception.o)
                0x1005db68                std::bad_exception::what() const
 .text._ZN10__cxxabiv119__foreign_exceptionD0Ev
                0x1005db74       0x24 /home/leon/riotboard/arm-2012.09/bin/../arm-none-eabi/lib//libstdc++.a(eh_exception.o)
                0x1005db74                __cxxabiv1::__foreign_exception::~__foreign_exception()
 .text._ZN10__cxxabiv115__forced_unwindD0Ev
                0x1005db98       0x24 /home/leon/riotboard/arm-2012.09/bin/../arm-none-eabi/lib//libstdc++.a(eh_exception.o)
                0x1005db98                __cxxabiv1::__forced_unwind::~__forced_unwind()
 .text._ZNSt9exceptionD0Ev
                0x1005dbbc       0x24 /home/leon/riotboard/arm-2012.09/bin/../arm-none-eabi/lib//libstdc++.a(eh_exception.o)
                0x1005dbbc                std::exception::~exception()
 .text._ZNSt13bad_exceptionD0Ev
                0x1005dbe0       0x24 /home/leon/riotboard/arm-2012.09/bin/../arm-none-eabi/lib//libstdc++.a(eh_exception.o)
                0x1005dbe0                std::bad_exception::~bad_exception()
 .text          0x1005dc04        0x0 /home/leon/riotboard/arm-2012.09/bin/../arm-none-eabi/lib//libstdc++.a(eh_alloc.o)
 .text.__cxa_allocate_exception
                0x1005dc04       0x98 /home/leon/riotboard/arm-2012.09/bin/../arm-none-eabi/lib//libstdc++.a(eh_alloc.o)
                0x1005dc04                __cxa_allocate_exception
 .text.__cxa_free_exception
                0x1005dc9c       0x54 /home/leon/riotboard/arm-2012.09/bin/../arm-none-eabi/lib//libstdc++.a(eh_alloc.o)
                0x1005dc9c                __cxa_free_exception
 .text.__cxa_allocate_dependent_exception
                0x1005dcf0       0x90 /home/leon/riotboard/arm-2012.09/bin/../arm-none-eabi/lib//libstdc++.a(eh_alloc.o)
                0x1005dcf0                __cxa_allocate_dependent_exception
 .text.__cxa_free_dependent_exception
                0x1005dd80       0x5c /home/leon/riotboard/arm-2012.09/bin/../arm-none-eabi/lib//libstdc++.a(eh_alloc.o)
                0x1005dd80                __cxa_free_dependent_exception
 .text          0x1005dddc        0x0 /home/leon/riotboard/arm-2012.09/bin/../arm-none-eabi/lib//libstdc++.a(eh_globals.o)
 .text.__cxa_get_globals_fast
                0x1005dddc        0xc /home/leon/riotboard/arm-2012.09/bin/../arm-none-eabi/lib//libstdc++.a(eh_globals.o)
                0x1005dddc                __cxa_get_globals_fast
 .text.__cxa_get_globals
                0x1005dde8        0xc /home/leon/riotboard/arm-2012.09/bin/../arm-none-eabi/lib//libstdc++.a(eh_globals.o)
                0x1005dde8                __cxa_get_globals
 .text          0x1005ddf4        0x0 /home/leon/riotboard/arm-2012.09/bin/../arm-none-eabi/lib//libstdc++.a(si_class_type_info.o)
 .text._ZNK10__cxxabiv120__si_class_type_info12__do_dyncastEiNS_17__class_type_info10__sub_kindEPKS1_PKvS4_S6_RNS1_16__dyncast_resultE
                0x1005ddf4       0xdc /home/leon/riotboard/arm-2012.09/bin/../arm-none-eabi/lib//libstdc++.a(si_class_type_info.o)
                0x1005ddf4                __cxxabiv1::__si_class_type_info::__do_dyncast(int, __cxxabiv1::__class_type_info::__sub_kind, __cxxabiv1::__class_type_info const*, void const*, __cxxabiv1::__class_type_info const*, void const*, __cxxabiv1::__class_type_info::__dyncast_result&) const
 .text._ZN10__cxxabiv120__si_class_type_infoD2Ev
                0x1005ded0       0x24 /home/leon/riotboard/arm-2012.09/bin/../arm-none-eabi/lib//libstdc++.a(si_class_type_info.o)
                0x1005ded0                __cxxabiv1::__si_class_type_info::~__si_class_type_info()
                0x1005ded0                __cxxabiv1::__si_class_type_info::~__si_class_type_info()
 .text._ZN10__cxxabiv120__si_class_type_infoD0Ev
                0x1005def4       0x20 /home/leon/riotboard/arm-2012.09/bin/../arm-none-eabi/lib//libstdc++.a(si_class_type_info.o)
                0x1005def4                __cxxabiv1::__si_class_type_info::~__si_class_type_info()
 .text._ZNK10__cxxabiv120__si_class_type_info11__do_upcastEPKNS_17__class_type_infoEPKvRNS1_15__upcast_resultE
                0x1005df14       0x4c /home/leon/riotboard/arm-2012.09/bin/../arm-none-eabi/lib//libstdc++.a(si_class_type_info.o)
                0x1005df14                __cxxabiv1::__si_class_type_info::__do_upcast(__cxxabiv1::__class_type_info const*, void const*, __cxxabiv1::__class_type_info::__upcast_result&) const
 .text._ZNK10__cxxabiv120__si_class_type_info20__do_find_public_srcEiPKvPKNS_17__class_type_infoES2_
                0x1005df60       0x6c /home/leon/riotboard/arm-2012.09/bin/../arm-none-eabi/lib//libstdc++.a(si_class_type_info.o)
                0x1005df60                __cxxabiv1::__si_class_type_info::__do_find_public_src(int, void const*, __cxxabiv1::__class_type_info const*, void const*) const
 .text          0x1005dfcc        0x0 /home/leon/riotboard/arm-2012.09/bin/../arm-none-eabi/lib//libstdc++.a(eh_personality.o)
 .text._ZL12read_sleb128PKhPl
                0x1005dfcc       0x44 /home/leon/riotboard/arm-2012.09/bin/../arm-none-eabi/lib//libstdc++.a(eh_personality.o)
 .text._ZL28read_encoded_value_with_basehjPKhPj
                0x1005e010      0x170 /home/leon/riotboard/arm-2012.09/bin/../arm-none-eabi/lib//libstdc++.a(eh_personality.o)
 .text._ZL21base_of_encoded_valuehP15_Unwind_Context
                0x1005e180       0x7c /home/leon/riotboard/arm-2012.09/bin/../arm-none-eabi/lib//libstdc++.a(eh_personality.o)
 .text._ZL17parse_lsda_headerP15_Unwind_ContextPKhP16lsda_header_info
                0x1005e1fc       0xd8 /home/leon/riotboard/arm-2012.09/bin/../arm-none-eabi/lib//libstdc++.a(eh_personality.o)
 .text.__gxx_personality_v0
                0x1005e2d4      0x620 /home/leon/riotboard/arm-2012.09/bin/../arm-none-eabi/lib//libstdc++.a(eh_personality.o)
                0x1005e2d4                __gxx_personality_v0
 .text          0x1005e8f4        0x0 /home/leon/riotboard/arm-2012.09/bin/../arm-none-eabi/lib//libstdc++.a(eh_term_handler.o)
 .text          0x1005e8f4        0x0 /home/leon/riotboard/arm-2012.09/bin/../arm-none-eabi/lib//libstdc++.a(eh_catch.o)
 .text.__cxa_get_exception_ptr
                0x1005e8f4        0x8 /home/leon/riotboard/arm-2012.09/bin/../arm-none-eabi/lib//libstdc++.a(eh_catch.o)
                0x1005e8f4                __cxa_get_exception_ptr
 .text.__cxa_begin_catch
                0x1005e8fc       0xdc /home/leon/riotboard/arm-2012.09/bin/../arm-none-eabi/lib//libstdc++.a(eh_catch.o)
                0x1005e8fc                __cxa_begin_catch
 .text.__cxa_end_catch
                0x1005e9d8       0xdc /home/leon/riotboard/arm-2012.09/bin/../arm-none-eabi/lib//libstdc++.a(eh_catch.o)
                0x1005e9d8                __cxa_end_catch
 .text._ZSt18uncaught_exceptionv
                0x1005eab4       0x1c /home/leon/riotboard/arm-2012.09/bin/../arm-none-eabi/lib//libstdc++.a(eh_catch.o)
                0x1005eab4                std::uncaught_exception()
 .text          0x1005ead0        0x0 /home/leon/riotboard/arm-2012.09/bin/../arm-none-eabi/lib//libstdc++.a(class_type_info.o)
 .text._ZNK10__cxxabiv117__class_type_info11__do_upcastEPKS0_PPv
                0x1005ead0       0x64 /home/leon/riotboard/arm-2012.09/bin/../arm-none-eabi/lib//libstdc++.a(class_type_info.o)
                0x1005ead0                __cxxabiv1::__class_type_info::__do_upcast(__cxxabiv1::__class_type_info const*, void**) const
 .text._ZNK10__cxxabiv117__class_type_info20__do_find_public_srcEiPKvPKS0_S2_
                0x1005eb34       0x14 /home/leon/riotboard/arm-2012.09/bin/../arm-none-eabi/lib//libstdc++.a(class_type_info.o)
                0x1005eb34                __cxxabiv1::__class_type_info::__do_find_public_src(int, void const*, __cxxabiv1::__class_type_info const*, void const*) const
 .text._ZNK10__cxxabiv117__class_type_info11__do_upcastEPKS0_PKvRNS0_15__upcast_resultE
                0x1005eb48       0x38 /home/leon/riotboard/arm-2012.09/bin/../arm-none-eabi/lib//libstdc++.a(class_type_info.o)
                0x1005eb48                __cxxabiv1::__class_type_info::__do_upcast(__cxxabiv1::__class_type_info const*, void const*, __cxxabiv1::__class_type_info::__upcast_result&) const
 .text._ZN10__cxxabiv117__class_type_infoD2Ev
                0x1005eb80       0x24 /home/leon/riotboard/arm-2012.09/bin/../arm-none-eabi/lib//libstdc++.a(class_type_info.o)
                0x1005eb80                __cxxabiv1::__class_type_info::~__class_type_info()
                0x1005eb80                __cxxabiv1::__class_type_info::~__class_type_info()
 .text._ZN10__cxxabiv117__class_type_infoD0Ev
                0x1005eba4       0x20 /home/leon/riotboard/arm-2012.09/bin/../arm-none-eabi/lib//libstdc++.a(class_type_info.o)
                0x1005eba4                __cxxabiv1::__class_type_info::~__class_type_info()
 .text._ZNK10__cxxabiv117__class_type_info12__do_dyncastEiNS0_10__sub_kindEPKS0_PKvS3_S5_RNS0_16__dyncast_resultE
                0x1005ebc4       0x7c /home/leon/riotboard/arm-2012.09/bin/../arm-none-eabi/lib//libstdc++.a(class_type_info.o)
                0x1005ebc4                __cxxabiv1::__class_type_info::__do_dyncast(int, __cxxabiv1::__class_type_info::__sub_kind, __cxxabiv1::__class_type_info const*, void const*, __cxxabiv1::__class_type_info const*, void const*, __cxxabiv1::__class_type_info::__dyncast_result&) const
 .text._ZNK10__cxxabiv117__class_type_info10__do_catchEPKSt9type_infoPPvj
                0x1005ec40       0x54 /home/leon/riotboard/arm-2012.09/bin/../arm-none-eabi/lib//libstdc++.a(class_type_info.o)
                0x1005ec40                __cxxabiv1::__class_type_info::__do_catch(std::type_info const*, void**, unsigned int) const
 .text          0x1005ec94        0x0 /home/leon/riotboard/arm-2012.09/bin/../arm-none-eabi/lib//libstdc++.a(vterminate.o)
 .text._ZN9__gnu_cxx27__verbose_terminate_handlerEv
                0x1005ec94      0x19c /home/leon/riotboard/arm-2012.09/bin/../arm-none-eabi/lib//libstdc++.a(vterminate.o)
                0x1005ec94                __gnu_cxx::__verbose_terminate_handler()
 .text          0x1005ee30     0x7c50 /home/leon/riotboard/arm-2012.09/bin/../arm-none-eabi/lib//libstdc++.a(cp-demangle.o)
                0x10066904                __cxa_demangle
                0x10066a50                __gcclibcxx_demangle_callback
 .text          0x10066a80        0x0 /home/leon/riotboard/arm-2012.09/bin/../arm-none-eabi/lib//libstdc++.a(eh_type.o)
 .text.__cxa_current_exception_type
                0x10066a80       0x30 /home/leon/riotboard/arm-2012.09/bin/../arm-none-eabi/lib//libstdc++.a(eh_type.o)
                0x10066a80                __cxa_current_exception_type
 .text          0x10066ab0        0x0 /home/leon/riotboard/arm-2012.09/bin/../arm-none-eabi/lib//libstdc++.a(del_op.o)
 .text._ZdlPv   0x10066ab0       0x14 /home/leon/riotboard/arm-2012.09/bin/../arm-none-eabi/lib//libstdc++.a(del_op.o)
                0x10066ab0                operator delete(void*)
 .text          0x10066ac4        0x0 /home/leon/riotboard/arm-2012.09/bin/../arm-none-eabi/lib//libstdc++.a(tinfo.o)
 .text._ZNSt9type_infoD2Ev
                0x10066ac4       0x10 /home/leon/riotboard/arm-2012.09/bin/../arm-none-eabi/lib//libstdc++.a(tinfo.o)
                0x10066ac4                std::type_info::~type_info()
                0x10066ac4                std::type_info::~type_info()
 .text._ZNKSt9type_info14__is_pointer_pEv
                0x10066ad4        0x8 /home/leon/riotboard/arm-2012.09/bin/../arm-none-eabi/lib//libstdc++.a(tinfo.o)
                0x10066ad4                std::type_info::__is_pointer_p() const
 .text._ZNKSt9type_info15__is_function_pEv
                0x10066adc        0x8 /home/leon/riotboard/arm-2012.09/bin/../arm-none-eabi/lib//libstdc++.a(tinfo.o)
                0x10066adc                std::type_info::__is_function_p() const
 .text._ZNKSt9type_info11__do_upcastEPKN10__cxxabiv117__class_type_infoEPPv
                0x10066ae4        0x8 /home/leon/riotboard/arm-2012.09/bin/../arm-none-eabi/lib//libstdc++.a(tinfo.o)
                0x10066ae4                std::type_info::__do_upcast(__cxxabiv1::__class_type_info const*, void**) const
 .text._ZNSt9type_infoD0Ev
                0x10066aec       0x24 /home/leon/riotboard/arm-2012.09/bin/../arm-none-eabi/lib//libstdc++.a(tinfo.o)
                0x10066aec                std::type_info::~type_info()
 .text._ZNKSt9type_infoeqERKS_
                0x10066b10       0x4c /home/leon/riotboard/arm-2012.09/bin/../arm-none-eabi/lib//libstdc++.a(tinfo.o)
                0x10066b10                std::type_info::operator==(std::type_info const&) const
 .text._ZNKSt9type_info10__do_catchEPKS_PPvj
                0x10066b5c        0x4 /home/leon/riotboard/arm-2012.09/bin/../arm-none-eabi/lib//libstdc++.a(tinfo.o)
                0x10066b5c                std::type_info::__do_catch(std::type_info const*, void**, unsigned int) const
 .text          0x10066b60       0xe8 /home/leon/riotboard/arm-2012.09/bin/../arm-none-eabi/lib//libc.a(lib_a-fwrite.o)
                0x10066b60                _fwrite_r
                0x10066c04                fwrite
 .text          0x10066c48       0xb4 /home/leon/riotboard/arm-2012.09/bin/../arm-none-eabi/lib//libc.a(lib_a-memcmp.o)
                0x10066c48                memcmp
 .text          0x10066cfc      0x140 /home/leon/riotboard/arm-2012.09/bin/../arm-none-eabi/lib//libc.a(lib_a-strncmp.o)
                0x10066cfc                strncmp
 .text          0x10066e3c       0x30 /home/leon/riotboard/arm-2012.09/bin/../arm-none-eabi/lib//libc.a(lib_a-syswrite.o)
                0x10066e3c                write
 .text          0x10066e6c      0x148 /home/leon/riotboard/arm-2012.09/bin/../lib/gcc/arm-none-eabi/4.7.2//libgcc.a(_divsi3.o)
                0x10066e6c                __aeabi_idiv
                0x10066e6c                __divsi3
                0x10066f94                __aeabi_idivmod
 .text          0x10066fb4      0xfa8 /home/leon/riotboard/arm-2012.09/bin/../lib/gcc/arm-none-eabi/4.7.2//libgcc.a(unwind-arm.o)
                0x10067434                _Unwind_GetCFA
                0x1006743c                __gnu_Unwind_RaiseException
                0x100674e8                __gnu_Unwind_ForcedUnwind
                0x1006750c                __gnu_Unwind_Resume
                0x10067584                __gnu_Unwind_Resume_or_Rethrow
                0x100675a4                _Unwind_Complete
                0x100675a8                _Unwind_DeleteException
                0x100675cc                _Unwind_VRS_Get
                0x10067640                _Unwind_VRS_Set
                0x10067ae4                __aeabi_unwind_cpp_pr2
                0x10067aec                __aeabi_unwind_cpp_pr1
                0x10067af4                __aeabi_unwind_cpp_pr0
                0x10067afc                __gnu_Unwind_Backtrace
                0x10067bc8                _Unwind_VRS_Pop
 .text          0x10067f5c      0x1b0 /home/leon/riotboard/arm-2012.09/bin/../lib/gcc/arm-none-eabi/4.7.2//libgcc.a(libunwind.o)
                0x10067f5c                __restore_core_regs
                0x10067f5c                restore_core_regs
                0x10067f78                __gnu_Unwind_Restore_VFP
                0x10067f80                __gnu_Unwind_Save_VFP
                0x10067f88                __gnu_Unwind_Restore_VFP_D
                0x10067f90                __gnu_Unwind_Save_VFP_D
                0x10067f98                __gnu_Unwind_Restore_VFP_D_16_to_31
                0x10067fa0                __gnu_Unwind_Save_VFP_D_16_to_31
                0x10067fa8                __gnu_Unwind_Restore_WMMXD
                0x10067fec                __gnu_Unwind_Save_WMMXD
                0x10068030                __gnu_Unwind_Restore_WMMXC
                0x10068044                __gnu_Unwind_Save_WMMXC
                0x10068058                ___Unwind_RaiseException
                0x10068058                _Unwind_RaiseException
                0x1006807c                ___Unwind_Resume
                0x1006807c                _Unwind_Resume
                0x100680a0                _Unwind_Resume_or_Rethrow
                0x100680a0                ___Unwind_Resume_or_Rethrow
                0x100680c4                ___Unwind_ForcedUnwind
                0x100680c4                _Unwind_ForcedUnwind
                0x100680e8                _Unwind_Backtrace
                0x100680e8                ___Unwind_Backtrace
 .text          0x1006810c      0x53c /home/leon/riotboard/arm-2012.09/bin/../lib/gcc/arm-none-eabi/4.7.2//libgcc.a(pr-support.o)
                0x100681a0                __gnu_unwind_execute
                0x100685bc                __gnu_unwind_frame
                0x10068604                _Unwind_GetRegionStart
                0x10068618                _Unwind_GetLanguageSpecificData
                0x10068638                _Unwind_GetDataRelBase
                0x10068640                _Unwind_GetTextRelBase
 .text          0x10068648      0x264 /home/leon/git/swp-report/iMX6_Platform_SDK/output/mx6dq/lib/libsdk.a(max7310.o)
                0x10068648                max7310_reg_read
                0x100686ac                max7310_reg_write
                0x10068718                max7310_init
                0x100687f8                max7310_set_gpio_output
 *(.glue_7t)
 .glue_7t       0x00000000        0x0 linker stubs
 *(.glue_7)
 .glue_7        0x00000000        0x0 linker stubs
 *(.vfp11_veneer)
 .vfp11_veneer  0x00000000        0x0 linker stubs
 *(.ARM.extab* .gnu.linkonce.armextab.*)
 .ARM.extab.startup
                0x100688ac        0x0 /home/leon/git/swp-report/iMX6_Platform_SDK/output/mx6dq/lib/libsdk.a(startup.o)
 .ARM.extab     0x100688ac        0x0 /home/leon/riotboard/arm-2012.09/bin/../lib/gcc/arm-none-eabi/4.7.2//libgcc.a(_divdi3.o)
 .ARM.extab     0x100688ac        0x0 /home/leon/riotboard/arm-2012.09/bin/../lib/gcc/arm-none-eabi/4.7.2//libgcc.a(_udivdi3.o)
 .ARM.extab.text.__cxa_pure_virtual
                0x100688ac        0xc /home/leon/riotboard/arm-2012.09/bin/../arm-none-eabi/lib//libstdc++.a(pure.o)
 .ARM.extab.text.__cxa_deleted_virtual
                0x100688b8        0xc /home/leon/riotboard/arm-2012.09/bin/../arm-none-eabi/lib//libstdc++.a(pure.o)
 .ARM.extab.text._ZN10__cxxabiv111__terminateEPFvvE
                0x100688c4       0x2c /home/leon/riotboard/arm-2012.09/bin/../arm-none-eabi/lib//libstdc++.a(eh_terminate.o)
 .ARM.extab.text._ZSt9terminatev
                0x100688f0        0x0 /home/leon/riotboard/arm-2012.09/bin/../arm-none-eabi/lib//libstdc++.a(eh_terminate.o)
 .ARM.extab.text._ZN10__cxxabiv112__unexpectedEPFvvE
                0x100688f0        0xc /home/leon/riotboard/arm-2012.09/bin/../arm-none-eabi/lib//libstdc++.a(eh_terminate.o)
 .ARM.extab.text._ZSt10unexpectedv
                0x100688fc        0xc /home/leon/riotboard/arm-2012.09/bin/../arm-none-eabi/lib//libstdc++.a(eh_terminate.o)
 .ARM.extab.text._ZSt13set_terminatePFvvE
                0x10068908        0x0 /home/leon/riotboard/arm-2012.09/bin/../arm-none-eabi/lib//libstdc++.a(eh_terminate.o)
 .ARM.extab.text._ZSt14set_unexpectedPFvvE
                0x10068908        0x0 /home/leon/riotboard/arm-2012.09/bin/../arm-none-eabi/lib//libstdc++.a(eh_terminate.o)
 .ARM.extab.text._ZN10__cxxabiv1L24__is_gxx_exception_classEPc
                0x10068908        0x0 /home/leon/riotboard/arm-2012.09/bin/../arm-none-eabi/lib//libstdc++.a(eh_call.o)
 .ARM.extab.text.__cxa_call_terminate
                0x10068908        0x0 /home/leon/riotboard/arm-2012.09/bin/../arm-none-eabi/lib//libstdc++.a(eh_call.o)
 .ARM.extab.text.__cxa_call_unexpected
                0x10068908       0x28 /home/leon/riotboard/arm-2012.09/bin/../arm-none-eabi/lib//libstdc++.a(eh_call.o)
 .ARM.extab.text._ZL23__gxx_exception_cleanup19_Unwind_Reason_CodeP21_Unwind_Control_Block
                0x10068930        0x0 /home/leon/riotboard/arm-2012.09/bin/../arm-none-eabi/lib//libstdc++.a(eh_throw.o)
 .ARM.extab.text.__cxa_throw
                0x10068930        0x0 /home/leon/riotboard/arm-2012.09/bin/../arm-none-eabi/lib//libstdc++.a(eh_throw.o)
 .ARM.extab.text.__cxa_rethrow
                0x10068930        0x0 /home/leon/riotboard/arm-2012.09/bin/../arm-none-eabi/lib//libstdc++.a(eh_throw.o)
 .ARM.extab.text.__cxa_type_match
                0x10068930        0x0 /home/leon/riotboard/arm-2012.09/bin/../arm-none-eabi/lib//libstdc++.a(eh_arm.o)
 .ARM.extab.text.__cxa_begin_cleanup
                0x10068930        0x0 /home/leon/riotboard/arm-2012.09/bin/../arm-none-eabi/lib//libstdc++.a(eh_arm.o)
 .ARM.extab.text.__gnu_end_cleanup
                0x10068930        0x0 /home/leon/riotboard/arm-2012.09/bin/../arm-none-eabi/lib//libstdc++.a(eh_arm.o)
 .ARM.extab.text._ZNSt9exceptionD2Ev
                0x10068930        0x0 /home/leon/riotboard/arm-2012.09/bin/../arm-none-eabi/lib//libstdc++.a(eh_exception.o)
 .ARM.extab.text._ZNSt13bad_exceptionD2Ev
                0x10068930        0x0 /home/leon/riotboard/arm-2012.09/bin/../arm-none-eabi/lib//libstdc++.a(eh_exception.o)
 .ARM.extab.text._ZN10__cxxabiv115__forced_unwindD2Ev
                0x10068930        0x0 /home/leon/riotboard/arm-2012.09/bin/../arm-none-eabi/lib//libstdc++.a(eh_exception.o)
 .ARM.extab.text._ZN10__cxxabiv119__foreign_exceptionD2Ev
                0x10068930        0x0 /home/leon/riotboard/arm-2012.09/bin/../arm-none-eabi/lib//libstdc++.a(eh_exception.o)
 .ARM.extab.text._ZNKSt9exception4whatEv
                0x10068930        0x0 /home/leon/riotboard/arm-2012.09/bin/../arm-none-eabi/lib//libstdc++.a(eh_exception.o)
 .ARM.extab.text._ZNKSt13bad_exception4whatEv
                0x10068930        0x0 /home/leon/riotboard/arm-2012.09/bin/../arm-none-eabi/lib//libstdc++.a(eh_exception.o)
 .ARM.extab.text._ZN10__cxxabiv119__foreign_exceptionD0Ev
                0x10068930        0x0 /home/leon/riotboard/arm-2012.09/bin/../arm-none-eabi/lib//libstdc++.a(eh_exception.o)
 .ARM.extab.text._ZN10__cxxabiv115__forced_unwindD0Ev
                0x10068930        0x0 /home/leon/riotboard/arm-2012.09/bin/../arm-none-eabi/lib//libstdc++.a(eh_exception.o)
 .ARM.extab.text._ZNSt9exceptionD0Ev
                0x10068930        0x0 /home/leon/riotboard/arm-2012.09/bin/../arm-none-eabi/lib//libstdc++.a(eh_exception.o)
 .ARM.extab.text._ZNSt13bad_exceptionD0Ev
                0x10068930        0x0 /home/leon/riotboard/arm-2012.09/bin/../arm-none-eabi/lib//libstdc++.a(eh_exception.o)
 .ARM.extab.text.__cxa_allocate_exception
                0x10068930        0x0 /home/leon/riotboard/arm-2012.09/bin/../arm-none-eabi/lib//libstdc++.a(eh_alloc.o)
 .ARM.extab.text.__cxa_free_exception
                0x10068930        0x0 /home/leon/riotboard/arm-2012.09/bin/../arm-none-eabi/lib//libstdc++.a(eh_alloc.o)
 .ARM.extab.text.__cxa_allocate_dependent_exception
                0x10068930        0x0 /home/leon/riotboard/arm-2012.09/bin/../arm-none-eabi/lib//libstdc++.a(eh_alloc.o)
 .ARM.extab.text.__cxa_free_dependent_exception
                0x10068930        0x0 /home/leon/riotboard/arm-2012.09/bin/../arm-none-eabi/lib//libstdc++.a(eh_alloc.o)
 .ARM.extab.text.__cxa_get_globals_fast
                0x10068930        0x0 /home/leon/riotboard/arm-2012.09/bin/../arm-none-eabi/lib//libstdc++.a(eh_globals.o)
 .ARM.extab.text.__cxa_get_globals
                0x10068930        0x0 /home/leon/riotboard/arm-2012.09/bin/../arm-none-eabi/lib//libstdc++.a(eh_globals.o)
 .ARM.extab.text._ZNK10__cxxabiv120__si_class_type_info12__do_dyncastEiNS_17__class_type_info10__sub_kindEPKS1_PKvS4_S6_RNS1_16__dyncast_resultE
                0x10068930        0x0 /home/leon/riotboard/arm-2012.09/bin/../arm-none-eabi/lib//libstdc++.a(si_class_type_info.o)
 .ARM.extab.text._ZN10__cxxabiv120__si_class_type_infoD2Ev
                0x10068930        0x0 /home/leon/riotboard/arm-2012.09/bin/../arm-none-eabi/lib//libstdc++.a(si_class_type_info.o)
 .ARM.extab.text._ZN10__cxxabiv120__si_class_type_infoD0Ev
                0x10068930        0x0 /home/leon/riotboard/arm-2012.09/bin/../arm-none-eabi/lib//libstdc++.a(si_class_type_info.o)
 .ARM.extab.text._ZNK10__cxxabiv120__si_class_type_info11__do_upcastEPKNS_17__class_type_infoEPKvRNS1_15__upcast_resultE
                0x10068930        0x0 /home/leon/riotboard/arm-2012.09/bin/../arm-none-eabi/lib//libstdc++.a(si_class_type_info.o)
 .ARM.extab.text._ZNK10__cxxabiv120__si_class_type_info20__do_find_public_srcEiPKvPKNS_17__class_type_infoES2_
                0x10068930        0x0 /home/leon/riotboard/arm-2012.09/bin/../arm-none-eabi/lib//libstdc++.a(si_class_type_info.o)
 .ARM.extab.text._ZL12read_sleb128PKhPl
                0x10068930        0x0 /home/leon/riotboard/arm-2012.09/bin/../arm-none-eabi/lib//libstdc++.a(eh_personality.o)
 .ARM.extab.text._ZL28read_encoded_value_with_basehjPKhPj
                0x10068930        0x0 /home/leon/riotboard/arm-2012.09/bin/../arm-none-eabi/lib//libstdc++.a(eh_personality.o)
 .ARM.extab.text._ZL21base_of_encoded_valuehP15_Unwind_Context
                0x10068930        0xc /home/leon/riotboard/arm-2012.09/bin/../arm-none-eabi/lib//libstdc++.a(eh_personality.o)
 .ARM.extab.text._ZL17parse_lsda_headerP15_Unwind_ContextPKhP16lsda_header_info
                0x1006893c        0x0 /home/leon/riotboard/arm-2012.09/bin/../arm-none-eabi/lib//libstdc++.a(eh_personality.o)
 .ARM.extab.text.__gxx_personality_v0
                0x1006893c       0x20 /home/leon/riotboard/arm-2012.09/bin/../arm-none-eabi/lib//libstdc++.a(eh_personality.o)
 .ARM.extab.text.__cxa_get_exception_ptr
                0x1006895c        0x0 /home/leon/riotboard/arm-2012.09/bin/../arm-none-eabi/lib//libstdc++.a(eh_catch.o)
 .ARM.extab.text.__cxa_begin_catch
                0x1006895c       0x20 /home/leon/riotboard/arm-2012.09/bin/../arm-none-eabi/lib//libstdc++.a(eh_catch.o)
 .ARM.extab.text.__cxa_end_catch
                0x1006897c        0xc /home/leon/riotboard/arm-2012.09/bin/../arm-none-eabi/lib//libstdc++.a(eh_catch.o)
 .ARM.extab.text._ZSt18uncaught_exceptionv
                0x10068988        0x0 /home/leon/riotboard/arm-2012.09/bin/../arm-none-eabi/lib//libstdc++.a(eh_catch.o)
 .ARM.extab.text._ZNK10__cxxabiv117__class_type_info11__do_upcastEPKS0_PPv
                0x10068988        0x0 /home/leon/riotboard/arm-2012.09/bin/../arm-none-eabi/lib//libstdc++.a(class_type_info.o)
 .ARM.extab.text._ZNK10__cxxabiv117__class_type_info20__do_find_public_srcEiPKvPKS0_S2_
                0x10068988        0x0 /home/leon/riotboard/arm-2012.09/bin/../arm-none-eabi/lib//libstdc++.a(class_type_info.o)
 .ARM.extab.text._ZNK10__cxxabiv117__class_type_info11__do_upcastEPKS0_PKvRNS0_15__upcast_resultE
                0x10068988        0x0 /home/leon/riotboard/arm-2012.09/bin/../arm-none-eabi/lib//libstdc++.a(class_type_info.o)
 .ARM.extab.text._ZN10__cxxabiv117__class_type_infoD2Ev
                0x10068988        0x0 /home/leon/riotboard/arm-2012.09/bin/../arm-none-eabi/lib//libstdc++.a(class_type_info.o)
 .ARM.extab.text._ZN10__cxxabiv117__class_type_infoD0Ev
                0x10068988        0x0 /home/leon/riotboard/arm-2012.09/bin/../arm-none-eabi/lib//libstdc++.a(class_type_info.o)
 .ARM.extab.text._ZNK10__cxxabiv117__class_type_info12__do_dyncastEiNS0_10__sub_kindEPKS0_PKvS3_S5_RNS0_16__dyncast_resultE
                0x10068988        0x0 /home/leon/riotboard/arm-2012.09/bin/../arm-none-eabi/lib//libstdc++.a(class_type_info.o)
 .ARM.extab.text._ZNK10__cxxabiv117__class_type_info10__do_catchEPKSt9type_infoPPvj
                0x10068988        0x0 /home/leon/riotboard/arm-2012.09/bin/../arm-none-eabi/lib//libstdc++.a(class_type_info.o)
 .ARM.extab.text._ZN9__gnu_cxx27__verbose_terminate_handlerEv
                0x10068988       0x34 /home/leon/riotboard/arm-2012.09/bin/../arm-none-eabi/lib//libstdc++.a(vterminate.o)
 .ARM.extab.text.__cxa_current_exception_type
                0x100689bc        0x0 /home/leon/riotboard/arm-2012.09/bin/../arm-none-eabi/lib//libstdc++.a(eh_type.o)
 .ARM.extab.text._ZdlPv
                0x100689bc        0x0 /home/leon/riotboard/arm-2012.09/bin/../arm-none-eabi/lib//libstdc++.a(del_op.o)
 .ARM.extab.text._ZNSt9type_infoD2Ev
                0x100689bc        0x0 /home/leon/riotboard/arm-2012.09/bin/../arm-none-eabi/lib//libstdc++.a(tinfo.o)
 .ARM.extab.text._ZNKSt9type_info14__is_pointer_pEv
                0x100689bc        0x0 /home/leon/riotboard/arm-2012.09/bin/../arm-none-eabi/lib//libstdc++.a(tinfo.o)
 .ARM.extab.text._ZNKSt9type_info15__is_function_pEv
                0x100689bc        0x0 /home/leon/riotboard/arm-2012.09/bin/../arm-none-eabi/lib//libstdc++.a(tinfo.o)
 .ARM.extab.text._ZNKSt9type_info11__do_upcastEPKN10__cxxabiv117__class_type_infoEPPv
                0x100689bc        0x0 /home/leon/riotboard/arm-2012.09/bin/../arm-none-eabi/lib//libstdc++.a(tinfo.o)
 .ARM.extab.text._ZNSt9type_infoD0Ev
                0x100689bc        0x0 /home/leon/riotboard/arm-2012.09/bin/../arm-none-eabi/lib//libstdc++.a(tinfo.o)
 .ARM.extab.text._ZNKSt9type_infoeqERKS_
                0x100689bc        0x0 /home/leon/riotboard/arm-2012.09/bin/../arm-none-eabi/lib//libstdc++.a(tinfo.o)
 .ARM.extab.text._ZNKSt9type_info10__do_catchEPKS_PPvj
                0x100689bc        0x0 /home/leon/riotboard/arm-2012.09/bin/../arm-none-eabi/lib//libstdc++.a(tinfo.o)
 .ARM.extab     0x100689bc       0x18 /home/leon/riotboard/arm-2012.09/bin/../lib/gcc/arm-none-eabi/4.7.2//libgcc.a(unwind-arm.o)
 .ARM.extab     0x100689d4       0x18 /home/leon/riotboard/arm-2012.09/bin/../lib/gcc/arm-none-eabi/4.7.2//libgcc.a(pr-support.o)
 *(.gcc_except_table)

.v4_bx          0x100689ec        0x0
 .v4_bx         0x00000000        0x0 linker stubs

.iplt           0x100689ec        0x0
 .iplt          0x00000000        0x0 /home/leon/riotboard/arm-2012.09/bin/../lib/gcc/arm-none-eabi/4.7.2//crtbegin.o

.ctors
 *crtbegin.o(.ctors)
 *crtbegin?.o(.ctors)
 *(EXCLUDE_FILE(*crtend?.o *crtend.o) .ctors)
 *(SORT(.ctors.*))
 *(.ctors)

.dtors
 *crtbegin.o(.dtors)
 *crtbegin?.o(.dtors)
 *(EXCLUDE_FILE(*crtend?.o *crtend.o) .dtors)
 *(SORT(.dtors.*))
 *(.dtors)

.rodata         0x100689f0    0x3be8c
 *(.rodata .rodata.* .gnu.linkonce.r.*)
 .rodata        0x100689f0       0x9c /home/leon/git/swp-report/iMX6_Platform_SDK/output/mx6dq/sdk_unit_test/smart_device_rev_c/obj/apps/common/print_clock_info.o
 .rodata        0x10068a8c      0x100 /home/leon/git/swp-report/iMX6_Platform_SDK/output/mx6dq/sdk_unit_test/smart_device_rev_c/obj/apps/common/print_version.o
 .rodata        0x10068b8c      0x4ec /home/leon/git/swp-report/iMX6_Platform_SDK/output/mx6dq/sdk_unit_test/smart_device_rev_c/obj/apps/sdk_unit_test/src/all_test.o
                0x10068d80                k_menuItems
                0x1006906c                k_mainMenu
 .rodata        0x10069078       0x34 /home/leon/git/swp-report/iMX6_Platform_SDK/output/mx6dq/lib/libsdk.a(ccm_pll.o)
                0x10069078                PLL1_OUTPUT
                0x1006907c                PLL2_OUTPUT
                0x10069090                PLL3_OUTPUT
                0x100690a4                PLL4_OUTPUT
                0x100690a8                PLL5_OUTPUT
 .rodata        0x100690ac       0x64 /home/leon/git/swp-report/iMX6_Platform_SDK/output/mx6dq/lib/libsdk.a(gic.o)
 .rodata        0x10069110      0x154 /home/leon/git/swp-report/iMX6_Platform_SDK/output/mx6dq/lib/libsdk.a(menu.o)
 .rodata        0x10069264       0x50 /home/leon/git/swp-report/iMX6_Platform_SDK/output/mx6dq/lib/libsdk.a(sdk_version.o)
                0x10069264                k_sdk_version
                0x10069268                k_sdk_copyright
 .rodata        0x100692b4       0xcc /home/leon/git/swp-report/iMX6_Platform_SDK/output/mx6dq/lib/libsdk.a(system_util.o)
 .rodata        0x10069380       0xf4 /home/leon/git/swp-report/iMX6_Platform_SDK/output/mx6dq/lib/libsdk.a(text_color.o)
                0x10069388                g_TextAttributeDefault
                0x10069394                g_TextAttributeBold
                0x100693a0                g_TextAttributeDim
                0x100693ac                g_TextAttributeUnderline
                0x100693b8                g_TextAttributeBlink
                0x100693c4                g_TextAttributeReverse
                0x100693d0                g_TextAttributeHidden
                0x100693dc                g_TextColorBlack
                0x100693e8                g_TextColorRed
                0x100693f4                g_TextColorGreen
                0x10069400                g_TextColorYellow
                0x1006940c                g_TextColorBlue
                0x10069418                g_TextColorMagenta
                0x10069424                g_TextColorCyan
                0x10069430                g_TextColorWhite
                0x10069440                g_TextColorOrange
                0x10069450                g_TextColorLightBlue
                0x10069460                g_TextColorGray
                0x10069470                g_TextColorPurple
 .rodata        0x10069474      0x1f8 /home/leon/git/swp-report/iMX6_Platform_SDK/output/mx6dq/lib/libsdk.a(board_id.o)
 .rodata        0x1006966c       0x20 /home/leon/git/swp-report/iMX6_Platform_SDK/output/mx6dq/lib/libsdk.a(interrupt.o)
 .rodata        0x1006968c      0x230 /home/leon/git/swp-report/iMX6_Platform_SDK/output/mx6dq/lib/libsdk.a(abort_handler.o)
 .rodata        0x100698bc       0x84 /home/leon/git/swp-report/iMX6_Platform_SDK/output/mx6dq/lib/libboard_smart_device_rev_c.a(uart_iomux_config.o)
 .rodata        0x10069940       0xac /home/leon/git/swp-report/iMX6_Platform_SDK/output/mx6dq/sdk_unit_test/smart_device_rev_c/libsdk_unit_test.a(audio_test.o)
 .rodata        0x100699ec       0x64 /home/leon/git/swp-report/iMX6_Platform_SDK/output/mx6dq/sdk_unit_test/smart_device_rev_c/libsdk_unit_test.a(gic_test.o)
 .rodata        0x10069a50       0x3c /home/leon/git/swp-report/iMX6_Platform_SDK/output/mx6dq/sdk_unit_test/smart_device_rev_c/libsdk_unit_test.a(cpu_wp_test.o)
 .rodata        0x10069a8c       0xc4 /home/leon/git/swp-report/iMX6_Platform_SDK/output/mx6dq/sdk_unit_test/smart_device_rev_c/libsdk_unit_test.a(multicore_test.o)
 .rodata        0x10069b50      0x1a0 /home/leon/git/swp-report/iMX6_Platform_SDK/output/mx6dq/sdk_unit_test/smart_device_rev_c/libsdk_unit_test.a(ocotp_test.o)
 .rodata        0x10069cf0      0x128 /home/leon/git/swp-report/iMX6_Platform_SDK/output/mx6dq/sdk_unit_test/smart_device_rev_c/libsdk_unit_test.a(snvs_rtc_test.o)
 .rodata        0x10069e18       0xa4 /home/leon/git/swp-report/iMX6_Platform_SDK/output/mx6dq/sdk_unit_test/smart_device_rev_c/libsdk_unit_test.a(snvs_srtc_test.o)
 .rodata        0x10069ebc       0xc4 /home/leon/git/swp-report/iMX6_Platform_SDK/output/mx6dq/sdk_unit_test/smart_device_rev_c/libsdk_unit_test.a(i2c_test.o)
 .rodata        0x10069f80      0x308 /home/leon/git/swp-report/iMX6_Platform_SDK/output/mx6dq/sdk_unit_test/smart_device_rev_c/libsdk_unit_test.a(imx6_i2c_device.o)
 .rodata        0x1006a288      0x1a0 /home/leon/git/swp-report/iMX6_Platform_SDK/output/mx6dq/sdk_unit_test/smart_device_rev_c/libsdk_unit_test.a(tempmon_test.o)
 .rodata        0x1006a428      0x11c /home/leon/git/swp-report/iMX6_Platform_SDK/output/mx6dq/sdk_unit_test/smart_device_rev_c/libsdk_unit_test.a(sdma_test.o)
 .rodata        0x1006a544      0x154 /home/leon/git/swp-report/iMX6_Platform_SDK/output/mx6dq/sdk_unit_test/smart_device_rev_c/libsdk_unit_test.a(spi_lpb.o)
 .rodata        0x1006a698      0x1f8 /home/leon/git/swp-report/iMX6_Platform_SDK/output/mx6dq/sdk_unit_test/smart_device_rev_c/libsdk_unit_test.a(uart_loopback.o)
 .rodata        0x1006a890       0xb0 /home/leon/git/swp-report/iMX6_Platform_SDK/output/mx6dq/sdk_unit_test/smart_device_rev_c/libsdk_unit_test.a(uart_test.o)
                0x1006a890                g_uart_test_name
 .rodata        0x1006a940      0x164 /home/leon/git/swp-report/iMX6_Platform_SDK/output/mx6dq/sdk_unit_test/smart_device_rev_c/libsdk_unit_test.a(epit_test.o)
 .rodata        0x1006aaa4      0x248 /home/leon/git/swp-report/iMX6_Platform_SDK/output/mx6dq/sdk_unit_test/smart_device_rev_c/libsdk_unit_test.a(gpt_test.o)
 .rodata        0x1006acec       0xc0 /home/leon/git/swp-report/iMX6_Platform_SDK/output/mx6dq/sdk_unit_test/smart_device_rev_c/libsdk_unit_test.a(timer_test.o)
 .rodata        0x1006adac      0x38c /home/leon/git/swp-report/iMX6_Platform_SDK/output/mx6dq/sdk_unit_test/smart_device_rev_c/libsdk_unit_test.a(usdhc_test.o)
 .rodata        0x1006b138       0x7c /home/leon/git/swp-report/iMX6_Platform_SDK/output/mx6dq/sdk_unit_test/smart_device_rev_c/libsdk_unit_test.a(pwm_test.o)
 .rodata        0x1006b1b4       0xc8 /home/leon/git/swp-report/iMX6_Platform_SDK/output/mx6dq/sdk_unit_test/smart_device_rev_c/libsdk_unit_test.a(watchdog_test.o)
 .rodata        0x1006b27c       0x98 /home/leon/git/swp-report/iMX6_Platform_SDK/output/mx6dq/sdk_unit_test/smart_device_rev_c/libsdk_unit_test.a(hdmi_test.o)
 .rodata        0x1006b314     0x403c /home/leon/git/swp-report/iMX6_Platform_SDK/output/mx6dq/sdk_unit_test/smart_device_rev_c/libsdk_unit_test.a(init_dma_data.o)
                0x1006b314                gAudio_sample
 .rodata        0x1006f350       0xa0 /home/leon/git/swp-report/iMX6_Platform_SDK/output/mx6dq/sdk_unit_test/smart_device_rev_c/libsdk_unit_test.a(ips_display.o)
 .rodata        0x1006f3f0      0x134 /home/leon/git/swp-report/iMX6_Platform_SDK/output/mx6dq/sdk_unit_test/smart_device_rev_c/libsdk_unit_test.a(ips_test.o)
 .rodata        0x1006f524    0x2f2dc /home/leon/git/swp-report/iMX6_Platform_SDK/output/mx6dq/sdk_unit_test/smart_device_rev_c/libsdk_unit_test.a(ipu_image.o)
                0x10081340                gImage_foretext
 .rodata        0x1009e800       0x94 /home/leon/git/swp-report/iMX6_Platform_SDK/output/mx6dq/sdk_unit_test/smart_device_rev_c/libsdk_unit_test.a(camera_test.o)
                0x1009e800                g_camera_test_name
 .rodata        0x1009e894      0x118 /home/leon/git/swp-report/iMX6_Platform_SDK/output/mx6dq/sdk_unit_test/smart_device_rev_c/libsdk_unit_test.a(csi_test_mode.o)
 .rodata        0x1009e9ac      0x118 /home/leon/git/swp-report/iMX6_Platform_SDK/output/mx6dq/sdk_unit_test/smart_device_rev_c/libsdk_unit_test.a(sensor_capture.o)
 .rodata        0x1009eac4      0x118 /home/leon/git/swp-report/iMX6_Platform_SDK/output/mx6dq/sdk_unit_test/smart_device_rev_c/libsdk_unit_test.a(keypad_test.o)
 .rodata        0x1009ebdc      0x290 /home/leon/git/swp-report/iMX6_Platform_SDK/output/mx6dq/sdk_unit_test/smart_device_rev_c/libsdk_unit_test.a(pcie_test_rc.o)
 .rodata        0x1009ee6c      0x16c /home/leon/git/swp-report/iMX6_Platform_SDK/output/mx6dq/sdk_unit_test/smart_device_rev_c/libsdk_unit_test.a(usb_test.o)
 .rodata        0x1009efd8      0x204 /home/leon/git/swp-report/iMX6_Platform_SDK/output/mx6dq/sdk_unit_test/smart_device_rev_c/libsdk_unit_test.a(enet_test.o)
 .rodata        0x1009f1dc      0x1d0 /home/leon/git/swp-report/iMX6_Platform_SDK/output/mx6dq/sdk_unit_test/smart_device_rev_c/libsdk_unit_test.a(spi_test.o)
 .rodata        0x1009f3ac       0xd8 /home/leon/git/swp-report/iMX6_Platform_SDK/output/mx6dq/sdk_unit_test/smart_device_rev_c/libsdk_unit_test.a(accelerometer_test.o)
 .rodata        0x1009f484      0x108 /home/leon/git/swp-report/iMX6_Platform_SDK/output/mx6dq/sdk_unit_test/smart_device_rev_c/libsdk_unit_test.a(sata_test.o)
                0x1009f484                g_sata_test_name
 .rodata        0x1009f58c      0x114 /home/leon/git/swp-report/iMX6_Platform_SDK/output/mx6dq/sdk_unit_test/smart_device_rev_c/libsdk_unit_test.a(at24cxx.o)
 .rodata        0x1009f6a0      0x158 /home/leon/git/swp-report/iMX6_Platform_SDK/output/mx6dq/sdk_unit_test/smart_device_rev_c/libsdk_unit_test.a(mem_2_mem.o)
 .rodata        0x1009f7f8      0x368 /home/leon/git/swp-report/iMX6_Platform_SDK/output/mx6dq/sdk_unit_test/smart_device_rev_c/libsdk_unit_test.a(pwm_output.o)
 .rodata        0x1009fb60       0xb0 /home/leon/git/swp-report/iMX6_Platform_SDK/output/mx6dq/sdk_unit_test/smart_device_rev_c/libsdk_unit_test.a(ips_combiner.o)
 .rodata        0x1009fc10       0xe4 /home/leon/git/swp-report/iMX6_Platform_SDK/output/mx6dq/sdk_unit_test/smart_device_rev_c/libsdk_unit_test.a(ips_csc.o)
 .rodata        0x1009fcf4       0x94 /home/leon/git/swp-report/iMX6_Platform_SDK/output/mx6dq/sdk_unit_test/smart_device_rev_c/libsdk_unit_test.a(ips_resize.o)
 .rodata        0x1009fd88       0x88 /home/leon/git/swp-report/iMX6_Platform_SDK/output/mx6dq/sdk_unit_test/smart_device_rev_c/libsdk_unit_test.a(ips_rotate.o)
 .rodata        0x1009fe10      0x114 /home/leon/git/swp-report/iMX6_Platform_SDK/output/mx6dq/sdk_unit_test/smart_device_rev_c/libsdk_unit_test.a(usb0_device_mouse_test.o)
 .rodata        0x1009ff24      0x218 /home/leon/git/swp-report/iMX6_Platform_SDK/output/mx6dq/sdk_unit_test/smart_device_rev_c/libsdk_unit_test.a(usb0_host_test.o)
 .rodata        0x100a013c       0xa8 /home/leon/git/swp-report/iMX6_Platform_SDK/output/mx6dq/sdk_unit_test/smart_device_rev_c/libsdk_unit_test.a(usb0_host_testmodes_test.o)
 .rodata        0x100a01e4      0x118 /home/leon/git/swp-report/iMX6_Platform_SDK/output/mx6dq/sdk_unit_test/smart_device_rev_c/libsdk_unit_test.a(spi_nor_numonyx.o)
 .rodata        0x100a02fc      0x398 /home/leon/riotboard/arm-2012.09/bin/../arm-none-eabi/lib//libm.a(lib_a-ef_rem_pio2.o)
 .rodata        0x100a0694       0x38 /home/leon/riotboard/arm-2012.09/bin/../arm-none-eabi/lib//libm.a(lib_a-kf_rem_pio2.o)
 .rodata.str1.4
                0x100a06cc       0x3f /home/leon/riotboard/arm-2012.09/bin/../arm-none-eabi/lib//libc.a(lib_a-assert.o)
                                 0x44 (size before relaxing)
 *fill*         0x100a070b        0x1 
 .rodata        0x100a070c        0x4 /home/leon/riotboard/arm-2012.09/bin/../arm-none-eabi/lib//libc.a(lib_a-impure.o)
                0x100a070c                _global_impure_ptr
 .rodata.str1.4
                0x100a0710        0x2 /home/leon/riotboard/arm-2012.09/bin/../arm-none-eabi/lib//libc.a(lib_a-impure.o)
                                  0x4 (size before relaxing)
 *fill*         0x100a0712        0x2 
 .rodata        0x100a0714       0x20 /home/leon/riotboard/arm-2012.09/bin/../arm-none-eabi/lib//libc.a(lib_a-svfprintf.o)
 .rodata.str1.4
                0x100a0734       0x42 /home/leon/riotboard/arm-2012.09/bin/../arm-none-eabi/lib//libc.a(lib_a-svfprintf.o)
                                 0x44 (size before relaxing)
 *fill*         0x100a0776        0x2 
 .rodata        0x100a0778       0x20 /home/leon/riotboard/arm-2012.09/bin/../arm-none-eabi/lib//libc.a(lib_a-vfiprintf.o)
 .rodata.str1.4
                0x00000000       0x30 /home/leon/riotboard/arm-2012.09/bin/../arm-none-eabi/lib//libc.a(lib_a-vfiprintf.o)
 .rodata        0x100a0798       0x20 /home/leon/riotboard/arm-2012.09/bin/../arm-none-eabi/lib//libc.a(lib_a-vfprintf.o)
 .rodata.str1.4
                0x00000000       0x44 /home/leon/riotboard/arm-2012.09/bin/../arm-none-eabi/lib//libc.a(lib_a-vfprintf.o)
 .rodata        0x100a07b8      0x104 /home/leon/riotboard/arm-2012.09/bin/../arm-none-eabi/lib//libc.a(lib_a-ctype_.o)
                0x100a07b8                _ctype_
 .rodata.str1.4
                0x100a08bc       0x10 /home/leon/riotboard/arm-2012.09/bin/../arm-none-eabi/lib//libc.a(lib_a-dtoa.o)
                                 0x14 (size before relaxing)
 .rodata.str1.4
                0x100a08cc        0xa /home/leon/riotboard/arm-2012.09/bin/../arm-none-eabi/lib//libc.a(lib_a-locale.o)
                                 0x14 (size before relaxing)
 *fill*         0x100a08d6        0x2 
 .rodata        0x100a08d8      0x128 /home/leon/riotboard/arm-2012.09/bin/../arm-none-eabi/lib//libc.a(lib_a-mprec.o)
                0x100a08e8                __mprec_tens
                0x100a09b0                __mprec_tinytens
                0x100a09d8                __mprec_bigtens
 .rodata        0x100a0a00       0x20 /home/leon/riotboard/arm-2012.09/bin/../arm-none-eabi/lib//libc.a(lib_a-svfiprintf.o)
 .rodata.str1.4
                0x00000000       0x30 /home/leon/riotboard/arm-2012.09/bin/../arm-none-eabi/lib//libc.a(lib_a-svfiprintf.o)
 .rodata        0x100a0a20       0x20 /home/leon/git/swp-report/iMX6_Platform_SDK/output/mx6dq/lib/libsdk.a(runtime_support.o)
 .rodata        0x100a0a40       0x34 /home/leon/git/swp-report/iMX6_Platform_SDK/output/mx6dq/lib/libsdk.a(mma8451.o)
 .rodata        0x100a0a74       0xc4 /home/leon/git/swp-report/iMX6_Platform_SDK/output/mx6dq/lib/libsdk.a(smd_sensor.o)
 .rodata        0x100a0b38       0x88 /home/leon/git/swp-report/iMX6_Platform_SDK/output/mx6dq/lib/libsdk.a(cpu_multicore.o)
 .rodata        0x100a0bc0       0x48 /home/leon/git/swp-report/iMX6_Platform_SDK/output/mx6dq/lib/libsdk.a(cpu_workpoint.o)
 .rodata        0x100a0c08      0x1c4 /home/leon/git/swp-report/iMX6_Platform_SDK/output/mx6dq/lib/libsdk.a(enet_drv.o)
 .rodata        0x100a0dcc       0xe0 /home/leon/git/swp-report/iMX6_Platform_SDK/output/mx6dq/lib/libsdk.a(gpio.o)
 .rodata        0x100a0eac      0x380 /home/leon/git/swp-report/iMX6_Platform_SDK/output/mx6dq/lib/libsdk.a(imx6dq_gpio_map.o)
                0x100a0eac                k_gpio_mux_registers
 .rodata        0x100a122c       0xb4 /home/leon/git/swp-report/iMX6_Platform_SDK/output/mx6dq/lib/libsdk.a(hdmi_tx.o)
 .rodata        0x100a12e0       0x3c /home/leon/git/swp-report/iMX6_Platform_SDK/output/mx6dq/lib/libsdk.a(hdmi_tx_audio.o)
 .rodata        0x100a131c       0xec /home/leon/git/swp-report/iMX6_Platform_SDK/output/mx6dq/lib/libsdk.a(hdmi_tx_phy.o)
 .rodata        0x100a1408      0x2c4 /home/leon/git/swp-report/iMX6_Platform_SDK/output/mx6dq/lib/libsdk.a(imx_i2c.o)
 .rodata        0x100a16cc       0xa4 /home/leon/git/swp-report/iMX6_Platform_SDK/output/mx6dq/lib/libsdk.a(imx_i2c_slave.o)
 .rodata        0x100a1770       0x54 /home/leon/git/swp-report/iMX6_Platform_SDK/output/mx6dq/lib/libsdk.a(ips_disp_panel.o)
 .rodata        0x100a17c4       0x74 /home/leon/git/swp-report/iMX6_Platform_SDK/output/mx6dq/lib/libsdk.a(ipu_common.o)
 .rodata        0x100a1838       0xc0 /home/leon/git/swp-report/iMX6_Platform_SDK/output/mx6dq/lib/libsdk.a(ipu_csi.o)
 .rodata        0x100a18f8       0x9c /home/leon/git/swp-report/iMX6_Platform_SDK/output/mx6dq/lib/libsdk.a(ipu_dc.o)
 .rodata        0x100a1994       0x18 /home/leon/git/swp-report/iMX6_Platform_SDK/output/mx6dq/lib/libsdk.a(ipu_di.o)
 .rodata        0x100a19ac       0x78 /home/leon/git/swp-report/iMX6_Platform_SDK/output/mx6dq/lib/libsdk.a(ipu_dp.o)
 .rodata        0x100a1a24      0x1bc /home/leon/git/swp-report/iMX6_Platform_SDK/output/mx6dq/lib/libsdk.a(ipu_ic.o)
 .rodata        0x100a1be0       0x38 /home/leon/git/swp-report/iMX6_Platform_SDK/output/mx6dq/lib/libsdk.a(ipu_idmac.o)
 .rodata        0x100a1c18       0x68 /home/leon/git/swp-report/iMX6_Platform_SDK/output/mx6dq/lib/libsdk.a(ldb.o)
 .rodata        0x100a1c80      0x10c /home/leon/git/swp-report/iMX6_Platform_SDK/output/mx6dq/lib/libsdk.a(pcie.o)
 .rodata        0x100a1d8c       0xc0 /home/leon/git/swp-report/iMX6_Platform_SDK/output/mx6dq/lib/libsdk.a(pcie_prot.o)
 *fill*         0x100a1e4c        0x4 
 .rodata        0x100a1e50      0x248 /home/leon/git/swp-report/iMX6_Platform_SDK/output/mx6dq/lib/libsdk.a(pmu_driver.o)
                0x100a1e50                vtable for pmu::LDOSoCRegulator
                0x100a1ea8                vtable for pmu::LDOGraphicsRegulator
                0x100a1f00                vtable for pmu::LDOARMRegulator
                0x100a1f58                vtable for pmu::DigitalRegulator
                0x100a1fb0                vtable for pmu::LDO3p0Regulator
                0x100a1fe8                vtable for pmu::LDO1p1Regulator
                0x100a2020                vtable for pmu::AnalogRegulator
                0x100a2058                vtable for pmu::Regulator
 .rodata._ZTVN3pmu15LDO2p5RegulatorE
                0x100a2098       0x38 /home/leon/git/swp-report/iMX6_Platform_SDK/output/mx6dq/lib/libsdk.a(pmu_driver.o)
                0x100a2098                vtable for pmu::LDO2p5Regulator
 .rodata        0x100a20d0       0x5c /home/leon/git/swp-report/iMX6_Platform_SDK/output/mx6dq/lib/libsdk.a(pwm.o)
 .rodata        0x100a212c      0x4ec /home/leon/git/swp-report/iMX6_Platform_SDK/output/mx6dq/lib/libsdk.a(sata.o)
 .rodata        0x100a2618       0x18 /home/leon/git/swp-report/iMX6_Platform_SDK/output/mx6dq/lib/libsdk.a(sdma.o)
 .rodata        0x100a2630      0x7ec /home/leon/git/swp-report/iMX6_Platform_SDK/output/mx6dq/lib/libsdk.a(sdma_script_info.o)
                0x100a2c0c                script_info
 .rodata        0x100a2e1c       0x74 /home/leon/git/swp-report/iMX6_Platform_SDK/output/mx6dq/lib/libsdk.a(ecspi.o)
 .rodata        0x100a2e90       0x94 /home/leon/git/swp-report/iMX6_Platform_SDK/output/mx6dq/lib/libsdk.a(usb_common.o)
 .rodata        0x100a2f24       0x50 /home/leon/git/swp-report/iMX6_Platform_SDK/output/mx6dq/lib/libsdk.a(usbd_drv.o)
 .rodata        0x100a2f74       0x28 /home/leon/git/swp-report/iMX6_Platform_SDK/output/mx6dq/lib/libsdk.a(usbh_drv.o)
 .rodata        0x100a2f9c      0x1cc /home/leon/git/swp-report/iMX6_Platform_SDK/output/mx6dq/lib/libsdk.a(usdhc.o)
 .rodata        0x100a3168       0x1c /home/leon/git/swp-report/iMX6_Platform_SDK/output/mx6dq/lib/libsdk.a(usdhc_host.o)
 .rodata        0x100a3184      0x20c /home/leon/git/swp-report/iMX6_Platform_SDK/output/mx6dq/lib/libsdk.a(usdhc_mmc.o)
 .rodata        0x100a3390       0x58 /home/leon/git/swp-report/iMX6_Platform_SDK/output/mx6dq/lib/libsdk.a(usdhc_sd.o)
                0x100a3390                sd_ocr_value
                0x100a339c                sd_if_cmd_arg
 .rodata        0x100a33e8       0x10 /home/leon/git/swp-report/iMX6_Platform_SDK/output/mx6dq/lib/libsdk.a(hdmi_common.o)
 .rodata        0x100a33f8       0x64 /home/leon/git/swp-report/iMX6_Platform_SDK/output/mx6dq/lib/libboard_smart_device_rev_c.a(board_display.o)
 .rodata        0x100a345c       0x28 /home/leon/git/swp-report/iMX6_Platform_SDK/output/mx6dq/lib/libboard_smart_device_rev_c.a(board_hdmi.o)
 .rodata        0x100a3484       0x70 /home/leon/git/swp-report/iMX6_Platform_SDK/output/mx6dq/lib/libboard_smart_device_rev_c.a(board_i2c.o)
                0x100a3484                g_wm8958_i2c_device
                0x100a348c                g_wm8962_i2c_device
                0x100a3494                g_sgtl5000_i2c_device
                0x100a349c                g_cs42888_i2c_device
                0x100a34a4                g_pmic_ltc3589_i2c_device
                0x100a34ac                g_pmic_da9053_i2c_device
                0x100a34b4                g_pmic_max17135_i2c_device
                0x100a34bc                g_pmic_pf0100_i2c_device
                0x100a34c4                g_adv7180_i2c_device
                0x100a34cc                g_os81050_i2c_device
                0x100a34d4                g_p1003_tsc_i2c_device
                0x100a34dc                g_at24cx_i2c_device
                0x100a34e4                g_si476x_i2c_device
                0x100a34ec                g_mma8451_i2c_device
 .rodata        0x100a34f4       0x84 /home/leon/git/swp-report/iMX6_Platform_SDK/output/mx6dq/lib/libboard_smart_device_rev_c.a(ecspi_iomux_config.o)
 .rodata        0x100a3578       0x80 /home/leon/git/swp-report/iMX6_Platform_SDK/output/mx6dq/lib/libboard_smart_device_rev_c.a(i2c_iomux_config.o)
 .rodata        0x100a35f8       0x80 /home/leon/git/swp-report/iMX6_Platform_SDK/output/mx6dq/lib/libboard_smart_device_rev_c.a(pwm_iomux_config.o)
 .rodata        0x100a3678       0x84 /home/leon/git/swp-report/iMX6_Platform_SDK/output/mx6dq/lib/libboard_smart_device_rev_c.a(usdhc_iomux_config.o)
 .rodata.str1.4
                0x100a36fc       0x3b /home/leon/riotboard/arm-2012.09/bin/../arm-none-eabi/lib//libstdc++.a(pure.o)
                                 0x3c (size before relaxing)
 *fill*         0x100a3737        0x1 
 .rodata._ZTVN10__cxxabiv115__forced_unwindE
                0x100a3738       0x18 /home/leon/riotboard/arm-2012.09/bin/../arm-none-eabi/lib//libstdc++.a(eh_exception.o)
                0x100a3738                vtable for __cxxabiv1::__forced_unwind
 .rodata._ZTVSt9exception
                0x100a3750       0x18 /home/leon/riotboard/arm-2012.09/bin/../arm-none-eabi/lib//libstdc++.a(eh_exception.o)
                0x100a3750                vtable for std::exception
 .rodata._ZTIN10__cxxabiv115__forced_unwindE
                0x100a3768        0x8 /home/leon/riotboard/arm-2012.09/bin/../arm-none-eabi/lib//libstdc++.a(eh_exception.o)
                0x100a3768                typeinfo for __cxxabiv1::__forced_unwind
 .rodata._ZTISt9exception
                0x100a3770        0x8 /home/leon/riotboard/arm-2012.09/bin/../arm-none-eabi/lib//libstdc++.a(eh_exception.o)
                0x100a3770                typeinfo for std::exception
 .rodata._ZTSSt13bad_exception
                0x100a3778       0x14 /home/leon/riotboard/arm-2012.09/bin/../arm-none-eabi/lib//libstdc++.a(eh_exception.o)
                0x100a3778                typeinfo name for std::bad_exception
 .rodata.str1.4
                0x100a378c       0x23 /home/leon/riotboard/arm-2012.09/bin/../arm-none-eabi/lib//libstdc++.a(eh_exception.o)
                                 0x24 (size before relaxing)
 *fill*         0x100a37af        0x1 
 .rodata._ZTSN10__cxxabiv119__foreign_exceptionE
                0x100a37b0       0x24 /home/leon/riotboard/arm-2012.09/bin/../arm-none-eabi/lib//libstdc++.a(eh_exception.o)
                0x100a37b0                typeinfo name for __cxxabiv1::__foreign_exception
 .rodata._ZTIN10__cxxabiv119__foreign_exceptionE
                0x100a37d4        0x8 /home/leon/riotboard/arm-2012.09/bin/../arm-none-eabi/lib//libstdc++.a(eh_exception.o)
                0x100a37d4                typeinfo for __cxxabiv1::__foreign_exception
 *fill*         0x100a37dc        0x4 
 .rodata._ZTVSt13bad_exception
                0x100a37e0       0x18 /home/leon/riotboard/arm-2012.09/bin/../arm-none-eabi/lib//libstdc++.a(eh_exception.o)
                0x100a37e0                vtable for std::bad_exception
 .rodata._ZTSSt9exception
                0x100a37f8       0x10 /home/leon/riotboard/arm-2012.09/bin/../arm-none-eabi/lib//libstdc++.a(eh_exception.o)
                0x100a37f8                typeinfo name for std::exception
 .rodata._ZTVN10__cxxabiv119__foreign_exceptionE
                0x100a3808       0x18 /home/leon/riotboard/arm-2012.09/bin/../arm-none-eabi/lib//libstdc++.a(eh_exception.o)
                0x100a3808                vtable for __cxxabiv1::__foreign_exception
 .rodata._ZTSN10__cxxabiv115__forced_unwindE
                0x100a3820       0x20 /home/leon/riotboard/arm-2012.09/bin/../arm-none-eabi/lib//libstdc++.a(eh_exception.o)
                0x100a3820                typeinfo name for __cxxabiv1::__forced_unwind
 .rodata._ZTISt13bad_exception
                0x100a3840        0xc /home/leon/riotboard/arm-2012.09/bin/../arm-none-eabi/lib//libstdc++.a(eh_exception.o)
                0x100a3840                typeinfo for std::bad_exception
 *fill*         0x100a384c        0x4 
 .rodata._ZTVN10__cxxabiv120__si_class_type_infoE
                0x100a3850       0x30 /home/leon/riotboard/arm-2012.09/bin/../arm-none-eabi/lib//libstdc++.a(si_class_type_info.o)
                0x100a3850                vtable for __cxxabiv1::__si_class_type_info
 .rodata._ZTIN10__cxxabiv120__si_class_type_infoE
                0x100a3880        0xc /home/leon/riotboard/arm-2012.09/bin/../arm-none-eabi/lib//libstdc++.a(si_class_type_info.o)
                0x100a3880                typeinfo for __cxxabiv1::__si_class_type_info
 .rodata._ZTSN10__cxxabiv120__si_class_type_infoE
                0x100a388c       0x28 /home/leon/riotboard/arm-2012.09/bin/../arm-none-eabi/lib//libstdc++.a(si_class_type_info.o)
                0x100a388c                typeinfo name for __cxxabiv1::__si_class_type_info
 *fill*         0x100a38b4        0x4 
 .rodata._ZTVN10__cxxabiv117__class_type_infoE
                0x100a38b8       0x30 /home/leon/riotboard/arm-2012.09/bin/../arm-none-eabi/lib//libstdc++.a(class_type_info.o)
                0x100a38b8                vtable for __cxxabiv1::__class_type_info
 .rodata._ZTIN10__cxxabiv117__class_type_infoE
                0x100a38e8        0xc /home/leon/riotboard/arm-2012.09/bin/../arm-none-eabi/lib//libstdc++.a(class_type_info.o)
                0x100a38e8                typeinfo for __cxxabiv1::__class_type_info
 .rodata._ZTSN10__cxxabiv117__class_type_infoE
                0x100a38f4       0x24 /home/leon/riotboard/arm-2012.09/bin/../arm-none-eabi/lib//libstdc++.a(class_type_info.o)
                0x100a38f4                typeinfo name for __cxxabiv1::__class_type_info
 .rodata.str1.4
                0x100a3918       0x94 /home/leon/riotboard/arm-2012.09/bin/../arm-none-eabi/lib//libstdc++.a(vterminate.o)
 .rodata        0x100a39ac      0x6f8 /home/leon/riotboard/arm-2012.09/bin/../arm-none-eabi/lib//libstdc++.a(cp-demangle.o)
 .rodata.str1.4
                0x100a40a4      0x764 /home/leon/riotboard/arm-2012.09/bin/../arm-none-eabi/lib//libstdc++.a(cp-demangle.o)
                                0x7b4 (size before relaxing)
 .rodata._ZTISt9type_info
                0x100a4808        0x8 /home/leon/riotboard/arm-2012.09/bin/../arm-none-eabi/lib//libstdc++.a(tinfo.o)
                0x100a4808                typeinfo for std::type_info
 .rodata._ZTSSt9type_info
                0x100a4810       0x10 /home/leon/riotboard/arm-2012.09/bin/../arm-none-eabi/lib//libstdc++.a(tinfo.o)
                0x100a4810                typeinfo name for std::type_info
 .rodata._ZTVSt9type_info
                0x100a4820       0x20 /home/leon/riotboard/arm-2012.09/bin/../arm-none-eabi/lib//libstdc++.a(tinfo.o)
                0x100a4820                vtable for std::type_info
                0x100a4840                . = ALIGN (0x4)
 *(.init)
 .init          0x100a4840        0xc /home/leon/riotboard/arm-2012.09/bin/../lib/gcc/arm-none-eabi/4.7.2//crti.o
                0x100a4840                _init
 .init          0x100a484c        0xc /home/leon/riotboard/arm-2012.09/bin/../lib/gcc/arm-none-eabi/4.7.2//crtn.o
                0x100a4858                . = ALIGN (0x4)
                0x100a4858                __init_array_start = .
 *(SORT(.init_array.*))
 *(.init_array)
 .init_array    0x100a4858        0x4 /home/leon/riotboard/arm-2012.09/bin/../lib/gcc/arm-none-eabi/4.7.2//crtbegin.o
 .init_array    0x100a485c        0x4 /home/leon/git/swp-report/iMX6_Platform_SDK/output/mx6dq/lib/libsdk.a(pmu_driver.o)
                0x100a4860                __init_array_end = .
                0x100a4860                . = ALIGN (0x4)
 *(.fini)
 .fini          0x100a4860        0xc /home/leon/riotboard/arm-2012.09/bin/../lib/gcc/arm-none-eabi/4.7.2//crti.o
                0x100a4860                _fini
 .fini          0x100a486c        0xc /home/leon/riotboard/arm-2012.09/bin/../lib/gcc/arm-none-eabi/4.7.2//crtn.o
                0x100a4878                . = ALIGN (0x4)
                0x100a4878                __fini_array_start = .
 *(.fini_array)
 .fini_array    0x100a4878        0x4 /home/leon/riotboard/arm-2012.09/bin/../lib/gcc/arm-none-eabi/4.7.2//crtbegin.o
 *(SORT(.fini_array.*))
                0x100a487c                __fini_array_end = .
                0x100a487c                PROVIDE (__exidx_start, .)

.eh_frame       0x100a487c        0x4
 .eh_frame      0x100a487c        0x0 /home/leon/riotboard/arm-2012.09/bin/../lib/gcc/arm-none-eabi/4.7.2//crtbegin.o
 .eh_frame      0x100a487c        0x4 /home/leon/riotboard/arm-2012.09/bin/../lib/gcc/arm-none-eabi/4.7.2//crtend.o

.wavedata       0x100a4880    0xc24e0
 .wavedata      0x100a4880    0xc24e0 /home/leon/git/swp-report/iMX6_Platform_SDK/output/mx6dq/sdk_unit_test/smart_device_rev_c/libsdk_unit_test.a(wav_file.o)
                0x100a4880                wavefile_start
                0x10166d60                wavefile_end

.ARM.exidx      0x10166d60      0x1e0
 *(.ARM.exidx* .gnu.linkonce.armexidx.*)
 .ARM.exidx.startup
                0x10166d60        0x8 /home/leon/git/swp-report/iMX6_Platform_SDK/output/mx6dq/lib/libsdk.a(startup.o)
 .ARM.exidx     0x10166d68        0x0 /home/leon/riotboard/arm-2012.09/bin/../lib/gcc/arm-none-eabi/4.7.2//libgcc.a(_divdi3.o)
                                  0x8 (size before relaxing)
 .ARM.exidx     0x10166d68        0x0 /home/leon/riotboard/arm-2012.09/bin/../lib/gcc/arm-none-eabi/4.7.2//libgcc.a(_udivdi3.o)
                                  0x8 (size before relaxing)
 .ARM.exidx.text.__cxa_pure_virtual
                0x10166d68        0x8 /home/leon/riotboard/arm-2012.09/bin/../arm-none-eabi/lib//libstdc++.a(pure.o)
 .ARM.exidx.text.__cxa_deleted_virtual
                0x10166d70        0x8 /home/leon/riotboard/arm-2012.09/bin/../arm-none-eabi/lib//libstdc++.a(pure.o)
 .ARM.exidx.text._ZN10__cxxabiv111__terminateEPFvvE
                0x10166d78        0x8 /home/leon/riotboard/arm-2012.09/bin/../arm-none-eabi/lib//libstdc++.a(eh_terminate.o)
 .ARM.exidx.text._ZSt9terminatev
                0x10166d80        0x8 /home/leon/riotboard/arm-2012.09/bin/../arm-none-eabi/lib//libstdc++.a(eh_terminate.o)
 .ARM.exidx.text._ZN10__cxxabiv112__unexpectedEPFvvE
                0x10166d88        0x8 /home/leon/riotboard/arm-2012.09/bin/../arm-none-eabi/lib//libstdc++.a(eh_terminate.o)
 .ARM.exidx.text._ZSt10unexpectedv
                0x10166d90        0x8 /home/leon/riotboard/arm-2012.09/bin/../arm-none-eabi/lib//libstdc++.a(eh_terminate.o)
 .ARM.exidx.text._ZSt13set_terminatePFvvE
                0x10166d98        0x8 /home/leon/riotboard/arm-2012.09/bin/../arm-none-eabi/lib//libstdc++.a(eh_terminate.o)
 .ARM.exidx.text._ZSt14set_unexpectedPFvvE
                0x10166da0        0x0 /home/leon/riotboard/arm-2012.09/bin/../arm-none-eabi/lib//libstdc++.a(eh_terminate.o)
                                  0x8 (size before relaxing)
 .ARM.exidx.text._ZN10__cxxabiv1L24__is_gxx_exception_classEPc
                0x10166da0        0x0 /home/leon/riotboard/arm-2012.09/bin/../arm-none-eabi/lib//libstdc++.a(eh_call.o)
                                  0x8 (size before relaxing)
 .ARM.exidx.text.__cxa_call_terminate
                0x10166da0        0x0 /home/leon/riotboard/arm-2012.09/bin/../arm-none-eabi/lib//libstdc++.a(eh_call.o)
                                  0x8 (size before relaxing)
 .ARM.exidx.text.__cxa_call_unexpected
                0x10166da0        0x8 /home/leon/riotboard/arm-2012.09/bin/../arm-none-eabi/lib//libstdc++.a(eh_call.o)
 .ARM.exidx.text._ZL23__gxx_exception_cleanup19_Unwind_Reason_CodeP21_Unwind_Control_Block
                0x10166da8        0x8 /home/leon/riotboard/arm-2012.09/bin/../arm-none-eabi/lib//libstdc++.a(eh_throw.o)
 .ARM.exidx.text.__cxa_throw
                0x10166db0        0x8 /home/leon/riotboard/arm-2012.09/bin/../arm-none-eabi/lib//libstdc++.a(eh_throw.o)
 .ARM.exidx.text.__cxa_rethrow
                0x10166db8       0x10 /home/leon/riotboard/arm-2012.09/bin/../arm-none-eabi/lib//libstdc++.a(eh_throw.o)
                                  0x8 (size before relaxing)
 .ARM.exidx.text.__cxa_type_match
                0x10166dc8        0x8 /home/leon/riotboard/arm-2012.09/bin/../arm-none-eabi/lib//libstdc++.a(eh_arm.o)
 .ARM.exidx.text.__cxa_begin_cleanup
                0x10166dd0        0x8 /home/leon/riotboard/arm-2012.09/bin/../arm-none-eabi/lib//libstdc++.a(eh_arm.o)
 .ARM.exidx.text.__gnu_end_cleanup
                0x10166dd8        0x0 /home/leon/riotboard/arm-2012.09/bin/../arm-none-eabi/lib//libstdc++.a(eh_arm.o)
                                  0x8 (size before relaxing)
 .ARM.exidx.text._ZNSt9exceptionD2Ev
                0x10166dd8        0x0 /home/leon/riotboard/arm-2012.09/bin/../arm-none-eabi/lib//libstdc++.a(eh_exception.o)
                                  0x8 (size before relaxing)
 .ARM.exidx.text._ZNSt13bad_exceptionD2Ev
                0x10166dd8        0x0 /home/leon/riotboard/arm-2012.09/bin/../arm-none-eabi/lib//libstdc++.a(eh_exception.o)
                                  0x8 (size before relaxing)
 .ARM.exidx.text._ZN10__cxxabiv115__forced_unwindD2Ev
                0x10166dd8        0x0 /home/leon/riotboard/arm-2012.09/bin/../arm-none-eabi/lib//libstdc++.a(eh_exception.o)
                                  0x8 (size before relaxing)
 .ARM.exidx.text._ZN10__cxxabiv119__foreign_exceptionD2Ev
                0x10166dd8        0x0 /home/leon/riotboard/arm-2012.09/bin/../arm-none-eabi/lib//libstdc++.a(eh_exception.o)
                                  0x8 (size before relaxing)
 .ARM.exidx.text._ZNKSt9exception4whatEv
                0x10166dd8        0x0 /home/leon/riotboard/arm-2012.09/bin/../arm-none-eabi/lib//libstdc++.a(eh_exception.o)
                                  0x8 (size before relaxing)
 .ARM.exidx.text._ZNKSt13bad_exception4whatEv
                0x10166dd8        0x0 /home/leon/riotboard/arm-2012.09/bin/../arm-none-eabi/lib//libstdc++.a(eh_exception.o)
                                  0x8 (size before relaxing)
 .ARM.exidx.text._ZN10__cxxabiv119__foreign_exceptionD0Ev
                0x10166dd8        0x0 /home/leon/riotboard/arm-2012.09/bin/../arm-none-eabi/lib//libstdc++.a(eh_exception.o)
                                  0x8 (size before relaxing)
 .ARM.exidx.text._ZN10__cxxabiv115__forced_unwindD0Ev
                0x10166dd8        0x0 /home/leon/riotboard/arm-2012.09/bin/../arm-none-eabi/lib//libstdc++.a(eh_exception.o)
                                  0x8 (size before relaxing)
 .ARM.exidx.text._ZNSt9exceptionD0Ev
                0x10166dd8        0x0 /home/leon/riotboard/arm-2012.09/bin/../arm-none-eabi/lib//libstdc++.a(eh_exception.o)
                                  0x8 (size before relaxing)
 .ARM.exidx.text._ZNSt13bad_exceptionD0Ev
                0x10166dd8        0x0 /home/leon/riotboard/arm-2012.09/bin/../arm-none-eabi/lib//libstdc++.a(eh_exception.o)
                                  0x8 (size before relaxing)
 .ARM.exidx.text.__cxa_allocate_exception
                0x10166dd8        0x0 /home/leon/riotboard/arm-2012.09/bin/../arm-none-eabi/lib//libstdc++.a(eh_alloc.o)
                                  0x8 (size before relaxing)
 .ARM.exidx.text.__cxa_free_exception
                0x10166dd8        0x0 /home/leon/riotboard/arm-2012.09/bin/../arm-none-eabi/lib//libstdc++.a(eh_alloc.o)
                                  0x8 (size before relaxing)
 .ARM.exidx.text.__cxa_allocate_dependent_exception
                0x10166dd8        0x0 /home/leon/riotboard/arm-2012.09/bin/../arm-none-eabi/lib//libstdc++.a(eh_alloc.o)
                                  0x8 (size before relaxing)
 .ARM.exidx.text.__cxa_free_dependent_exception
                0x10166dd8        0x0 /home/leon/riotboard/arm-2012.09/bin/../arm-none-eabi/lib//libstdc++.a(eh_alloc.o)
                                  0x8 (size before relaxing)
 .ARM.exidx.text.__cxa_get_globals_fast
                0x10166dd8        0x0 /home/leon/riotboard/arm-2012.09/bin/../arm-none-eabi/lib//libstdc++.a(eh_globals.o)
                                  0x8 (size before relaxing)
 .ARM.exidx.text.__cxa_get_globals
                0x10166dd8        0x0 /home/leon/riotboard/arm-2012.09/bin/../arm-none-eabi/lib//libstdc++.a(eh_globals.o)
                                  0x8 (size before relaxing)
 .ARM.exidx.text._ZNK10__cxxabiv120__si_class_type_info12__do_dyncastEiNS_17__class_type_info10__sub_kindEPKS1_PKvS4_S6_RNS1_16__dyncast_resultE
                0x10166dd8        0x8 /home/leon/riotboard/arm-2012.09/bin/../arm-none-eabi/lib//libstdc++.a(si_class_type_info.o)
 .ARM.exidx.text._ZN10__cxxabiv120__si_class_type_infoD2Ev
                0x10166de0        0x8 /home/leon/riotboard/arm-2012.09/bin/../arm-none-eabi/lib//libstdc++.a(si_class_type_info.o)
 .ARM.exidx.text._ZN10__cxxabiv120__si_class_type_infoD0Ev
                0x10166de8        0x0 /home/leon/riotboard/arm-2012.09/bin/../arm-none-eabi/lib//libstdc++.a(si_class_type_info.o)
                                  0x8 (size before relaxing)
 .ARM.exidx.text._ZNK10__cxxabiv120__si_class_type_info11__do_upcastEPKNS_17__class_type_infoEPKvRNS1_15__upcast_resultE
                0x10166de8        0x8 /home/leon/riotboard/arm-2012.09/bin/../arm-none-eabi/lib//libstdc++.a(si_class_type_info.o)
 .ARM.exidx.text._ZNK10__cxxabiv120__si_class_type_info20__do_find_public_srcEiPKvPKNS_17__class_type_infoES2_
                0x10166df0        0x8 /home/leon/riotboard/arm-2012.09/bin/../arm-none-eabi/lib//libstdc++.a(si_class_type_info.o)
 .ARM.exidx.text._ZL12read_sleb128PKhPl
                0x10166df8        0x8 /home/leon/riotboard/arm-2012.09/bin/../arm-none-eabi/lib//libstdc++.a(eh_personality.o)
 .ARM.exidx.text._ZL28read_encoded_value_with_basehjPKhPj
                0x10166e00        0x8 /home/leon/riotboard/arm-2012.09/bin/../arm-none-eabi/lib//libstdc++.a(eh_personality.o)
 .ARM.exidx.text._ZL21base_of_encoded_valuehP15_Unwind_Context
                0x10166e08        0x8 /home/leon/riotboard/arm-2012.09/bin/../arm-none-eabi/lib//libstdc++.a(eh_personality.o)
 .ARM.exidx.text._ZL17parse_lsda_headerP15_Unwind_ContextPKhP16lsda_header_info
                0x10166e10        0x8 /home/leon/riotboard/arm-2012.09/bin/../arm-none-eabi/lib//libstdc++.a(eh_personality.o)
 .ARM.exidx.text.__gxx_personality_v0
                0x10166e18        0x8 /home/leon/riotboard/arm-2012.09/bin/../arm-none-eabi/lib//libstdc++.a(eh_personality.o)
 .ARM.exidx.text.__cxa_get_exception_ptr
                0x10166e20        0x8 /home/leon/riotboard/arm-2012.09/bin/../arm-none-eabi/lib//libstdc++.a(eh_catch.o)
 .ARM.exidx.text.__cxa_begin_catch
                0x10166e28        0x8 /home/leon/riotboard/arm-2012.09/bin/../arm-none-eabi/lib//libstdc++.a(eh_catch.o)
 .ARM.exidx.text.__cxa_end_catch
                0x10166e30        0x8 /home/leon/riotboard/arm-2012.09/bin/../arm-none-eabi/lib//libstdc++.a(eh_catch.o)
 .ARM.exidx.text._ZSt18uncaught_exceptionv
                0x10166e38        0x8 /home/leon/riotboard/arm-2012.09/bin/../arm-none-eabi/lib//libstdc++.a(eh_catch.o)
 .ARM.exidx.text._ZNK10__cxxabiv117__class_type_info11__do_upcastEPKS0_PPv
                0x10166e40        0x8 /home/leon/riotboard/arm-2012.09/bin/../arm-none-eabi/lib//libstdc++.a(class_type_info.o)
 .ARM.exidx.text._ZNK10__cxxabiv117__class_type_info20__do_find_public_srcEiPKvPKS0_S2_
                0x10166e48        0x8 /home/leon/riotboard/arm-2012.09/bin/../arm-none-eabi/lib//libstdc++.a(class_type_info.o)
 .ARM.exidx.text._ZNK10__cxxabiv117__class_type_info11__do_upcastEPKS0_PKvRNS0_15__upcast_resultE
                0x10166e50        0x8 /home/leon/riotboard/arm-2012.09/bin/../arm-none-eabi/lib//libstdc++.a(class_type_info.o)
 .ARM.exidx.text._ZN10__cxxabiv117__class_type_infoD2Ev
                0x10166e58        0x8 /home/leon/riotboard/arm-2012.09/bin/../arm-none-eabi/lib//libstdc++.a(class_type_info.o)
 .ARM.exidx.text._ZN10__cxxabiv117__class_type_infoD0Ev
                0x10166e60        0x0 /home/leon/riotboard/arm-2012.09/bin/../arm-none-eabi/lib//libstdc++.a(class_type_info.o)
                                  0x8 (size before relaxing)
 .ARM.exidx.text._ZNK10__cxxabiv117__class_type_info12__do_dyncastEiNS0_10__sub_kindEPKS0_PKvS3_S5_RNS0_16__dyncast_resultE
                0x10166e60        0x8 /home/leon/riotboard/arm-2012.09/bin/../arm-none-eabi/lib//libstdc++.a(class_type_info.o)
 .ARM.exidx.text._ZNK10__cxxabiv117__class_type_info10__do_catchEPKSt9type_infoPPvj
                0x10166e68        0x8 /home/leon/riotboard/arm-2012.09/bin/../arm-none-eabi/lib//libstdc++.a(class_type_info.o)
 .ARM.exidx.text._ZN9__gnu_cxx27__verbose_terminate_handlerEv
                0x10166e70       0x10 /home/leon/riotboard/arm-2012.09/bin/../arm-none-eabi/lib//libstdc++.a(vterminate.o)
                                  0x8 (size before relaxing)
 .ARM.exidx.text.__cxa_current_exception_type
                0x10166e80        0x0 /home/leon/riotboard/arm-2012.09/bin/../arm-none-eabi/lib//libstdc++.a(eh_type.o)
                                  0x8 (size before relaxing)
 .ARM.exidx.text._ZdlPv
                0x10166e80        0x0 /home/leon/riotboard/arm-2012.09/bin/../arm-none-eabi/lib//libstdc++.a(del_op.o)
                                  0x8 (size before relaxing)
 .ARM.exidx.text._ZNSt9type_infoD2Ev
                0x10166e80        0x0 /home/leon/riotboard/arm-2012.09/bin/../arm-none-eabi/lib//libstdc++.a(tinfo.o)
                                  0x8 (size before relaxing)
 .ARM.exidx.text._ZNKSt9type_info14__is_pointer_pEv
                0x10166e80        0x0 /home/leon/riotboard/arm-2012.09/bin/../arm-none-eabi/lib//libstdc++.a(tinfo.o)
                                  0x8 (size before relaxing)
 .ARM.exidx.text._ZNKSt9type_info15__is_function_pEv
                0x10166e80        0x0 /home/leon/riotboard/arm-2012.09/bin/../arm-none-eabi/lib//libstdc++.a(tinfo.o)
                                  0x8 (size before relaxing)
 .ARM.exidx.text._ZNKSt9type_info11__do_upcastEPKN10__cxxabiv117__class_type_infoEPPv
                0x10166e80        0x0 /home/leon/riotboard/arm-2012.09/bin/../arm-none-eabi/lib//libstdc++.a(tinfo.o)
                                  0x8 (size before relaxing)
 .ARM.exidx.text._ZNSt9type_infoD0Ev
                0x10166e80        0x0 /home/leon/riotboard/arm-2012.09/bin/../arm-none-eabi/lib//libstdc++.a(tinfo.o)
                                  0x8 (size before relaxing)
 .ARM.exidx.text._ZNKSt9type_infoeqERKS_
                0x10166e80        0x0 /home/leon/riotboard/arm-2012.09/bin/../arm-none-eabi/lib//libstdc++.a(tinfo.o)
                                  0x8 (size before relaxing)
 .ARM.exidx.text._ZNKSt9type_info10__do_catchEPKS_PPvj
                0x10166e80        0x0 /home/leon/riotboard/arm-2012.09/bin/../arm-none-eabi/lib//libstdc++.a(tinfo.o)
                                  0x8 (size before relaxing)
 .ARM.exidx     0x10166e80       0x88 /home/leon/riotboard/arm-2012.09/bin/../lib/gcc/arm-none-eabi/4.7.2//libgcc.a(unwind-arm.o)
                                 0xd8 (size before relaxing)
 .ARM.exidx     0x10166f08       0x38 /home/leon/riotboard/arm-2012.09/bin/../lib/gcc/arm-none-eabi/4.7.2//libgcc.a(pr-support.o)
                                 0x48 (size before relaxing)
                0x10166f40                PROVIDE (__exidx_end, .)

.rel.dyn        0x10166f40        0x0
 .rel.iplt      0x00000000        0x0 /home/leon/riotboard/arm-2012.09/bin/../lib/gcc/arm-none-eabi/4.7.2//crtbegin.o

.data           0x10166f40    0x1f374
 *(.data .data.* .gnu.linkonce.d.*)
 .data          0x10166f40        0x4 /home/leon/riotboard/arm-2012.09/bin/../lib/gcc/arm-none-eabi/4.7.2//crtbegin.o
                0x10166f40                __dso_handle
 .data          0x10166f44        0x0 /home/leon/riotboard/arm-2012.09/bin/../lib/gcc/arm-none-eabi/4.7.2//crti.o
 .data          0x10166f44        0x0 /home/leon/riotboard/arm-2012.09/bin/../lib/gcc/arm-none-eabi/4.7.2//crtend.o
 .data          0x10166f44        0x0 /home/leon/riotboard/arm-2012.09/bin/../lib/gcc/arm-none-eabi/4.7.2//crtn.o
 .data          0x10166f44        0x0 /home/leon/git/swp-report/iMX6_Platform_SDK/output/mx6dq/sdk_unit_test/smart_device_rev_c/obj/apps/common/ivt.o
 .data          0x10166f44        0x0 /home/leon/git/swp-report/iMX6_Platform_SDK/output/mx6dq/sdk_unit_test/smart_device_rev_c/obj/apps/common/platform_init.o
 .data          0x10166f44        0x0 /home/leon/git/swp-report/iMX6_Platform_SDK/output/mx6dq/sdk_unit_test/smart_device_rev_c/obj/apps/common/print_clock_info.o
 .data          0x10166f44        0x0 /home/leon/git/swp-report/iMX6_Platform_SDK/output/mx6dq/sdk_unit_test/smart_device_rev_c/obj/apps/common/print_version.o
 .data          0x10166f44        0x0 /home/leon/git/swp-report/iMX6_Platform_SDK/output/mx6dq/sdk_unit_test/smart_device_rev_c/obj/apps/sdk_unit_test/src/all_test.o
 .data          0x10166f44        0x0 /home/leon/git/swp-report/iMX6_Platform_SDK/output/mx6dq/sdk_unit_test/smart_device_rev_c/obj/apps/sdk_unit_test/src/unit_test_main.o
 .data          0x10166f44        0x0 /home/leon/git/swp-report/iMX6_Platform_SDK/output/mx6dq/lib/libsdk.a(ccm_pll.o)
 .data          0x10166f44        0x0 /home/leon/git/swp-report/iMX6_Platform_SDK/output/mx6dq/lib/libsdk.a(cortexA9.o)
 .data          0x10166f44        0x0 /home/leon/git/swp-report/iMX6_Platform_SDK/output/mx6dq/lib/libsdk.a(gic.o)
 .data          0x10166f44        0x0 /home/leon/git/swp-report/iMX6_Platform_SDK/output/mx6dq/lib/libsdk.a(mmu.o)
 .data          0x10166f44        0x0 /home/leon/git/swp-report/iMX6_Platform_SDK/output/mx6dq/lib/libsdk.a(startup.o)
 .data          0x10166f44        0x0 /home/leon/git/swp-report/iMX6_Platform_SDK/output/mx6dq/lib/libsdk.a(vectors.o)
 .data          0x10166f44        0x4 /home/leon/git/swp-report/iMX6_Platform_SDK/output/mx6dq/lib/libsdk.a(menu.o)
 .data          0x10166f48        0x0 /home/leon/git/swp-report/iMX6_Platform_SDK/output/mx6dq/lib/libsdk.a(sdk_version.o)
 .data          0x10166f48        0x0 /home/leon/git/swp-report/iMX6_Platform_SDK/output/mx6dq/lib/libsdk.a(system_util.o)
 .data          0x10166f48        0x4 /home/leon/git/swp-report/iMX6_Platform_SDK/output/mx6dq/lib/libsdk.a(text_color.o)
                0x10166f48                is_color_supported
 .data          0x10166f4c        0x0 /home/leon/git/swp-report/iMX6_Platform_SDK/output/mx6dq/lib/libsdk.a(board_id.o)
 .data          0x10166f4c        0x0 /home/leon/git/swp-report/iMX6_Platform_SDK/output/mx6dq/lib/libsdk.a(timer.o)
 .data          0x10166f4c        0x0 /home/leon/git/swp-report/iMX6_Platform_SDK/output/mx6dq/lib/libsdk.a(imx_uart.o)
 .data          0x10166f4c        0x4 /home/leon/git/swp-report/iMX6_Platform_SDK/output/mx6dq/lib/libsdk.a(arm_abort.o)
 .data          0x10166f50        0x0 /home/leon/git/swp-report/iMX6_Platform_SDK/output/mx6dq/lib/libsdk.a(interrupt.o)
 .data          0x10166f50        0x0 /home/leon/git/swp-report/iMX6_Platform_SDK/output/mx6dq/lib/libsdk.a(epit.o)
 .data          0x10166f50        0x0 /home/leon/git/swp-report/iMX6_Platform_SDK/output/mx6dq/lib/libsdk.a(abort_handler.o)
 .data          0x10166f50        0x0 /home/leon/git/swp-report/iMX6_Platform_SDK/output/mx6dq/lib/libboard_smart_device_rev_c.a(board_io_expanders.o)
 .data          0x10166f50        0x8 /home/leon/git/swp-report/iMX6_Platform_SDK/output/mx6dq/lib/libboard_smart_device_rev_c.a(hardware_modules.o)
                0x10166f50                g_debug_uart_port
                0x10166f54                g_system_timer_port
 .data          0x10166f58        0x0 /home/leon/git/swp-report/iMX6_Platform_SDK/output/mx6dq/lib/libboard_smart_device_rev_c.a(dcd.o)
 .data          0x10166f58        0x0 /home/leon/git/swp-report/iMX6_Platform_SDK/output/mx6dq/lib/libboard_smart_device_rev_c.a(uart_iomux_config.o)
 .data          0x10166f58        0x0 /home/leon/git/swp-report/iMX6_Platform_SDK/output/mx6dq/lib/libboard_smart_device_rev_c.a(iomux_config.o)
 .data          0x10166f58        0x0 /home/leon/git/swp-report/iMX6_Platform_SDK/output/mx6dq/lib/libboard_smart_device_rev_c.a(ipu1_iomux_config.o)
 .data          0x10166f58        0x0 /home/leon/git/swp-report/iMX6_Platform_SDK/output/mx6dq/lib/libboard_smart_device_rev_c.a(mmdc_iomux_config.o)
 .data          0x10166f58        0x0 /home/leon/git/swp-report/iMX6_Platform_SDK/output/mx6dq/lib/libboard_smart_device_rev_c.a(pwm1_iomux_config.o)
 .data          0x10166f58        0x0 /home/leon/git/swp-report/iMX6_Platform_SDK/output/mx6dq/lib/libboard_smart_device_rev_c.a(sjc_iomux_config.o)
 .data          0x10166f58        0x0 /home/leon/git/swp-report/iMX6_Platform_SDK/output/mx6dq/lib/libboard_smart_device_rev_c.a(uart1_iomux_config.o)
 .data          0x10166f58        0x0 /home/leon/git/swp-report/iMX6_Platform_SDK/output/mx6dq/lib/libboard_smart_device_rev_c.a(usb_iomux_config.o)
 .data          0x10166f58        0x0 /home/leon/git/swp-report/iMX6_Platform_SDK/output/mx6dq/lib/libboard_smart_device_rev_c.a(usdhc2_iomux_config.o)
 .data          0x10166f58        0x0 /home/leon/git/swp-report/iMX6_Platform_SDK/output/mx6dq/lib/libboard_smart_device_rev_c.a(usdhc3_iomux_config.o)
 .data          0x10166f58        0x0 /home/leon/git/swp-report/iMX6_Platform_SDK/output/mx6dq/lib/libboard_smart_device_rev_c.a(usdhc4_iomux_config.o)
 .data          0x10166f58        0x0 /home/leon/git/swp-report/iMX6_Platform_SDK/output/mx6dq/lib/libboard_smart_device_rev_c.a(audmux_iomux_config.o)
 .data          0x10166f58        0x0 /home/leon/git/swp-report/iMX6_Platform_SDK/output/mx6dq/lib/libboard_smart_device_rev_c.a(ccm_iomux_config.o)
 .data          0x10166f58        0x0 /home/leon/git/swp-report/iMX6_Platform_SDK/output/mx6dq/lib/libboard_smart_device_rev_c.a(ecspi1_iomux_config.o)
 .data          0x10166f58        0x0 /home/leon/git/swp-report/iMX6_Platform_SDK/output/mx6dq/lib/libboard_smart_device_rev_c.a(enet_iomux_config.o)
 .data          0x10166f58        0x0 /home/leon/git/swp-report/iMX6_Platform_SDK/output/mx6dq/lib/libboard_smart_device_rev_c.a(flexcan1_iomux_config.o)
 .data          0x10166f58        0x0 /home/leon/git/swp-report/iMX6_Platform_SDK/output/mx6dq/lib/libboard_smart_device_rev_c.a(gpio1_iomux_config.o)
 .data          0x10166f58        0x0 /home/leon/git/swp-report/iMX6_Platform_SDK/output/mx6dq/lib/libboard_smart_device_rev_c.a(gpio2_iomux_config.o)
 .data          0x10166f58        0x0 /home/leon/git/swp-report/iMX6_Platform_SDK/output/mx6dq/lib/libboard_smart_device_rev_c.a(gpio3_iomux_config.o)
 .data          0x10166f58        0x0 /home/leon/git/swp-report/iMX6_Platform_SDK/output/mx6dq/lib/libboard_smart_device_rev_c.a(gpio4_iomux_config.o)
 .data          0x10166f58        0x0 /home/leon/git/swp-report/iMX6_Platform_SDK/output/mx6dq/lib/libboard_smart_device_rev_c.a(gpio5_iomux_config.o)
 .data          0x10166f58        0x0 /home/leon/git/swp-report/iMX6_Platform_SDK/output/mx6dq/lib/libboard_smart_device_rev_c.a(gpio6_iomux_config.o)
 .data          0x10166f58        0x0 /home/leon/git/swp-report/iMX6_Platform_SDK/output/mx6dq/lib/libboard_smart_device_rev_c.a(gpio7_iomux_config.o)
 .data          0x10166f58        0x0 /home/leon/git/swp-report/iMX6_Platform_SDK/output/mx6dq/lib/libboard_smart_device_rev_c.a(gps_iomux_config.o)
 .data          0x10166f58        0x0 /home/leon/git/swp-report/iMX6_Platform_SDK/output/mx6dq/lib/libboard_smart_device_rev_c.a(i2c1_iomux_config.o)
 .data          0x10166f58        0x0 /home/leon/git/swp-report/iMX6_Platform_SDK/output/mx6dq/lib/libboard_smart_device_rev_c.a(i2c2_iomux_config.o)
 .data          0x10166f58        0x0 /home/leon/git/swp-report/iMX6_Platform_SDK/output/mx6dq/lib/libboard_smart_device_rev_c.a(i2c3_iomux_config.o)
 .data          0x10166f58       0x1c /home/leon/git/swp-report/iMX6_Platform_SDK/output/mx6dq/sdk_unit_test/smart_device_rev_c/libsdk_unit_test.a(audio_test.o)
                0x10166f58                pcm_para
                0x10166f64                pcm_music
 .data          0x10166f74        0x0 /home/leon/git/swp-report/iMX6_Platform_SDK/output/mx6dq/sdk_unit_test/smart_device_rev_c/libsdk_unit_test.a(wav_file.o)
 .data          0x10166f74        0x0 /home/leon/git/swp-report/iMX6_Platform_SDK/output/mx6dq/sdk_unit_test/smart_device_rev_c/libsdk_unit_test.a(gic_test.o)
 .data          0x10166f74        0x0 /home/leon/git/swp-report/iMX6_Platform_SDK/output/mx6dq/sdk_unit_test/smart_device_rev_c/libsdk_unit_test.a(cpu_wp_test.o)
 .data          0x10166f74        0x0 /home/leon/git/swp-report/iMX6_Platform_SDK/output/mx6dq/sdk_unit_test/smart_device_rev_c/libsdk_unit_test.a(multicore_test.o)
 .data          0x10166f74        0x0 /home/leon/git/swp-report/iMX6_Platform_SDK/output/mx6dq/sdk_unit_test/smart_device_rev_c/libsdk_unit_test.a(ocotp_test.o)
 .data          0x10166f74        0x0 /home/leon/git/swp-report/iMX6_Platform_SDK/output/mx6dq/sdk_unit_test/smart_device_rev_c/libsdk_unit_test.a(snvs_rtc_test.o)
 .data          0x10166f74        0x0 /home/leon/git/swp-report/iMX6_Platform_SDK/output/mx6dq/sdk_unit_test/smart_device_rev_c/libsdk_unit_test.a(snvs_srtc_test.o)
 .data          0x10166f74        0x0 /home/leon/git/swp-report/iMX6_Platform_SDK/output/mx6dq/sdk_unit_test/smart_device_rev_c/libsdk_unit_test.a(i2c_test.o)
 .data          0x10166f74       0x18 /home/leon/git/swp-report/iMX6_Platform_SDK/output/mx6dq/sdk_unit_test/smart_device_rev_c/libsdk_unit_test.a(imx6_i2c_device.o)
 .data          0x10166f8c        0x0 /home/leon/git/swp-report/iMX6_Platform_SDK/output/mx6dq/sdk_unit_test/smart_device_rev_c/libsdk_unit_test.a(tempmon_test.o)
 .data          0x10166f8c       0x20 /home/leon/git/swp-report/iMX6_Platform_SDK/output/mx6dq/sdk_unit_test/smart_device_rev_c/libsdk_unit_test.a(sdma_test.o)
 .data          0x10166fac        0x0 /home/leon/git/swp-report/iMX6_Platform_SDK/output/mx6dq/sdk_unit_test/smart_device_rev_c/libsdk_unit_test.a(spi_lpb.o)
 .data          0x10166fac        0x8 /home/leon/git/swp-report/iMX6_Platform_SDK/output/mx6dq/sdk_unit_test/smart_device_rev_c/libsdk_unit_test.a(uart_loopback.o)
 .data          0x10166fb4        0x4 /home/leon/git/swp-report/iMX6_Platform_SDK/output/mx6dq/sdk_unit_test/smart_device_rev_c/libsdk_unit_test.a(uart_test.o)
 .data          0x10166fb8        0x4 /home/leon/git/swp-report/iMX6_Platform_SDK/output/mx6dq/sdk_unit_test/smart_device_rev_c/libsdk_unit_test.a(epit_test.o)
 .data          0x10166fbc        0x0 /home/leon/git/swp-report/iMX6_Platform_SDK/output/mx6dq/sdk_unit_test/smart_device_rev_c/libsdk_unit_test.a(gpt_test.o)
 .data          0x10166fbc        0x0 /home/leon/git/swp-report/iMX6_Platform_SDK/output/mx6dq/sdk_unit_test/smart_device_rev_c/libsdk_unit_test.a(timer_test.o)
 .data          0x10166fbc       0x68 /home/leon/git/swp-report/iMX6_Platform_SDK/output/mx6dq/sdk_unit_test/smart_device_rev_c/libsdk_unit_test.a(usdhc_test.o)
 .data          0x10167024        0x8 /home/leon/git/swp-report/iMX6_Platform_SDK/output/mx6dq/sdk_unit_test/smart_device_rev_c/libsdk_unit_test.a(pwm_test.o)
 .data          0x1016702c        0x0 /home/leon/git/swp-report/iMX6_Platform_SDK/output/mx6dq/sdk_unit_test/smart_device_rev_c/libsdk_unit_test.a(watchdog_test.o)
 .data          0x1016702c        0x0 /home/leon/git/swp-report/iMX6_Platform_SDK/output/mx6dq/sdk_unit_test/smart_device_rev_c/libsdk_unit_test.a(hdmi_test.o)
 .data          0x1016702c        0x0 /home/leon/git/swp-report/iMX6_Platform_SDK/output/mx6dq/sdk_unit_test/smart_device_rev_c/libsdk_unit_test.a(init_dma_data.o)
 .data          0x1016702c        0x0 /home/leon/git/swp-report/iMX6_Platform_SDK/output/mx6dq/sdk_unit_test/smart_device_rev_c/libsdk_unit_test.a(ips_display.o)
 .data          0x1016702c       0x28 /home/leon/git/swp-report/iMX6_Platform_SDK/output/mx6dq/sdk_unit_test/smart_device_rev_c/libsdk_unit_test.a(ips_test.o)
 .data          0x10167054        0x0 /home/leon/git/swp-report/iMX6_Platform_SDK/output/mx6dq/sdk_unit_test/smart_device_rev_c/libsdk_unit_test.a(ipu_image.o)
 .data          0x10167054       0x10 /home/leon/git/swp-report/iMX6_Platform_SDK/output/mx6dq/sdk_unit_test/smart_device_rev_c/libsdk_unit_test.a(camera_test.o)
 .data          0x10167064        0x0 /home/leon/git/swp-report/iMX6_Platform_SDK/output/mx6dq/sdk_unit_test/smart_device_rev_c/libsdk_unit_test.a(csi_test_mode.o)
 .data          0x10167064        0x0 /home/leon/git/swp-report/iMX6_Platform_SDK/output/mx6dq/sdk_unit_test/smart_device_rev_c/libsdk_unit_test.a(sensor_capture.o)
 .data          0x10167064      0x100 /home/leon/git/swp-report/iMX6_Platform_SDK/output/mx6dq/sdk_unit_test/smart_device_rev_c/libsdk_unit_test.a(keypad_test.o)
 .data          0x10167164        0x4 /home/leon/git/swp-report/iMX6_Platform_SDK/output/mx6dq/sdk_unit_test/smart_device_rev_c/libsdk_unit_test.a(pcie_test_rc.o)
                0x10167164                res_num
 .data          0x10167168       0x24 /home/leon/git/swp-report/iMX6_Platform_SDK/output/mx6dq/sdk_unit_test/smart_device_rev_c/libsdk_unit_test.a(usb_test.o)
 .data          0x1016718c        0x8 /home/leon/git/swp-report/iMX6_Platform_SDK/output/mx6dq/sdk_unit_test/smart_device_rev_c/libsdk_unit_test.a(enet_test.o)
 .data          0x10167194        0xc /home/leon/git/swp-report/iMX6_Platform_SDK/output/mx6dq/sdk_unit_test/smart_device_rev_c/libsdk_unit_test.a(spi_test.o)
 .data          0x101671a0        0x0 /home/leon/git/swp-report/iMX6_Platform_SDK/output/mx6dq/sdk_unit_test/smart_device_rev_c/libsdk_unit_test.a(accelerometer_test.o)
 .data          0x101671a0        0x0 /home/leon/git/swp-report/iMX6_Platform_SDK/output/mx6dq/sdk_unit_test/smart_device_rev_c/libsdk_unit_test.a(sata_test.o)
 .data          0x101671a0       0x10 /home/leon/git/swp-report/iMX6_Platform_SDK/output/mx6dq/sdk_unit_test/smart_device_rev_c/libsdk_unit_test.a(at24cxx.o)
 .data          0x101671b0        0x0 /home/leon/git/swp-report/iMX6_Platform_SDK/output/mx6dq/sdk_unit_test/smart_device_rev_c/libsdk_unit_test.a(mem_2_mem.o)
 .data          0x101671b0        0x0 /home/leon/git/swp-report/iMX6_Platform_SDK/output/mx6dq/sdk_unit_test/smart_device_rev_c/libsdk_unit_test.a(pwm_output.o)
 .data          0x101671b0        0x0 /home/leon/git/swp-report/iMX6_Platform_SDK/output/mx6dq/sdk_unit_test/smart_device_rev_c/libsdk_unit_test.a(ips_combiner.o)
 .data          0x101671b0        0x0 /home/leon/git/swp-report/iMX6_Platform_SDK/output/mx6dq/sdk_unit_test/smart_device_rev_c/libsdk_unit_test.a(ips_csc.o)
 .data          0x101671b0        0x0 /home/leon/git/swp-report/iMX6_Platform_SDK/output/mx6dq/sdk_unit_test/smart_device_rev_c/libsdk_unit_test.a(ips_resize.o)
 .data          0x101671b0        0x0 /home/leon/git/swp-report/iMX6_Platform_SDK/output/mx6dq/sdk_unit_test/smart_device_rev_c/libsdk_unit_test.a(ips_rotate.o)
 .data          0x101671b0       0x10 /home/leon/git/swp-report/iMX6_Platform_SDK/output/mx6dq/sdk_unit_test/smart_device_rev_c/libsdk_unit_test.a(usb0_device_mouse_test.o)
                0x101671b0                qf_Descriptor
 .data          0x101671c0        0x0 /home/leon/git/swp-report/iMX6_Platform_SDK/output/mx6dq/sdk_unit_test/smart_device_rev_c/libsdk_unit_test.a(usb0_host_test.o)
 .data          0x101671c0       0x28 /home/leon/git/swp-report/iMX6_Platform_SDK/output/mx6dq/sdk_unit_test/smart_device_rev_c/libsdk_unit_test.a(usb0_host_testmodes_test.o)
 .data          0x101671e8        0x0 /home/leon/git/swp-report/iMX6_Platform_SDK/output/mx6dq/sdk_unit_test/smart_device_rev_c/libsdk_unit_test.a(spi_nor_numonyx.o)
 .data          0x101671e8        0x0 /home/leon/riotboard/arm-2012.09/bin/../arm-none-eabi/lib//libm.a(lib_a-sf_cos.o)
 .data          0x101671e8        0x0 /home/leon/riotboard/arm-2012.09/bin/../arm-none-eabi/lib//libm.a(lib_a-sf_fabs.o)
 .data          0x101671e8        0x0 /home/leon/riotboard/arm-2012.09/bin/../arm-none-eabi/lib//libm.a(lib_a-sf_modf.o)
 .data          0x101671e8        0x0 /home/leon/riotboard/arm-2012.09/bin/../arm-none-eabi/lib//libm.a(lib_a-sf_sin.o)
 .data          0x101671e8        0x0 /home/leon/riotboard/arm-2012.09/bin/../arm-none-eabi/lib//libm.a(lib_a-ef_rem_pio2.o)
 .data          0x101671e8        0x0 /home/leon/riotboard/arm-2012.09/bin/../arm-none-eabi/lib//libm.a(lib_a-kf_cos.o)
 .data          0x101671e8        0x0 /home/leon/riotboard/arm-2012.09/bin/../arm-none-eabi/lib//libm.a(lib_a-kf_rem_pio2.o)
 .data          0x101671e8        0x0 /home/leon/riotboard/arm-2012.09/bin/../arm-none-eabi/lib//libm.a(lib_a-kf_sin.o)
 .data          0x101671e8        0x0 /home/leon/riotboard/arm-2012.09/bin/../arm-none-eabi/lib//libm.a(lib_a-sf_floor.o)
 .data          0x101671e8        0x0 /home/leon/riotboard/arm-2012.09/bin/../arm-none-eabi/lib//libm.a(lib_a-sf_scalbn.o)
 .data          0x101671e8        0x0 /home/leon/riotboard/arm-2012.09/bin/../arm-none-eabi/lib//libm.a(lib_a-sf_copysign.o)
 .data          0x101671e8        0x0 /home/leon/riotboard/arm-2012.09/bin/../arm-none-eabi/lib//libc.a(lib_a-assert.o)
 .data          0x101671e8        0x0 /home/leon/riotboard/arm-2012.09/bin/../arm-none-eabi/lib//libc.a(lib_a-bzero.o)
 .data          0x101671e8        0x0 /home/leon/riotboard/arm-2012.09/bin/../arm-none-eabi/lib//libc.a(lib_a-fflush.o)
 .data          0x101671e8        0x0 /home/leon/riotboard/arm-2012.09/bin/../arm-none-eabi/lib//libc.a(lib_a-findfp.o)
 .data          0x101671e8        0x0 /home/leon/riotboard/arm-2012.09/bin/../arm-none-eabi/lib//libc.a(lib_a-fiprintf.o)
 .data          0x101671e8        0x0 /home/leon/riotboard/arm-2012.09/bin/../arm-none-eabi/lib//libc.a(lib_a-fputc.o)
 .data          0x101671e8        0x0 /home/leon/riotboard/arm-2012.09/bin/../arm-none-eabi/lib//libc.a(lib_a-fputs.o)
 .data          0x101671e8        0x0 /home/leon/riotboard/arm-2012.09/bin/../arm-none-eabi/lib//libc.a(lib_a-freer.o)
 .data          0x101671e8        0x0 /home/leon/riotboard/arm-2012.09/bin/../arm-none-eabi/lib//libc.a(lib_a-fvwrite.o)
 .data          0x101671e8        0x0 /home/leon/riotboard/arm-2012.09/bin/../arm-none-eabi/lib//libc.a(lib_a-fwalk.o)
 .data          0x101671e8      0x430 /home/leon/riotboard/arm-2012.09/bin/../arm-none-eabi/lib//libc.a(lib_a-impure.o)
                0x101671e8                _impure_ptr
 .data          0x10167618        0x0 /home/leon/riotboard/arm-2012.09/bin/../arm-none-eabi/lib//libc.a(lib_a-init.o)
 .data          0x10167618        0x0 /home/leon/riotboard/arm-2012.09/bin/../arm-none-eabi/lib//libc.a(lib_a-malloc.o)
 .data          0x10167618      0x410 /home/leon/riotboard/arm-2012.09/bin/../arm-none-eabi/lib//libc.a(lib_a-mallocr.o)
                0x10167618                __malloc_av_
                0x10167a20                __malloc_sbrk_base
                0x10167a24                __malloc_trim_threshold
 .data          0x10167a28        0x0 /home/leon/riotboard/arm-2012.09/bin/../arm-none-eabi/lib//libc.a(lib_a-memchr.o)
 .data          0x10167a28        0x0 /home/leon/riotboard/arm-2012.09/bin/../arm-none-eabi/lib//libc.a(lib_a-memcpy.o)
 .data          0x10167a28        0x0 /home/leon/riotboard/arm-2012.09/bin/../arm-none-eabi/lib//libc.a(lib_a-memmove.o)
 .data          0x10167a28        0x0 /home/leon/riotboard/arm-2012.09/bin/../arm-none-eabi/lib//libc.a(lib_a-memset.o)
 .data          0x10167a28        0x0 /home/leon/riotboard/arm-2012.09/bin/../arm-none-eabi/lib//libc.a(lib_a-mlock.o)
 .data          0x10167a28        0x0 /home/leon/riotboard/arm-2012.09/bin/../arm-none-eabi/lib//libc.a(lib_a-printf.o)
 .data          0x10167a28        0x0 /home/leon/riotboard/arm-2012.09/bin/../arm-none-eabi/lib//libc.a(lib_a-putc.o)
 .data          0x10167a28        0x0 /home/leon/riotboard/arm-2012.09/bin/../arm-none-eabi/lib//libc.a(lib_a-realloc.o)
 .data          0x10167a28        0x0 /home/leon/riotboard/arm-2012.09/bin/../arm-none-eabi/lib//libc.a(lib_a-reallocr.o)
 .data          0x10167a28        0x0 /home/leon/riotboard/arm-2012.09/bin/../arm-none-eabi/lib//libc.a(lib_a-rget.o)
 .data          0x10167a28        0x0 /home/leon/riotboard/arm-2012.09/bin/../arm-none-eabi/lib//libc.a(lib_a-sbrkr.o)
 .data          0x10167a28        0x0 /home/leon/riotboard/arm-2012.09/bin/../arm-none-eabi/lib//libc.a(lib_a-sprintf.o)
 .data          0x10167a28        0x0 /home/leon/riotboard/arm-2012.09/bin/../arm-none-eabi/lib//libc.a(lib_a-stdio.o)
 .data          0x10167a28        0x0 /home/leon/riotboard/arm-2012.09/bin/../arm-none-eabi/lib//libc.a(lib_a-strlen.o)
 .data          0x10167a28        0x0 /home/leon/riotboard/arm-2012.09/bin/../arm-none-eabi/lib//libc.a(lib_a-strncasecmp.o)
 .data          0x10167a28        0x0 /home/leon/riotboard/arm-2012.09/bin/../arm-none-eabi/lib//libc.a(lib_a-svfprintf.o)
 .data          0x10167a28        0x0 /home/leon/riotboard/arm-2012.09/bin/../arm-none-eabi/lib//libc.a(lib_a-vfiprintf.o)
 .data          0x10167a28        0x0 /home/leon/riotboard/arm-2012.09/bin/../arm-none-eabi/lib//libc.a(lib_a-vfprintf.o)
 .data          0x10167a28        0x0 /home/leon/riotboard/arm-2012.09/bin/../arm-none-eabi/lib//libc.a(lib_a-vprintf.o)
 .data          0x10167a28        0x0 /home/leon/riotboard/arm-2012.09/bin/../arm-none-eabi/lib//libc.a(lib_a-wbuf.o)
 .data          0x10167a28        0x0 /home/leon/riotboard/arm-2012.09/bin/../arm-none-eabi/lib//libc.a(lib_a-writer.o)
 .data          0x10167a28        0x0 /home/leon/riotboard/arm-2012.09/bin/../arm-none-eabi/lib//libc.a(lib_a-wsetup.o)
 .data          0x10167a28        0x0 /home/leon/riotboard/arm-2012.09/bin/../arm-none-eabi/lib//libc.a(lib_a-abort.o)
 .data          0x10167a28        0x0 /home/leon/riotboard/arm-2012.09/bin/../arm-none-eabi/lib//libc.a(lib_a-closer.o)
 .data          0x10167a28        0x4 /home/leon/riotboard/arm-2012.09/bin/../arm-none-eabi/lib//libc.a(lib_a-ctype_.o)
                0x10167a28                __ctype_ptr__
 .data          0x10167a2c        0x0 /home/leon/riotboard/arm-2012.09/bin/../arm-none-eabi/lib//libc.a(lib_a-dtoa.o)
 .data          0x10167a2c        0x0 /home/leon/riotboard/arm-2012.09/bin/../arm-none-eabi/lib//libc.a(lib_a-fclose.o)
 .data          0x10167a2c        0x0 /home/leon/riotboard/arm-2012.09/bin/../arm-none-eabi/lib//libc.a(lib_a-fputwc.o)
 .data          0x10167a2c       0x7c /home/leon/riotboard/arm-2012.09/bin/../arm-none-eabi/lib//libc.a(lib_a-locale.o)
                0x10167a4c                __mb_cur_max
 .data          0x10167aa8        0x0 /home/leon/riotboard/arm-2012.09/bin/../arm-none-eabi/lib//libc.a(lib_a-lseekr.o)
 .data          0x10167aa8        0x0 /home/leon/riotboard/arm-2012.09/bin/../arm-none-eabi/lib//libc.a(lib_a-makebuf.o)
 .data          0x10167aa8        0x0 /home/leon/riotboard/arm-2012.09/bin/../arm-none-eabi/lib//libc.a(lib_a-mprec.o)
 .data          0x10167aa8        0x0 /home/leon/riotboard/arm-2012.09/bin/../arm-none-eabi/lib//libc.a(lib_a-readr.o)
 .data          0x10167aa8        0x0 /home/leon/riotboard/arm-2012.09/bin/../arm-none-eabi/lib//libc.a(lib_a-reent.o)
 .data          0x10167aa8        0x0 /home/leon/riotboard/arm-2012.09/bin/../arm-none-eabi/lib//libc.a(lib_a-refill.o)
 .data          0x10167aa8        0x0 /home/leon/riotboard/arm-2012.09/bin/../arm-none-eabi/lib//libc.a(lib_a-s_fpclassify.o)
 .data          0x10167aa8        0x0 /home/leon/riotboard/arm-2012.09/bin/../arm-none-eabi/lib//libc.a(lib_a-signal.o)
 .data          0x10167aa8        0x0 /home/leon/riotboard/arm-2012.09/bin/../arm-none-eabi/lib//libc.a(lib_a-signalr.o)
 .data          0x10167aa8        0x0 /home/leon/riotboard/arm-2012.09/bin/../arm-none-eabi/lib//libc.a(lib_a-strcmp.o)
 .data          0x10167aa8        0x0 /home/leon/riotboard/arm-2012.09/bin/../arm-none-eabi/lib//libc.a(lib_a-svfiprintf.o)
 .data          0x10167aa8        0x0 /home/leon/riotboard/arm-2012.09/bin/../arm-none-eabi/lib//libc.a(lib_a-wcrtomb.o)
 .data          0x10167aa8        0x4 /home/leon/riotboard/arm-2012.09/bin/../arm-none-eabi/lib//libc.a(lib_a-wctomb_r.o)
                0x10167aa8                __wctomb
 .data          0x10167aac        0x0 /home/leon/riotboard/arm-2012.09/bin/../arm-none-eabi/lib//libc.a(lib_a-callocr.o)
 .data          0x10167aac        0x0 /home/leon/riotboard/arm-2012.09/bin/../arm-none-eabi/lib//libc.a(lib_a-fstatr.o)
 .data          0x10167aac        0x0 /home/leon/riotboard/arm-2012.09/bin/../arm-none-eabi/lib//libc.a(lib_a-isattyr.o)
 .data          0x10167aac        0x0 /home/leon/riotboard/arm-2012.09/bin/../lib/gcc/arm-none-eabi/4.7.2//libgcc.a(_udivsi3.o)
 .data          0x10167aac        0x0 /home/leon/riotboard/arm-2012.09/bin/../lib/gcc/arm-none-eabi/4.7.2//libgcc.a(_dvmd_tls.o)
 .data          0x10167aac        0x0 /home/leon/riotboard/arm-2012.09/bin/../lib/gcc/arm-none-eabi/4.7.2//libgcc.a(_arm_addsubdf3.o)
 .data          0x10167aac        0x0 /home/leon/riotboard/arm-2012.09/bin/../lib/gcc/arm-none-eabi/4.7.2//libgcc.a(_arm_muldivdf3.o)
 .data          0x10167aac        0x0 /home/leon/riotboard/arm-2012.09/bin/../lib/gcc/arm-none-eabi/4.7.2//libgcc.a(_arm_cmpdf2.o)
 .data          0x10167aac        0x0 /home/leon/riotboard/arm-2012.09/bin/../lib/gcc/arm-none-eabi/4.7.2//libgcc.a(_arm_fixdfsi.o)
 .data          0x10167aac        0x0 /home/leon/riotboard/arm-2012.09/bin/../lib/gcc/arm-none-eabi/4.7.2//libgcc.a(_arm_addsubsf3.o)
 .data          0x10167aac        0x0 /home/leon/riotboard/arm-2012.09/bin/../lib/gcc/arm-none-eabi/4.7.2//libgcc.a(_arm_muldivsf3.o)
 .data          0x10167aac        0x0 /home/leon/riotboard/arm-2012.09/bin/../lib/gcc/arm-none-eabi/4.7.2//libgcc.a(_arm_cmpsf2.o)
 .data          0x10167aac        0x0 /home/leon/riotboard/arm-2012.09/bin/../lib/gcc/arm-none-eabi/4.7.2//libgcc.a(_arm_fixsfsi.o)
 .data          0x10167aac        0x0 /home/leon/riotboard/arm-2012.09/bin/../lib/gcc/arm-none-eabi/4.7.2//libgcc.a(_aeabi_uldivmod.o)
 .data          0x10167aac        0x0 /home/leon/riotboard/arm-2012.09/bin/../lib/gcc/arm-none-eabi/4.7.2//libgcc.a(bpabi.o)
 .data          0x10167aac        0x0 /home/leon/riotboard/arm-2012.09/bin/../lib/gcc/arm-none-eabi/4.7.2//libgcc.a(_divdi3.o)
 .data          0x10167aac        0x0 /home/leon/riotboard/arm-2012.09/bin/../lib/gcc/arm-none-eabi/4.7.2//libgcc.a(_udivdi3.o)
 .data          0x10167aac        0x0 /home/leon/riotboard/arm-2012.09/bin/../lib/gcc/arm-none-eabi/4.7.2//libgcc.a(_clzsi2.o)
 .data          0x10167aac        0x0 /home/leon/git/swp-report/iMX6_Platform_SDK/output/mx6dq/lib/libsdk.a(profile.o)
 .data          0x10167aac        0x0 /home/leon/git/swp-report/iMX6_Platform_SDK/output/mx6dq/lib/libsdk.a(armv7_cache.o)
 .data          0x10167aac        0x4 /home/leon/git/swp-report/iMX6_Platform_SDK/output/mx6dq/lib/libsdk.a(runtime_support.o)
                0x10167aac                environ
 .data          0x10167ab0        0x0 /home/leon/git/swp-report/iMX6_Platform_SDK/output/mx6dq/lib/libsdk.a(mma8451.o)
 .data          0x10167ab0       0x30 /home/leon/git/swp-report/iMX6_Platform_SDK/output/mx6dq/lib/libsdk.a(smd_sensor.o)
                0x10167ab0                ov5642_strobe_on
 .data          0x10167ae0        0x0 /home/leon/git/swp-report/iMX6_Platform_SDK/output/mx6dq/lib/libsdk.a(cpu_get_cores.o)
 .data          0x10167ae0        0x0 /home/leon/git/swp-report/iMX6_Platform_SDK/output/mx6dq/lib/libsdk.a(cpu_multicore.o)
 .data          0x10167ae0       0x40 /home/leon/git/swp-report/iMX6_Platform_SDK/output/mx6dq/lib/libsdk.a(cpu_workpoint.o)
 .data          0x10167b20        0x0 /home/leon/git/swp-report/iMX6_Platform_SDK/output/mx6dq/lib/libsdk.a(enet_drv.o)
 .data          0x10167b20        0x0 /home/leon/git/swp-report/iMX6_Platform_SDK/output/mx6dq/lib/libsdk.a(gpio.o)
 .data          0x10167b20        0x0 /home/leon/git/swp-report/iMX6_Platform_SDK/output/mx6dq/lib/libsdk.a(imx6dq_gpio_map.o)
 .data          0x10167b20        0x0 /home/leon/git/swp-report/iMX6_Platform_SDK/output/mx6dq/lib/libsdk.a(hdmi_tx.o)
 .data          0x10167b20        0x0 /home/leon/git/swp-report/iMX6_Platform_SDK/output/mx6dq/lib/libsdk.a(hdmi_tx_audio.o)
 .data          0x10167b20        0x0 /home/leon/git/swp-report/iMX6_Platform_SDK/output/mx6dq/lib/libsdk.a(hdmi_tx_phy.o)
 .data          0x10167b20        0x0 /home/leon/git/swp-report/iMX6_Platform_SDK/output/mx6dq/lib/libsdk.a(imx_i2c.o)
 .data          0x10167b20        0x0 /home/leon/git/swp-report/iMX6_Platform_SDK/output/mx6dq/lib/libsdk.a(imx_i2c_slave.o)
 .data          0x10167b20      0x368 /home/leon/git/swp-report/iMX6_Platform_SDK/output/mx6dq/lib/libsdk.a(ips_disp_panel.o)
                0x10167b20                disp_dev_list
                0x10167e84                num_of_panels
 .data          0x10167e88        0x0 /home/leon/git/swp-report/iMX6_Platform_SDK/output/mx6dq/lib/libsdk.a(ipu_common.o)
 .data          0x10167e88        0x0 /home/leon/git/swp-report/iMX6_Platform_SDK/output/mx6dq/lib/libsdk.a(ipu_csi.o)
 .data          0x10167e88        0x0 /home/leon/git/swp-report/iMX6_Platform_SDK/output/mx6dq/lib/libsdk.a(ipu_dc.o)
 .data          0x10167e88        0x0 /home/leon/git/swp-report/iMX6_Platform_SDK/output/mx6dq/lib/libsdk.a(ipu_di.o)
 .data          0x10167e88        0x0 /home/leon/git/swp-report/iMX6_Platform_SDK/output/mx6dq/lib/libsdk.a(ipu_dmfc.o)
 .data          0x10167e88        0x0 /home/leon/git/swp-report/iMX6_Platform_SDK/output/mx6dq/lib/libsdk.a(ipu_dp.o)
 .data          0x10167e88        0x0 /home/leon/git/swp-report/iMX6_Platform_SDK/output/mx6dq/lib/libsdk.a(ipu_ic.o)
 .data          0x10167e88        0x0 /home/leon/git/swp-report/iMX6_Platform_SDK/output/mx6dq/lib/libsdk.a(ipu_idmac.o)
 .data          0x10167e88        0x0 /home/leon/git/swp-report/iMX6_Platform_SDK/output/mx6dq/lib/libsdk.a(ipu_vdi.o)
 .data          0x10167e88        0x0 /home/leon/git/swp-report/iMX6_Platform_SDK/output/mx6dq/lib/libsdk.a(keypad_port.o)
 .data          0x10167e88        0x0 /home/leon/git/swp-report/iMX6_Platform_SDK/output/mx6dq/lib/libsdk.a(ldb.o)
 .data          0x10167e88        0x0 /home/leon/git/swp-report/iMX6_Platform_SDK/output/mx6dq/lib/libsdk.a(ocotp.o)
 .data          0x10167e88        0x0 /home/leon/git/swp-report/iMX6_Platform_SDK/output/mx6dq/lib/libsdk.a(pcie.o)
 .data          0x10167e88        0x0 /home/leon/git/swp-report/iMX6_Platform_SDK/output/mx6dq/lib/libsdk.a(pcie_phy.o)
 .data          0x10167e88        0x0 /home/leon/git/swp-report/iMX6_Platform_SDK/output/mx6dq/lib/libsdk.a(pcie_prot.o)
 .data          0x10167e88        0x0 /home/leon/git/swp-report/iMX6_Platform_SDK/output/mx6dq/lib/libsdk.a(pmu_driver.o)
 .data          0x10167e88        0x0 /home/leon/git/swp-report/iMX6_Platform_SDK/output/mx6dq/lib/libsdk.a(pwm.o)
 .data          0x10167e88        0x0 /home/leon/git/swp-report/iMX6_Platform_SDK/output/mx6dq/lib/libsdk.a(rtc.o)
 .data          0x10167e88        0x0 /home/leon/git/swp-report/iMX6_Platform_SDK/output/mx6dq/lib/libsdk.a(srtc.o)
 .data          0x10167e88        0x1 /home/leon/git/swp-report/iMX6_Platform_SDK/output/mx6dq/lib/libsdk.a(sata.o)
 .data          0x10167e89        0x0 /home/leon/git/swp-report/iMX6_Platform_SDK/output/mx6dq/lib/libsdk.a(sdma.o)
 .data          0x10167e89        0x0 /home/leon/git/swp-report/iMX6_Platform_SDK/output/mx6dq/lib/libsdk.a(sdma_script_info.o)
 .data          0x10167e89        0x0 /home/leon/git/swp-report/iMX6_Platform_SDK/output/mx6dq/lib/libsdk.a(snvs.o)
 .data          0x10167e89        0x0 /home/leon/git/swp-report/iMX6_Platform_SDK/output/mx6dq/lib/libsdk.a(ecspi.o)
 .data          0x10167e89        0x0 /home/leon/git/swp-report/iMX6_Platform_SDK/output/mx6dq/lib/libsdk.a(tempmon.o)
 .data          0x10167e89        0x0 /home/leon/git/swp-report/iMX6_Platform_SDK/output/mx6dq/lib/libsdk.a(gpt.o)
 .data          0x10167e89        0x0 /home/leon/git/swp-report/iMX6_Platform_SDK/output/mx6dq/lib/libsdk.a(usb_common.o)
 .data          0x10167e89        0x0 /home/leon/git/swp-report/iMX6_Platform_SDK/output/mx6dq/lib/libsdk.a(usbd_drv.o)
 .data          0x10167e89        0x0 /home/leon/git/swp-report/iMX6_Platform_SDK/output/mx6dq/lib/libsdk.a(usbh_drv.o)
 *fill*         0x10167e89        0x3 
 .data          0x10167e8c       0x58 /home/leon/git/swp-report/iMX6_Platform_SDK/output/mx6dq/lib/libsdk.a(usdhc.o)
                0x10167e8c                usdhc_device
                0x10167edc                card_detect_test_en
                0x10167ee0                write_protect_test_en
 .data          0x10167ee4        0x0 /home/leon/git/swp-report/iMX6_Platform_SDK/output/mx6dq/lib/libsdk.a(usdhc_host.o)
 .data          0x10167ee4        0x4 /home/leon/git/swp-report/iMX6_Platform_SDK/output/mx6dq/lib/libsdk.a(usdhc_mmc.o)
 .data          0x10167ee8        0x0 /home/leon/git/swp-report/iMX6_Platform_SDK/output/mx6dq/lib/libsdk.a(usdhc_sd.o)
 .data          0x10167ee8        0x0 /home/leon/git/swp-report/iMX6_Platform_SDK/output/mx6dq/lib/libsdk.a(spinlock.o)
 .data          0x10167ee8        0x0 /home/leon/git/swp-report/iMX6_Platform_SDK/output/mx6dq/lib/libsdk.a(spinlock_lock_unlock.o)
 .data          0x10167ee8    0x1e3c0 /home/leon/git/swp-report/iMX6_Platform_SDK/output/mx6dq/lib/libsdk.a(camera_profile.o)
                0x10167ee8                g_ov3640_sensor_detection
                0x10167f08                g_ov5640_sensor_detection
                0x10167f28                g_ov5642_sensor_detection
                0x10167f48                g_mt9p111_sensor_detection
                0x10167f58                g_ov3640_mode_vga_640_480_30fps
                0x101686b8                g_ov5640_mode_vga_640_480_30fps
                0x10169638                g_ov5642_mode_vga_640_480_30fps
                0x1016b558                g_ov5642_af_firmware
                0x10182228                g_ov5642_af_trigger
                0x10182248                g_ov5642_af_ready
                0x10182258                g_mt9p111_mode_vga_640_480_30fps
                0x10185998                g_mt9p111_af_firmware
                0x101860d8                g_mt9p111_af_trigger
                0x10186108                g_mt9p111_af_ready
                0x10186118                g_camera_modes
                0x10186138                g_camera_profiles
 .data          0x101862a8        0x0 /home/leon/git/swp-report/iMX6_Platform_SDK/output/mx6dq/lib/libsdk.a(hdmi_common.o)
 .data          0x101862a8        0x0 /home/leon/git/swp-report/iMX6_Platform_SDK/output/mx6dq/lib/libsdk.a(mx6x_usb.o)
 .data          0x101862a8        0x0 /home/leon/git/swp-report/iMX6_Platform_SDK/output/mx6dq/lib/libboard_smart_device_rev_c.a(board_audio.o)
 .data          0x101862a8        0x1 /home/leon/git/swp-report/iMX6_Platform_SDK/output/mx6dq/lib/libboard_smart_device_rev_c.a(board_camera.o)
                0x101862a8                g_camera_i2c_port
 .data          0x101862a9        0x0 /home/leon/git/swp-report/iMX6_Platform_SDK/output/mx6dq/lib/libboard_smart_device_rev_c.a(board_display.o)
 .data          0x101862a9        0x0 /home/leon/git/swp-report/iMX6_Platform_SDK/output/mx6dq/lib/libboard_smart_device_rev_c.a(board_hdmi.o)
 .data          0x101862a9        0x0 /home/leon/git/swp-report/iMX6_Platform_SDK/output/mx6dq/lib/libboard_smart_device_rev_c.a(board_i2c.o)
 .data          0x101862a9        0x0 /home/leon/git/swp-report/iMX6_Platform_SDK/output/mx6dq/lib/libboard_smart_device_rev_c.a(board_mipi.o)
 .data          0x101862a9        0x0 /home/leon/git/swp-report/iMX6_Platform_SDK/output/mx6dq/lib/libboard_smart_device_rev_c.a(board_network.o)
 .data          0x101862a9        0x0 /home/leon/git/swp-report/iMX6_Platform_SDK/output/mx6dq/lib/libboard_smart_device_rev_c.a(board_pcie.o)
 .data          0x101862a9        0x0 /home/leon/git/swp-report/iMX6_Platform_SDK/output/mx6dq/lib/libboard_smart_device_rev_c.a(board_sata.o)
 .data          0x101862a9        0x0 /home/leon/git/swp-report/iMX6_Platform_SDK/output/mx6dq/lib/libboard_smart_device_rev_c.a(board_usb.o)
 .data          0x101862a9        0x0 /home/leon/git/swp-report/iMX6_Platform_SDK/output/mx6dq/lib/libboard_smart_device_rev_c.a(board_usdhc.o)
 .data          0x101862a9        0x0 /home/leon/git/swp-report/iMX6_Platform_SDK/output/mx6dq/lib/libboard_smart_device_rev_c.a(ecspi_iomux_config.o)
 .data          0x101862a9        0x0 /home/leon/git/swp-report/iMX6_Platform_SDK/output/mx6dq/lib/libboard_smart_device_rev_c.a(i2c_iomux_config.o)
 .data          0x101862a9        0x0 /home/leon/git/swp-report/iMX6_Platform_SDK/output/mx6dq/lib/libboard_smart_device_rev_c.a(pwm_iomux_config.o)
 .data          0x101862a9        0x0 /home/leon/git/swp-report/iMX6_Platform_SDK/output/mx6dq/lib/libboard_smart_device_rev_c.a(usdhc_iomux_config.o)
 .data          0x101862a9        0x0 /home/leon/riotboard/arm-2012.09/bin/../arm-none-eabi/lib//libstdc++.a(pure.o)
 .data          0x101862a9        0x0 /home/leon/riotboard/arm-2012.09/bin/../arm-none-eabi/lib//libstdc++.a(eh_terminate.o)
 .data          0x101862a9        0x0 /home/leon/riotboard/arm-2012.09/bin/../arm-none-eabi/lib//libstdc++.a(eh_unex_handler.o)
 *fill*         0x101862a9        0x3 
 .data._ZN10__cxxabiv120__unexpected_handlerE
                0x101862ac        0x4 /home/leon/riotboard/arm-2012.09/bin/../arm-none-eabi/lib//libstdc++.a(eh_unex_handler.o)
                0x101862ac                __cxxabiv1::__unexpected_handler
 .data          0x101862b0        0x0 /home/leon/riotboard/arm-2012.09/bin/../arm-none-eabi/lib//libstdc++.a(eh_call.o)
 .data          0x101862b0        0x0 /home/leon/riotboard/arm-2012.09/bin/../arm-none-eabi/lib//libstdc++.a(eh_throw.o)
 .data          0x101862b0        0x0 /home/leon/riotboard/arm-2012.09/bin/../arm-none-eabi/lib//libstdc++.a(eh_arm.o)
 .data          0x101862b0        0x0 /home/leon/riotboard/arm-2012.09/bin/../arm-none-eabi/lib//libstdc++.a(eh_exception.o)
 .data          0x101862b0        0x0 /home/leon/riotboard/arm-2012.09/bin/../arm-none-eabi/lib//libstdc++.a(eh_alloc.o)
 .data          0x101862b0        0x0 /home/leon/riotboard/arm-2012.09/bin/../arm-none-eabi/lib//libstdc++.a(eh_globals.o)
 .data          0x101862b0        0x0 /home/leon/riotboard/arm-2012.09/bin/../arm-none-eabi/lib//libstdc++.a(si_class_type_info.o)
 .data          0x101862b0        0x0 /home/leon/riotboard/arm-2012.09/bin/../arm-none-eabi/lib//libstdc++.a(eh_personality.o)
 .data          0x101862b0        0x0 /home/leon/riotboard/arm-2012.09/bin/../arm-none-eabi/lib//libstdc++.a(eh_term_handler.o)
 .data._ZN10__cxxabiv119__terminate_handlerE
                0x101862b0        0x4 /home/leon/riotboard/arm-2012.09/bin/../arm-none-eabi/lib//libstdc++.a(eh_term_handler.o)
                0x101862b0                __cxxabiv1::__terminate_handler
 .data          0x101862b4        0x0 /home/leon/riotboard/arm-2012.09/bin/../arm-none-eabi/lib//libstdc++.a(eh_catch.o)
 .data          0x101862b4        0x0 /home/leon/riotboard/arm-2012.09/bin/../arm-none-eabi/lib//libstdc++.a(class_type_info.o)
 .data          0x101862b4        0x0 /home/leon/riotboard/arm-2012.09/bin/../arm-none-eabi/lib//libstdc++.a(vterminate.o)
 .data          0x101862b4        0x0 /home/leon/riotboard/arm-2012.09/bin/../arm-none-eabi/lib//libstdc++.a(cp-demangle.o)
 .data          0x101862b4        0x0 /home/leon/riotboard/arm-2012.09/bin/../arm-none-eabi/lib//libstdc++.a(eh_type.o)
 .data          0x101862b4        0x0 /home/leon/riotboard/arm-2012.09/bin/../arm-none-eabi/lib//libstdc++.a(del_op.o)
 .data          0x101862b4        0x0 /home/leon/riotboard/arm-2012.09/bin/../arm-none-eabi/lib//libstdc++.a(tinfo.o)
 .data          0x101862b4        0x0 /home/leon/riotboard/arm-2012.09/bin/../arm-none-eabi/lib//libc.a(lib_a-fwrite.o)
 .data          0x101862b4        0x0 /home/leon/riotboard/arm-2012.09/bin/../arm-none-eabi/lib//libc.a(lib_a-memcmp.o)
 .data          0x101862b4        0x0 /home/leon/riotboard/arm-2012.09/bin/../arm-none-eabi/lib//libc.a(lib_a-strncmp.o)
 .data          0x101862b4        0x0 /home/leon/riotboard/arm-2012.09/bin/../arm-none-eabi/lib//libc.a(lib_a-syswrite.o)
 .data          0x101862b4        0x0 /home/leon/riotboard/arm-2012.09/bin/../lib/gcc/arm-none-eabi/4.7.2//libgcc.a(_divsi3.o)
 .data          0x101862b4        0x0 /home/leon/riotboard/arm-2012.09/bin/../lib/gcc/arm-none-eabi/4.7.2//libgcc.a(unwind-arm.o)
 .data          0x101862b4        0x0 /home/leon/riotboard/arm-2012.09/bin/../lib/gcc/arm-none-eabi/4.7.2//libgcc.a(libunwind.o)
 .data          0x101862b4        0x0 /home/leon/riotboard/arm-2012.09/bin/../lib/gcc/arm-none-eabi/4.7.2//libgcc.a(pr-support.o)
 .data          0x101862b4        0x0 /home/leon/git/swp-report/iMX6_Platform_SDK/output/mx6dq/lib/libsdk.a(max7310.o)

.jcr            0x101862b4        0x4
 .jcr           0x101862b4        0x0 /home/leon/riotboard/arm-2012.09/bin/../lib/gcc/arm-none-eabi/4.7.2//crtbegin.o
 .jcr           0x101862b4        0x4 /home/leon/riotboard/arm-2012.09/bin/../lib/gcc/arm-none-eabi/4.7.2//crtend.o

.tm_clone_table
                0x101862b8        0x0
 .tm_clone_table
                0x101862b8        0x0 /home/leon/riotboard/arm-2012.09/bin/../lib/gcc/arm-none-eabi/4.7.2//crtbegin.o
 .tm_clone_table
                0x101862b8        0x0 /home/leon/riotboard/arm-2012.09/bin/../lib/gcc/arm-none-eabi/4.7.2//crtend.o

.igot.plt       0x101862b8        0x0
 .igot.plt      0x00000000        0x0 /home/leon/riotboard/arm-2012.09/bin/../lib/gcc/arm-none-eabi/4.7.2//crtbegin.o

.hab.data       0x10400000     0x2000
                0x10400000                __hab_data = .
                0x10402000                . = (. + 0x2000)
 *fill*         0x10400000     0x2000 
                0x10402000                . = ALIGN (0x20)
                0x10402000                __hab_data_end = .
                0x00402000                _image_size = (. - _start_image_add)

.bss            0x10402000    0x48538
                0x10402000                __bss_start__ = .
 *(.shbss)
 *(.bss .bss.* .gnu.linkonce.b.*)
 .bss           0x10402000       0x1c /home/leon/riotboard/arm-2012.09/bin/../lib/gcc/arm-none-eabi/4.7.2//crtbegin.o
 .bss           0x1040201c        0x0 /home/leon/riotboard/arm-2012.09/bin/../lib/gcc/arm-none-eabi/4.7.2//crti.o
 .bss           0x1040201c        0x0 /home/leon/riotboard/arm-2012.09/bin/../lib/gcc/arm-none-eabi/4.7.2//crtend.o
 .bss           0x1040201c        0x0 /home/leon/riotboard/arm-2012.09/bin/../lib/gcc/arm-none-eabi/4.7.2//crtn.o
 .bss           0x1040201c        0x0 /home/leon/git/swp-report/iMX6_Platform_SDK/output/mx6dq/sdk_unit_test/smart_device_rev_c/obj/apps/common/ivt.o
 .bss           0x1040201c        0x0 /home/leon/git/swp-report/iMX6_Platform_SDK/output/mx6dq/sdk_unit_test/smart_device_rev_c/obj/apps/common/platform_init.o
 .bss           0x1040201c        0x0 /home/leon/git/swp-report/iMX6_Platform_SDK/output/mx6dq/sdk_unit_test/smart_device_rev_c/obj/apps/common/print_clock_info.o
 .bss           0x1040201c        0x0 /home/leon/git/swp-report/iMX6_Platform_SDK/output/mx6dq/sdk_unit_test/smart_device_rev_c/obj/apps/common/print_version.o
 .bss           0x1040201c        0x0 /home/leon/git/swp-report/iMX6_Platform_SDK/output/mx6dq/sdk_unit_test/smart_device_rev_c/obj/apps/sdk_unit_test/src/all_test.o
 .bss           0x1040201c        0x0 /home/leon/git/swp-report/iMX6_Platform_SDK/output/mx6dq/sdk_unit_test/smart_device_rev_c/obj/apps/sdk_unit_test/src/unit_test_main.o
 .bss           0x1040201c        0x0 /home/leon/git/swp-report/iMX6_Platform_SDK/output/mx6dq/lib/libsdk.a(ccm_pll.o)
 .bss           0x1040201c        0x0 /home/leon/git/swp-report/iMX6_Platform_SDK/output/mx6dq/lib/libsdk.a(cortexA9.o)
 .bss           0x1040201c        0x0 /home/leon/git/swp-report/iMX6_Platform_SDK/output/mx6dq/lib/libsdk.a(gic.o)
 .bss           0x1040201c        0x0 /home/leon/git/swp-report/iMX6_Platform_SDK/output/mx6dq/lib/libsdk.a(mmu.o)
 .bss           0x1040201c        0x0 /home/leon/git/swp-report/iMX6_Platform_SDK/output/mx6dq/lib/libsdk.a(startup.o)
 .bss           0x1040201c        0x0 /home/leon/git/swp-report/iMX6_Platform_SDK/output/mx6dq/lib/libsdk.a(vectors.o)
 .bss           0x1040201c       0x7c /home/leon/git/swp-report/iMX6_Platform_SDK/output/mx6dq/lib/libsdk.a(menu.o)
 .bss           0x10402098        0x0 /home/leon/git/swp-report/iMX6_Platform_SDK/output/mx6dq/lib/libsdk.a(sdk_version.o)
 .bss           0x10402098        0x0 /home/leon/git/swp-report/iMX6_Platform_SDK/output/mx6dq/lib/libsdk.a(system_util.o)
 .bss           0x10402098        0x0 /home/leon/git/swp-report/iMX6_Platform_SDK/output/mx6dq/lib/libsdk.a(text_color.o)
 .bss           0x10402098        0x0 /home/leon/git/swp-report/iMX6_Platform_SDK/output/mx6dq/lib/libsdk.a(board_id.o)
 .bss           0x10402098        0x4 /home/leon/git/swp-report/iMX6_Platform_SDK/output/mx6dq/lib/libsdk.a(timer.o)
                0x10402098                g_microsecondTimerMultiple
 .bss           0x1040209c        0x0 /home/leon/git/swp-report/iMX6_Platform_SDK/output/mx6dq/lib/libsdk.a(imx_uart.o)
 .bss           0x1040209c        0x0 /home/leon/git/swp-report/iMX6_Platform_SDK/output/mx6dq/lib/libsdk.a(arm_abort.o)
 .bss           0x1040209c      0x290 /home/leon/git/swp-report/iMX6_Platform_SDK/output/mx6dq/lib/libsdk.a(interrupt.o)
                0x1040209c                g_interrupt_handlers
                0x1040231c                g_vectNum
 .bss           0x1040232c        0x0 /home/leon/git/swp-report/iMX6_Platform_SDK/output/mx6dq/lib/libsdk.a(epit.o)
 .bss           0x1040232c        0x0 /home/leon/git/swp-report/iMX6_Platform_SDK/output/mx6dq/lib/libsdk.a(abort_handler.o)
 .bss           0x1040232c        0x4 /home/leon/git/swp-report/iMX6_Platform_SDK/output/mx6dq/lib/libboard_smart_device_rev_c.a(board_io_expanders.o)
                0x1040232c                max7310_i2c_req_array
 .bss           0x10402330        0x0 /home/leon/git/swp-report/iMX6_Platform_SDK/output/mx6dq/lib/libboard_smart_device_rev_c.a(hardware_modules.o)
 .bss           0x10402330        0x0 /home/leon/git/swp-report/iMX6_Platform_SDK/output/mx6dq/lib/libboard_smart_device_rev_c.a(dcd.o)
 .bss           0x10402330        0x0 /home/leon/git/swp-report/iMX6_Platform_SDK/output/mx6dq/lib/libboard_smart_device_rev_c.a(uart_iomux_config.o)
 .bss           0x10402330        0x0 /home/leon/git/swp-report/iMX6_Platform_SDK/output/mx6dq/lib/libboard_smart_device_rev_c.a(iomux_config.o)
 .bss           0x10402330        0x0 /home/leon/git/swp-report/iMX6_Platform_SDK/output/mx6dq/lib/libboard_smart_device_rev_c.a(ipu1_iomux_config.o)
 .bss           0x10402330        0x0 /home/leon/git/swp-report/iMX6_Platform_SDK/output/mx6dq/lib/libboard_smart_device_rev_c.a(mmdc_iomux_config.o)
 .bss           0x10402330        0x0 /home/leon/git/swp-report/iMX6_Platform_SDK/output/mx6dq/lib/libboard_smart_device_rev_c.a(pwm1_iomux_config.o)
 .bss           0x10402330        0x0 /home/leon/git/swp-report/iMX6_Platform_SDK/output/mx6dq/lib/libboard_smart_device_rev_c.a(sjc_iomux_config.o)
 .bss           0x10402330        0x0 /home/leon/git/swp-report/iMX6_Platform_SDK/output/mx6dq/lib/libboard_smart_device_rev_c.a(uart1_iomux_config.o)
 .bss           0x10402330        0x0 /home/leon/git/swp-report/iMX6_Platform_SDK/output/mx6dq/lib/libboard_smart_device_rev_c.a(usb_iomux_config.o)
 .bss           0x10402330        0x0 /home/leon/git/swp-report/iMX6_Platform_SDK/output/mx6dq/lib/libboard_smart_device_rev_c.a(usdhc2_iomux_config.o)
 .bss           0x10402330        0x0 /home/leon/git/swp-report/iMX6_Platform_SDK/output/mx6dq/lib/libboard_smart_device_rev_c.a(usdhc3_iomux_config.o)
 .bss           0x10402330        0x0 /home/leon/git/swp-report/iMX6_Platform_SDK/output/mx6dq/lib/libboard_smart_device_rev_c.a(usdhc4_iomux_config.o)
 .bss           0x10402330        0x0 /home/leon/git/swp-report/iMX6_Platform_SDK/output/mx6dq/lib/libboard_smart_device_rev_c.a(audmux_iomux_config.o)
 .bss           0x10402330        0x0 /home/leon/git/swp-report/iMX6_Platform_SDK/output/mx6dq/lib/libboard_smart_device_rev_c.a(ccm_iomux_config.o)
 .bss           0x10402330        0x0 /home/leon/git/swp-report/iMX6_Platform_SDK/output/mx6dq/lib/libboard_smart_device_rev_c.a(ecspi1_iomux_config.o)
 .bss           0x10402330        0x0 /home/leon/git/swp-report/iMX6_Platform_SDK/output/mx6dq/lib/libboard_smart_device_rev_c.a(enet_iomux_config.o)
 .bss           0x10402330        0x0 /home/leon/git/swp-report/iMX6_Platform_SDK/output/mx6dq/lib/libboard_smart_device_rev_c.a(flexcan1_iomux_config.o)
 .bss           0x10402330        0x0 /home/leon/git/swp-report/iMX6_Platform_SDK/output/mx6dq/lib/libboard_smart_device_rev_c.a(gpio1_iomux_config.o)
 .bss           0x10402330        0x0 /home/leon/git/swp-report/iMX6_Platform_SDK/output/mx6dq/lib/libboard_smart_device_rev_c.a(gpio2_iomux_config.o)
 .bss           0x10402330        0x0 /home/leon/git/swp-report/iMX6_Platform_SDK/output/mx6dq/lib/libboard_smart_device_rev_c.a(gpio3_iomux_config.o)
 .bss           0x10402330        0x0 /home/leon/git/swp-report/iMX6_Platform_SDK/output/mx6dq/lib/libboard_smart_device_rev_c.a(gpio4_iomux_config.o)
 .bss           0x10402330        0x0 /home/leon/git/swp-report/iMX6_Platform_SDK/output/mx6dq/lib/libboard_smart_device_rev_c.a(gpio5_iomux_config.o)
 .bss           0x10402330        0x0 /home/leon/git/swp-report/iMX6_Platform_SDK/output/mx6dq/lib/libboard_smart_device_rev_c.a(gpio6_iomux_config.o)
 .bss           0x10402330        0x0 /home/leon/git/swp-report/iMX6_Platform_SDK/output/mx6dq/lib/libboard_smart_device_rev_c.a(gpio7_iomux_config.o)
 .bss           0x10402330        0x0 /home/leon/git/swp-report/iMX6_Platform_SDK/output/mx6dq/lib/libboard_smart_device_rev_c.a(gps_iomux_config.o)
 .bss           0x10402330        0x0 /home/leon/git/swp-report/iMX6_Platform_SDK/output/mx6dq/lib/libboard_smart_device_rev_c.a(i2c1_iomux_config.o)
 .bss           0x10402330        0x0 /home/leon/git/swp-report/iMX6_Platform_SDK/output/mx6dq/lib/libboard_smart_device_rev_c.a(i2c2_iomux_config.o)
 .bss           0x10402330        0x0 /home/leon/git/swp-report/iMX6_Platform_SDK/output/mx6dq/lib/libboard_smart_device_rev_c.a(i2c3_iomux_config.o)
 .bss           0x10402330        0x4 /home/leon/git/swp-report/iMX6_Platform_SDK/output/mx6dq/sdk_unit_test/smart_device_rev_c/libsdk_unit_test.a(audio_test.o)
 .bss           0x10402334        0x0 /home/leon/git/swp-report/iMX6_Platform_SDK/output/mx6dq/sdk_unit_test/smart_device_rev_c/libsdk_unit_test.a(wav_file.o)
 .bss           0x10402334        0x4 /home/leon/git/swp-report/iMX6_Platform_SDK/output/mx6dq/sdk_unit_test/smart_device_rev_c/libsdk_unit_test.a(gic_test.o)
                0x10402334                gicTestDone
 .bss           0x10402338        0x0 /home/leon/git/swp-report/iMX6_Platform_SDK/output/mx6dq/sdk_unit_test/smart_device_rev_c/libsdk_unit_test.a(cpu_wp_test.o)
 .bss           0x10402338        0x4 /home/leon/git/swp-report/iMX6_Platform_SDK/output/mx6dq/sdk_unit_test/smart_device_rev_c/libsdk_unit_test.a(multicore_test.o)
                0x10402338                isTestDone
 .bss           0x1040233c        0x0 /home/leon/git/swp-report/iMX6_Platform_SDK/output/mx6dq/sdk_unit_test/smart_device_rev_c/libsdk_unit_test.a(ocotp_test.o)
 .bss           0x1040233c        0x8 /home/leon/git/swp-report/iMX6_Platform_SDK/output/mx6dq/sdk_unit_test/smart_device_rev_c/libsdk_unit_test.a(snvs_rtc_test.o)
 .bss           0x10402344        0x4 /home/leon/git/swp-report/iMX6_Platform_SDK/output/mx6dq/sdk_unit_test/smart_device_rev_c/libsdk_unit_test.a(snvs_srtc_test.o)
 .bss           0x10402348        0x0 /home/leon/git/swp-report/iMX6_Platform_SDK/output/mx6dq/sdk_unit_test/smart_device_rev_c/libsdk_unit_test.a(i2c_test.o)
 .bss           0x10402348       0x28 /home/leon/git/swp-report/iMX6_Platform_SDK/output/mx6dq/sdk_unit_test/smart_device_rev_c/libsdk_unit_test.a(imx6_i2c_device.o)
 .bss           0x10402370        0x0 /home/leon/git/swp-report/iMX6_Platform_SDK/output/mx6dq/sdk_unit_test/smart_device_rev_c/libsdk_unit_test.a(tempmon_test.o)
 .bss           0x10402370        0x0 /home/leon/git/swp-report/iMX6_Platform_SDK/output/mx6dq/sdk_unit_test/smart_device_rev_c/libsdk_unit_test.a(sdma_test.o)
 .bss           0x10402370     0x2818 /home/leon/git/swp-report/iMX6_Platform_SDK/output/mx6dq/sdk_unit_test/smart_device_rev_c/libsdk_unit_test.a(spi_lpb.o)
 .bss           0x10404b88     0x281c /home/leon/git/swp-report/iMX6_Platform_SDK/output/mx6dq/sdk_unit_test/smart_device_rev_c/libsdk_unit_test.a(uart_loopback.o)
                0x104073a0                trans_done
 .bss           0x104073a4        0x1 /home/leon/git/swp-report/iMX6_Platform_SDK/output/mx6dq/sdk_unit_test/smart_device_rev_c/libsdk_unit_test.a(uart_test.o)
 .bss           0x104073a5        0x1 /home/leon/git/swp-report/iMX6_Platform_SDK/output/mx6dq/sdk_unit_test/smart_device_rev_c/libsdk_unit_test.a(epit_test.o)
 *fill*         0x104073a6        0x2 
 .bss           0x104073a8        0xc /home/leon/git/swp-report/iMX6_Platform_SDK/output/mx6dq/sdk_unit_test/smart_device_rev_c/libsdk_unit_test.a(gpt_test.o)
 .bss           0x104073b4        0x0 /home/leon/git/swp-report/iMX6_Platform_SDK/output/mx6dq/sdk_unit_test/smart_device_rev_c/libsdk_unit_test.a(timer_test.o)
 .bss           0x104073b4    0x17d00 /home/leon/git/swp-report/iMX6_Platform_SDK/output/mx6dq/sdk_unit_test/smart_device_rev_c/libsdk_unit_test.a(usdhc_test.o)
 .bss           0x1041f0b4        0x0 /home/leon/git/swp-report/iMX6_Platform_SDK/output/mx6dq/sdk_unit_test/smart_device_rev_c/libsdk_unit_test.a(pwm_test.o)
 .bss           0x1041f0b4        0x0 /home/leon/git/swp-report/iMX6_Platform_SDK/output/mx6dq/sdk_unit_test/smart_device_rev_c/libsdk_unit_test.a(watchdog_test.o)
 .bss           0x1041f0b4        0x0 /home/leon/git/swp-report/iMX6_Platform_SDK/output/mx6dq/sdk_unit_test/smart_device_rev_c/libsdk_unit_test.a(hdmi_test.o)
 .bss           0x1041f0b4        0x0 /home/leon/git/swp-report/iMX6_Platform_SDK/output/mx6dq/sdk_unit_test/smart_device_rev_c/libsdk_unit_test.a(init_dma_data.o)
 .bss           0x1041f0b4        0x0 /home/leon/git/swp-report/iMX6_Platform_SDK/output/mx6dq/sdk_unit_test/smart_device_rev_c/libsdk_unit_test.a(ips_display.o)
 .bss           0x1041f0b4        0x0 /home/leon/git/swp-report/iMX6_Platform_SDK/output/mx6dq/sdk_unit_test/smart_device_rev_c/libsdk_unit_test.a(ips_test.o)
 .bss           0x1041f0b4        0x0 /home/leon/git/swp-report/iMX6_Platform_SDK/output/mx6dq/sdk_unit_test/smart_device_rev_c/libsdk_unit_test.a(ipu_image.o)
 .bss           0x1041f0b4        0x0 /home/leon/git/swp-report/iMX6_Platform_SDK/output/mx6dq/sdk_unit_test/smart_device_rev_c/libsdk_unit_test.a(camera_test.o)
 .bss           0x1041f0b4        0x0 /home/leon/git/swp-report/iMX6_Platform_SDK/output/mx6dq/sdk_unit_test/smart_device_rev_c/libsdk_unit_test.a(csi_test_mode.o)
 .bss           0x1041f0b4        0x0 /home/leon/git/swp-report/iMX6_Platform_SDK/output/mx6dq/sdk_unit_test/smart_device_rev_c/libsdk_unit_test.a(sensor_capture.o)
 .bss           0x1041f0b4        0x0 /home/leon/git/swp-report/iMX6_Platform_SDK/output/mx6dq/sdk_unit_test/smart_device_rev_c/libsdk_unit_test.a(keypad_test.o)
 .bss           0x1041f0b4       0x78 /home/leon/git/swp-report/iMX6_Platform_SDK/output/mx6dq/sdk_unit_test/smart_device_rev_c/libsdk_unit_test.a(pcie_test_rc.o)
                0x1041f0b4                ep1_resources
 .bss           0x1041f12c        0x0 /home/leon/git/swp-report/iMX6_Platform_SDK/output/mx6dq/sdk_unit_test/smart_device_rev_c/libsdk_unit_test.a(usb_test.o)
 .bss           0x1041f12c     0x1028 /home/leon/git/swp-report/iMX6_Platform_SDK/output/mx6dq/sdk_unit_test/smart_device_rev_c/libsdk_unit_test.a(enet_test.o)
 .bss           0x10420154      0x404 /home/leon/git/swp-report/iMX6_Platform_SDK/output/mx6dq/sdk_unit_test/smart_device_rev_c/libsdk_unit_test.a(spi_test.o)
                0x10420154                dev_spi_nor
 .bss           0x10420558        0x0 /home/leon/git/swp-report/iMX6_Platform_SDK/output/mx6dq/sdk_unit_test/smart_device_rev_c/libsdk_unit_test.a(accelerometer_test.o)
 .bss           0x10420558      0x400 /home/leon/git/swp-report/iMX6_Platform_SDK/output/mx6dq/sdk_unit_test/smart_device_rev_c/libsdk_unit_test.a(sata_test.o)
 .bss           0x10420958       0x24 /home/leon/git/swp-report/iMX6_Platform_SDK/output/mx6dq/sdk_unit_test/smart_device_rev_c/libsdk_unit_test.a(at24cxx.o)
 .bss           0x1042097c    0x20818 /home/leon/git/swp-report/iMX6_Platform_SDK/output/mx6dq/sdk_unit_test/smart_device_rev_c/libsdk_unit_test.a(mem_2_mem.o)
 .bss           0x10441194        0x4 /home/leon/git/swp-report/iMX6_Platform_SDK/output/mx6dq/sdk_unit_test/smart_device_rev_c/libsdk_unit_test.a(pwm_output.o)
                0x10441194                g_pwm_test_end
 .bss           0x10441198        0x0 /home/leon/git/swp-report/iMX6_Platform_SDK/output/mx6dq/sdk_unit_test/smart_device_rev_c/libsdk_unit_test.a(ips_combiner.o)
 .bss           0x10441198        0x0 /home/leon/git/swp-report/iMX6_Platform_SDK/output/mx6dq/sdk_unit_test/smart_device_rev_c/libsdk_unit_test.a(ips_csc.o)
 .bss           0x10441198        0x0 /home/leon/git/swp-report/iMX6_Platform_SDK/output/mx6dq/sdk_unit_test/smart_device_rev_c/libsdk_unit_test.a(ips_resize.o)
 .bss           0x10441198        0x0 /home/leon/git/swp-report/iMX6_Platform_SDK/output/mx6dq/sdk_unit_test/smart_device_rev_c/libsdk_unit_test.a(ips_rotate.o)
 *fill*         0x10441198      0xe68 
 .bss           0x10442000     0x1000 /home/leon/git/swp-report/iMX6_Platform_SDK/output/mx6dq/sdk_unit_test/smart_device_rev_c/libsdk_unit_test.a(usb0_device_mouse_test.o)
                0x10442000                endpointList
 .bss           0x10443000     0x1000 /home/leon/git/swp-report/iMX6_Platform_SDK/output/mx6dq/sdk_unit_test/smart_device_rev_c/libsdk_unit_test.a(usb0_host_test.o)
                0x10443000                frame_list
 .bss           0x10444000        0x0 /home/leon/git/swp-report/iMX6_Platform_SDK/output/mx6dq/sdk_unit_test/smart_device_rev_c/libsdk_unit_test.a(usb0_host_testmodes_test.o)
 .bss           0x10444000      0x400 /home/leon/git/swp-report/iMX6_Platform_SDK/output/mx6dq/sdk_unit_test/smart_device_rev_c/libsdk_unit_test.a(spi_nor_numonyx.o)
 .bss           0x10444400        0x0 /home/leon/riotboard/arm-2012.09/bin/../arm-none-eabi/lib//libm.a(lib_a-sf_cos.o)
 .bss           0x10444400        0x0 /home/leon/riotboard/arm-2012.09/bin/../arm-none-eabi/lib//libm.a(lib_a-sf_fabs.o)
 .bss           0x10444400        0x0 /home/leon/riotboard/arm-2012.09/bin/../arm-none-eabi/lib//libm.a(lib_a-sf_modf.o)
 .bss           0x10444400        0x0 /home/leon/riotboard/arm-2012.09/bin/../arm-none-eabi/lib//libm.a(lib_a-sf_sin.o)
 .bss           0x10444400        0x0 /home/leon/riotboard/arm-2012.09/bin/../arm-none-eabi/lib//libm.a(lib_a-ef_rem_pio2.o)
 .bss           0x10444400        0x0 /home/leon/riotboard/arm-2012.09/bin/../arm-none-eabi/lib//libm.a(lib_a-kf_cos.o)
 .bss           0x10444400        0x0 /home/leon/riotboard/arm-2012.09/bin/../arm-none-eabi/lib//libm.a(lib_a-kf_rem_pio2.o)
 .bss           0x10444400        0x0 /home/leon/riotboard/arm-2012.09/bin/../arm-none-eabi/lib//libm.a(lib_a-kf_sin.o)
 .bss           0x10444400        0x0 /home/leon/riotboard/arm-2012.09/bin/../arm-none-eabi/lib//libm.a(lib_a-sf_floor.o)
 .bss           0x10444400        0x0 /home/leon/riotboard/arm-2012.09/bin/../arm-none-eabi/lib//libm.a(lib_a-sf_scalbn.o)
 .bss           0x10444400        0x0 /home/leon/riotboard/arm-2012.09/bin/../arm-none-eabi/lib//libm.a(lib_a-sf_copysign.o)
 .bss           0x10444400        0x0 /home/leon/riotboard/arm-2012.09/bin/../arm-none-eabi/lib//libc.a(lib_a-assert.o)
 .bss           0x10444400        0x0 /home/leon/riotboard/arm-2012.09/bin/../arm-none-eabi/lib//libc.a(lib_a-bzero.o)
 .bss           0x10444400        0x0 /home/leon/riotboard/arm-2012.09/bin/../arm-none-eabi/lib//libc.a(lib_a-fflush.o)
 .bss           0x10444400        0x0 /home/leon/riotboard/arm-2012.09/bin/../arm-none-eabi/lib//libc.a(lib_a-findfp.o)
 .bss           0x10444400        0x0 /home/leon/riotboard/arm-2012.09/bin/../arm-none-eabi/lib//libc.a(lib_a-fiprintf.o)
 .bss           0x10444400        0x0 /home/leon/riotboard/arm-2012.09/bin/../arm-none-eabi/lib//libc.a(lib_a-fputc.o)
 .bss           0x10444400        0x0 /home/leon/riotboard/arm-2012.09/bin/../arm-none-eabi/lib//libc.a(lib_a-fputs.o)
 .bss           0x10444400        0x0 /home/leon/riotboard/arm-2012.09/bin/../arm-none-eabi/lib//libc.a(lib_a-freer.o)
 .bss           0x10444400        0x0 /home/leon/riotboard/arm-2012.09/bin/../arm-none-eabi/lib//libc.a(lib_a-fvwrite.o)
 .bss           0x10444400        0x0 /home/leon/riotboard/arm-2012.09/bin/../arm-none-eabi/lib//libc.a(lib_a-fwalk.o)
 .bss           0x10444400        0x0 /home/leon/riotboard/arm-2012.09/bin/../arm-none-eabi/lib//libc.a(lib_a-impure.o)
 .bss           0x10444400        0x0 /home/leon/riotboard/arm-2012.09/bin/../arm-none-eabi/lib//libc.a(lib_a-init.o)
 .bss           0x10444400        0x0 /home/leon/riotboard/arm-2012.09/bin/../arm-none-eabi/lib//libc.a(lib_a-malloc.o)
 .bss           0x10444400       0x34 /home/leon/riotboard/arm-2012.09/bin/../arm-none-eabi/lib//libc.a(lib_a-mallocr.o)
                0x10444400                __malloc_top_pad
                0x10444404                __malloc_current_mallinfo
                0x1044442c                __malloc_max_sbrked_mem
                0x10444430                __malloc_max_total_mem
 .bss           0x10444434        0x0 /home/leon/riotboard/arm-2012.09/bin/../arm-none-eabi/lib//libc.a(lib_a-memchr.o)
 .bss           0x10444434        0x0 /home/leon/riotboard/arm-2012.09/bin/../arm-none-eabi/lib//libc.a(lib_a-memcpy.o)
 .bss           0x10444434        0x0 /home/leon/riotboard/arm-2012.09/bin/../arm-none-eabi/lib//libc.a(lib_a-memmove.o)
 .bss           0x10444434        0x0 /home/leon/riotboard/arm-2012.09/bin/../arm-none-eabi/lib//libc.a(lib_a-memset.o)
 .bss           0x10444434        0x0 /home/leon/riotboard/arm-2012.09/bin/../arm-none-eabi/lib//libc.a(lib_a-mlock.o)
 .bss           0x10444434        0x0 /home/leon/riotboard/arm-2012.09/bin/../arm-none-eabi/lib//libc.a(lib_a-printf.o)
 .bss           0x10444434        0x0 /home/leon/riotboard/arm-2012.09/bin/../arm-none-eabi/lib//libc.a(lib_a-putc.o)
 .bss           0x10444434        0x0 /home/leon/riotboard/arm-2012.09/bin/../arm-none-eabi/lib//libc.a(lib_a-realloc.o)
 .bss           0x10444434        0x0 /home/leon/riotboard/arm-2012.09/bin/../arm-none-eabi/lib//libc.a(lib_a-reallocr.o)
 .bss           0x10444434        0x0 /home/leon/riotboard/arm-2012.09/bin/../arm-none-eabi/lib//libc.a(lib_a-rget.o)
 .bss           0x10444434        0x0 /home/leon/riotboard/arm-2012.09/bin/../arm-none-eabi/lib//libc.a(lib_a-sbrkr.o)
 .bss           0x10444434        0x0 /home/leon/riotboard/arm-2012.09/bin/../arm-none-eabi/lib//libc.a(lib_a-sprintf.o)
 .bss           0x10444434        0x0 /home/leon/riotboard/arm-2012.09/bin/../arm-none-eabi/lib//libc.a(lib_a-stdio.o)
 .bss           0x10444434        0x0 /home/leon/riotboard/arm-2012.09/bin/../arm-none-eabi/lib//libc.a(lib_a-strlen.o)
 .bss           0x10444434        0x0 /home/leon/riotboard/arm-2012.09/bin/../arm-none-eabi/lib//libc.a(lib_a-strncasecmp.o)
 .bss           0x10444434        0x0 /home/leon/riotboard/arm-2012.09/bin/../arm-none-eabi/lib//libc.a(lib_a-svfprintf.o)
 .bss           0x10444434        0x0 /home/leon/riotboard/arm-2012.09/bin/../arm-none-eabi/lib//libc.a(lib_a-vfiprintf.o)
 .bss           0x10444434        0x0 /home/leon/riotboard/arm-2012.09/bin/../arm-none-eabi/lib//libc.a(lib_a-vfprintf.o)
 .bss           0x10444434        0x0 /home/leon/riotboard/arm-2012.09/bin/../arm-none-eabi/lib//libc.a(lib_a-vprintf.o)
 .bss           0x10444434        0x0 /home/leon/riotboard/arm-2012.09/bin/../arm-none-eabi/lib//libc.a(lib_a-wbuf.o)
 .bss           0x10444434        0x0 /home/leon/riotboard/arm-2012.09/bin/../arm-none-eabi/lib//libc.a(lib_a-writer.o)
 .bss           0x10444434        0x0 /home/leon/riotboard/arm-2012.09/bin/../arm-none-eabi/lib//libc.a(lib_a-wsetup.o)
 .bss           0x10444434        0x0 /home/leon/riotboard/arm-2012.09/bin/../arm-none-eabi/lib//libc.a(lib_a-abort.o)
 .bss           0x10444434        0x0 /home/leon/riotboard/arm-2012.09/bin/../arm-none-eabi/lib//libc.a(lib_a-closer.o)
 .bss           0x10444434        0x0 /home/leon/riotboard/arm-2012.09/bin/../arm-none-eabi/lib//libc.a(lib_a-ctype_.o)
 .bss           0x10444434        0x0 /home/leon/riotboard/arm-2012.09/bin/../arm-none-eabi/lib//libc.a(lib_a-dtoa.o)
 .bss           0x10444434        0x0 /home/leon/riotboard/arm-2012.09/bin/../arm-none-eabi/lib//libc.a(lib_a-fclose.o)
 .bss           0x10444434        0x0 /home/leon/riotboard/arm-2012.09/bin/../arm-none-eabi/lib//libc.a(lib_a-fputwc.o)
 .bss           0x10444434        0xc /home/leon/riotboard/arm-2012.09/bin/../arm-none-eabi/lib//libc.a(lib_a-locale.o)
                0x10444434                _PathLocale
                0x10444438                __mlocale_changed
                0x1044443c                __nlocale_changed
 .bss           0x10444440        0x0 /home/leon/riotboard/arm-2012.09/bin/../arm-none-eabi/lib//libc.a(lib_a-lseekr.o)
 .bss           0x10444440        0x0 /home/leon/riotboard/arm-2012.09/bin/../arm-none-eabi/lib//libc.a(lib_a-makebuf.o)
 .bss           0x10444440        0x0 /home/leon/riotboard/arm-2012.09/bin/../arm-none-eabi/lib//libc.a(lib_a-mprec.o)
 .bss           0x10444440        0x0 /home/leon/riotboard/arm-2012.09/bin/../arm-none-eabi/lib//libc.a(lib_a-readr.o)
 .bss           0x10444440        0x0 /home/leon/riotboard/arm-2012.09/bin/../arm-none-eabi/lib//libc.a(lib_a-reent.o)
 .bss           0x10444440        0x0 /home/leon/riotboard/arm-2012.09/bin/../arm-none-eabi/lib//libc.a(lib_a-refill.o)
 .bss           0x10444440        0x0 /home/leon/riotboard/arm-2012.09/bin/../arm-none-eabi/lib//libc.a(lib_a-s_fpclassify.o)
 .bss           0x10444440        0x0 /home/leon/riotboard/arm-2012.09/bin/../arm-none-eabi/lib//libc.a(lib_a-signal.o)
 .bss           0x10444440        0x0 /home/leon/riotboard/arm-2012.09/bin/../arm-none-eabi/lib//libc.a(lib_a-signalr.o)
 .bss           0x10444440        0x0 /home/leon/riotboard/arm-2012.09/bin/../arm-none-eabi/lib//libc.a(lib_a-strcmp.o)
 .bss           0x10444440        0x0 /home/leon/riotboard/arm-2012.09/bin/../arm-none-eabi/lib//libc.a(lib_a-svfiprintf.o)
 .bss           0x10444440        0x0 /home/leon/riotboard/arm-2012.09/bin/../arm-none-eabi/lib//libc.a(lib_a-wcrtomb.o)
 .bss           0x10444440        0x0 /home/leon/riotboard/arm-2012.09/bin/../arm-none-eabi/lib//libc.a(lib_a-wctomb_r.o)
 .bss           0x10444440        0x0 /home/leon/riotboard/arm-2012.09/bin/../arm-none-eabi/lib//libc.a(lib_a-callocr.o)
 .bss           0x10444440        0x0 /home/leon/riotboard/arm-2012.09/bin/../arm-none-eabi/lib//libc.a(lib_a-fstatr.o)
 .bss           0x10444440        0x0 /home/leon/riotboard/arm-2012.09/bin/../arm-none-eabi/lib//libc.a(lib_a-isattyr.o)
 .bss           0x10444440        0x0 /home/leon/riotboard/arm-2012.09/bin/../lib/gcc/arm-none-eabi/4.7.2//libgcc.a(_udivsi3.o)
 .bss           0x10444440        0x0 /home/leon/riotboard/arm-2012.09/bin/../lib/gcc/arm-none-eabi/4.7.2//libgcc.a(_dvmd_tls.o)
 .bss           0x10444440        0x0 /home/leon/riotboard/arm-2012.09/bin/../lib/gcc/arm-none-eabi/4.7.2//libgcc.a(_arm_addsubdf3.o)
 .bss           0x10444440        0x0 /home/leon/riotboard/arm-2012.09/bin/../lib/gcc/arm-none-eabi/4.7.2//libgcc.a(_arm_muldivdf3.o)
 .bss           0x10444440        0x0 /home/leon/riotboard/arm-2012.09/bin/../lib/gcc/arm-none-eabi/4.7.2//libgcc.a(_arm_cmpdf2.o)
 .bss           0x10444440        0x0 /home/leon/riotboard/arm-2012.09/bin/../lib/gcc/arm-none-eabi/4.7.2//libgcc.a(_arm_fixdfsi.o)
 .bss           0x10444440        0x0 /home/leon/riotboard/arm-2012.09/bin/../lib/gcc/arm-none-eabi/4.7.2//libgcc.a(_arm_addsubsf3.o)
 .bss           0x10444440        0x0 /home/leon/riotboard/arm-2012.09/bin/../lib/gcc/arm-none-eabi/4.7.2//libgcc.a(_arm_muldivsf3.o)
 .bss           0x10444440        0x0 /home/leon/riotboard/arm-2012.09/bin/../lib/gcc/arm-none-eabi/4.7.2//libgcc.a(_arm_cmpsf2.o)
 .bss           0x10444440        0x0 /home/leon/riotboard/arm-2012.09/bin/../lib/gcc/arm-none-eabi/4.7.2//libgcc.a(_arm_fixsfsi.o)
 .bss           0x10444440        0x0 /home/leon/riotboard/arm-2012.09/bin/../lib/gcc/arm-none-eabi/4.7.2//libgcc.a(_aeabi_uldivmod.o)
 .bss           0x10444440        0x0 /home/leon/riotboard/arm-2012.09/bin/../lib/gcc/arm-none-eabi/4.7.2//libgcc.a(bpabi.o)
 .bss           0x10444440        0x0 /home/leon/riotboard/arm-2012.09/bin/../lib/gcc/arm-none-eabi/4.7.2//libgcc.a(_divdi3.o)
 .bss           0x10444440        0x0 /home/leon/riotboard/arm-2012.09/bin/../lib/gcc/arm-none-eabi/4.7.2//libgcc.a(_udivdi3.o)
 .bss           0x10444440        0x0 /home/leon/riotboard/arm-2012.09/bin/../lib/gcc/arm-none-eabi/4.7.2//libgcc.a(_clzsi2.o)
 .bss           0x10444440        0x0 /home/leon/git/swp-report/iMX6_Platform_SDK/output/mx6dq/lib/libsdk.a(profile.o)
 .bss           0x10444440        0x0 /home/leon/git/swp-report/iMX6_Platform_SDK/output/mx6dq/lib/libsdk.a(armv7_cache.o)
 .bss           0x10444440        0xc /home/leon/git/swp-report/iMX6_Platform_SDK/output/mx6dq/lib/libsdk.a(runtime_support.o)
                0x10444440                __env
 .bss           0x1044444c        0x0 /home/leon/git/swp-report/iMX6_Platform_SDK/output/mx6dq/lib/libsdk.a(mma8451.o)
 .bss           0x1044444c        0x0 /home/leon/git/swp-report/iMX6_Platform_SDK/output/mx6dq/lib/libsdk.a(smd_sensor.o)
 .bss           0x1044444c        0x0 /home/leon/git/swp-report/iMX6_Platform_SDK/output/mx6dq/lib/libsdk.a(cpu_get_cores.o)
 .bss           0x1044444c       0x20 /home/leon/git/swp-report/iMX6_Platform_SDK/output/mx6dq/lib/libsdk.a(cpu_multicore.o)
 .bss           0x1044446c        0x0 /home/leon/git/swp-report/iMX6_Platform_SDK/output/mx6dq/lib/libsdk.a(cpu_workpoint.o)
 *fill*         0x1044446c       0x14 
 .bss           0x10444480     0x5060 /home/leon/git/swp-report/iMX6_Platform_SDK/output/mx6dq/lib/libsdk.a(enet_drv.o)
 .bss           0x104494e0        0x0 /home/leon/git/swp-report/iMX6_Platform_SDK/output/mx6dq/lib/libsdk.a(gpio.o)
 .bss           0x104494e0        0x0 /home/leon/git/swp-report/iMX6_Platform_SDK/output/mx6dq/lib/libsdk.a(imx6dq_gpio_map.o)
 .bss           0x104494e0        0x0 /home/leon/git/swp-report/iMX6_Platform_SDK/output/mx6dq/lib/libsdk.a(hdmi_tx.o)
 .bss           0x104494e0        0x0 /home/leon/git/swp-report/iMX6_Platform_SDK/output/mx6dq/lib/libsdk.a(hdmi_tx_audio.o)
 .bss           0x104494e0        0x0 /home/leon/git/swp-report/iMX6_Platform_SDK/output/mx6dq/lib/libsdk.a(hdmi_tx_phy.o)
 .bss           0x104494e0        0x0 /home/leon/git/swp-report/iMX6_Platform_SDK/output/mx6dq/lib/libsdk.a(imx_i2c.o)
 .bss           0x104494e0        0xc /home/leon/git/swp-report/iMX6_Platform_SDK/output/mx6dq/lib/libsdk.a(imx_i2c_slave.o)
 .bss           0x104494ec        0x0 /home/leon/git/swp-report/iMX6_Platform_SDK/output/mx6dq/lib/libsdk.a(ips_disp_panel.o)
 .bss           0x104494ec       0x10 /home/leon/git/swp-report/iMX6_Platform_SDK/output/mx6dq/lib/libsdk.a(ipu_common.o)
                0x104494ec                csi_vdi_direct_path
                0x104494f0                csi_dma_band_mode
 .bss           0x104494fc        0x0 /home/leon/git/swp-report/iMX6_Platform_SDK/output/mx6dq/lib/libsdk.a(ipu_csi.o)
 .bss           0x104494fc        0x0 /home/leon/git/swp-report/iMX6_Platform_SDK/output/mx6dq/lib/libsdk.a(ipu_dc.o)
 .bss           0x104494fc        0x0 /home/leon/git/swp-report/iMX6_Platform_SDK/output/mx6dq/lib/libsdk.a(ipu_di.o)
 .bss           0x104494fc        0x0 /home/leon/git/swp-report/iMX6_Platform_SDK/output/mx6dq/lib/libsdk.a(ipu_dmfc.o)
 .bss           0x104494fc        0x0 /home/leon/git/swp-report/iMX6_Platform_SDK/output/mx6dq/lib/libsdk.a(ipu_dp.o)
 .bss           0x104494fc        0x0 /home/leon/git/swp-report/iMX6_Platform_SDK/output/mx6dq/lib/libsdk.a(ipu_ic.o)
 .bss           0x104494fc        0x0 /home/leon/git/swp-report/iMX6_Platform_SDK/output/mx6dq/lib/libsdk.a(ipu_idmac.o)
 .bss           0x104494fc        0x0 /home/leon/git/swp-report/iMX6_Platform_SDK/output/mx6dq/lib/libsdk.a(ipu_vdi.o)
 *fill*         0x104494fc        0x4 
 .bss           0x10449500       0x40 /home/leon/git/swp-report/iMX6_Platform_SDK/output/mx6dq/lib/libsdk.a(keypad_port.o)
 .bss           0x10449540        0x0 /home/leon/git/swp-report/iMX6_Platform_SDK/output/mx6dq/lib/libsdk.a(ldb.o)
 .bss           0x10449540        0x0 /home/leon/git/swp-report/iMX6_Platform_SDK/output/mx6dq/lib/libsdk.a(ocotp.o)
 .bss           0x10449540       0x14 /home/leon/git/swp-report/iMX6_Platform_SDK/output/mx6dq/lib/libsdk.a(pcie.o)
                0x10449540                pcie_func_clk_setup
                0x10449544                pcie_func_pwr_setup
                0x10449548                pcie_func_card_pwr_setup
                0x1044954c                pcie_func_card_ref_clk_setup
                0x10449550                pcie_func_card_rst
 .bss           0x10449554        0x0 /home/leon/git/swp-report/iMX6_Platform_SDK/output/mx6dq/lib/libsdk.a(pcie_phy.o)
 .bss           0x10449554        0x0 /home/leon/git/swp-report/iMX6_Platform_SDK/output/mx6dq/lib/libsdk.a(pcie_prot.o)
 .bss           0x10449554       0xa0 /home/leon/git/swp-report/iMX6_Platform_SDK/output/mx6dq/lib/libsdk.a(pmu_driver.o)
 .bss           0x104495f4        0x8 /home/leon/git/swp-report/iMX6_Platform_SDK/output/mx6dq/lib/libsdk.a(pwm.o)
                0x104495f4                pwm_int_test_end
 .bss           0x104495fc       0x10 /home/leon/git/swp-report/iMX6_Platform_SDK/output/mx6dq/lib/libsdk.a(rtc.o)
 .bss           0x1044960c        0x8 /home/leon/git/swp-report/iMX6_Platform_SDK/output/mx6dq/lib/libsdk.a(srtc.o)
 .bss           0x10449614      0x268 /home/leon/git/swp-report/iMX6_Platform_SDK/output/mx6dq/lib/libsdk.a(sata.o)
                0x10449614                cmdhdr
                0x10449618                cmdtbl
                0x1044961c                hdd_ident
                0x1044981c                ident
 .bss           0x1044987c       0x88 /home/leon/git/swp-report/iMX6_Platform_SDK/output/mx6dq/lib/libsdk.a(sdma.o)
 .bss           0x10449904        0x0 /home/leon/git/swp-report/iMX6_Platform_SDK/output/mx6dq/lib/libsdk.a(sdma_script_info.o)
 .bss           0x10449904        0x0 /home/leon/git/swp-report/iMX6_Platform_SDK/output/mx6dq/lib/libsdk.a(snvs.o)
 .bss           0x10449904        0x0 /home/leon/git/swp-report/iMX6_Platform_SDK/output/mx6dq/lib/libsdk.a(ecspi.o)
 .bss           0x10449904       0x14 /home/leon/git/swp-report/iMX6_Platform_SDK/output/mx6dq/lib/libsdk.a(tempmon.o)
 .bss           0x10449918        0x0 /home/leon/git/swp-report/iMX6_Platform_SDK/output/mx6dq/lib/libsdk.a(gpt.o)
 .bss           0x10449918        0x0 /home/leon/git/swp-report/iMX6_Platform_SDK/output/mx6dq/lib/libsdk.a(usb_common.o)
 .bss           0x10449918        0x0 /home/leon/git/swp-report/iMX6_Platform_SDK/output/mx6dq/lib/libsdk.a(usbd_drv.o)
 .bss           0x10449918        0x0 /home/leon/git/swp-report/iMX6_Platform_SDK/output/mx6dq/lib/libsdk.a(usbh_drv.o)
 .bss           0x10449918        0x8 /home/leon/git/swp-report/iMX6_Platform_SDK/output/mx6dq/lib/libsdk.a(usdhc.o)
 .bss           0x10449920        0x0 /home/leon/git/swp-report/iMX6_Platform_SDK/output/mx6dq/lib/libsdk.a(usdhc_host.o)
 .bss           0x10449920      0x214 /home/leon/git/swp-report/iMX6_Platform_SDK/output/mx6dq/lib/libsdk.a(usdhc_mmc.o)
 .bss           0x10449b34        0x0 /home/leon/git/swp-report/iMX6_Platform_SDK/output/mx6dq/lib/libsdk.a(usdhc_sd.o)
 .bss           0x10449b34        0x0 /home/leon/git/swp-report/iMX6_Platform_SDK/output/mx6dq/lib/libsdk.a(spinlock.o)
 .bss           0x10449b34        0x0 /home/leon/git/swp-report/iMX6_Platform_SDK/output/mx6dq/lib/libsdk.a(spinlock_lock_unlock.o)
 .bss           0x10449b34        0x0 /home/leon/git/swp-report/iMX6_Platform_SDK/output/mx6dq/lib/libsdk.a(camera_profile.o)
 .bss           0x10449b34        0x0 /home/leon/git/swp-report/iMX6_Platform_SDK/output/mx6dq/lib/libsdk.a(hdmi_common.o)
 .bss           0x10449b34        0x0 /home/leon/git/swp-report/iMX6_Platform_SDK/output/mx6dq/lib/libsdk.a(mx6x_usb.o)
 .bss           0x10449b34        0x0 /home/leon/git/swp-report/iMX6_Platform_SDK/output/mx6dq/lib/libboard_smart_device_rev_c.a(board_audio.o)
 .bss           0x10449b34        0x0 /home/leon/git/swp-report/iMX6_Platform_SDK/output/mx6dq/lib/libboard_smart_device_rev_c.a(board_camera.o)
 .bss           0x10449b34        0x0 /home/leon/git/swp-report/iMX6_Platform_SDK/output/mx6dq/lib/libboard_smart_device_rev_c.a(board_display.o)
 .bss           0x10449b34        0x0 /home/leon/git/swp-report/iMX6_Platform_SDK/output/mx6dq/lib/libboard_smart_device_rev_c.a(board_hdmi.o)
 .bss           0x10449b34        0x0 /home/leon/git/swp-report/iMX6_Platform_SDK/output/mx6dq/lib/libboard_smart_device_rev_c.a(board_i2c.o)
 .bss           0x10449b34        0x0 /home/leon/git/swp-report/iMX6_Platform_SDK/output/mx6dq/lib/libboard_smart_device_rev_c.a(board_mipi.o)
 .bss           0x10449b34        0x0 /home/leon/git/swp-report/iMX6_Platform_SDK/output/mx6dq/lib/libboard_smart_device_rev_c.a(board_network.o)
 .bss           0x10449b34        0x0 /home/leon/git/swp-report/iMX6_Platform_SDK/output/mx6dq/lib/libboard_smart_device_rev_c.a(board_pcie.o)
 .bss           0x10449b34        0x0 /home/leon/git/swp-report/iMX6_Platform_SDK/output/mx6dq/lib/libboard_smart_device_rev_c.a(board_sata.o)
 .bss           0x10449b34        0x0 /home/leon/git/swp-report/iMX6_Platform_SDK/output/mx6dq/lib/libboard_smart_device_rev_c.a(board_usb.o)
 .bss           0x10449b34        0x0 /home/leon/git/swp-report/iMX6_Platform_SDK/output/mx6dq/lib/libboard_smart_device_rev_c.a(board_usdhc.o)
 .bss           0x10449b34        0x0 /home/leon/git/swp-report/iMX6_Platform_SDK/output/mx6dq/lib/libboard_smart_device_rev_c.a(ecspi_iomux_config.o)
 .bss           0x10449b34        0x0 /home/leon/git/swp-report/iMX6_Platform_SDK/output/mx6dq/lib/libboard_smart_device_rev_c.a(i2c_iomux_config.o)
 .bss           0x10449b34        0x0 /home/leon/git/swp-report/iMX6_Platform_SDK/output/mx6dq/lib/libboard_smart_device_rev_c.a(pwm_iomux_config.o)
 .bss           0x10449b34        0x0 /home/leon/git/swp-report/iMX6_Platform_SDK/output/mx6dq/lib/libboard_smart_device_rev_c.a(usdhc_iomux_config.o)
 .bss           0x10449b34        0x0 /home/leon/riotboard/arm-2012.09/bin/../arm-none-eabi/lib//libstdc++.a(pure.o)
 .bss           0x10449b34        0x0 /home/leon/riotboard/arm-2012.09/bin/../arm-none-eabi/lib//libstdc++.a(eh_terminate.o)
 .bss           0x10449b34        0x0 /home/leon/riotboard/arm-2012.09/bin/../arm-none-eabi/lib//libstdc++.a(eh_unex_handler.o)
 .bss           0x10449b34        0x0 /home/leon/riotboard/arm-2012.09/bin/../arm-none-eabi/lib//libstdc++.a(eh_call.o)
 .bss           0x10449b34        0x0 /home/leon/riotboard/arm-2012.09/bin/../arm-none-eabi/lib//libstdc++.a(eh_throw.o)
 .bss           0x10449b34        0x0 /home/leon/riotboard/arm-2012.09/bin/../arm-none-eabi/lib//libstdc++.a(eh_arm.o)
 .bss           0x10449b34        0x0 /home/leon/riotboard/arm-2012.09/bin/../arm-none-eabi/lib//libstdc++.a(eh_exception.o)
 .bss           0x10449b34        0x0 /home/leon/riotboard/arm-2012.09/bin/../arm-none-eabi/lib//libstdc++.a(eh_alloc.o)
 .bss._ZL15dependents_used
                0x10449b34        0x4 /home/leon/riotboard/arm-2012.09/bin/../arm-none-eabi/lib//libstdc++.a(eh_alloc.o)
 .bss._ZL17dependents_buffer
                0x10449b38      0x1e0 /home/leon/riotboard/arm-2012.09/bin/../arm-none-eabi/lib//libstdc++.a(eh_alloc.o)
 .bss._ZL14emergency_used
                0x10449d18        0x4 /home/leon/riotboard/arm-2012.09/bin/../arm-none-eabi/lib//libstdc++.a(eh_alloc.o)
 *fill*         0x10449d1c        0x4 
 .bss._ZL16emergency_buffer
                0x10449d20      0x800 /home/leon/riotboard/arm-2012.09/bin/../arm-none-eabi/lib//libstdc++.a(eh_alloc.o)
 .bss           0x1044a520        0x0 /home/leon/riotboard/arm-2012.09/bin/../arm-none-eabi/lib//libstdc++.a(eh_globals.o)
 .bss._ZL10eh_globals
                0x1044a520        0xc /home/leon/riotboard/arm-2012.09/bin/../arm-none-eabi/lib//libstdc++.a(eh_globals.o)
 .bss           0x1044a52c        0x0 /home/leon/riotboard/arm-2012.09/bin/../arm-none-eabi/lib//libstdc++.a(si_class_type_info.o)
 .bss           0x1044a52c        0x0 /home/leon/riotboard/arm-2012.09/bin/../arm-none-eabi/lib//libstdc++.a(eh_personality.o)
 .bss           0x1044a52c        0x0 /home/leon/riotboard/arm-2012.09/bin/../arm-none-eabi/lib//libstdc++.a(eh_term_handler.o)
 .bss           0x1044a52c        0x0 /home/leon/riotboard/arm-2012.09/bin/../arm-none-eabi/lib//libstdc++.a(eh_catch.o)
 .bss           0x1044a52c        0x0 /home/leon/riotboard/arm-2012.09/bin/../arm-none-eabi/lib//libstdc++.a(class_type_info.o)
 .bss           0x1044a52c        0x0 /home/leon/riotboard/arm-2012.09/bin/../arm-none-eabi/lib//libstdc++.a(vterminate.o)
 .bss._ZZN9__gnu_cxx27__verbose_terminate_handlerEvE11terminating
                0x1044a52c        0x1 /home/leon/riotboard/arm-2012.09/bin/../arm-none-eabi/lib//libstdc++.a(vterminate.o)
 .bss           0x1044a52d        0x0 /home/leon/riotboard/arm-2012.09/bin/../arm-none-eabi/lib//libstdc++.a(cp-demangle.o)
 .bss           0x1044a52d        0x0 /home/leon/riotboard/arm-2012.09/bin/../arm-none-eabi/lib//libstdc++.a(eh_type.o)
 .bss           0x1044a52d        0x0 /home/leon/riotboard/arm-2012.09/bin/../arm-none-eabi/lib//libstdc++.a(del_op.o)
 .bss           0x1044a52d        0x0 /home/leon/riotboard/arm-2012.09/bin/../arm-none-eabi/lib//libstdc++.a(tinfo.o)
 .bss           0x1044a52d        0x0 /home/leon/riotboard/arm-2012.09/bin/../arm-none-eabi/lib//libc.a(lib_a-fwrite.o)
 .bss           0x1044a52d        0x0 /home/leon/riotboard/arm-2012.09/bin/../arm-none-eabi/lib//libc.a(lib_a-memcmp.o)
 .bss           0x1044a52d        0x0 /home/leon/riotboard/arm-2012.09/bin/../arm-none-eabi/lib//libc.a(lib_a-strncmp.o)
 .bss           0x1044a52d        0x0 /home/leon/riotboard/arm-2012.09/bin/../arm-none-eabi/lib//libc.a(lib_a-syswrite.o)
 .bss           0x1044a52d        0x0 /home/leon/riotboard/arm-2012.09/bin/../lib/gcc/arm-none-eabi/4.7.2//libgcc.a(_divsi3.o)
 .bss           0x1044a52d        0x0 /home/leon/riotboard/arm-2012.09/bin/../lib/gcc/arm-none-eabi/4.7.2//libgcc.a(unwind-arm.o)
 .bss           0x1044a52d        0x0 /home/leon/riotboard/arm-2012.09/bin/../lib/gcc/arm-none-eabi/4.7.2//libgcc.a(libunwind.o)
 .bss           0x1044a52d        0x0 /home/leon/riotboard/arm-2012.09/bin/../lib/gcc/arm-none-eabi/4.7.2//libgcc.a(pr-support.o)
 *fill*         0x1044a52d        0x3 
 .bss           0x1044a530        0x4 /home/leon/git/swp-report/iMX6_Platform_SDK/output/mx6dq/lib/libsdk.a(max7310.o)
 *(COMMON)
 COMMON         0x1044a534        0x4 /home/leon/riotboard/arm-2012.09/bin/../arm-none-eabi/lib//libc.a(lib_a-reent.o)
                0x1044a534                errno
 *(.bss)
                0x1044a538                __bss_end__ = .

.stacks         0x1044a538     0xc000
                0x1044a538                __stacks_start = .
                0x10456538                . = (. + 0xc000)
 *fill*         0x1044a538     0xc000 
                0x10456538                __stacks_end = .
                0x10456538                top_of_stacks = .
                0x10456540                free_memory_start = ALIGN (0x20)
                0x18456538                . = (. + 0x8000000)
                0x18456538                free_memory_end = .
                0x18456538                _end = .
START GROUP
LOAD /home/leon/git/swp-report/iMX6_Platform_SDK/output/mx6dq/sdk_unit_test/smart_device_rev_c/obj/apps/common/ivt.o
LOAD /home/leon/git/swp-report/iMX6_Platform_SDK/output/mx6dq/sdk_unit_test/smart_device_rev_c/obj/apps/common/platform_init.o
LOAD /home/leon/git/swp-report/iMX6_Platform_SDK/output/mx6dq/sdk_unit_test/smart_device_rev_c/obj/apps/common/print_clock_info.o
LOAD /home/leon/git/swp-report/iMX6_Platform_SDK/output/mx6dq/sdk_unit_test/smart_device_rev_c/obj/apps/common/print_version.o
LOAD /home/leon/git/swp-report/iMX6_Platform_SDK/output/mx6dq/sdk_unit_test/smart_device_rev_c/obj/apps/sdk_unit_test/src/all_test.o
LOAD /home/leon/git/swp-report/iMX6_Platform_SDK/output/mx6dq/sdk_unit_test/smart_device_rev_c/obj/apps/sdk_unit_test/src/unit_test_main.o
LOAD /home/leon/git/swp-report/iMX6_Platform_SDK/output/mx6dq/lib/libsdk.a
LOAD /home/leon/git/swp-report/iMX6_Platform_SDK/output/mx6dq/lib/libboard_smart_device_rev_c.a
LOAD /home/leon/git/swp-report/iMX6_Platform_SDK/output/mx6dq/sdk_unit_test/smart_device_rev_c/libsdk_unit_test.a
LOAD /home/leon/riotboard/arm-2012.09/bin/../arm-none-eabi/lib//libm.a
LOAD /home/leon/riotboard/arm-2012.09/bin/../arm-none-eabi/lib//libstdc++.a
LOAD /home/leon/riotboard/arm-2012.09/bin/../arm-none-eabi/lib//libc.a
LOAD /home/leon/riotboard/arm-2012.09/bin/../lib/gcc/arm-none-eabi/4.7.2//libgcc.a
END GROUP
OUTPUT(/home/leon/git/swp-report/iMX6_Platform_SDK/output/mx6dq/sdk_unit_test/smart_device_rev_c/sdk_unit_test_ALL.elf elf32-littlearm)

.ARM.attributes
                0x00000000       0x3b
 .ARM.attributes
                0x00000000       0x30 /home/leon/riotboard/arm-2012.09/bin/../lib/gcc/arm-none-eabi/4.7.2//crtbegin.o
 .ARM.attributes
                0x00000030       0x16 /home/leon/riotboard/arm-2012.09/bin/../lib/gcc/arm-none-eabi/4.7.2//crti.o
 .ARM.attributes
                0x00000046       0x30 /home/leon/riotboard/arm-2012.09/bin/../lib/gcc/arm-none-eabi/4.7.2//crtend.o
 .ARM.attributes
                0x00000076       0x18 /home/leon/riotboard/arm-2012.09/bin/../lib/gcc/arm-none-eabi/4.7.2//crtn.o
 .ARM.attributes
                0x0000008e       0x39 /home/leon/git/swp-report/iMX6_Platform_SDK/output/mx6dq/sdk_unit_test/smart_device_rev_c/obj/apps/common/ivt.o
 .ARM.attributes
                0x000000c7       0x39 /home/leon/git/swp-report/iMX6_Platform_SDK/output/mx6dq/sdk_unit_test/smart_device_rev_c/obj/apps/common/platform_init.o
 .ARM.attributes
                0x00000100       0x39 /home/leon/git/swp-report/iMX6_Platform_SDK/output/mx6dq/sdk_unit_test/smart_device_rev_c/obj/apps/common/print_clock_info.o
 .ARM.attributes
                0x00000139       0x39 /home/leon/git/swp-report/iMX6_Platform_SDK/output/mx6dq/sdk_unit_test/smart_device_rev_c/obj/apps/common/print_version.o
 .ARM.attributes
                0x00000172       0x39 /home/leon/git/swp-report/iMX6_Platform_SDK/output/mx6dq/sdk_unit_test/smart_device_rev_c/obj/apps/sdk_unit_test/src/all_test.o
 .ARM.attributes
                0x000001ab       0x39 /home/leon/git/swp-report/iMX6_Platform_SDK/output/mx6dq/sdk_unit_test/smart_device_rev_c/obj/apps/sdk_unit_test/src/unit_test_main.o
 .ARM.attributes
                0x000001e4       0x39 /home/leon/git/swp-report/iMX6_Platform_SDK/output/mx6dq/lib/libsdk.a(ccm_pll.o)
 .ARM.attributes
                0x0000021d       0x16 /home/leon/git/swp-report/iMX6_Platform_SDK/output/mx6dq/lib/libsdk.a(cortexA9.o)
 .ARM.attributes
                0x00000233       0x39 /home/leon/git/swp-report/iMX6_Platform_SDK/output/mx6dq/lib/libsdk.a(gic.o)
 .ARM.attributes
                0x0000026c       0x39 /home/leon/git/swp-report/iMX6_Platform_SDK/output/mx6dq/lib/libsdk.a(mmu.o)
 .ARM.attributes
                0x000002a5       0x16 /home/leon/git/swp-report/iMX6_Platform_SDK/output/mx6dq/lib/libsdk.a(startup.o)
 .ARM.attributes
                0x000002bb       0x14 /home/leon/git/swp-report/iMX6_Platform_SDK/output/mx6dq/lib/libsdk.a(vectors.o)
 .ARM.attributes
                0x000002cf       0x39 /home/leon/git/swp-report/iMX6_Platform_SDK/output/mx6dq/lib/libsdk.a(menu.o)
 .ARM.attributes
                0x00000308       0x39 /home/leon/git/swp-report/iMX6_Platform_SDK/output/mx6dq/lib/libsdk.a(sdk_version.o)
 .ARM.attributes
                0x00000341       0x39 /home/leon/git/swp-report/iMX6_Platform_SDK/output/mx6dq/lib/libsdk.a(system_util.o)
 .ARM.attributes
                0x0000037a       0x39 /home/leon/git/swp-report/iMX6_Platform_SDK/output/mx6dq/lib/libsdk.a(text_color.o)
 .ARM.attributes
                0x000003b3       0x39 /home/leon/git/swp-report/iMX6_Platform_SDK/output/mx6dq/lib/libsdk.a(board_id.o)
 .ARM.attributes
                0x000003ec       0x39 /home/leon/git/swp-report/iMX6_Platform_SDK/output/mx6dq/lib/libsdk.a(timer.o)
 .ARM.attributes
                0x00000425       0x39 /home/leon/git/swp-report/iMX6_Platform_SDK/output/mx6dq/lib/libsdk.a(imx_uart.o)
 .ARM.attributes
                0x0000045e       0x14 /home/leon/git/swp-report/iMX6_Platform_SDK/output/mx6dq/lib/libsdk.a(arm_abort.o)
 .ARM.attributes
                0x00000472       0x39 /home/leon/git/swp-report/iMX6_Platform_SDK/output/mx6dq/lib/libsdk.a(interrupt.o)
 .ARM.attributes
                0x000004ab       0x39 /home/leon/git/swp-report/iMX6_Platform_SDK/output/mx6dq/lib/libsdk.a(epit.o)
 .ARM.attributes
                0x000004e4       0x39 /home/leon/git/swp-report/iMX6_Platform_SDK/output/mx6dq/lib/libsdk.a(abort_handler.o)
 .ARM.attributes
                0x0000051d       0x39 /home/leon/git/swp-report/iMX6_Platform_SDK/output/mx6dq/lib/libboard_smart_device_rev_c.a(board_io_expanders.o)
 .ARM.attributes
                0x00000556       0x39 /home/leon/git/swp-report/iMX6_Platform_SDK/output/mx6dq/lib/libboard_smart_device_rev_c.a(hardware_modules.o)
 .ARM.attributes
                0x0000058f       0x39 /home/leon/git/swp-report/iMX6_Platform_SDK/output/mx6dq/lib/libboard_smart_device_rev_c.a(dcd.o)
 .ARM.attributes
                0x000005c8       0x39 /home/leon/git/swp-report/iMX6_Platform_SDK/output/mx6dq/lib/libboard_smart_device_rev_c.a(uart_iomux_config.o)
 .ARM.attributes
                0x00000601       0x39 /home/leon/git/swp-report/iMX6_Platform_SDK/output/mx6dq/lib/libboard_smart_device_rev_c.a(iomux_config.o)
 .ARM.attributes
                0x0000063a       0x39 /home/leon/git/swp-report/iMX6_Platform_SDK/output/mx6dq/lib/libboard_smart_device_rev_c.a(ipu1_iomux_config.o)
 .ARM.attributes
                0x00000673       0x39 /home/leon/git/swp-report/iMX6_Platform_SDK/output/mx6dq/lib/libboard_smart_device_rev_c.a(mmdc_iomux_config.o)
 .ARM.attributes
                0x000006ac       0x39 /home/leon/git/swp-report/iMX6_Platform_SDK/output/mx6dq/lib/libboard_smart_device_rev_c.a(pwm1_iomux_config.o)
 .ARM.attributes
                0x000006e5       0x39 /home/leon/git/swp-report/iMX6_Platform_SDK/output/mx6dq/lib/libboard_smart_device_rev_c.a(sjc_iomux_config.o)
 .ARM.attributes
                0x0000071e       0x39 /home/leon/git/swp-report/iMX6_Platform_SDK/output/mx6dq/lib/libboard_smart_device_rev_c.a(uart1_iomux_config.o)
 .ARM.attributes
                0x00000757       0x39 /home/leon/git/swp-report/iMX6_Platform_SDK/output/mx6dq/lib/libboard_smart_device_rev_c.a(usb_iomux_config.o)
 .ARM.attributes
                0x00000790       0x39 /home/leon/git/swp-report/iMX6_Platform_SDK/output/mx6dq/lib/libboard_smart_device_rev_c.a(usdhc2_iomux_config.o)
 .ARM.attributes
                0x000007c9       0x39 /home/leon/git/swp-report/iMX6_Platform_SDK/output/mx6dq/lib/libboard_smart_device_rev_c.a(usdhc3_iomux_config.o)
 .ARM.attributes
                0x00000802       0x39 /home/leon/git/swp-report/iMX6_Platform_SDK/output/mx6dq/lib/libboard_smart_device_rev_c.a(usdhc4_iomux_config.o)
 .ARM.attributes
                0x0000083b       0x39 /home/leon/git/swp-report/iMX6_Platform_SDK/output/mx6dq/lib/libboard_smart_device_rev_c.a(audmux_iomux_config.o)
 .ARM.attributes
                0x00000874       0x39 /home/leon/git/swp-report/iMX6_Platform_SDK/output/mx6dq/lib/libboard_smart_device_rev_c.a(ccm_iomux_config.o)
 .ARM.attributes
                0x000008ad       0x39 /home/leon/git/swp-report/iMX6_Platform_SDK/output/mx6dq/lib/libboard_smart_device_rev_c.a(ecspi1_iomux_config.o)
 .ARM.attributes
                0x000008e6       0x39 /home/leon/git/swp-report/iMX6_Platform_SDK/output/mx6dq/lib/libboard_smart_device_rev_c.a(enet_iomux_config.o)
 .ARM.attributes
                0x0000091f       0x39 /home/leon/git/swp-report/iMX6_Platform_SDK/output/mx6dq/lib/libboard_smart_device_rev_c.a(flexcan1_iomux_config.o)
 .ARM.attributes
                0x00000958       0x39 /home/leon/git/swp-report/iMX6_Platform_SDK/output/mx6dq/lib/libboard_smart_device_rev_c.a(gpio1_iomux_config.o)
 .ARM.attributes
                0x00000991       0x39 /home/leon/git/swp-report/iMX6_Platform_SDK/output/mx6dq/lib/libboard_smart_device_rev_c.a(gpio2_iomux_config.o)
 .ARM.attributes
                0x000009ca       0x39 /home/leon/git/swp-report/iMX6_Platform_SDK/output/mx6dq/lib/libboard_smart_device_rev_c.a(gpio3_iomux_config.o)
 .ARM.attributes
                0x00000a03       0x39 /home/leon/git/swp-report/iMX6_Platform_SDK/output/mx6dq/lib/libboard_smart_device_rev_c.a(gpio4_iomux_config.o)
 .ARM.attributes
                0x00000a3c       0x39 /home/leon/git/swp-report/iMX6_Platform_SDK/output/mx6dq/lib/libboard_smart_device_rev_c.a(gpio5_iomux_config.o)
 .ARM.attributes
                0x00000a75       0x39 /home/leon/git/swp-report/iMX6_Platform_SDK/output/mx6dq/lib/libboard_smart_device_rev_c.a(gpio6_iomux_config.o)
 .ARM.attributes
                0x00000aae       0x39 /home/leon/git/swp-report/iMX6_Platform_SDK/output/mx6dq/lib/libboard_smart_device_rev_c.a(gpio7_iomux_config.o)
 .ARM.attributes
                0x00000ae7       0x39 /home/leon/git/swp-report/iMX6_Platform_SDK/output/mx6dq/lib/libboard_smart_device_rev_c.a(gps_iomux_config.o)
 .ARM.attributes
                0x00000b20       0x39 /home/leon/git/swp-report/iMX6_Platform_SDK/output/mx6dq/lib/libboard_smart_device_rev_c.a(i2c1_iomux_config.o)
 .ARM.attributes
                0x00000b59       0x39 /home/leon/git/swp-report/iMX6_Platform_SDK/output/mx6dq/lib/libboard_smart_device_rev_c.a(i2c2_iomux_config.o)
 .ARM.attributes
                0x00000b92       0x39 /home/leon/git/swp-report/iMX6_Platform_SDK/output/mx6dq/lib/libboard_smart_device_rev_c.a(i2c3_iomux_config.o)
 .ARM.attributes
                0x00000bcb       0x39 /home/leon/git/swp-report/iMX6_Platform_SDK/output/mx6dq/sdk_unit_test/smart_device_rev_c/libsdk_unit_test.a(audio_test.o)
 .ARM.attributes
                0x00000c04       0x14 /home/leon/git/swp-report/iMX6_Platform_SDK/output/mx6dq/sdk_unit_test/smart_device_rev_c/libsdk_unit_test.a(wav_file.o)
 .ARM.attributes
                0x00000c18       0x39 /home/leon/git/swp-report/iMX6_Platform_SDK/output/mx6dq/sdk_unit_test/smart_device_rev_c/libsdk_unit_test.a(gic_test.o)
 .ARM.attributes
                0x00000c51       0x39 /home/leon/git/swp-report/iMX6_Platform_SDK/output/mx6dq/sdk_unit_test/smart_device_rev_c/libsdk_unit_test.a(cpu_wp_test.o)
 .ARM.attributes
                0x00000c8a       0x39 /home/leon/git/swp-report/iMX6_Platform_SDK/output/mx6dq/sdk_unit_test/smart_device_rev_c/libsdk_unit_test.a(multicore_test.o)
 .ARM.attributes
                0x00000cc3       0x39 /home/leon/git/swp-report/iMX6_Platform_SDK/output/mx6dq/sdk_unit_test/smart_device_rev_c/libsdk_unit_test.a(ocotp_test.o)
 .ARM.attributes
                0x00000cfc       0x39 /home/leon/git/swp-report/iMX6_Platform_SDK/output/mx6dq/sdk_unit_test/smart_device_rev_c/libsdk_unit_test.a(snvs_rtc_test.o)
 .ARM.attributes
                0x00000d35       0x39 /home/leon/git/swp-report/iMX6_Platform_SDK/output/mx6dq/sdk_unit_test/smart_device_rev_c/libsdk_unit_test.a(snvs_srtc_test.o)
 .ARM.attributes
                0x00000d6e       0x39 /home/leon/git/swp-report/iMX6_Platform_SDK/output/mx6dq/sdk_unit_test/smart_device_rev_c/libsdk_unit_test.a(i2c_test.o)
 .ARM.attributes
                0x00000da7       0x39 /home/leon/git/swp-report/iMX6_Platform_SDK/output/mx6dq/sdk_unit_test/smart_device_rev_c/libsdk_unit_test.a(imx6_i2c_device.o)
 .ARM.attributes
                0x00000de0       0x39 /home/leon/git/swp-report/iMX6_Platform_SDK/output/mx6dq/sdk_unit_test/smart_device_rev_c/libsdk_unit_test.a(tempmon_test.o)
 .ARM.attributes
                0x00000e19       0x39 /home/leon/git/swp-report/iMX6_Platform_SDK/output/mx6dq/sdk_unit_test/smart_device_rev_c/libsdk_unit_test.a(sdma_test.o)
 .ARM.attributes
                0x00000e52       0x39 /home/leon/git/swp-report/iMX6_Platform_SDK/output/mx6dq/sdk_unit_test/smart_device_rev_c/libsdk_unit_test.a(spi_lpb.o)
 .ARM.attributes
                0x00000e8b       0x39 /home/leon/git/swp-report/iMX6_Platform_SDK/output/mx6dq/sdk_unit_test/smart_device_rev_c/libsdk_unit_test.a(uart_loopback.o)
 .ARM.attributes
                0x00000ec4       0x39 /home/leon/git/swp-report/iMX6_Platform_SDK/output/mx6dq/sdk_unit_test/smart_device_rev_c/libsdk_unit_test.a(uart_test.o)
 .ARM.attributes
                0x00000efd       0x39 /home/leon/git/swp-report/iMX6_Platform_SDK/output/mx6dq/sdk_unit_test/smart_device_rev_c/libsdk_unit_test.a(epit_test.o)
 .ARM.attributes
                0x00000f36       0x39 /home/leon/git/swp-report/iMX6_Platform_SDK/output/mx6dq/sdk_unit_test/smart_device_rev_c/libsdk_unit_test.a(gpt_test.o)
 .ARM.attributes
                0x00000f6f       0x39 /home/leon/git/swp-report/iMX6_Platform_SDK/output/mx6dq/sdk_unit_test/smart_device_rev_c/libsdk_unit_test.a(timer_test.o)
 .ARM.attributes
                0x00000fa8       0x39 /home/leon/git/swp-report/iMX6_Platform_SDK/output/mx6dq/sdk_unit_test/smart_device_rev_c/libsdk_unit_test.a(usdhc_test.o)
 .ARM.attributes
                0x00000fe1       0x39 /home/leon/git/swp-report/iMX6_Platform_SDK/output/mx6dq/sdk_unit_test/smart_device_rev_c/libsdk_unit_test.a(pwm_test.o)
 .ARM.attributes
                0x0000101a       0x39 /home/leon/git/swp-report/iMX6_Platform_SDK/output/mx6dq/sdk_unit_test/smart_device_rev_c/libsdk_unit_test.a(watchdog_test.o)
 .ARM.attributes
                0x00001053       0x39 /home/leon/git/swp-report/iMX6_Platform_SDK/output/mx6dq/sdk_unit_test/smart_device_rev_c/libsdk_unit_test.a(hdmi_test.o)
 .ARM.attributes
                0x0000108c       0x39 /home/leon/git/swp-report/iMX6_Platform_SDK/output/mx6dq/sdk_unit_test/smart_device_rev_c/libsdk_unit_test.a(init_dma_data.o)
 .ARM.attributes
                0x000010c5       0x39 /home/leon/git/swp-report/iMX6_Platform_SDK/output/mx6dq/sdk_unit_test/smart_device_rev_c/libsdk_unit_test.a(ips_display.o)
 .ARM.attributes
                0x000010fe       0x39 /home/leon/git/swp-report/iMX6_Platform_SDK/output/mx6dq/sdk_unit_test/smart_device_rev_c/libsdk_unit_test.a(ips_test.o)
 .ARM.attributes
                0x00001137       0x39 /home/leon/git/swp-report/iMX6_Platform_SDK/output/mx6dq/sdk_unit_test/smart_device_rev_c/libsdk_unit_test.a(ipu_image.o)
 .ARM.attributes
                0x00001170       0x39 /home/leon/git/swp-report/iMX6_Platform_SDK/output/mx6dq/sdk_unit_test/smart_device_rev_c/libsdk_unit_test.a(camera_test.o)
 .ARM.attributes
                0x000011a9       0x39 /home/leon/git/swp-report/iMX6_Platform_SDK/output/mx6dq/sdk_unit_test/smart_device_rev_c/libsdk_unit_test.a(csi_test_mode.o)
 .ARM.attributes
                0x000011e2       0x39 /home/leon/git/swp-report/iMX6_Platform_SDK/output/mx6dq/sdk_unit_test/smart_device_rev_c/libsdk_unit_test.a(sensor_capture.o)
 .ARM.attributes
                0x0000121b       0x39 /home/leon/git/swp-report/iMX6_Platform_SDK/output/mx6dq/sdk_unit_test/smart_device_rev_c/libsdk_unit_test.a(keypad_test.o)
 .ARM.attributes
                0x00001254       0x39 /home/leon/git/swp-report/iMX6_Platform_SDK/output/mx6dq/sdk_unit_test/smart_device_rev_c/libsdk_unit_test.a(pcie_test_rc.o)
 .ARM.attributes
                0x0000128d       0x39 /home/leon/git/swp-report/iMX6_Platform_SDK/output/mx6dq/sdk_unit_test/smart_device_rev_c/libsdk_unit_test.a(usb_test.o)
 .ARM.attributes
                0x000012c6       0x39 /home/leon/git/swp-report/iMX6_Platform_SDK/output/mx6dq/sdk_unit_test/smart_device_rev_c/libsdk_unit_test.a(enet_test.o)
 .ARM.attributes
                0x000012ff       0x39 /home/leon/git/swp-report/iMX6_Platform_SDK/output/mx6dq/sdk_unit_test/smart_device_rev_c/libsdk_unit_test.a(spi_test.o)
 .ARM.attributes
                0x00001338       0x39 /home/leon/git/swp-report/iMX6_Platform_SDK/output/mx6dq/sdk_unit_test/smart_device_rev_c/libsdk_unit_test.a(accelerometer_test.o)
 .ARM.attributes
                0x00001371       0x39 /home/leon/git/swp-report/iMX6_Platform_SDK/output/mx6dq/sdk_unit_test/smart_device_rev_c/libsdk_unit_test.a(sata_test.o)
 .ARM.attributes
                0x000013aa       0x39 /home/leon/git/swp-report/iMX6_Platform_SDK/output/mx6dq/sdk_unit_test/smart_device_rev_c/libsdk_unit_test.a(at24cxx.o)
 .ARM.attributes
                0x000013e3       0x39 /home/leon/git/swp-report/iMX6_Platform_SDK/output/mx6dq/sdk_unit_test/smart_device_rev_c/libsdk_unit_test.a(mem_2_mem.o)
 .ARM.attributes
                0x0000141c       0x39 /home/leon/git/swp-report/iMX6_Platform_SDK/output/mx6dq/sdk_unit_test/smart_device_rev_c/libsdk_unit_test.a(pwm_output.o)
 .ARM.attributes
                0x00001455       0x39 /home/leon/git/swp-report/iMX6_Platform_SDK/output/mx6dq/sdk_unit_test/smart_device_rev_c/libsdk_unit_test.a(ips_combiner.o)
 .ARM.attributes
                0x0000148e       0x39 /home/leon/git/swp-report/iMX6_Platform_SDK/output/mx6dq/sdk_unit_test/smart_device_rev_c/libsdk_unit_test.a(ips_csc.o)
 .ARM.attributes
                0x000014c7       0x39 /home/leon/git/swp-report/iMX6_Platform_SDK/output/mx6dq/sdk_unit_test/smart_device_rev_c/libsdk_unit_test.a(ips_resize.o)
 .ARM.attributes
                0x00001500       0x39 /home/leon/git/swp-report/iMX6_Platform_SDK/output/mx6dq/sdk_unit_test/smart_device_rev_c/libsdk_unit_test.a(ips_rotate.o)
 .ARM.attributes
                0x00001539       0x39 /home/leon/git/swp-report/iMX6_Platform_SDK/output/mx6dq/sdk_unit_test/smart_device_rev_c/libsdk_unit_test.a(usb0_device_mouse_test.o)
 .ARM.attributes
                0x00001572       0x39 /home/leon/git/swp-report/iMX6_Platform_SDK/output/mx6dq/sdk_unit_test/smart_device_rev_c/libsdk_unit_test.a(usb0_host_test.o)
 .ARM.attributes
                0x000015ab       0x39 /home/leon/git/swp-report/iMX6_Platform_SDK/output/mx6dq/sdk_unit_test/smart_device_rev_c/libsdk_unit_test.a(usb0_host_testmodes_test.o)
 .ARM.attributes
                0x000015e4       0x39 /home/leon/git/swp-report/iMX6_Platform_SDK/output/mx6dq/sdk_unit_test/smart_device_rev_c/libsdk_unit_test.a(spi_nor_numonyx.o)
 .ARM.attributes
                0x0000161d       0x30 /home/leon/riotboard/arm-2012.09/bin/../arm-none-eabi/lib//libm.a(lib_a-sf_cos.o)
 .ARM.attributes
                0x0000164d       0x30 /home/leon/riotboard/arm-2012.09/bin/../arm-none-eabi/lib//libm.a(lib_a-sf_fabs.o)
 .ARM.attributes
                0x0000167d       0x30 /home/leon/riotboard/arm-2012.09/bin/../arm-none-eabi/lib//libm.a(lib_a-sf_modf.o)
 .ARM.attributes
                0x000016ad       0x30 /home/leon/riotboard/arm-2012.09/bin/../arm-none-eabi/lib//libm.a(lib_a-sf_sin.o)
 .ARM.attributes
                0x000016dd       0x30 /home/leon/riotboard/arm-2012.09/bin/../arm-none-eabi/lib//libm.a(lib_a-ef_rem_pio2.o)
 .ARM.attributes
                0x0000170d       0x30 /home/leon/riotboard/arm-2012.09/bin/../arm-none-eabi/lib//libm.a(lib_a-kf_cos.o)
 .ARM.attributes
                0x0000173d       0x30 /home/leon/riotboard/arm-2012.09/bin/../arm-none-eabi/lib//libm.a(lib_a-kf_rem_pio2.o)
 .ARM.attributes
                0x0000176d       0x30 /home/leon/riotboard/arm-2012.09/bin/../arm-none-eabi/lib//libm.a(lib_a-kf_sin.o)
 .ARM.attributes
                0x0000179d       0x30 /home/leon/riotboard/arm-2012.09/bin/../arm-none-eabi/lib//libm.a(lib_a-sf_floor.o)
 .ARM.attributes
                0x000017cd       0x30 /home/leon/riotboard/arm-2012.09/bin/../arm-none-eabi/lib//libm.a(lib_a-sf_scalbn.o)
 .ARM.attributes
                0x000017fd       0x30 /home/leon/riotboard/arm-2012.09/bin/../arm-none-eabi/lib//libm.a(lib_a-sf_copysign.o)
 .ARM.attributes
                0x0000182d       0x30 /home/leon/riotboard/arm-2012.09/bin/../arm-none-eabi/lib//libc.a(lib_a-assert.o)
 .ARM.attributes
                0x0000185d       0x30 /home/leon/riotboard/arm-2012.09/bin/../arm-none-eabi/lib//libc.a(lib_a-bzero.o)
 .ARM.attributes
                0x0000188d       0x30 /home/leon/riotboard/arm-2012.09/bin/../arm-none-eabi/lib//libc.a(lib_a-fflush.o)
 .ARM.attributes
                0x000018bd       0x30 /home/leon/riotboard/arm-2012.09/bin/../arm-none-eabi/lib//libc.a(lib_a-findfp.o)
 .ARM.attributes
                0x000018ed       0x30 /home/leon/riotboard/arm-2012.09/bin/../arm-none-eabi/lib//libc.a(lib_a-fiprintf.o)
 .ARM.attributes
                0x0000191d       0x30 /home/leon/riotboard/arm-2012.09/bin/../arm-none-eabi/lib//libc.a(lib_a-fputc.o)
 .ARM.attributes
                0x0000194d       0x30 /home/leon/riotboard/arm-2012.09/bin/../arm-none-eabi/lib//libc.a(lib_a-fputs.o)
 .ARM.attributes
                0x0000197d       0x30 /home/leon/riotboard/arm-2012.09/bin/../arm-none-eabi/lib//libc.a(lib_a-freer.o)
 .ARM.attributes
                0x000019ad       0x30 /home/leon/riotboard/arm-2012.09/bin/../arm-none-eabi/lib//libc.a(lib_a-fvwrite.o)
 .ARM.attributes
                0x000019dd       0x30 /home/leon/riotboard/arm-2012.09/bin/../arm-none-eabi/lib//libc.a(lib_a-fwalk.o)
 .ARM.attributes
                0x00001a0d       0x30 /home/leon/riotboard/arm-2012.09/bin/../arm-none-eabi/lib//libc.a(lib_a-impure.o)
 .ARM.attributes
                0x00001a3d       0x30 /home/leon/riotboard/arm-2012.09/bin/../arm-none-eabi/lib//libc.a(lib_a-init.o)
 .ARM.attributes
                0x00001a6d       0x30 /home/leon/riotboard/arm-2012.09/bin/../arm-none-eabi/lib//libc.a(lib_a-malloc.o)
 .ARM.attributes
                0x00001a9d       0x30 /home/leon/riotboard/arm-2012.09/bin/../arm-none-eabi/lib//libc.a(lib_a-mallocr.o)
 .ARM.attributes
                0x00001acd       0x30 /home/leon/riotboard/arm-2012.09/bin/../arm-none-eabi/lib//libc.a(lib_a-memchr.o)
 .ARM.attributes
                0x00001afd       0x30 /home/leon/riotboard/arm-2012.09/bin/../arm-none-eabi/lib//libc.a(lib_a-memcpy.o)
 .ARM.attributes
                0x00001b2d       0x30 /home/leon/riotboard/arm-2012.09/bin/../arm-none-eabi/lib//libc.a(lib_a-memmove.o)
 .ARM.attributes
                0x00001b5d       0x30 /home/leon/riotboard/arm-2012.09/bin/../arm-none-eabi/lib//libc.a(lib_a-memset.o)
 .ARM.attributes
                0x00001b8d       0x30 /home/leon/riotboard/arm-2012.09/bin/../arm-none-eabi/lib//libc.a(lib_a-mlock.o)
 .ARM.attributes
                0x00001bbd       0x30 /home/leon/riotboard/arm-2012.09/bin/../arm-none-eabi/lib//libc.a(lib_a-printf.o)
 .ARM.attributes
                0x00001bed       0x30 /home/leon/riotboard/arm-2012.09/bin/../arm-none-eabi/lib//libc.a(lib_a-putc.o)
 .ARM.attributes
                0x00001c1d       0x30 /home/leon/riotboard/arm-2012.09/bin/../arm-none-eabi/lib//libc.a(lib_a-realloc.o)
 .ARM.attributes
                0x00001c4d       0x30 /home/leon/riotboard/arm-2012.09/bin/../arm-none-eabi/lib//libc.a(lib_a-reallocr.o)
 .ARM.attributes
                0x00001c7d       0x30 /home/leon/riotboard/arm-2012.09/bin/../arm-none-eabi/lib//libc.a(lib_a-rget.o)
 .ARM.attributes
                0x00001cad       0x30 /home/leon/riotboard/arm-2012.09/bin/../arm-none-eabi/lib//libc.a(lib_a-sbrkr.o)
 .ARM.attributes
                0x00001cdd       0x30 /home/leon/riotboard/arm-2012.09/bin/../arm-none-eabi/lib//libc.a(lib_a-sprintf.o)
 .ARM.attributes
                0x00001d0d       0x30 /home/leon/riotboard/arm-2012.09/bin/../arm-none-eabi/lib//libc.a(lib_a-stdio.o)
 .ARM.attributes
                0x00001d3d       0x30 /home/leon/riotboard/arm-2012.09/bin/../arm-none-eabi/lib//libc.a(lib_a-strlen.o)
 .ARM.attributes
                0x00001d6d       0x30 /home/leon/riotboard/arm-2012.09/bin/../arm-none-eabi/lib//libc.a(lib_a-strncasecmp.o)
 .ARM.attributes
                0x00001d9d       0x30 /home/leon/riotboard/arm-2012.09/bin/../arm-none-eabi/lib//libc.a(lib_a-svfprintf.o)
 .ARM.attributes
                0x00001dcd       0x30 /home/leon/riotboard/arm-2012.09/bin/../arm-none-eabi/lib//libc.a(lib_a-vfiprintf.o)
 .ARM.attributes
                0x00001dfd       0x30 /home/leon/riotboard/arm-2012.09/bin/../arm-none-eabi/lib//libc.a(lib_a-vfprintf.o)
 .ARM.attributes
                0x00001e2d       0x30 /home/leon/riotboard/arm-2012.09/bin/../arm-none-eabi/lib//libc.a(lib_a-vprintf.o)
 .ARM.attributes
                0x00001e5d       0x30 /home/leon/riotboard/arm-2012.09/bin/../arm-none-eabi/lib//libc.a(lib_a-wbuf.o)
 .ARM.attributes
                0x00001e8d       0x30 /home/leon/riotboard/arm-2012.09/bin/../arm-none-eabi/lib//libc.a(lib_a-writer.o)
 .ARM.attributes
                0x00001ebd       0x30 /home/leon/riotboard/arm-2012.09/bin/../arm-none-eabi/lib//libc.a(lib_a-wsetup.o)
 .ARM.attributes
                0x00001eed       0x30 /home/leon/riotboard/arm-2012.09/bin/../arm-none-eabi/lib//libc.a(lib_a-abort.o)
 .ARM.attributes
                0x00001f1d       0x30 /home/leon/riotboard/arm-2012.09/bin/../arm-none-eabi/lib//libc.a(lib_a-closer.o)
 .ARM.attributes
                0x00001f4d       0x30 /home/leon/riotboard/arm-2012.09/bin/../arm-none-eabi/lib//libc.a(lib_a-ctype_.o)
 .ARM.attributes
                0x00001f7d       0x30 /home/leon/riotboard/arm-2012.09/bin/../arm-none-eabi/lib//libc.a(lib_a-dtoa.o)
 .ARM.attributes
                0x00001fad       0x30 /home/leon/riotboard/arm-2012.09/bin/../arm-none-eabi/lib//libc.a(lib_a-fclose.o)
 .ARM.attributes
                0x00001fdd       0x30 /home/leon/riotboard/arm-2012.09/bin/../arm-none-eabi/lib//libc.a(lib_a-fputwc.o)
 .ARM.attributes
                0x0000200d       0x30 /home/leon/riotboard/arm-2012.09/bin/../arm-none-eabi/lib//libc.a(lib_a-locale.o)
 .ARM.attributes
                0x0000203d       0x30 /home/leon/riotboard/arm-2012.09/bin/../arm-none-eabi/lib//libc.a(lib_a-lseekr.o)
 .ARM.attributes
                0x0000206d       0x30 /home/leon/riotboard/arm-2012.09/bin/../arm-none-eabi/lib//libc.a(lib_a-makebuf.o)
 .ARM.attributes
                0x0000209d       0x30 /home/leon/riotboard/arm-2012.09/bin/../arm-none-eabi/lib//libc.a(lib_a-mprec.o)
 .ARM.attributes
                0x000020cd       0x30 /home/leon/riotboard/arm-2012.09/bin/../arm-none-eabi/lib//libc.a(lib_a-readr.o)
 .ARM.attributes
                0x000020fd       0x30 /home/leon/riotboard/arm-2012.09/bin/../arm-none-eabi/lib//libc.a(lib_a-reent.o)
 .ARM.attributes
                0x0000212d       0x30 /home/leon/riotboard/arm-2012.09/bin/../arm-none-eabi/lib//libc.a(lib_a-refill.o)
 .ARM.attributes
                0x0000215d       0x30 /home/leon/riotboard/arm-2012.09/bin/../arm-none-eabi/lib//libc.a(lib_a-s_fpclassify.o)
 .ARM.attributes
                0x0000218d       0x30 /home/leon/riotboard/arm-2012.09/bin/../arm-none-eabi/lib//libc.a(lib_a-signal.o)
 .ARM.attributes
                0x000021bd       0x30 /home/leon/riotboard/arm-2012.09/bin/../arm-none-eabi/lib//libc.a(lib_a-signalr.o)
 .ARM.attributes
                0x000021ed       0x30 /home/leon/riotboard/arm-2012.09/bin/../arm-none-eabi/lib//libc.a(lib_a-strcmp.o)
 .ARM.attributes
                0x0000221d       0x30 /home/leon/riotboard/arm-2012.09/bin/../arm-none-eabi/lib//libc.a(lib_a-svfiprintf.o)
 .ARM.attributes
                0x0000224d       0x30 /home/leon/riotboard/arm-2012.09/bin/../arm-none-eabi/lib//libc.a(lib_a-wcrtomb.o)
 .ARM.attributes
                0x0000227d       0x30 /home/leon/riotboard/arm-2012.09/bin/../arm-none-eabi/lib//libc.a(lib_a-wctomb_r.o)
 .ARM.attributes
                0x000022ad       0x30 /home/leon/riotboard/arm-2012.09/bin/../arm-none-eabi/lib//libc.a(lib_a-callocr.o)
 .ARM.attributes
                0x000022dd       0x30 /home/leon/riotboard/arm-2012.09/bin/../arm-none-eabi/lib//libc.a(lib_a-fstatr.o)
 .ARM.attributes
                0x0000230d       0x30 /home/leon/riotboard/arm-2012.09/bin/../arm-none-eabi/lib//libc.a(lib_a-isattyr.o)
 .ARM.attributes
                0x0000233d       0x18 /home/leon/riotboard/arm-2012.09/bin/../lib/gcc/arm-none-eabi/4.7.2//libgcc.a(_udivsi3.o)
 .ARM.attributes
                0x00002355       0x18 /home/leon/riotboard/arm-2012.09/bin/../lib/gcc/arm-none-eabi/4.7.2//libgcc.a(_dvmd_tls.o)
 .ARM.attributes
                0x0000236d       0x18 /home/leon/riotboard/arm-2012.09/bin/../lib/gcc/arm-none-eabi/4.7.2//libgcc.a(_arm_addsubdf3.o)
 .ARM.attributes
                0x00002385       0x18 /home/leon/riotboard/arm-2012.09/bin/../lib/gcc/arm-none-eabi/4.7.2//libgcc.a(_arm_muldivdf3.o)
 .ARM.attributes
                0x0000239d       0x18 /home/leon/riotboard/arm-2012.09/bin/../lib/gcc/arm-none-eabi/4.7.2//libgcc.a(_arm_cmpdf2.o)
 .ARM.attributes
                0x000023b5       0x18 /home/leon/riotboard/arm-2012.09/bin/../lib/gcc/arm-none-eabi/4.7.2//libgcc.a(_arm_fixdfsi.o)
 .ARM.attributes
                0x000023cd       0x18 /home/leon/riotboard/arm-2012.09/bin/../lib/gcc/arm-none-eabi/4.7.2//libgcc.a(_arm_addsubsf3.o)
 .ARM.attributes
                0x000023e5       0x18 /home/leon/riotboard/arm-2012.09/bin/../lib/gcc/arm-none-eabi/4.7.2//libgcc.a(_arm_muldivsf3.o)
 .ARM.attributes
                0x000023fd       0x18 /home/leon/riotboard/arm-2012.09/bin/../lib/gcc/arm-none-eabi/4.7.2//libgcc.a(_arm_cmpsf2.o)
 .ARM.attributes
                0x00002415       0x18 /home/leon/riotboard/arm-2012.09/bin/../lib/gcc/arm-none-eabi/4.7.2//libgcc.a(_arm_fixsfsi.o)
 .ARM.attributes
                0x0000242d       0x18 /home/leon/riotboard/arm-2012.09/bin/../lib/gcc/arm-none-eabi/4.7.2//libgcc.a(_aeabi_uldivmod.o)
 .ARM.attributes
                0x00002445       0x30 /home/leon/riotboard/arm-2012.09/bin/../lib/gcc/arm-none-eabi/4.7.2//libgcc.a(bpabi.o)
 .ARM.attributes
                0x00002475       0x30 /home/leon/riotboard/arm-2012.09/bin/../lib/gcc/arm-none-eabi/4.7.2//libgcc.a(_divdi3.o)
 .ARM.attributes
                0x000024a5       0x30 /home/leon/riotboard/arm-2012.09/bin/../lib/gcc/arm-none-eabi/4.7.2//libgcc.a(_udivdi3.o)
 .ARM.attributes
                0x000024d5       0x18 /home/leon/riotboard/arm-2012.09/bin/../lib/gcc/arm-none-eabi/4.7.2//libgcc.a(_clzsi2.o)
 .ARM.attributes
                0x000024ed       0x39 /home/leon/git/swp-report/iMX6_Platform_SDK/output/mx6dq/lib/libsdk.a(profile.o)
 .ARM.attributes
                0x00002526       0x39 /home/leon/git/swp-report/iMX6_Platform_SDK/output/mx6dq/lib/libsdk.a(armv7_cache.o)
 .ARM.attributes
                0x0000255f       0x39 /home/leon/git/swp-report/iMX6_Platform_SDK/output/mx6dq/lib/libsdk.a(runtime_support.o)
 .ARM.attributes
                0x00002598       0x39 /home/leon/git/swp-report/iMX6_Platform_SDK/output/mx6dq/lib/libsdk.a(mma8451.o)
 .ARM.attributes
                0x000025d1       0x39 /home/leon/git/swp-report/iMX6_Platform_SDK/output/mx6dq/lib/libsdk.a(smd_sensor.o)
 .ARM.attributes
                0x0000260a       0x39 /home/leon/git/swp-report/iMX6_Platform_SDK/output/mx6dq/lib/libsdk.a(cpu_get_cores.o)
 .ARM.attributes
                0x00002643       0x39 /home/leon/git/swp-report/iMX6_Platform_SDK/output/mx6dq/lib/libsdk.a(cpu_multicore.o)
 .ARM.attributes
                0x0000267c       0x39 /home/leon/git/swp-report/iMX6_Platform_SDK/output/mx6dq/lib/libsdk.a(cpu_workpoint.o)
 .ARM.attributes
                0x000026b5       0x39 /home/leon/git/swp-report/iMX6_Platform_SDK/output/mx6dq/lib/libsdk.a(enet_drv.o)
 .ARM.attributes
                0x000026ee       0x39 /home/leon/git/swp-report/iMX6_Platform_SDK/output/mx6dq/lib/libsdk.a(gpio.o)
 .ARM.attributes
                0x00002727       0x39 /home/leon/git/swp-report/iMX6_Platform_SDK/output/mx6dq/lib/libsdk.a(imx6dq_gpio_map.o)
 .ARM.attributes
                0x00002760       0x39 /home/leon/git/swp-report/iMX6_Platform_SDK/output/mx6dq/lib/libsdk.a(hdmi_tx.o)
 .ARM.attributes
                0x00002799       0x39 /home/leon/git/swp-report/iMX6_Platform_SDK/output/mx6dq/lib/libsdk.a(hdmi_tx_audio.o)
 .ARM.attributes
                0x000027d2       0x39 /home/leon/git/swp-report/iMX6_Platform_SDK/output/mx6dq/lib/libsdk.a(hdmi_tx_phy.o)
 .ARM.attributes
                0x0000280b       0x39 /home/leon/git/swp-report/iMX6_Platform_SDK/output/mx6dq/lib/libsdk.a(imx_i2c.o)
 .ARM.attributes
                0x00002844       0x39 /home/leon/git/swp-report/iMX6_Platform_SDK/output/mx6dq/lib/libsdk.a(imx_i2c_slave.o)
 .ARM.attributes
                0x0000287d       0x39 /home/leon/git/swp-report/iMX6_Platform_SDK/output/mx6dq/lib/libsdk.a(ips_disp_panel.o)
 .ARM.attributes
                0x000028b6       0x39 /home/leon/git/swp-report/iMX6_Platform_SDK/output/mx6dq/lib/libsdk.a(ipu_common.o)
 .ARM.attributes
                0x000028ef       0x39 /home/leon/git/swp-report/iMX6_Platform_SDK/output/mx6dq/lib/libsdk.a(ipu_csi.o)
 .ARM.attributes
                0x00002928       0x39 /home/leon/git/swp-report/iMX6_Platform_SDK/output/mx6dq/lib/libsdk.a(ipu_dc.o)
 .ARM.attributes
                0x00002961       0x39 /home/leon/git/swp-report/iMX6_Platform_SDK/output/mx6dq/lib/libsdk.a(ipu_di.o)
 .ARM.attributes
                0x0000299a       0x39 /home/leon/git/swp-report/iMX6_Platform_SDK/output/mx6dq/lib/libsdk.a(ipu_dmfc.o)
 .ARM.attributes
                0x000029d3       0x39 /home/leon/git/swp-report/iMX6_Platform_SDK/output/mx6dq/lib/libsdk.a(ipu_dp.o)
 .ARM.attributes
                0x00002a0c       0x39 /home/leon/git/swp-report/iMX6_Platform_SDK/output/mx6dq/lib/libsdk.a(ipu_ic.o)
 .ARM.attributes
                0x00002a45       0x39 /home/leon/git/swp-report/iMX6_Platform_SDK/output/mx6dq/lib/libsdk.a(ipu_idmac.o)
 .ARM.attributes
                0x00002a7e       0x39 /home/leon/git/swp-report/iMX6_Platform_SDK/output/mx6dq/lib/libsdk.a(ipu_vdi.o)
 .ARM.attributes
                0x00002ab7       0x39 /home/leon/git/swp-report/iMX6_Platform_SDK/output/mx6dq/lib/libsdk.a(keypad_port.o)
 .ARM.attributes
                0x00002af0       0x39 /home/leon/git/swp-report/iMX6_Platform_SDK/output/mx6dq/lib/libsdk.a(ldb.o)
 .ARM.attributes
                0x00002b29       0x39 /home/leon/git/swp-report/iMX6_Platform_SDK/output/mx6dq/lib/libsdk.a(ocotp.o)
 .ARM.attributes
                0x00002b62       0x39 /home/leon/git/swp-report/iMX6_Platform_SDK/output/mx6dq/lib/libsdk.a(pcie.o)
 .ARM.attributes
                0x00002b9b       0x39 /home/leon/git/swp-report/iMX6_Platform_SDK/output/mx6dq/lib/libsdk.a(pcie_phy.o)
 .ARM.attributes
                0x00002bd4       0x39 /home/leon/git/swp-report/iMX6_Platform_SDK/output/mx6dq/lib/libsdk.a(pcie_prot.o)
 .ARM.attributes
                0x00002c0d       0x39 /home/leon/git/swp-report/iMX6_Platform_SDK/output/mx6dq/lib/libsdk.a(pmu_driver.o)
 .ARM.attributes
                0x00002c46       0x39 /home/leon/git/swp-report/iMX6_Platform_SDK/output/mx6dq/lib/libsdk.a(pwm.o)
 .ARM.attributes
                0x00002c7f       0x39 /home/leon/git/swp-report/iMX6_Platform_SDK/output/mx6dq/lib/libsdk.a(rtc.o)
 .ARM.attributes
                0x00002cb8       0x39 /home/leon/git/swp-report/iMX6_Platform_SDK/output/mx6dq/lib/libsdk.a(srtc.o)
 .ARM.attributes
                0x00002cf1       0x39 /home/leon/git/swp-report/iMX6_Platform_SDK/output/mx6dq/lib/libsdk.a(sata.o)
 .ARM.attributes
                0x00002d2a       0x39 /home/leon/git/swp-report/iMX6_Platform_SDK/output/mx6dq/lib/libsdk.a(sdma.o)
 .ARM.attributes
                0x00002d63       0x39 /home/leon/git/swp-report/iMX6_Platform_SDK/output/mx6dq/lib/libsdk.a(sdma_script_info.o)
 .ARM.attributes
                0x00002d9c       0x39 /home/leon/git/swp-report/iMX6_Platform_SDK/output/mx6dq/lib/libsdk.a(snvs.o)
 .ARM.attributes
                0x00002dd5       0x39 /home/leon/git/swp-report/iMX6_Platform_SDK/output/mx6dq/lib/libsdk.a(ecspi.o)
 .ARM.attributes
                0x00002e0e       0x39 /home/leon/git/swp-report/iMX6_Platform_SDK/output/mx6dq/lib/libsdk.a(tempmon.o)
 .ARM.attributes
                0x00002e47       0x39 /home/leon/git/swp-report/iMX6_Platform_SDK/output/mx6dq/lib/libsdk.a(gpt.o)
 .ARM.attributes
                0x00002e80       0x39 /home/leon/git/swp-report/iMX6_Platform_SDK/output/mx6dq/lib/libsdk.a(usb_common.o)
 .ARM.attributes
                0x00002eb9       0x39 /home/leon/git/swp-report/iMX6_Platform_SDK/output/mx6dq/lib/libsdk.a(usbd_drv.o)
 .ARM.attributes
                0x00002ef2       0x39 /home/leon/git/swp-report/iMX6_Platform_SDK/output/mx6dq/lib/libsdk.a(usbh_drv.o)
 .ARM.attributes
                0x00002f2b       0x39 /home/leon/git/swp-report/iMX6_Platform_SDK/output/mx6dq/lib/libsdk.a(usdhc.o)
 .ARM.attributes
                0x00002f64       0x39 /home/leon/git/swp-report/iMX6_Platform_SDK/output/mx6dq/lib/libsdk.a(usdhc_host.o)
 .ARM.attributes
                0x00002f9d       0x39 /home/leon/git/swp-report/iMX6_Platform_SDK/output/mx6dq/lib/libsdk.a(usdhc_mmc.o)
 .ARM.attributes
                0x00002fd6       0x39 /home/leon/git/swp-report/iMX6_Platform_SDK/output/mx6dq/lib/libsdk.a(usdhc_sd.o)
 .ARM.attributes
                0x0000300f       0x39 /home/leon/git/swp-report/iMX6_Platform_SDK/output/mx6dq/lib/libsdk.a(spinlock.o)
 .ARM.attributes
                0x00003048       0x16 /home/leon/git/swp-report/iMX6_Platform_SDK/output/mx6dq/lib/libsdk.a(spinlock_lock_unlock.o)
 .ARM.attributes
                0x0000305e       0x39 /home/leon/git/swp-report/iMX6_Platform_SDK/output/mx6dq/lib/libsdk.a(camera_profile.o)
 .ARM.attributes
                0x00003097       0x39 /home/leon/git/swp-report/iMX6_Platform_SDK/output/mx6dq/lib/libsdk.a(hdmi_common.o)
 .ARM.attributes
                0x000030d0       0x39 /home/leon/git/swp-report/iMX6_Platform_SDK/output/mx6dq/lib/libsdk.a(mx6x_usb.o)
 .ARM.attributes
                0x00003109       0x39 /home/leon/git/swp-report/iMX6_Platform_SDK/output/mx6dq/lib/libboard_smart_device_rev_c.a(board_audio.o)
 .ARM.attributes
                0x00003142       0x39 /home/leon/git/swp-report/iMX6_Platform_SDK/output/mx6dq/lib/libboard_smart_device_rev_c.a(board_camera.o)
 .ARM.attributes
                0x0000317b       0x39 /home/leon/git/swp-report/iMX6_Platform_SDK/output/mx6dq/lib/libboard_smart_device_rev_c.a(board_display.o)
 .ARM.attributes
                0x000031b4       0x39 /home/leon/git/swp-report/iMX6_Platform_SDK/output/mx6dq/lib/libboard_smart_device_rev_c.a(board_hdmi.o)
 .ARM.attributes
                0x000031ed       0x39 /home/leon/git/swp-report/iMX6_Platform_SDK/output/mx6dq/lib/libboard_smart_device_rev_c.a(board_i2c.o)
 .ARM.attributes
                0x00003226       0x39 /home/leon/git/swp-report/iMX6_Platform_SDK/output/mx6dq/lib/libboard_smart_device_rev_c.a(board_mipi.o)
 .ARM.attributes
                0x0000325f       0x39 /home/leon/git/swp-report/iMX6_Platform_SDK/output/mx6dq/lib/libboard_smart_device_rev_c.a(board_network.o)
 .ARM.attributes
                0x00003298       0x39 /home/leon/git/swp-report/iMX6_Platform_SDK/output/mx6dq/lib/libboard_smart_device_rev_c.a(board_pcie.o)
 .ARM.attributes
                0x000032d1       0x39 /home/leon/git/swp-report/iMX6_Platform_SDK/output/mx6dq/lib/libboard_smart_device_rev_c.a(board_sata.o)
 .ARM.attributes
                0x0000330a       0x39 /home/leon/git/swp-report/iMX6_Platform_SDK/output/mx6dq/lib/libboard_smart_device_rev_c.a(board_usb.o)
 .ARM.attributes
                0x00003343       0x39 /home/leon/git/swp-report/iMX6_Platform_SDK/output/mx6dq/lib/libboard_smart_device_rev_c.a(board_usdhc.o)
 .ARM.attributes
                0x0000337c       0x39 /home/leon/git/swp-report/iMX6_Platform_SDK/output/mx6dq/lib/libboard_smart_device_rev_c.a(ecspi_iomux_config.o)
 .ARM.attributes
                0x000033b5       0x39 /home/leon/git/swp-report/iMX6_Platform_SDK/output/mx6dq/lib/libboard_smart_device_rev_c.a(i2c_iomux_config.o)
 .ARM.attributes
                0x000033ee       0x39 /home/leon/git/swp-report/iMX6_Platform_SDK/output/mx6dq/lib/libboard_smart_device_rev_c.a(pwm_iomux_config.o)
 .ARM.attributes
                0x00003427       0x39 /home/leon/git/swp-report/iMX6_Platform_SDK/output/mx6dq/lib/libboard_smart_device_rev_c.a(usdhc_iomux_config.o)
 .ARM.attributes
                0x00003460       0x30 /home/leon/riotboard/arm-2012.09/bin/../arm-none-eabi/lib//libstdc++.a(pure.o)
 .ARM.attributes
                0x00003490       0x30 /home/leon/riotboard/arm-2012.09/bin/../arm-none-eabi/lib//libstdc++.a(eh_terminate.o)
 .ARM.attributes
                0x000034c0       0x30 /home/leon/riotboard/arm-2012.09/bin/../arm-none-eabi/lib//libstdc++.a(eh_unex_handler.o)
 .ARM.attributes
                0x000034f0       0x30 /home/leon/riotboard/arm-2012.09/bin/../arm-none-eabi/lib//libstdc++.a(eh_call.o)
 .ARM.attributes
                0x00003520       0x30 /home/leon/riotboard/arm-2012.09/bin/../arm-none-eabi/lib//libstdc++.a(eh_throw.o)
 .ARM.attributes
                0x00003550       0x30 /home/leon/riotboard/arm-2012.09/bin/../arm-none-eabi/lib//libstdc++.a(eh_arm.o)
 .ARM.attributes
                0x00003580       0x30 /home/leon/riotboard/arm-2012.09/bin/../arm-none-eabi/lib//libstdc++.a(eh_exception.o)
 .ARM.attributes
                0x000035b0       0x30 /home/leon/riotboard/arm-2012.09/bin/../arm-none-eabi/lib//libstdc++.a(eh_alloc.o)
 .ARM.attributes
                0x000035e0       0x30 /home/leon/riotboard/arm-2012.09/bin/../arm-none-eabi/lib//libstdc++.a(eh_globals.o)
 .ARM.attributes
                0x00003610       0x30 /home/leon/riotboard/arm-2012.09/bin/../arm-none-eabi/lib//libstdc++.a(si_class_type_info.o)
 .ARM.attributes
                0x00003640       0x30 /home/leon/riotboard/arm-2012.09/bin/../arm-none-eabi/lib//libstdc++.a(eh_personality.o)
 .ARM.attributes
                0x00003670       0x30 /home/leon/riotboard/arm-2012.09/bin/../arm-none-eabi/lib//libstdc++.a(eh_term_handler.o)
 .ARM.attributes
                0x000036a0       0x30 /home/leon/riotboard/arm-2012.09/bin/../arm-none-eabi/lib//libstdc++.a(eh_catch.o)
 .ARM.attributes
                0x000036d0       0x30 /home/leon/riotboard/arm-2012.09/bin/../arm-none-eabi/lib//libstdc++.a(class_type_info.o)
 .ARM.attributes
                0x00003700       0x30 /home/leon/riotboard/arm-2012.09/bin/../arm-none-eabi/lib//libstdc++.a(vterminate.o)
 .ARM.attributes
                0x00003730       0x30 /home/leon/riotboard/arm-2012.09/bin/../arm-none-eabi/lib//libstdc++.a(cp-demangle.o)
 .ARM.attributes
                0x00003760       0x30 /home/leon/riotboard/arm-2012.09/bin/../arm-none-eabi/lib//libstdc++.a(eh_type.o)
 .ARM.attributes
                0x00003790       0x30 /home/leon/riotboard/arm-2012.09/bin/../arm-none-eabi/lib//libstdc++.a(del_op.o)
 .ARM.attributes
                0x000037c0       0x30 /home/leon/riotboard/arm-2012.09/bin/../arm-none-eabi/lib//libstdc++.a(tinfo.o)
 .ARM.attributes
                0x000037f0       0x30 /home/leon/riotboard/arm-2012.09/bin/../arm-none-eabi/lib//libc.a(lib_a-fwrite.o)
 .ARM.attributes
                0x00003820       0x30 /home/leon/riotboard/arm-2012.09/bin/../arm-none-eabi/lib//libc.a(lib_a-memcmp.o)
 .ARM.attributes
                0x00003850       0x30 /home/leon/riotboard/arm-2012.09/bin/../arm-none-eabi/lib//libc.a(lib_a-strncmp.o)
 .ARM.attributes
                0x00003880       0x30 /home/leon/riotboard/arm-2012.09/bin/../arm-none-eabi/lib//libc.a(lib_a-syswrite.o)
 .ARM.attributes
                0x000038b0       0x18 /home/leon/riotboard/arm-2012.09/bin/../lib/gcc/arm-none-eabi/4.7.2//libgcc.a(_divsi3.o)
 .ARM.attributes
                0x000038c8       0x30 /home/leon/riotboard/arm-2012.09/bin/../lib/gcc/arm-none-eabi/4.7.2//libgcc.a(unwind-arm.o)
 .ARM.attributes
                0x000038f8       0x1c /home/leon/riotboard/arm-2012.09/bin/../lib/gcc/arm-none-eabi/4.7.2//libgcc.a(libunwind.o)
 .ARM.attributes
                0x00003914       0x30 /home/leon/riotboard/arm-2012.09/bin/../lib/gcc/arm-none-eabi/4.7.2//libgcc.a(pr-support.o)
 .ARM.attributes
                0x00003944       0x39 /home/leon/git/swp-report/iMX6_Platform_SDK/output/mx6dq/lib/libsdk.a(max7310.o)

.comment        0x00000000       0x30
 .comment       0x00000000       0x30 /home/leon/git/swp-report/iMX6_Platform_SDK/output/mx6dq/sdk_unit_test/smart_device_rev_c/obj/apps/common/ivt.o
                                 0x31 (size before relaxing)
 .comment       0x00000000       0x31 /home/leon/git/swp-report/iMX6_Platform_SDK/output/mx6dq/sdk_unit_test/smart_device_rev_c/obj/apps/common/platform_init.o
 .comment       0x00000000       0x31 /home/leon/git/swp-report/iMX6_Platform_SDK/output/mx6dq/sdk_unit_test/smart_device_rev_c/obj/apps/common/print_clock_info.o
 .comment       0x00000000       0x31 /home/leon/git/swp-report/iMX6_Platform_SDK/output/mx6dq/sdk_unit_test/smart_device_rev_c/obj/apps/common/print_version.o
 .comment       0x00000000       0x31 /home/leon/git/swp-report/iMX6_Platform_SDK/output/mx6dq/sdk_unit_test/smart_device_rev_c/obj/apps/sdk_unit_test/src/all_test.o
 .comment       0x00000000       0x31 /home/leon/git/swp-report/iMX6_Platform_SDK/output/mx6dq/sdk_unit_test/smart_device_rev_c/obj/apps/sdk_unit_test/src/unit_test_main.o
 .comment       0x00000000       0x31 /home/leon/git/swp-report/iMX6_Platform_SDK/output/mx6dq/lib/libsdk.a(ccm_pll.o)
 .comment       0x00000000       0x31 /home/leon/git/swp-report/iMX6_Platform_SDK/output/mx6dq/lib/libsdk.a(gic.o)
 .comment       0x00000000       0x31 /home/leon/git/swp-report/iMX6_Platform_SDK/output/mx6dq/lib/libsdk.a(mmu.o)
 .comment       0x00000000       0x31 /home/leon/git/swp-report/iMX6_Platform_SDK/output/mx6dq/lib/libsdk.a(menu.o)
 .comment       0x00000000       0x31 /home/leon/git/swp-report/iMX6_Platform_SDK/output/mx6dq/lib/libsdk.a(sdk_version.o)
 .comment       0x00000000       0x31 /home/leon/git/swp-report/iMX6_Platform_SDK/output/mx6dq/lib/libsdk.a(system_util.o)
 .comment       0x00000000       0x31 /home/leon/git/swp-report/iMX6_Platform_SDK/output/mx6dq/lib/libsdk.a(text_color.o)
 .comment       0x00000000       0x31 /home/leon/git/swp-report/iMX6_Platform_SDK/output/mx6dq/lib/libsdk.a(board_id.o)
 .comment       0x00000000       0x31 /home/leon/git/swp-report/iMX6_Platform_SDK/output/mx6dq/lib/libsdk.a(timer.o)
 .comment       0x00000000       0x31 /home/leon/git/swp-report/iMX6_Platform_SDK/output/mx6dq/lib/libsdk.a(imx_uart.o)
 .comment       0x00000000       0x31 /home/leon/git/swp-report/iMX6_Platform_SDK/output/mx6dq/lib/libsdk.a(interrupt.o)
 .comment       0x00000000       0x31 /home/leon/git/swp-report/iMX6_Platform_SDK/output/mx6dq/lib/libsdk.a(epit.o)
 .comment       0x00000000       0x31 /home/leon/git/swp-report/iMX6_Platform_SDK/output/mx6dq/lib/libsdk.a(abort_handler.o)
 .comment       0x00000000       0x31 /home/leon/git/swp-report/iMX6_Platform_SDK/output/mx6dq/lib/libboard_smart_device_rev_c.a(board_io_expanders.o)
 .comment       0x00000000       0x31 /home/leon/git/swp-report/iMX6_Platform_SDK/output/mx6dq/lib/libboard_smart_device_rev_c.a(hardware_modules.o)
 .comment       0x00000000       0x31 /home/leon/git/swp-report/iMX6_Platform_SDK/output/mx6dq/lib/libboard_smart_device_rev_c.a(dcd.o)
 .comment       0x00000000       0x31 /home/leon/git/swp-report/iMX6_Platform_SDK/output/mx6dq/lib/libboard_smart_device_rev_c.a(uart_iomux_config.o)
 .comment       0x00000000       0x31 /home/leon/git/swp-report/iMX6_Platform_SDK/output/mx6dq/lib/libboard_smart_device_rev_c.a(iomux_config.o)
 .comment       0x00000000       0x31 /home/leon/git/swp-report/iMX6_Platform_SDK/output/mx6dq/lib/libboard_smart_device_rev_c.a(ipu1_iomux_config.o)
 .comment       0x00000000       0x31 /home/leon/git/swp-report/iMX6_Platform_SDK/output/mx6dq/lib/libboard_smart_device_rev_c.a(mmdc_iomux_config.o)
 .comment       0x00000000       0x31 /home/leon/git/swp-report/iMX6_Platform_SDK/output/mx6dq/lib/libboard_smart_device_rev_c.a(pwm1_iomux_config.o)
 .comment       0x00000000       0x31 /home/leon/git/swp-report/iMX6_Platform_SDK/output/mx6dq/lib/libboard_smart_device_rev_c.a(sjc_iomux_config.o)
 .comment       0x00000000       0x31 /home/leon/git/swp-report/iMX6_Platform_SDK/output/mx6dq/lib/libboard_smart_device_rev_c.a(uart1_iomux_config.o)
 .comment       0x00000000       0x31 /home/leon/git/swp-report/iMX6_Platform_SDK/output/mx6dq/lib/libboard_smart_device_rev_c.a(usb_iomux_config.o)
 .comment       0x00000000       0x31 /home/leon/git/swp-report/iMX6_Platform_SDK/output/mx6dq/lib/libboard_smart_device_rev_c.a(usdhc2_iomux_config.o)
 .comment       0x00000000       0x31 /home/leon/git/swp-report/iMX6_Platform_SDK/output/mx6dq/lib/libboard_smart_device_rev_c.a(usdhc3_iomux_config.o)
 .comment       0x00000000       0x31 /home/leon/git/swp-report/iMX6_Platform_SDK/output/mx6dq/lib/libboard_smart_device_rev_c.a(usdhc4_iomux_config.o)
 .comment       0x00000000       0x31 /home/leon/git/swp-report/iMX6_Platform_SDK/output/mx6dq/lib/libboard_smart_device_rev_c.a(audmux_iomux_config.o)
 .comment       0x00000000       0x31 /home/leon/git/swp-report/iMX6_Platform_SDK/output/mx6dq/lib/libboard_smart_device_rev_c.a(ccm_iomux_config.o)
 .comment       0x00000000       0x31 /home/leon/git/swp-report/iMX6_Platform_SDK/output/mx6dq/lib/libboard_smart_device_rev_c.a(ecspi1_iomux_config.o)
 .comment       0x00000000       0x31 /home/leon/git/swp-report/iMX6_Platform_SDK/output/mx6dq/lib/libboard_smart_device_rev_c.a(enet_iomux_config.o)
 .comment       0x00000000       0x31 /home/leon/git/swp-report/iMX6_Platform_SDK/output/mx6dq/lib/libboard_smart_device_rev_c.a(flexcan1_iomux_config.o)
 .comment       0x00000000       0x31 /home/leon/git/swp-report/iMX6_Platform_SDK/output/mx6dq/lib/libboard_smart_device_rev_c.a(gpio1_iomux_config.o)
 .comment       0x00000000       0x31 /home/leon/git/swp-report/iMX6_Platform_SDK/output/mx6dq/lib/libboard_smart_device_rev_c.a(gpio2_iomux_config.o)
 .comment       0x00000000       0x31 /home/leon/git/swp-report/iMX6_Platform_SDK/output/mx6dq/lib/libboard_smart_device_rev_c.a(gpio3_iomux_config.o)
 .comment       0x00000000       0x31 /home/leon/git/swp-report/iMX6_Platform_SDK/output/mx6dq/lib/libboard_smart_device_rev_c.a(gpio4_iomux_config.o)
 .comment       0x00000000       0x31 /home/leon/git/swp-report/iMX6_Platform_SDK/output/mx6dq/lib/libboard_smart_device_rev_c.a(gpio5_iomux_config.o)
 .comment       0x00000000       0x31 /home/leon/git/swp-report/iMX6_Platform_SDK/output/mx6dq/lib/libboard_smart_device_rev_c.a(gpio6_iomux_config.o)
 .comment       0x00000000       0x31 /home/leon/git/swp-report/iMX6_Platform_SDK/output/mx6dq/lib/libboard_smart_device_rev_c.a(gpio7_iomux_config.o)
 .comment       0x00000000       0x31 /home/leon/git/swp-report/iMX6_Platform_SDK/output/mx6dq/lib/libboard_smart_device_rev_c.a(gps_iomux_config.o)
 .comment       0x00000000       0x31 /home/leon/git/swp-report/iMX6_Platform_SDK/output/mx6dq/lib/libboard_smart_device_rev_c.a(i2c1_iomux_config.o)
 .comment       0x00000000       0x31 /home/leon/git/swp-report/iMX6_Platform_SDK/output/mx6dq/lib/libboard_smart_device_rev_c.a(i2c2_iomux_config.o)
 .comment       0x00000000       0x31 /home/leon/git/swp-report/iMX6_Platform_SDK/output/mx6dq/lib/libboard_smart_device_rev_c.a(i2c3_iomux_config.o)
 .comment       0x00000000       0x31 /home/leon/git/swp-report/iMX6_Platform_SDK/output/mx6dq/sdk_unit_test/smart_device_rev_c/libsdk_unit_test.a(audio_test.o)
 .comment       0x00000000       0x31 /home/leon/git/swp-report/iMX6_Platform_SDK/output/mx6dq/sdk_unit_test/smart_device_rev_c/libsdk_unit_test.a(gic_test.o)
 .comment       0x00000000       0x31 /home/leon/git/swp-report/iMX6_Platform_SDK/output/mx6dq/sdk_unit_test/smart_device_rev_c/libsdk_unit_test.a(cpu_wp_test.o)
 .comment       0x00000000       0x31 /home/leon/git/swp-report/iMX6_Platform_SDK/output/mx6dq/sdk_unit_test/smart_device_rev_c/libsdk_unit_test.a(multicore_test.o)
 .comment       0x00000000       0x31 /home/leon/git/swp-report/iMX6_Platform_SDK/output/mx6dq/sdk_unit_test/smart_device_rev_c/libsdk_unit_test.a(ocotp_test.o)
 .comment       0x00000000       0x31 /home/leon/git/swp-report/iMX6_Platform_SDK/output/mx6dq/sdk_unit_test/smart_device_rev_c/libsdk_unit_test.a(snvs_rtc_test.o)
 .comment       0x00000000       0x31 /home/leon/git/swp-report/iMX6_Platform_SDK/output/mx6dq/sdk_unit_test/smart_device_rev_c/libsdk_unit_test.a(snvs_srtc_test.o)
 .comment       0x00000000       0x31 /home/leon/git/swp-report/iMX6_Platform_SDK/output/mx6dq/sdk_unit_test/smart_device_rev_c/libsdk_unit_test.a(i2c_test.o)
 .comment       0x00000000       0x31 /home/leon/git/swp-report/iMX6_Platform_SDK/output/mx6dq/sdk_unit_test/smart_device_rev_c/libsdk_unit_test.a(imx6_i2c_device.o)
 .comment       0x00000000       0x31 /home/leon/git/swp-report/iMX6_Platform_SDK/output/mx6dq/sdk_unit_test/smart_device_rev_c/libsdk_unit_test.a(tempmon_test.o)
 .comment       0x00000000       0x31 /home/leon/git/swp-report/iMX6_Platform_SDK/output/mx6dq/sdk_unit_test/smart_device_rev_c/libsdk_unit_test.a(sdma_test.o)
 .comment       0x00000000       0x31 /home/leon/git/swp-report/iMX6_Platform_SDK/output/mx6dq/sdk_unit_test/smart_device_rev_c/libsdk_unit_test.a(spi_lpb.o)
 .comment       0x00000000       0x31 /home/leon/git/swp-report/iMX6_Platform_SDK/output/mx6dq/sdk_unit_test/smart_device_rev_c/libsdk_unit_test.a(uart_loopback.o)
 .comment       0x00000000       0x31 /home/leon/git/swp-report/iMX6_Platform_SDK/output/mx6dq/sdk_unit_test/smart_device_rev_c/libsdk_unit_test.a(uart_test.o)
 .comment       0x00000000       0x31 /home/leon/git/swp-report/iMX6_Platform_SDK/output/mx6dq/sdk_unit_test/smart_device_rev_c/libsdk_unit_test.a(epit_test.o)
 .comment       0x00000000       0x31 /home/leon/git/swp-report/iMX6_Platform_SDK/output/mx6dq/sdk_unit_test/smart_device_rev_c/libsdk_unit_test.a(gpt_test.o)
 .comment       0x00000000       0x31 /home/leon/git/swp-report/iMX6_Platform_SDK/output/mx6dq/sdk_unit_test/smart_device_rev_c/libsdk_unit_test.a(timer_test.o)
 .comment       0x00000000       0x31 /home/leon/git/swp-report/iMX6_Platform_SDK/output/mx6dq/sdk_unit_test/smart_device_rev_c/libsdk_unit_test.a(usdhc_test.o)
 .comment       0x00000000       0x31 /home/leon/git/swp-report/iMX6_Platform_SDK/output/mx6dq/sdk_unit_test/smart_device_rev_c/libsdk_unit_test.a(pwm_test.o)
 .comment       0x00000000       0x31 /home/leon/git/swp-report/iMX6_Platform_SDK/output/mx6dq/sdk_unit_test/smart_device_rev_c/libsdk_unit_test.a(watchdog_test.o)
 .comment       0x00000000       0x31 /home/leon/git/swp-report/iMX6_Platform_SDK/output/mx6dq/sdk_unit_test/smart_device_rev_c/libsdk_unit_test.a(hdmi_test.o)
 .comment       0x00000000       0x31 /home/leon/git/swp-report/iMX6_Platform_SDK/output/mx6dq/sdk_unit_test/smart_device_rev_c/libsdk_unit_test.a(init_dma_data.o)
 .comment       0x00000000       0x31 /home/leon/git/swp-report/iMX6_Platform_SDK/output/mx6dq/sdk_unit_test/smart_device_rev_c/libsdk_unit_test.a(ips_display.o)
 .comment       0x00000000       0x31 /home/leon/git/swp-report/iMX6_Platform_SDK/output/mx6dq/sdk_unit_test/smart_device_rev_c/libsdk_unit_test.a(ips_test.o)
 .comment       0x00000000       0x31 /home/leon/git/swp-report/iMX6_Platform_SDK/output/mx6dq/sdk_unit_test/smart_device_rev_c/libsdk_unit_test.a(ipu_image.o)
 .comment       0x00000000       0x31 /home/leon/git/swp-report/iMX6_Platform_SDK/output/mx6dq/sdk_unit_test/smart_device_rev_c/libsdk_unit_test.a(camera_test.o)
 .comment       0x00000000       0x31 /home/leon/git/swp-report/iMX6_Platform_SDK/output/mx6dq/sdk_unit_test/smart_device_rev_c/libsdk_unit_test.a(csi_test_mode.o)
 .comment       0x00000000       0x31 /home/leon/git/swp-report/iMX6_Platform_SDK/output/mx6dq/sdk_unit_test/smart_device_rev_c/libsdk_unit_test.a(sensor_capture.o)
 .comment       0x00000000       0x31 /home/leon/git/swp-report/iMX6_Platform_SDK/output/mx6dq/sdk_unit_test/smart_device_rev_c/libsdk_unit_test.a(keypad_test.o)
 .comment       0x00000000       0x31 /home/leon/git/swp-report/iMX6_Platform_SDK/output/mx6dq/sdk_unit_test/smart_device_rev_c/libsdk_unit_test.a(pcie_test_rc.o)
 .comment       0x00000000       0x31 /home/leon/git/swp-report/iMX6_Platform_SDK/output/mx6dq/sdk_unit_test/smart_device_rev_c/libsdk_unit_test.a(usb_test.o)
 .comment       0x00000000       0x31 /home/leon/git/swp-report/iMX6_Platform_SDK/output/mx6dq/sdk_unit_test/smart_device_rev_c/libsdk_unit_test.a(enet_test.o)
 .comment       0x00000000       0x31 /home/leon/git/swp-report/iMX6_Platform_SDK/output/mx6dq/sdk_unit_test/smart_device_rev_c/libsdk_unit_test.a(spi_test.o)
 .comment       0x00000000       0x31 /home/leon/git/swp-report/iMX6_Platform_SDK/output/mx6dq/sdk_unit_test/smart_device_rev_c/libsdk_unit_test.a(accelerometer_test.o)
 .comment       0x00000000       0x31 /home/leon/git/swp-report/iMX6_Platform_SDK/output/mx6dq/sdk_unit_test/smart_device_rev_c/libsdk_unit_test.a(sata_test.o)
 .comment       0x00000000       0x31 /home/leon/git/swp-report/iMX6_Platform_SDK/output/mx6dq/sdk_unit_test/smart_device_rev_c/libsdk_unit_test.a(at24cxx.o)
 .comment       0x00000000       0x31 /home/leon/git/swp-report/iMX6_Platform_SDK/output/mx6dq/sdk_unit_test/smart_device_rev_c/libsdk_unit_test.a(mem_2_mem.o)
 .comment       0x00000000       0x31 /home/leon/git/swp-report/iMX6_Platform_SDK/output/mx6dq/sdk_unit_test/smart_device_rev_c/libsdk_unit_test.a(pwm_output.o)
 .comment       0x00000000       0x31 /home/leon/git/swp-report/iMX6_Platform_SDK/output/mx6dq/sdk_unit_test/smart_device_rev_c/libsdk_unit_test.a(ips_combiner.o)
 .comment       0x00000000       0x31 /home/leon/git/swp-report/iMX6_Platform_SDK/output/mx6dq/sdk_unit_test/smart_device_rev_c/libsdk_unit_test.a(ips_csc.o)
 .comment       0x00000000       0x31 /home/leon/git/swp-report/iMX6_Platform_SDK/output/mx6dq/sdk_unit_test/smart_device_rev_c/libsdk_unit_test.a(ips_resize.o)
 .comment       0x00000000       0x31 /home/leon/git/swp-report/iMX6_Platform_SDK/output/mx6dq/sdk_unit_test/smart_device_rev_c/libsdk_unit_test.a(ips_rotate.o)
 .comment       0x00000000       0x31 /home/leon/git/swp-report/iMX6_Platform_SDK/output/mx6dq/sdk_unit_test/smart_device_rev_c/libsdk_unit_test.a(usb0_device_mouse_test.o)
 .comment       0x00000000       0x31 /home/leon/git/swp-report/iMX6_Platform_SDK/output/mx6dq/sdk_unit_test/smart_device_rev_c/libsdk_unit_test.a(usb0_host_test.o)
 .comment       0x00000000       0x31 /home/leon/git/swp-report/iMX6_Platform_SDK/output/mx6dq/sdk_unit_test/smart_device_rev_c/libsdk_unit_test.a(usb0_host_testmodes_test.o)
 .comment       0x00000000       0x31 /home/leon/git/swp-report/iMX6_Platform_SDK/output/mx6dq/sdk_unit_test/smart_device_rev_c/libsdk_unit_test.a(spi_nor_numonyx.o)
 .comment       0x00000000       0x31 /home/leon/git/swp-report/iMX6_Platform_SDK/output/mx6dq/lib/libsdk.a(profile.o)
 .comment       0x00000000       0x31 /home/leon/git/swp-report/iMX6_Platform_SDK/output/mx6dq/lib/libsdk.a(armv7_cache.o)
 .comment       0x00000000       0x31 /home/leon/git/swp-report/iMX6_Platform_SDK/output/mx6dq/lib/libsdk.a(runtime_support.o)
 .comment       0x00000000       0x31 /home/leon/git/swp-report/iMX6_Platform_SDK/output/mx6dq/lib/libsdk.a(mma8451.o)
 .comment       0x00000000       0x31 /home/leon/git/swp-report/iMX6_Platform_SDK/output/mx6dq/lib/libsdk.a(smd_sensor.o)
 .comment       0x00000000       0x31 /home/leon/git/swp-report/iMX6_Platform_SDK/output/mx6dq/lib/libsdk.a(cpu_get_cores.o)
 .comment       0x00000000       0x31 /home/leon/git/swp-report/iMX6_Platform_SDK/output/mx6dq/lib/libsdk.a(cpu_multicore.o)
 .comment       0x00000000       0x31 /home/leon/git/swp-report/iMX6_Platform_SDK/output/mx6dq/lib/libsdk.a(cpu_workpoint.o)
 .comment       0x00000000       0x31 /home/leon/git/swp-report/iMX6_Platform_SDK/output/mx6dq/lib/libsdk.a(enet_drv.o)
 .comment       0x00000000       0x31 /home/leon/git/swp-report/iMX6_Platform_SDK/output/mx6dq/lib/libsdk.a(gpio.o)
 .comment       0x00000000       0x31 /home/leon/git/swp-report/iMX6_Platform_SDK/output/mx6dq/lib/libsdk.a(imx6dq_gpio_map.o)
 .comment       0x00000000       0x31 /home/leon/git/swp-report/iMX6_Platform_SDK/output/mx6dq/lib/libsdk.a(hdmi_tx.o)
 .comment       0x00000000       0x31 /home/leon/git/swp-report/iMX6_Platform_SDK/output/mx6dq/lib/libsdk.a(hdmi_tx_audio.o)
 .comment       0x00000000       0x31 /home/leon/git/swp-report/iMX6_Platform_SDK/output/mx6dq/lib/libsdk.a(hdmi_tx_phy.o)
 .comment       0x00000000       0x31 /home/leon/git/swp-report/iMX6_Platform_SDK/output/mx6dq/lib/libsdk.a(imx_i2c.o)
 .comment       0x00000000       0x31 /home/leon/git/swp-report/iMX6_Platform_SDK/output/mx6dq/lib/libsdk.a(imx_i2c_slave.o)
 .comment       0x00000000       0x31 /home/leon/git/swp-report/iMX6_Platform_SDK/output/mx6dq/lib/libsdk.a(ips_disp_panel.o)
 .comment       0x00000000       0x31 /home/leon/git/swp-report/iMX6_Platform_SDK/output/mx6dq/lib/libsdk.a(ipu_common.o)
 .comment       0x00000000       0x31 /home/leon/git/swp-report/iMX6_Platform_SDK/output/mx6dq/lib/libsdk.a(ipu_csi.o)
 .comment       0x00000000       0x31 /home/leon/git/swp-report/iMX6_Platform_SDK/output/mx6dq/lib/libsdk.a(ipu_dc.o)
 .comment       0x00000000       0x31 /home/leon/git/swp-report/iMX6_Platform_SDK/output/mx6dq/lib/libsdk.a(ipu_di.o)
 .comment       0x00000000       0x31 /home/leon/git/swp-report/iMX6_Platform_SDK/output/mx6dq/lib/libsdk.a(ipu_dmfc.o)
 .comment       0x00000000       0x31 /home/leon/git/swp-report/iMX6_Platform_SDK/output/mx6dq/lib/libsdk.a(ipu_dp.o)
 .comment       0x00000000       0x31 /home/leon/git/swp-report/iMX6_Platform_SDK/output/mx6dq/lib/libsdk.a(ipu_ic.o)
 .comment       0x00000000       0x31 /home/leon/git/swp-report/iMX6_Platform_SDK/output/mx6dq/lib/libsdk.a(ipu_idmac.o)
 .comment       0x00000000       0x31 /home/leon/git/swp-report/iMX6_Platform_SDK/output/mx6dq/lib/libsdk.a(ipu_vdi.o)
 .comment       0x00000000       0x31 /home/leon/git/swp-report/iMX6_Platform_SDK/output/mx6dq/lib/libsdk.a(keypad_port.o)
 .comment       0x00000000       0x31 /home/leon/git/swp-report/iMX6_Platform_SDK/output/mx6dq/lib/libsdk.a(ldb.o)
 .comment       0x00000000       0x31 /home/leon/git/swp-report/iMX6_Platform_SDK/output/mx6dq/lib/libsdk.a(ocotp.o)
 .comment       0x00000000       0x31 /home/leon/git/swp-report/iMX6_Platform_SDK/output/mx6dq/lib/libsdk.a(pcie.o)
 .comment       0x00000000       0x31 /home/leon/git/swp-report/iMX6_Platform_SDK/output/mx6dq/lib/libsdk.a(pcie_phy.o)
 .comment       0x00000000       0x31 /home/leon/git/swp-report/iMX6_Platform_SDK/output/mx6dq/lib/libsdk.a(pcie_prot.o)
 .comment       0x00000000       0x31 /home/leon/git/swp-report/iMX6_Platform_SDK/output/mx6dq/lib/libsdk.a(pmu_driver.o)
 .comment       0x00000000       0x31 /home/leon/git/swp-report/iMX6_Platform_SDK/output/mx6dq/lib/libsdk.a(pwm.o)
 .comment       0x00000000       0x31 /home/leon/git/swp-report/iMX6_Platform_SDK/output/mx6dq/lib/libsdk.a(rtc.o)
 .comment       0x00000000       0x31 /home/leon/git/swp-report/iMX6_Platform_SDK/output/mx6dq/lib/libsdk.a(srtc.o)
 .comment       0x00000000       0x31 /home/leon/git/swp-report/iMX6_Platform_SDK/output/mx6dq/lib/libsdk.a(sata.o)
 .comment       0x00000000       0x31 /home/leon/git/swp-report/iMX6_Platform_SDK/output/mx6dq/lib/libsdk.a(sdma.o)
 .comment       0x00000000       0x31 /home/leon/git/swp-report/iMX6_Platform_SDK/output/mx6dq/lib/libsdk.a(sdma_script_info.o)
 .comment       0x00000000       0x31 /home/leon/git/swp-report/iMX6_Platform_SDK/output/mx6dq/lib/libsdk.a(snvs.o)
 .comment       0x00000000       0x31 /home/leon/git/swp-report/iMX6_Platform_SDK/output/mx6dq/lib/libsdk.a(ecspi.o)
 .comment       0x00000000       0x31 /home/leon/git/swp-report/iMX6_Platform_SDK/output/mx6dq/lib/libsdk.a(tempmon.o)
 .comment       0x00000000       0x31 /home/leon/git/swp-report/iMX6_Platform_SDK/output/mx6dq/lib/libsdk.a(gpt.o)
 .comment       0x00000000       0x31 /home/leon/git/swp-report/iMX6_Platform_SDK/output/mx6dq/lib/libsdk.a(usb_common.o)
 .comment       0x00000000       0x31 /home/leon/git/swp-report/iMX6_Platform_SDK/output/mx6dq/lib/libsdk.a(usbd_drv.o)
 .comment       0x00000000       0x31 /home/leon/git/swp-report/iMX6_Platform_SDK/output/mx6dq/lib/libsdk.a(usbh_drv.o)
 .comment       0x00000000       0x31 /home/leon/git/swp-report/iMX6_Platform_SDK/output/mx6dq/lib/libsdk.a(usdhc.o)
 .comment       0x00000000       0x31 /home/leon/git/swp-report/iMX6_Platform_SDK/output/mx6dq/lib/libsdk.a(usdhc_host.o)
 .comment       0x00000000       0x31 /home/leon/git/swp-report/iMX6_Platform_SDK/output/mx6dq/lib/libsdk.a(usdhc_mmc.o)
 .comment       0x00000000       0x31 /home/leon/git/swp-report/iMX6_Platform_SDK/output/mx6dq/lib/libsdk.a(usdhc_sd.o)
 .comment       0x00000000       0x31 /home/leon/git/swp-report/iMX6_Platform_SDK/output/mx6dq/lib/libsdk.a(spinlock.o)
 .comment       0x00000000       0x31 /home/leon/git/swp-report/iMX6_Platform_SDK/output/mx6dq/lib/libsdk.a(camera_profile.o)
 .comment       0x00000000       0x31 /home/leon/git/swp-report/iMX6_Platform_SDK/output/mx6dq/lib/libsdk.a(hdmi_common.o)
 .comment       0x00000000       0x31 /home/leon/git/swp-report/iMX6_Platform_SDK/output/mx6dq/lib/libsdk.a(mx6x_usb.o)
 .comment       0x00000000       0x31 /home/leon/git/swp-report/iMX6_Platform_SDK/output/mx6dq/lib/libboard_smart_device_rev_c.a(board_audio.o)
 .comment       0x00000000       0x31 /home/leon/git/swp-report/iMX6_Platform_SDK/output/mx6dq/lib/libboard_smart_device_rev_c.a(board_camera.o)
 .comment       0x00000000       0x31 /home/leon/git/swp-report/iMX6_Platform_SDK/output/mx6dq/lib/libboard_smart_device_rev_c.a(board_display.o)
 .comment       0x00000000       0x31 /home/leon/git/swp-report/iMX6_Platform_SDK/output/mx6dq/lib/libboard_smart_device_rev_c.a(board_hdmi.o)
 .comment       0x00000000       0x31 /home/leon/git/swp-report/iMX6_Platform_SDK/output/mx6dq/lib/libboard_smart_device_rev_c.a(board_i2c.o)
 .comment       0x00000000       0x31 /home/leon/git/swp-report/iMX6_Platform_SDK/output/mx6dq/lib/libboard_smart_device_rev_c.a(board_mipi.o)
 .comment       0x00000000       0x31 /home/leon/git/swp-report/iMX6_Platform_SDK/output/mx6dq/lib/libboard_smart_device_rev_c.a(board_network.o)
 .comment       0x00000000       0x31 /home/leon/git/swp-report/iMX6_Platform_SDK/output/mx6dq/lib/libboard_smart_device_rev_c.a(board_pcie.o)
 .comment       0x00000000       0x31 /home/leon/git/swp-report/iMX6_Platform_SDK/output/mx6dq/lib/libboard_smart_device_rev_c.a(board_sata.o)
 .comment       0x00000000       0x31 /home/leon/git/swp-report/iMX6_Platform_SDK/output/mx6dq/lib/libboard_smart_device_rev_c.a(board_usb.o)
 .comment       0x00000000       0x31 /home/leon/git/swp-report/iMX6_Platform_SDK/output/mx6dq/lib/libboard_smart_device_rev_c.a(board_usdhc.o)
 .comment       0x00000000       0x31 /home/leon/git/swp-report/iMX6_Platform_SDK/output/mx6dq/lib/libboard_smart_device_rev_c.a(ecspi_iomux_config.o)
 .comment       0x00000000       0x31 /home/leon/git/swp-report/iMX6_Platform_SDK/output/mx6dq/lib/libboard_smart_device_rev_c.a(i2c_iomux_config.o)
 .comment       0x00000000       0x31 /home/leon/git/swp-report/iMX6_Platform_SDK/output/mx6dq/lib/libboard_smart_device_rev_c.a(pwm_iomux_config.o)
 .comment       0x00000000       0x31 /home/leon/git/swp-report/iMX6_Platform_SDK/output/mx6dq/lib/libboard_smart_device_rev_c.a(usdhc_iomux_config.o)
 .comment       0x00000000       0x31 /home/leon/git/swp-report/iMX6_Platform_SDK/output/mx6dq/lib/libsdk.a(max7310.o)

.debug_info     0x00000000    0x69426
 .debug_info    0x00000000      0x228 /home/leon/git/swp-report/iMX6_Platform_SDK/output/mx6dq/sdk_unit_test/smart_device_rev_c/obj/apps/common/ivt.o
 .debug_info    0x00000228      0x198 /home/leon/git/swp-report/iMX6_Platform_SDK/output/mx6dq/sdk_unit_test/smart_device_rev_c/obj/apps/common/platform_init.o
 .debug_info    0x000003c0      0x17b /home/leon/git/swp-report/iMX6_Platform_SDK/output/mx6dq/sdk_unit_test/smart_device_rev_c/obj/apps/common/print_clock_info.o
 .debug_info    0x0000053b      0x1bd /home/leon/git/swp-report/iMX6_Platform_SDK/output/mx6dq/sdk_unit_test/smart_device_rev_c/obj/apps/common/print_version.o
 .debug_info    0x000006f8      0x276 /home/leon/git/swp-report/iMX6_Platform_SDK/output/mx6dq/sdk_unit_test/smart_device_rev_c/obj/apps/sdk_unit_test/src/all_test.o
 .debug_info    0x0000096e       0x9b /home/leon/git/swp-report/iMX6_Platform_SDK/output/mx6dq/sdk_unit_test/smart_device_rev_c/obj/apps/sdk_unit_test/src/unit_test_main.o
 .debug_info    0x00000a09     0x1d6e /home/leon/git/swp-report/iMX6_Platform_SDK/output/mx6dq/lib/libsdk.a(ccm_pll.o)
 .debug_info    0x00002777      0x7f4 /home/leon/git/swp-report/iMX6_Platform_SDK/output/mx6dq/lib/libsdk.a(gic.o)
 .debug_info    0x00002f6b      0x3e7 /home/leon/git/swp-report/iMX6_Platform_SDK/output/mx6dq/lib/libsdk.a(mmu.o)
 .debug_info    0x00003352      0xe7d /home/leon/git/swp-report/iMX6_Platform_SDK/output/mx6dq/lib/libsdk.a(menu.o)
 .debug_info    0x000041cf       0x76 /home/leon/git/swp-report/iMX6_Platform_SDK/output/mx6dq/lib/libsdk.a(sdk_version.o)
 .debug_info    0x00004245     0x1536 /home/leon/git/swp-report/iMX6_Platform_SDK/output/mx6dq/lib/libsdk.a(system_util.o)
 .debug_info    0x0000577b      0x298 /home/leon/git/swp-report/iMX6_Platform_SDK/output/mx6dq/lib/libsdk.a(text_color.o)
 .debug_info    0x00005a13      0x4fe /home/leon/git/swp-report/iMX6_Platform_SDK/output/mx6dq/lib/libsdk.a(board_id.o)
 .debug_info    0x00005f11      0x319 /home/leon/git/swp-report/iMX6_Platform_SDK/output/mx6dq/lib/libsdk.a(timer.o)
 .debug_info    0x0000622a     0x11b6 /home/leon/git/swp-report/iMX6_Platform_SDK/output/mx6dq/lib/libsdk.a(imx_uart.o)
 .debug_info    0x000073e0      0x63b /home/leon/git/swp-report/iMX6_Platform_SDK/output/mx6dq/lib/libsdk.a(interrupt.o)
 .debug_info    0x00007a1b      0x9b7 /home/leon/git/swp-report/iMX6_Platform_SDK/output/mx6dq/lib/libsdk.a(epit.o)
 .debug_info    0x000083d2      0x234 /home/leon/git/swp-report/iMX6_Platform_SDK/output/mx6dq/lib/libsdk.a(abort_handler.o)
 .debug_info    0x00008606      0x1f9 /home/leon/git/swp-report/iMX6_Platform_SDK/output/mx6dq/lib/libboard_smart_device_rev_c.a(board_io_expanders.o)
 .debug_info    0x000087ff       0xa1 /home/leon/git/swp-report/iMX6_Platform_SDK/output/mx6dq/lib/libboard_smart_device_rev_c.a(hardware_modules.o)
 .debug_info    0x000088a0       0xe9 /home/leon/git/swp-report/iMX6_Platform_SDK/output/mx6dq/lib/libboard_smart_device_rev_c.a(dcd.o)
 .debug_info    0x00008989       0xcf /home/leon/git/swp-report/iMX6_Platform_SDK/output/mx6dq/lib/libboard_smart_device_rev_c.a(uart_iomux_config.o)
 .debug_info    0x00008a58      0x3da /home/leon/git/swp-report/iMX6_Platform_SDK/output/mx6dq/lib/libboard_smart_device_rev_c.a(iomux_config.o)
 .debug_info    0x00008e32     0x2c8d /home/leon/git/swp-report/iMX6_Platform_SDK/output/mx6dq/lib/libboard_smart_device_rev_c.a(ipu1_iomux_config.o)
 .debug_info    0x0000babf     0x41e3 /home/leon/git/swp-report/iMX6_Platform_SDK/output/mx6dq/lib/libboard_smart_device_rev_c.a(mmdc_iomux_config.o)
 .debug_info    0x0000fca2      0x205 /home/leon/git/swp-report/iMX6_Platform_SDK/output/mx6dq/lib/libboard_smart_device_rev_c.a(pwm1_iomux_config.o)
 .debug_info    0x0000fea7      0x72b /home/leon/git/swp-report/iMX6_Platform_SDK/output/mx6dq/lib/libboard_smart_device_rev_c.a(sjc_iomux_config.o)
 .debug_info    0x000105d2      0x419 /home/leon/git/swp-report/iMX6_Platform_SDK/output/mx6dq/lib/libboard_smart_device_rev_c.a(uart1_iomux_config.o)
 .debug_info    0x000109eb      0x447 /home/leon/git/swp-report/iMX6_Platform_SDK/output/mx6dq/lib/libboard_smart_device_rev_c.a(usb_iomux_config.o)
 .debug_info    0x00010e32     0x107b /home/leon/git/swp-report/iMX6_Platform_SDK/output/mx6dq/lib/libboard_smart_device_rev_c.a(usdhc2_iomux_config.o)
 .debug_info    0x00011ead     0x10db /home/leon/git/swp-report/iMX6_Platform_SDK/output/mx6dq/lib/libboard_smart_device_rev_c.a(usdhc3_iomux_config.o)
 .debug_info    0x00012f88     0x10db /home/leon/git/swp-report/iMX6_Platform_SDK/output/mx6dq/lib/libboard_smart_device_rev_c.a(usdhc4_iomux_config.o)
 .debug_info    0x00014063      0x6f7 /home/leon/git/swp-report/iMX6_Platform_SDK/output/mx6dq/lib/libboard_smart_device_rev_c.a(audmux_iomux_config.o)
 .debug_info    0x0001475a      0x205 /home/leon/git/swp-report/iMX6_Platform_SDK/output/mx6dq/lib/libboard_smart_device_rev_c.a(ccm_iomux_config.o)
 .debug_info    0x0001495f      0x8af /home/leon/git/swp-report/iMX6_Platform_SDK/output/mx6dq/lib/libboard_smart_device_rev_c.a(ecspi1_iomux_config.o)
 .debug_info    0x0001520e     0x20a9 /home/leon/git/swp-report/iMX6_Platform_SDK/output/mx6dq/lib/libboard_smart_device_rev_c.a(enet_iomux_config.o)
 .debug_info    0x000172b7      0x419 /home/leon/git/swp-report/iMX6_Platform_SDK/output/mx6dq/lib/libboard_smart_device_rev_c.a(flexcan1_iomux_config.o)
 .debug_info    0x000176d0     0x16f3 /home/leon/git/swp-report/iMX6_Platform_SDK/output/mx6dq/lib/libboard_smart_device_rev_c.a(gpio1_iomux_config.o)
 .debug_info    0x00018dc3     0x101b /home/leon/git/swp-report/iMX6_Platform_SDK/output/mx6dq/lib/libboard_smart_device_rev_c.a(gpio2_iomux_config.o)
 .debug_info    0x00019dde     0x1739 /home/leon/git/swp-report/iMX6_Platform_SDK/output/mx6dq/lib/libboard_smart_device_rev_c.a(gpio3_iomux_config.o)
 .debug_info    0x0001b517      0x89d /home/leon/git/swp-report/iMX6_Platform_SDK/output/mx6dq/lib/libboard_smart_device_rev_c.a(gpio4_iomux_config.o)
 .debug_info    0x0001bdb4      0x511 /home/leon/git/swp-report/iMX6_Platform_SDK/output/mx6dq/lib/libboard_smart_device_rev_c.a(gpio5_iomux_config.o)
 .debug_info    0x0001c2c5      0xf15 /home/leon/git/swp-report/iMX6_Platform_SDK/output/mx6dq/lib/libboard_smart_device_rev_c.a(gpio6_iomux_config.o)
 .debug_info    0x0001d1da      0x551 /home/leon/git/swp-report/iMX6_Platform_SDK/output/mx6dq/lib/libboard_smart_device_rev_c.a(gpio7_iomux_config.o)
 .debug_info    0x0001d72b      0x86b /home/leon/git/swp-report/iMX6_Platform_SDK/output/mx6dq/lib/libboard_smart_device_rev_c.a(gps_iomux_config.o)
 .debug_info    0x0001df96      0x487 /home/leon/git/swp-report/iMX6_Platform_SDK/output/mx6dq/lib/libboard_smart_device_rev_c.a(i2c1_iomux_config.o)
 .debug_info    0x0001e41d      0x487 /home/leon/git/swp-report/iMX6_Platform_SDK/output/mx6dq/lib/libboard_smart_device_rev_c.a(i2c2_iomux_config.o)
 .debug_info    0x0001e8a4      0x487 /home/leon/git/swp-report/iMX6_Platform_SDK/output/mx6dq/lib/libboard_smart_device_rev_c.a(i2c3_iomux_config.o)
 .debug_info    0x0001ed2b      0xbea /home/leon/git/swp-report/iMX6_Platform_SDK/output/mx6dq/sdk_unit_test/smart_device_rev_c/libsdk_unit_test.a(audio_test.o)
 .debug_info    0x0001f915      0x533 /home/leon/git/swp-report/iMX6_Platform_SDK/output/mx6dq/sdk_unit_test/smart_device_rev_c/libsdk_unit_test.a(gic_test.o)
 .debug_info    0x0001fe48      0x23d /home/leon/git/swp-report/iMX6_Platform_SDK/output/mx6dq/sdk_unit_test/smart_device_rev_c/libsdk_unit_test.a(cpu_wp_test.o)
 .debug_info    0x00020085      0x585 /home/leon/git/swp-report/iMX6_Platform_SDK/output/mx6dq/sdk_unit_test/smart_device_rev_c/libsdk_unit_test.a(multicore_test.o)
 .debug_info    0x0002060a      0x9be /home/leon/git/swp-report/iMX6_Platform_SDK/output/mx6dq/sdk_unit_test/smart_device_rev_c/libsdk_unit_test.a(ocotp_test.o)
 .debug_info    0x00020fc8      0xa4f /home/leon/git/swp-report/iMX6_Platform_SDK/output/mx6dq/sdk_unit_test/smart_device_rev_c/libsdk_unit_test.a(snvs_rtc_test.o)
 .debug_info    0x00021a17      0x9ec /home/leon/git/swp-report/iMX6_Platform_SDK/output/mx6dq/sdk_unit_test/smart_device_rev_c/libsdk_unit_test.a(snvs_srtc_test.o)
 .debug_info    0x00022403      0x989 /home/leon/git/swp-report/iMX6_Platform_SDK/output/mx6dq/sdk_unit_test/smart_device_rev_c/libsdk_unit_test.a(i2c_test.o)
 .debug_info    0x00022d8c      0xc3a /home/leon/git/swp-report/iMX6_Platform_SDK/output/mx6dq/sdk_unit_test/smart_device_rev_c/libsdk_unit_test.a(imx6_i2c_device.o)
 .debug_info    0x000239c6      0xa04 /home/leon/git/swp-report/iMX6_Platform_SDK/output/mx6dq/sdk_unit_test/smart_device_rev_c/libsdk_unit_test.a(tempmon_test.o)
 .debug_info    0x000243ca      0x9f7 /home/leon/git/swp-report/iMX6_Platform_SDK/output/mx6dq/sdk_unit_test/smart_device_rev_c/libsdk_unit_test.a(sdma_test.o)
 .debug_info    0x00024dc1      0x4b3 /home/leon/git/swp-report/iMX6_Platform_SDK/output/mx6dq/sdk_unit_test/smart_device_rev_c/libsdk_unit_test.a(spi_lpb.o)
 .debug_info    0x00025274      0x577 /home/leon/git/swp-report/iMX6_Platform_SDK/output/mx6dq/sdk_unit_test/smart_device_rev_c/libsdk_unit_test.a(uart_loopback.o)
 .debug_info    0x000257eb      0xad8 /home/leon/git/swp-report/iMX6_Platform_SDK/output/mx6dq/sdk_unit_test/smart_device_rev_c/libsdk_unit_test.a(uart_test.o)
 .debug_info    0x000262c3      0xac5 /home/leon/git/swp-report/iMX6_Platform_SDK/output/mx6dq/sdk_unit_test/smart_device_rev_c/libsdk_unit_test.a(epit_test.o)
 .debug_info    0x00026d88      0xd60 /home/leon/git/swp-report/iMX6_Platform_SDK/output/mx6dq/sdk_unit_test/smart_device_rev_c/libsdk_unit_test.a(gpt_test.o)
 .debug_info    0x00027ae8       0xca /home/leon/git/swp-report/iMX6_Platform_SDK/output/mx6dq/sdk_unit_test/smart_device_rev_c/libsdk_unit_test.a(timer_test.o)
 .debug_info    0x00027bb2      0xd3f /home/leon/git/swp-report/iMX6_Platform_SDK/output/mx6dq/sdk_unit_test/smart_device_rev_c/libsdk_unit_test.a(usdhc_test.o)
 .debug_info    0x000288f1      0xa45 /home/leon/git/swp-report/iMX6_Platform_SDK/output/mx6dq/sdk_unit_test/smart_device_rev_c/libsdk_unit_test.a(pwm_test.o)
 .debug_info    0x00029336      0xa3d /home/leon/git/swp-report/iMX6_Platform_SDK/output/mx6dq/sdk_unit_test/smart_device_rev_c/libsdk_unit_test.a(watchdog_test.o)
 .debug_info    0x00029d73     0x10f1 /home/leon/git/swp-report/iMX6_Platform_SDK/output/mx6dq/sdk_unit_test/smart_device_rev_c/libsdk_unit_test.a(hdmi_test.o)
 .debug_info    0x0002ae64      0x37c /home/leon/git/swp-report/iMX6_Platform_SDK/output/mx6dq/sdk_unit_test/smart_device_rev_c/libsdk_unit_test.a(init_dma_data.o)
 .debug_info    0x0002b1e0     0x1059 /home/leon/git/swp-report/iMX6_Platform_SDK/output/mx6dq/sdk_unit_test/smart_device_rev_c/libsdk_unit_test.a(ips_display.o)
 .debug_info    0x0002c239      0xbfb /home/leon/git/swp-report/iMX6_Platform_SDK/output/mx6dq/sdk_unit_test/smart_device_rev_c/libsdk_unit_test.a(ips_test.o)
 .debug_info    0x0002ce34      0x50d /home/leon/git/swp-report/iMX6_Platform_SDK/output/mx6dq/sdk_unit_test/smart_device_rev_c/libsdk_unit_test.a(ipu_image.o)
 .debug_info    0x0002d341      0xa84 /home/leon/git/swp-report/iMX6_Platform_SDK/output/mx6dq/sdk_unit_test/smart_device_rev_c/libsdk_unit_test.a(camera_test.o)
 .debug_info    0x0002ddc5      0xc1b /home/leon/git/swp-report/iMX6_Platform_SDK/output/mx6dq/sdk_unit_test/smart_device_rev_c/libsdk_unit_test.a(csi_test_mode.o)
 .debug_info    0x0002e9e0      0xdc2 /home/leon/git/swp-report/iMX6_Platform_SDK/output/mx6dq/sdk_unit_test/smart_device_rev_c/libsdk_unit_test.a(sensor_capture.o)
 .debug_info    0x0002f7a2      0xa2b /home/leon/git/swp-report/iMX6_Platform_SDK/output/mx6dq/sdk_unit_test/smart_device_rev_c/libsdk_unit_test.a(keypad_test.o)
 .debug_info    0x000301cd      0xc02 /home/leon/git/swp-report/iMX6_Platform_SDK/output/mx6dq/sdk_unit_test/smart_device_rev_c/libsdk_unit_test.a(pcie_test_rc.o)
 .debug_info    0x00030dcf      0x1bc /home/leon/git/swp-report/iMX6_Platform_SDK/output/mx6dq/sdk_unit_test/smart_device_rev_c/libsdk_unit_test.a(usb_test.o)
 .debug_info    0x00030f8b     0x1d60 /home/leon/git/swp-report/iMX6_Platform_SDK/output/mx6dq/sdk_unit_test/smart_device_rev_c/libsdk_unit_test.a(enet_test.o)
 .debug_info    0x00032ceb      0xbcf /home/leon/git/swp-report/iMX6_Platform_SDK/output/mx6dq/sdk_unit_test/smart_device_rev_c/libsdk_unit_test.a(spi_test.o)
 .debug_info    0x000338ba      0xaec /home/leon/git/swp-report/iMX6_Platform_SDK/output/mx6dq/sdk_unit_test/smart_device_rev_c/libsdk_unit_test.a(accelerometer_test.o)
 .debug_info    0x000343a6      0xb9f /home/leon/git/swp-report/iMX6_Platform_SDK/output/mx6dq/sdk_unit_test/smart_device_rev_c/libsdk_unit_test.a(sata_test.o)
 .debug_info    0x00034f45      0x2ee /home/leon/git/swp-report/iMX6_Platform_SDK/output/mx6dq/sdk_unit_test/smart_device_rev_c/libsdk_unit_test.a(at24cxx.o)
 .debug_info    0x00035233      0x3ee /home/leon/git/swp-report/iMX6_Platform_SDK/output/mx6dq/sdk_unit_test/smart_device_rev_c/libsdk_unit_test.a(mem_2_mem.o)
 .debug_info    0x00035621      0x243 /home/leon/git/swp-report/iMX6_Platform_SDK/output/mx6dq/sdk_unit_test/smart_device_rev_c/libsdk_unit_test.a(pwm_output.o)
 .debug_info    0x00035864      0xc2b /home/leon/git/swp-report/iMX6_Platform_SDK/output/mx6dq/sdk_unit_test/smart_device_rev_c/libsdk_unit_test.a(ips_combiner.o)
 .debug_info    0x0003648f      0xe67 /home/leon/git/swp-report/iMX6_Platform_SDK/output/mx6dq/sdk_unit_test/smart_device_rev_c/libsdk_unit_test.a(ips_csc.o)
 .debug_info    0x000372f6      0xf5b /home/leon/git/swp-report/iMX6_Platform_SDK/output/mx6dq/sdk_unit_test/smart_device_rev_c/libsdk_unit_test.a(ips_resize.o)
 .debug_info    0x00038251      0xe27 /home/leon/git/swp-report/iMX6_Platform_SDK/output/mx6dq/sdk_unit_test/smart_device_rev_c/libsdk_unit_test.a(ips_rotate.o)
 .debug_info    0x00039078     0x2a82 /home/leon/git/swp-report/iMX6_Platform_SDK/output/mx6dq/sdk_unit_test/smart_device_rev_c/libsdk_unit_test.a(usb0_device_mouse_test.o)
 .debug_info    0x0003bafa     0x19b5 /home/leon/git/swp-report/iMX6_Platform_SDK/output/mx6dq/sdk_unit_test/smart_device_rev_c/libsdk_unit_test.a(usb0_host_test.o)
 .debug_info    0x0003d4af      0x987 /home/leon/git/swp-report/iMX6_Platform_SDK/output/mx6dq/sdk_unit_test/smart_device_rev_c/libsdk_unit_test.a(usb0_host_testmodes_test.o)
 .debug_info    0x0003de36      0x359 /home/leon/git/swp-report/iMX6_Platform_SDK/output/mx6dq/sdk_unit_test/smart_device_rev_c/libsdk_unit_test.a(spi_nor_numonyx.o)
 .debug_info    0x0003e18f       0x6c /home/leon/git/swp-report/iMX6_Platform_SDK/output/mx6dq/lib/libsdk.a(profile.o)
 .debug_info    0x0003e1fb      0x4cd /home/leon/git/swp-report/iMX6_Platform_SDK/output/mx6dq/lib/libsdk.a(armv7_cache.o)
 .debug_info    0x0003e6c8      0x804 /home/leon/git/swp-report/iMX6_Platform_SDK/output/mx6dq/lib/libsdk.a(runtime_support.o)
 .debug_info    0x0003eecc      0x470 /home/leon/git/swp-report/iMX6_Platform_SDK/output/mx6dq/lib/libsdk.a(mma8451.o)
 .debug_info    0x0003f33c      0x857 /home/leon/git/swp-report/iMX6_Platform_SDK/output/mx6dq/lib/libsdk.a(smd_sensor.o)
 .debug_info    0x0003fb93      0x141 /home/leon/git/swp-report/iMX6_Platform_SDK/output/mx6dq/lib/libsdk.a(cpu_get_cores.o)
 .debug_info    0x0003fcd4      0x58c /home/leon/git/swp-report/iMX6_Platform_SDK/output/mx6dq/lib/libsdk.a(cpu_multicore.o)
 .debug_info    0x00040260      0x43e /home/leon/git/swp-report/iMX6_Platform_SDK/output/mx6dq/lib/libsdk.a(cpu_workpoint.o)
 .debug_info    0x0004069e     0x21ec /home/leon/git/swp-report/iMX6_Platform_SDK/output/mx6dq/lib/libsdk.a(enet_drv.o)
 .debug_info    0x0004288a      0x871 /home/leon/git/swp-report/iMX6_Platform_SDK/output/mx6dq/lib/libsdk.a(gpio.o)
 .debug_info    0x000430fb       0x9f /home/leon/git/swp-report/iMX6_Platform_SDK/output/mx6dq/lib/libsdk.a(imx6dq_gpio_map.o)
 .debug_info    0x0004319a     0x1f32 /home/leon/git/swp-report/iMX6_Platform_SDK/output/mx6dq/lib/libsdk.a(hdmi_tx.o)
 .debug_info    0x000450cc      0xf27 /home/leon/git/swp-report/iMX6_Platform_SDK/output/mx6dq/lib/libsdk.a(hdmi_tx_audio.o)
 .debug_info    0x00045ff3      0xcb3 /home/leon/git/swp-report/iMX6_Platform_SDK/output/mx6dq/lib/libsdk.a(hdmi_tx_phy.o)
 .debug_info    0x00046ca6      0xe21 /home/leon/git/swp-report/iMX6_Platform_SDK/output/mx6dq/lib/libsdk.a(imx_i2c.o)
 .debug_info    0x00047ac7      0x5ab /home/leon/git/swp-report/iMX6_Platform_SDK/output/mx6dq/lib/libsdk.a(imx_i2c_slave.o)
 .debug_info    0x00048072      0x698 /home/leon/git/swp-report/iMX6_Platform_SDK/output/mx6dq/lib/libsdk.a(ips_disp_panel.o)
 .debug_info    0x0004870a      0xba2 /home/leon/git/swp-report/iMX6_Platform_SDK/output/mx6dq/lib/libsdk.a(ipu_common.o)
 .debug_info    0x000492ac      0x33a /home/leon/git/swp-report/iMX6_Platform_SDK/output/mx6dq/lib/libsdk.a(ipu_csi.o)
 .debug_info    0x000495e6      0x51a /home/leon/git/swp-report/iMX6_Platform_SDK/output/mx6dq/lib/libsdk.a(ipu_dc.o)
 .debug_info    0x00049b00      0x74d /home/leon/git/swp-report/iMX6_Platform_SDK/output/mx6dq/lib/libsdk.a(ipu_di.o)
 .debug_info    0x0004a24d      0x1c6 /home/leon/git/swp-report/iMX6_Platform_SDK/output/mx6dq/lib/libsdk.a(ipu_dmfc.o)
 .debug_info    0x0004a413      0x22b /home/leon/git/swp-report/iMX6_Platform_SDK/output/mx6dq/lib/libsdk.a(ipu_dp.o)
 .debug_info    0x0004a63e      0x7df /home/leon/git/swp-report/iMX6_Platform_SDK/output/mx6dq/lib/libsdk.a(ipu_ic.o)
 .debug_info    0x0004ae1d     0x15fd /home/leon/git/swp-report/iMX6_Platform_SDK/output/mx6dq/lib/libsdk.a(ipu_idmac.o)
 .debug_info    0x0004c41a      0x7bd /home/leon/git/swp-report/iMX6_Platform_SDK/output/mx6dq/lib/libsdk.a(ipu_vdi.o)
 .debug_info    0x0004cbd7      0x92c /home/leon/git/swp-report/iMX6_Platform_SDK/output/mx6dq/lib/libsdk.a(keypad_port.o)
 .debug_info    0x0004d503      0x45c /home/leon/git/swp-report/iMX6_Platform_SDK/output/mx6dq/lib/libsdk.a(ldb.o)
 .debug_info    0x0004d95f      0x4c9 /home/leon/git/swp-report/iMX6_Platform_SDK/output/mx6dq/lib/libsdk.a(ocotp.o)
 .debug_info    0x0004de28      0xaf9 /home/leon/git/swp-report/iMX6_Platform_SDK/output/mx6dq/lib/libsdk.a(pcie.o)
 .debug_info    0x0004e921      0x262 /home/leon/git/swp-report/iMX6_Platform_SDK/output/mx6dq/lib/libsdk.a(pcie_phy.o)
 .debug_info    0x0004eb83      0x6d0 /home/leon/git/swp-report/iMX6_Platform_SDK/output/mx6dq/lib/libsdk.a(pcie_prot.o)
 .debug_info    0x0004f253     0x3664 /home/leon/git/swp-report/iMX6_Platform_SDK/output/mx6dq/lib/libsdk.a(pmu_driver.o)
 .debug_info    0x000528b7      0xb20 /home/leon/git/swp-report/iMX6_Platform_SDK/output/mx6dq/lib/libsdk.a(pwm.o)
 .debug_info    0x000533d7      0x7d6 /home/leon/git/swp-report/iMX6_Platform_SDK/output/mx6dq/lib/libsdk.a(rtc.o)
 .debug_info    0x00053bad      0x778 /home/leon/git/swp-report/iMX6_Platform_SDK/output/mx6dq/lib/libsdk.a(srtc.o)
 .debug_info    0x00054325     0x2bdf /home/leon/git/swp-report/iMX6_Platform_SDK/output/mx6dq/lib/libsdk.a(sata.o)
 .debug_info    0x00056f04     0x126a /home/leon/git/swp-report/iMX6_Platform_SDK/output/mx6dq/lib/libsdk.a(sdma.o)
 .debug_info    0x0005816e      0x1de /home/leon/git/swp-report/iMX6_Platform_SDK/output/mx6dq/lib/libsdk.a(sdma_script_info.o)
 .debug_info    0x0005834c      0x6c6 /home/leon/git/swp-report/iMX6_Platform_SDK/output/mx6dq/lib/libsdk.a(snvs.o)
 .debug_info    0x00058a12      0x70d /home/leon/git/swp-report/iMX6_Platform_SDK/output/mx6dq/lib/libsdk.a(ecspi.o)
 .debug_info    0x0005911f      0x86a /home/leon/git/swp-report/iMX6_Platform_SDK/output/mx6dq/lib/libsdk.a(tempmon.o)
 .debug_info    0x00059989      0xc85 /home/leon/git/swp-report/iMX6_Platform_SDK/output/mx6dq/lib/libsdk.a(gpt.o)
 .debug_info    0x0005a60e     0x130c /home/leon/git/swp-report/iMX6_Platform_SDK/output/mx6dq/lib/libsdk.a(usb_common.o)
 .debug_info    0x0005b91a     0x23a1 /home/leon/git/swp-report/iMX6_Platform_SDK/output/mx6dq/lib/libsdk.a(usbd_drv.o)
 .debug_info    0x0005dcbb     0x1d3c /home/leon/git/swp-report/iMX6_Platform_SDK/output/mx6dq/lib/libsdk.a(usbh_drv.o)
 .debug_info    0x0005f9f7      0xf19 /home/leon/git/swp-report/iMX6_Platform_SDK/output/mx6dq/lib/libsdk.a(usdhc.o)
 .debug_info    0x00060910     0x1b51 /home/leon/git/swp-report/iMX6_Platform_SDK/output/mx6dq/lib/libsdk.a(usdhc_host.o)
 .debug_info    0x00062461      0x9c7 /home/leon/git/swp-report/iMX6_Platform_SDK/output/mx6dq/lib/libsdk.a(usdhc_mmc.o)
 .debug_info    0x00062e28      0x680 /home/leon/git/swp-report/iMX6_Platform_SDK/output/mx6dq/lib/libsdk.a(usdhc_sd.o)
 .debug_info    0x000634a8      0x138 /home/leon/git/swp-report/iMX6_Platform_SDK/output/mx6dq/lib/libsdk.a(spinlock.o)
 .debug_info    0x000635e0      0x476 /home/leon/git/swp-report/iMX6_Platform_SDK/output/mx6dq/lib/libsdk.a(camera_profile.o)
 .debug_info    0x00063a56      0x34b /home/leon/git/swp-report/iMX6_Platform_SDK/output/mx6dq/lib/libsdk.a(hdmi_common.o)
 .debug_info    0x00063da1      0x5e4 /home/leon/git/swp-report/iMX6_Platform_SDK/output/mx6dq/lib/libsdk.a(mx6x_usb.o)
 .debug_info    0x00064385      0x41f /home/leon/git/swp-report/iMX6_Platform_SDK/output/mx6dq/lib/libboard_smart_device_rev_c.a(board_audio.o)
 .debug_info    0x000647a4     0x19ef /home/leon/git/swp-report/iMX6_Platform_SDK/output/mx6dq/lib/libboard_smart_device_rev_c.a(board_camera.o)
 .debug_info    0x00066193      0x714 /home/leon/git/swp-report/iMX6_Platform_SDK/output/mx6dq/lib/libboard_smart_device_rev_c.a(board_display.o)
 .debug_info    0x000668a7      0xc38 /home/leon/git/swp-report/iMX6_Platform_SDK/output/mx6dq/lib/libboard_smart_device_rev_c.a(board_hdmi.o)
 .debug_info    0x000674df      0x1d2 /home/leon/git/swp-report/iMX6_Platform_SDK/output/mx6dq/lib/libboard_smart_device_rev_c.a(board_i2c.o)
 .debug_info    0x000676b1      0xa0f /home/leon/git/swp-report/iMX6_Platform_SDK/output/mx6dq/lib/libboard_smart_device_rev_c.a(board_mipi.o)
 .debug_info    0x000680c0      0x127 /home/leon/git/swp-report/iMX6_Platform_SDK/output/mx6dq/lib/libboard_smart_device_rev_c.a(board_network.o)
 .debug_info    0x000681e7      0x509 /home/leon/git/swp-report/iMX6_Platform_SDK/output/mx6dq/lib/libboard_smart_device_rev_c.a(board_pcie.o)
 .debug_info    0x000686f0      0x3e1 /home/leon/git/swp-report/iMX6_Platform_SDK/output/mx6dq/lib/libboard_smart_device_rev_c.a(board_sata.o)
 .debug_info    0x00068ad1      0x1cc /home/leon/git/swp-report/iMX6_Platform_SDK/output/mx6dq/lib/libboard_smart_device_rev_c.a(board_usb.o)
 .debug_info    0x00068c9d      0x160 /home/leon/git/swp-report/iMX6_Platform_SDK/output/mx6dq/lib/libboard_smart_device_rev_c.a(board_usdhc.o)
 .debug_info    0x00068dfd       0xcf /home/leon/git/swp-report/iMX6_Platform_SDK/output/mx6dq/lib/libboard_smart_device_rev_c.a(ecspi_iomux_config.o)
 .debug_info    0x00068ecc       0xcf /home/leon/git/swp-report/iMX6_Platform_SDK/output/mx6dq/lib/libboard_smart_device_rev_c.a(i2c_iomux_config.o)
 .debug_info    0x00068f9b       0xcf /home/leon/git/swp-report/iMX6_Platform_SDK/output/mx6dq/lib/libboard_smart_device_rev_c.a(pwm_iomux_config.o)
 .debug_info    0x0006906a       0xcf /home/leon/git/swp-report/iMX6_Platform_SDK/output/mx6dq/lib/libboard_smart_device_rev_c.a(usdhc_iomux_config.o)
 .debug_info    0x00069139      0x2ed /home/leon/git/swp-report/iMX6_Platform_SDK/output/mx6dq/lib/libsdk.a(max7310.o)

.debug_abbrev   0x00000000     0xde7d
 .debug_abbrev  0x00000000       0xe6 /home/leon/git/swp-report/iMX6_Platform_SDK/output/mx6dq/sdk_unit_test/smart_device_rev_c/obj/apps/common/ivt.o
 .debug_abbrev  0x000000e6       0x89 /home/leon/git/swp-report/iMX6_Platform_SDK/output/mx6dq/sdk_unit_test/smart_device_rev_c/obj/apps/common/platform_init.o
 .debug_abbrev  0x0000016f       0xa1 /home/leon/git/swp-report/iMX6_Platform_SDK/output/mx6dq/sdk_unit_test/smart_device_rev_c/obj/apps/common/print_clock_info.o
 .debug_abbrev  0x00000210       0xcf /home/leon/git/swp-report/iMX6_Platform_SDK/output/mx6dq/sdk_unit_test/smart_device_rev_c/obj/apps/common/print_version.o
 .debug_abbrev  0x000002df      0x121 /home/leon/git/swp-report/iMX6_Platform_SDK/output/mx6dq/sdk_unit_test/smart_device_rev_c/obj/apps/sdk_unit_test/src/all_test.o
 .debug_abbrev  0x00000400       0x44 /home/leon/git/swp-report/iMX6_Platform_SDK/output/mx6dq/sdk_unit_test/smart_device_rev_c/obj/apps/sdk_unit_test/src/unit_test_main.o
 .debug_abbrev  0x00000444      0x1b1 /home/leon/git/swp-report/iMX6_Platform_SDK/output/mx6dq/lib/libsdk.a(ccm_pll.o)
 .debug_abbrev  0x000005f5      0x179 /home/leon/git/swp-report/iMX6_Platform_SDK/output/mx6dq/lib/libsdk.a(gic.o)
 .debug_abbrev  0x0000076e      0x172 /home/leon/git/swp-report/iMX6_Platform_SDK/output/mx6dq/lib/libsdk.a(mmu.o)
 .debug_abbrev  0x000008e0      0x2b3 /home/leon/git/swp-report/iMX6_Platform_SDK/output/mx6dq/lib/libsdk.a(menu.o)
 .debug_abbrev  0x00000b93       0x43 /home/leon/git/swp-report/iMX6_Platform_SDK/output/mx6dq/lib/libsdk.a(sdk_version.o)
 .debug_abbrev  0x00000bd6      0x276 /home/leon/git/swp-report/iMX6_Platform_SDK/output/mx6dq/lib/libsdk.a(system_util.o)
 .debug_abbrev  0x00000e4c       0xd0 /home/leon/git/swp-report/iMX6_Platform_SDK/output/mx6dq/lib/libsdk.a(text_color.o)
 .debug_abbrev  0x00000f1c      0x13a /home/leon/git/swp-report/iMX6_Platform_SDK/output/mx6dq/lib/libsdk.a(board_id.o)
 .debug_abbrev  0x00001056      0x122 /home/leon/git/swp-report/iMX6_Platform_SDK/output/mx6dq/lib/libsdk.a(timer.o)
 .debug_abbrev  0x00001178      0x1e3 /home/leon/git/swp-report/iMX6_Platform_SDK/output/mx6dq/lib/libsdk.a(imx_uart.o)
 .debug_abbrev  0x0000135b      0x11a /home/leon/git/swp-report/iMX6_Platform_SDK/output/mx6dq/lib/libsdk.a(interrupt.o)
 .debug_abbrev  0x00001475      0x194 /home/leon/git/swp-report/iMX6_Platform_SDK/output/mx6dq/lib/libsdk.a(epit.o)
 .debug_abbrev  0x00001609       0xc8 /home/leon/git/swp-report/iMX6_Platform_SDK/output/mx6dq/lib/libsdk.a(abort_handler.o)
 .debug_abbrev  0x000016d1       0xb0 /home/leon/git/swp-report/iMX6_Platform_SDK/output/mx6dq/lib/libboard_smart_device_rev_c.a(board_io_expanders.o)
 .debug_abbrev  0x00001781       0x44 /home/leon/git/swp-report/iMX6_Platform_SDK/output/mx6dq/lib/libboard_smart_device_rev_c.a(hardware_modules.o)
 .debug_abbrev  0x000017c5       0x75 /home/leon/git/swp-report/iMX6_Platform_SDK/output/mx6dq/lib/libboard_smart_device_rev_c.a(dcd.o)
 .debug_abbrev  0x0000183a       0x79 /home/leon/git/swp-report/iMX6_Platform_SDK/output/mx6dq/lib/libboard_smart_device_rev_c.a(uart_iomux_config.o)
 .debug_abbrev  0x000018b3       0x4d /home/leon/git/swp-report/iMX6_Platform_SDK/output/mx6dq/lib/libboard_smart_device_rev_c.a(iomux_config.o)
 .debug_abbrev  0x00001900       0xa4 /home/leon/git/swp-report/iMX6_Platform_SDK/output/mx6dq/lib/libboard_smart_device_rev_c.a(ipu1_iomux_config.o)
 .debug_abbrev  0x000019a4      0x106 /home/leon/git/swp-report/iMX6_Platform_SDK/output/mx6dq/lib/libboard_smart_device_rev_c.a(mmdc_iomux_config.o)
 .debug_abbrev  0x00001aaa       0xf1 /home/leon/git/swp-report/iMX6_Platform_SDK/output/mx6dq/lib/libboard_smart_device_rev_c.a(pwm1_iomux_config.o)
 .debug_abbrev  0x00001b9b       0xa4 /home/leon/git/swp-report/iMX6_Platform_SDK/output/mx6dq/lib/libboard_smart_device_rev_c.a(sjc_iomux_config.o)
 .debug_abbrev  0x00001c3f       0xf1 /home/leon/git/swp-report/iMX6_Platform_SDK/output/mx6dq/lib/libboard_smart_device_rev_c.a(uart1_iomux_config.o)
 .debug_abbrev  0x00001d30       0xf1 /home/leon/git/swp-report/iMX6_Platform_SDK/output/mx6dq/lib/libboard_smart_device_rev_c.a(usb_iomux_config.o)
 .debug_abbrev  0x00001e21      0x106 /home/leon/git/swp-report/iMX6_Platform_SDK/output/mx6dq/lib/libboard_smart_device_rev_c.a(usdhc2_iomux_config.o)
 .debug_abbrev  0x00001f27       0xf1 /home/leon/git/swp-report/iMX6_Platform_SDK/output/mx6dq/lib/libboard_smart_device_rev_c.a(usdhc3_iomux_config.o)
 .debug_abbrev  0x00002018       0xf1 /home/leon/git/swp-report/iMX6_Platform_SDK/output/mx6dq/lib/libboard_smart_device_rev_c.a(usdhc4_iomux_config.o)
 .debug_abbrev  0x00002109       0xf1 /home/leon/git/swp-report/iMX6_Platform_SDK/output/mx6dq/lib/libboard_smart_device_rev_c.a(audmux_iomux_config.o)
 .debug_abbrev  0x000021fa       0xf1 /home/leon/git/swp-report/iMX6_Platform_SDK/output/mx6dq/lib/libboard_smart_device_rev_c.a(ccm_iomux_config.o)
 .debug_abbrev  0x000022eb       0xf1 /home/leon/git/swp-report/iMX6_Platform_SDK/output/mx6dq/lib/libboard_smart_device_rev_c.a(ecspi1_iomux_config.o)
 .debug_abbrev  0x000023dc      0x106 /home/leon/git/swp-report/iMX6_Platform_SDK/output/mx6dq/lib/libboard_smart_device_rev_c.a(enet_iomux_config.o)
 .debug_abbrev  0x000024e2       0xf1 /home/leon/git/swp-report/iMX6_Platform_SDK/output/mx6dq/lib/libboard_smart_device_rev_c.a(flexcan1_iomux_config.o)
 .debug_abbrev  0x000025d3      0x106 /home/leon/git/swp-report/iMX6_Platform_SDK/output/mx6dq/lib/libboard_smart_device_rev_c.a(gpio1_iomux_config.o)
 .debug_abbrev  0x000026d9      0x106 /home/leon/git/swp-report/iMX6_Platform_SDK/output/mx6dq/lib/libboard_smart_device_rev_c.a(gpio2_iomux_config.o)
 .debug_abbrev  0x000027df       0xa4 /home/leon/git/swp-report/iMX6_Platform_SDK/output/mx6dq/lib/libboard_smart_device_rev_c.a(gpio3_iomux_config.o)
 .debug_abbrev  0x00002883       0xf1 /home/leon/git/swp-report/iMX6_Platform_SDK/output/mx6dq/lib/libboard_smart_device_rev_c.a(gpio4_iomux_config.o)
 .debug_abbrev  0x00002974      0x106 /home/leon/git/swp-report/iMX6_Platform_SDK/output/mx6dq/lib/libboard_smart_device_rev_c.a(gpio5_iomux_config.o)
 .debug_abbrev  0x00002a7a      0x106 /home/leon/git/swp-report/iMX6_Platform_SDK/output/mx6dq/lib/libboard_smart_device_rev_c.a(gpio6_iomux_config.o)
 .debug_abbrev  0x00002b80       0xf1 /home/leon/git/swp-report/iMX6_Platform_SDK/output/mx6dq/lib/libboard_smart_device_rev_c.a(gpio7_iomux_config.o)
 .debug_abbrev  0x00002c71       0xf1 /home/leon/git/swp-report/iMX6_Platform_SDK/output/mx6dq/lib/libboard_smart_device_rev_c.a(gps_iomux_config.o)
 .debug_abbrev  0x00002d62       0xf1 /home/leon/git/swp-report/iMX6_Platform_SDK/output/mx6dq/lib/libboard_smart_device_rev_c.a(i2c1_iomux_config.o)
 .debug_abbrev  0x00002e53       0xf1 /home/leon/git/swp-report/iMX6_Platform_SDK/output/mx6dq/lib/libboard_smart_device_rev_c.a(i2c2_iomux_config.o)
 .debug_abbrev  0x00002f44       0xf1 /home/leon/git/swp-report/iMX6_Platform_SDK/output/mx6dq/lib/libboard_smart_device_rev_c.a(i2c3_iomux_config.o)
 .debug_abbrev  0x00003035      0x1e0 /home/leon/git/swp-report/iMX6_Platform_SDK/output/mx6dq/sdk_unit_test/smart_device_rev_c/libsdk_unit_test.a(audio_test.o)
 .debug_abbrev  0x00003215       0x78 /home/leon/git/swp-report/iMX6_Platform_SDK/output/mx6dq/sdk_unit_test/smart_device_rev_c/libsdk_unit_test.a(gic_test.o)
 .debug_abbrev  0x0000328d       0xf1 /home/leon/git/swp-report/iMX6_Platform_SDK/output/mx6dq/sdk_unit_test/smart_device_rev_c/libsdk_unit_test.a(cpu_wp_test.o)
 .debug_abbrev  0x0000337e       0xb7 /home/leon/git/swp-report/iMX6_Platform_SDK/output/mx6dq/sdk_unit_test/smart_device_rev_c/libsdk_unit_test.a(multicore_test.o)
 .debug_abbrev  0x00003435      0x191 /home/leon/git/swp-report/iMX6_Platform_SDK/output/mx6dq/sdk_unit_test/smart_device_rev_c/libsdk_unit_test.a(ocotp_test.o)
 .debug_abbrev  0x000035c6      0x1d4 /home/leon/git/swp-report/iMX6_Platform_SDK/output/mx6dq/sdk_unit_test/smart_device_rev_c/libsdk_unit_test.a(snvs_rtc_test.o)
 .debug_abbrev  0x0000379a      0x1d4 /home/leon/git/swp-report/iMX6_Platform_SDK/output/mx6dq/sdk_unit_test/smart_device_rev_c/libsdk_unit_test.a(snvs_srtc_test.o)
 .debug_abbrev  0x0000396e      0x182 /home/leon/git/swp-report/iMX6_Platform_SDK/output/mx6dq/sdk_unit_test/smart_device_rev_c/libsdk_unit_test.a(i2c_test.o)
 .debug_abbrev  0x00003af0      0x1d4 /home/leon/git/swp-report/iMX6_Platform_SDK/output/mx6dq/sdk_unit_test/smart_device_rev_c/libsdk_unit_test.a(imx6_i2c_device.o)
 .debug_abbrev  0x00003cc4      0x1a7 /home/leon/git/swp-report/iMX6_Platform_SDK/output/mx6dq/sdk_unit_test/smart_device_rev_c/libsdk_unit_test.a(tempmon_test.o)
 .debug_abbrev  0x00003e6b      0x19a /home/leon/git/swp-report/iMX6_Platform_SDK/output/mx6dq/sdk_unit_test/smart_device_rev_c/libsdk_unit_test.a(sdma_test.o)
 .debug_abbrev  0x00004005      0x102 /home/leon/git/swp-report/iMX6_Platform_SDK/output/mx6dq/sdk_unit_test/smart_device_rev_c/libsdk_unit_test.a(spi_lpb.o)
 .debug_abbrev  0x00004107      0x196 /home/leon/git/swp-report/iMX6_Platform_SDK/output/mx6dq/sdk_unit_test/smart_device_rev_c/libsdk_unit_test.a(uart_loopback.o)
 .debug_abbrev  0x0000429d      0x1db /home/leon/git/swp-report/iMX6_Platform_SDK/output/mx6dq/sdk_unit_test/smart_device_rev_c/libsdk_unit_test.a(uart_test.o)
 .debug_abbrev  0x00004478      0x1de /home/leon/git/swp-report/iMX6_Platform_SDK/output/mx6dq/sdk_unit_test/smart_device_rev_c/libsdk_unit_test.a(epit_test.o)
 .debug_abbrev  0x00004656      0x275 /home/leon/git/swp-report/iMX6_Platform_SDK/output/mx6dq/sdk_unit_test/smart_device_rev_c/libsdk_unit_test.a(gpt_test.o)
 .debug_abbrev  0x000048cb       0x5e /home/leon/git/swp-report/iMX6_Platform_SDK/output/mx6dq/sdk_unit_test/smart_device_rev_c/libsdk_unit_test.a(timer_test.o)
 .debug_abbrev  0x00004929      0x243 /home/leon/git/swp-report/iMX6_Platform_SDK/output/mx6dq/sdk_unit_test/smart_device_rev_c/libsdk_unit_test.a(usdhc_test.o)
 .debug_abbrev  0x00004b6c      0x1b2 /home/leon/git/swp-report/iMX6_Platform_SDK/output/mx6dq/sdk_unit_test/smart_device_rev_c/libsdk_unit_test.a(pwm_test.o)
 .debug_abbrev  0x00004d1e      0x1b0 /home/leon/git/swp-report/iMX6_Platform_SDK/output/mx6dq/sdk_unit_test/smart_device_rev_c/libsdk_unit_test.a(watchdog_test.o)
 .debug_abbrev  0x00004ece      0x15c /home/leon/git/swp-report/iMX6_Platform_SDK/output/mx6dq/sdk_unit_test/smart_device_rev_c/libsdk_unit_test.a(hdmi_test.o)
 .debug_abbrev  0x0000502a      0x117 /home/leon/git/swp-report/iMX6_Platform_SDK/output/mx6dq/sdk_unit_test/smart_device_rev_c/libsdk_unit_test.a(init_dma_data.o)
 .debug_abbrev  0x00005141      0x1fe /home/leon/git/swp-report/iMX6_Platform_SDK/output/mx6dq/sdk_unit_test/smart_device_rev_c/libsdk_unit_test.a(ips_display.o)
 .debug_abbrev  0x0000533f      0x19a /home/leon/git/swp-report/iMX6_Platform_SDK/output/mx6dq/sdk_unit_test/smart_device_rev_c/libsdk_unit_test.a(ips_test.o)
 .debug_abbrev  0x000054d9      0x10d /home/leon/git/swp-report/iMX6_Platform_SDK/output/mx6dq/sdk_unit_test/smart_device_rev_c/libsdk_unit_test.a(ipu_image.o)
 .debug_abbrev  0x000055e6      0x1d4 /home/leon/git/swp-report/iMX6_Platform_SDK/output/mx6dq/sdk_unit_test/smart_device_rev_c/libsdk_unit_test.a(camera_test.o)
 .debug_abbrev  0x000057ba      0x1c1 /home/leon/git/swp-report/iMX6_Platform_SDK/output/mx6dq/sdk_unit_test/smart_device_rev_c/libsdk_unit_test.a(csi_test_mode.o)
 .debug_abbrev  0x0000597b      0x1cc /home/leon/git/swp-report/iMX6_Platform_SDK/output/mx6dq/sdk_unit_test/smart_device_rev_c/libsdk_unit_test.a(sensor_capture.o)
 .debug_abbrev  0x00005b47      0x18f /home/leon/git/swp-report/iMX6_Platform_SDK/output/mx6dq/sdk_unit_test/smart_device_rev_c/libsdk_unit_test.a(keypad_test.o)
 .debug_abbrev  0x00005cd6      0x1d0 /home/leon/git/swp-report/iMX6_Platform_SDK/output/mx6dq/sdk_unit_test/smart_device_rev_c/libsdk_unit_test.a(pcie_test_rc.o)
 .debug_abbrev  0x00005ea6       0xc1 /home/leon/git/swp-report/iMX6_Platform_SDK/output/mx6dq/sdk_unit_test/smart_device_rev_c/libsdk_unit_test.a(usb_test.o)
 .debug_abbrev  0x00005f67      0x216 /home/leon/git/swp-report/iMX6_Platform_SDK/output/mx6dq/sdk_unit_test/smart_device_rev_c/libsdk_unit_test.a(enet_test.o)
 .debug_abbrev  0x0000617d      0x1f0 /home/leon/git/swp-report/iMX6_Platform_SDK/output/mx6dq/sdk_unit_test/smart_device_rev_c/libsdk_unit_test.a(spi_test.o)
 .debug_abbrev  0x0000636d      0x1bf /home/leon/git/swp-report/iMX6_Platform_SDK/output/mx6dq/sdk_unit_test/smart_device_rev_c/libsdk_unit_test.a(accelerometer_test.o)
 .debug_abbrev  0x0000652c      0x227 /home/leon/git/swp-report/iMX6_Platform_SDK/output/mx6dq/sdk_unit_test/smart_device_rev_c/libsdk_unit_test.a(sata_test.o)
 .debug_abbrev  0x00006753      0x124 /home/leon/git/swp-report/iMX6_Platform_SDK/output/mx6dq/sdk_unit_test/smart_device_rev_c/libsdk_unit_test.a(at24cxx.o)
 .debug_abbrev  0x00006877       0xe5 /home/leon/git/swp-report/iMX6_Platform_SDK/output/mx6dq/sdk_unit_test/smart_device_rev_c/libsdk_unit_test.a(mem_2_mem.o)
 .debug_abbrev  0x0000695c      0x10b /home/leon/git/swp-report/iMX6_Platform_SDK/output/mx6dq/sdk_unit_test/smart_device_rev_c/libsdk_unit_test.a(pwm_output.o)
 .debug_abbrev  0x00006a67      0x1bd /home/leon/git/swp-report/iMX6_Platform_SDK/output/mx6dq/sdk_unit_test/smart_device_rev_c/libsdk_unit_test.a(ips_combiner.o)
 .debug_abbrev  0x00006c24      0x1d5 /home/leon/git/swp-report/iMX6_Platform_SDK/output/mx6dq/sdk_unit_test/smart_device_rev_c/libsdk_unit_test.a(ips_csc.o)
 .debug_abbrev  0x00006df9      0x1ce /home/leon/git/swp-report/iMX6_Platform_SDK/output/mx6dq/sdk_unit_test/smart_device_rev_c/libsdk_unit_test.a(ips_resize.o)
 .debug_abbrev  0x00006fc7      0x1ce /home/leon/git/swp-report/iMX6_Platform_SDK/output/mx6dq/sdk_unit_test/smart_device_rev_c/libsdk_unit_test.a(ips_rotate.o)
 .debug_abbrev  0x00007195      0x26c /home/leon/git/swp-report/iMX6_Platform_SDK/output/mx6dq/sdk_unit_test/smart_device_rev_c/libsdk_unit_test.a(usb0_device_mouse_test.o)
 .debug_abbrev  0x00007401      0x1b7 /home/leon/git/swp-report/iMX6_Platform_SDK/output/mx6dq/sdk_unit_test/smart_device_rev_c/libsdk_unit_test.a(usb0_host_test.o)
 .debug_abbrev  0x000075b8      0x129 /home/leon/git/swp-report/iMX6_Platform_SDK/output/mx6dq/sdk_unit_test/smart_device_rev_c/libsdk_unit_test.a(usb0_host_testmodes_test.o)
 .debug_abbrev  0x000076e1      0x15b /home/leon/git/swp-report/iMX6_Platform_SDK/output/mx6dq/sdk_unit_test/smart_device_rev_c/libsdk_unit_test.a(spi_nor_numonyx.o)
 .debug_abbrev  0x0000783c       0x60 /home/leon/git/swp-report/iMX6_Platform_SDK/output/mx6dq/lib/libsdk.a(profile.o)
 .debug_abbrev  0x0000789c      0x133 /home/leon/git/swp-report/iMX6_Platform_SDK/output/mx6dq/lib/libsdk.a(armv7_cache.o)
 .debug_abbrev  0x000079cf      0x1e2 /home/leon/git/swp-report/iMX6_Platform_SDK/output/mx6dq/lib/libsdk.a(runtime_support.o)
 .debug_abbrev  0x00007bb1       0xf9 /home/leon/git/swp-report/iMX6_Platform_SDK/output/mx6dq/lib/libsdk.a(mma8451.o)
 .debug_abbrev  0x00007caa      0x19d /home/leon/git/swp-report/iMX6_Platform_SDK/output/mx6dq/lib/libsdk.a(smd_sensor.o)
 .debug_abbrev  0x00007e47       0xc5 /home/leon/git/swp-report/iMX6_Platform_SDK/output/mx6dq/lib/libsdk.a(cpu_get_cores.o)
 .debug_abbrev  0x00007f0c      0x187 /home/leon/git/swp-report/iMX6_Platform_SDK/output/mx6dq/lib/libsdk.a(cpu_multicore.o)
 .debug_abbrev  0x00008093      0x15c /home/leon/git/swp-report/iMX6_Platform_SDK/output/mx6dq/lib/libsdk.a(cpu_workpoint.o)
 .debug_abbrev  0x000081ef      0x2d8 /home/leon/git/swp-report/iMX6_Platform_SDK/output/mx6dq/lib/libsdk.a(enet_drv.o)
 .debug_abbrev  0x000084c7      0x228 /home/leon/git/swp-report/iMX6_Platform_SDK/output/mx6dq/lib/libsdk.a(gpio.o)
 .debug_abbrev  0x000086ef       0x5b /home/leon/git/swp-report/iMX6_Platform_SDK/output/mx6dq/lib/libsdk.a(imx6dq_gpio_map.o)
 .debug_abbrev  0x0000874a      0x1af /home/leon/git/swp-report/iMX6_Platform_SDK/output/mx6dq/lib/libsdk.a(hdmi_tx.o)
 .debug_abbrev  0x000088f9      0x1c1 /home/leon/git/swp-report/iMX6_Platform_SDK/output/mx6dq/lib/libsdk.a(hdmi_tx_audio.o)
 .debug_abbrev  0x00008aba      0x180 /home/leon/git/swp-report/iMX6_Platform_SDK/output/mx6dq/lib/libsdk.a(hdmi_tx_phy.o)
 .debug_abbrev  0x00008c3a      0x2c9 /home/leon/git/swp-report/iMX6_Platform_SDK/output/mx6dq/lib/libsdk.a(imx_i2c.o)
 .debug_abbrev  0x00008f03      0x199 /home/leon/git/swp-report/iMX6_Platform_SDK/output/mx6dq/lib/libsdk.a(imx_i2c_slave.o)
 .debug_abbrev  0x0000909c      0x1ac /home/leon/git/swp-report/iMX6_Platform_SDK/output/mx6dq/lib/libsdk.a(ips_disp_panel.o)
 .debug_abbrev  0x00009248      0x212 /home/leon/git/swp-report/iMX6_Platform_SDK/output/mx6dq/lib/libsdk.a(ipu_common.o)
 .debug_abbrev  0x0000945a       0xf9 /home/leon/git/swp-report/iMX6_Platform_SDK/output/mx6dq/lib/libsdk.a(ipu_csi.o)
 .debug_abbrev  0x00009553      0x164 /home/leon/git/swp-report/iMX6_Platform_SDK/output/mx6dq/lib/libsdk.a(ipu_dc.o)
 .debug_abbrev  0x000096b7      0x1ac /home/leon/git/swp-report/iMX6_Platform_SDK/output/mx6dq/lib/libsdk.a(ipu_di.o)
 .debug_abbrev  0x00009863       0x8e /home/leon/git/swp-report/iMX6_Platform_SDK/output/mx6dq/lib/libsdk.a(ipu_dmfc.o)
 .debug_abbrev  0x000098f1       0xc7 /home/leon/git/swp-report/iMX6_Platform_SDK/output/mx6dq/lib/libsdk.a(ipu_dp.o)
 .debug_abbrev  0x000099b8      0x171 /home/leon/git/swp-report/iMX6_Platform_SDK/output/mx6dq/lib/libsdk.a(ipu_ic.o)
 .debug_abbrev  0x00009b29      0x20c /home/leon/git/swp-report/iMX6_Platform_SDK/output/mx6dq/lib/libsdk.a(ipu_idmac.o)
 .debug_abbrev  0x00009d35      0x161 /home/leon/git/swp-report/iMX6_Platform_SDK/output/mx6dq/lib/libsdk.a(ipu_vdi.o)
 .debug_abbrev  0x00009e96      0x1ca /home/leon/git/swp-report/iMX6_Platform_SDK/output/mx6dq/lib/libsdk.a(keypad_port.o)
 .debug_abbrev  0x0000a060      0x144 /home/leon/git/swp-report/iMX6_Platform_SDK/output/mx6dq/lib/libsdk.a(ldb.o)
 .debug_abbrev  0x0000a1a4      0x1ae /home/leon/git/swp-report/iMX6_Platform_SDK/output/mx6dq/lib/libsdk.a(ocotp.o)
 .debug_abbrev  0x0000a352      0x215 /home/leon/git/swp-report/iMX6_Platform_SDK/output/mx6dq/lib/libsdk.a(pcie.o)
 .debug_abbrev  0x0000a567      0x124 /home/leon/git/swp-report/iMX6_Platform_SDK/output/mx6dq/lib/libsdk.a(pcie_phy.o)
 .debug_abbrev  0x0000a68b      0x142 /home/leon/git/swp-report/iMX6_Platform_SDK/output/mx6dq/lib/libsdk.a(pcie_prot.o)
 .debug_abbrev  0x0000a7cd      0x52d /home/leon/git/swp-report/iMX6_Platform_SDK/output/mx6dq/lib/libsdk.a(pmu_driver.o)
 .debug_abbrev  0x0000acfa      0x1f8 /home/leon/git/swp-report/iMX6_Platform_SDK/output/mx6dq/lib/libsdk.a(pwm.o)
 .debug_abbrev  0x0000aef2      0x162 /home/leon/git/swp-report/iMX6_Platform_SDK/output/mx6dq/lib/libsdk.a(rtc.o)
 .debug_abbrev  0x0000b054      0x162 /home/leon/git/swp-report/iMX6_Platform_SDK/output/mx6dq/lib/libsdk.a(srtc.o)
 .debug_abbrev  0x0000b1b6      0x39f /home/leon/git/swp-report/iMX6_Platform_SDK/output/mx6dq/lib/libsdk.a(sata.o)
 .debug_abbrev  0x0000b555      0x2f2 /home/leon/git/swp-report/iMX6_Platform_SDK/output/mx6dq/lib/libsdk.a(sdma.o)
 .debug_abbrev  0x0000b847       0xbd /home/leon/git/swp-report/iMX6_Platform_SDK/output/mx6dq/lib/libsdk.a(sdma_script_info.o)
 .debug_abbrev  0x0000b904       0xf4 /home/leon/git/swp-report/iMX6_Platform_SDK/output/mx6dq/lib/libsdk.a(snvs.o)
 .debug_abbrev  0x0000b9f8      0x1f9 /home/leon/git/swp-report/iMX6_Platform_SDK/output/mx6dq/lib/libsdk.a(ecspi.o)
 .debug_abbrev  0x0000bbf1      0x1c9 /home/leon/git/swp-report/iMX6_Platform_SDK/output/mx6dq/lib/libsdk.a(tempmon.o)
 .debug_abbrev  0x0000bdba      0x1f1 /home/leon/git/swp-report/iMX6_Platform_SDK/output/mx6dq/lib/libsdk.a(gpt.o)
 .debug_abbrev  0x0000bfab      0x223 /home/leon/git/swp-report/iMX6_Platform_SDK/output/mx6dq/lib/libsdk.a(usb_common.o)
 .debug_abbrev  0x0000c1ce      0x21a /home/leon/git/swp-report/iMX6_Platform_SDK/output/mx6dq/lib/libsdk.a(usbd_drv.o)
 .debug_abbrev  0x0000c3e8      0x1c8 /home/leon/git/swp-report/iMX6_Platform_SDK/output/mx6dq/lib/libsdk.a(usbh_drv.o)
 .debug_abbrev  0x0000c5b0      0x20c /home/leon/git/swp-report/iMX6_Platform_SDK/output/mx6dq/lib/libsdk.a(usdhc.o)
 .debug_abbrev  0x0000c7bc      0x296 /home/leon/git/swp-report/iMX6_Platform_SDK/output/mx6dq/lib/libsdk.a(usdhc_host.o)
 .debug_abbrev  0x0000ca52      0x1ac /home/leon/git/swp-report/iMX6_Platform_SDK/output/mx6dq/lib/libsdk.a(usdhc_mmc.o)
 .debug_abbrev  0x0000cbfe      0x143 /home/leon/git/swp-report/iMX6_Platform_SDK/output/mx6dq/lib/libsdk.a(usdhc_sd.o)
 .debug_abbrev  0x0000cd41       0xc9 /home/leon/git/swp-report/iMX6_Platform_SDK/output/mx6dq/lib/libsdk.a(spinlock.o)
 .debug_abbrev  0x0000ce0a       0xab /home/leon/git/swp-report/iMX6_Platform_SDK/output/mx6dq/lib/libsdk.a(camera_profile.o)
 .debug_abbrev  0x0000ceb5       0xb9 /home/leon/git/swp-report/iMX6_Platform_SDK/output/mx6dq/lib/libsdk.a(hdmi_common.o)
 .debug_abbrev  0x0000cf6e      0x155 /home/leon/git/swp-report/iMX6_Platform_SDK/output/mx6dq/lib/libsdk.a(mx6x_usb.o)
 .debug_abbrev  0x0000d0c3      0x109 /home/leon/git/swp-report/iMX6_Platform_SDK/output/mx6dq/lib/libboard_smart_device_rev_c.a(board_audio.o)
 .debug_abbrev  0x0000d1cc      0x175 /home/leon/git/swp-report/iMX6_Platform_SDK/output/mx6dq/lib/libboard_smart_device_rev_c.a(board_camera.o)
 .debug_abbrev  0x0000d341      0x13a /home/leon/git/swp-report/iMX6_Platform_SDK/output/mx6dq/lib/libboard_smart_device_rev_c.a(board_display.o)
 .debug_abbrev  0x0000d47b      0x152 /home/leon/git/swp-report/iMX6_Platform_SDK/output/mx6dq/lib/libboard_smart_device_rev_c.a(board_hdmi.o)
 .debug_abbrev  0x0000d5cd       0x69 /home/leon/git/swp-report/iMX6_Platform_SDK/output/mx6dq/lib/libboard_smart_device_rev_c.a(board_i2c.o)
 .debug_abbrev  0x0000d636      0x141 /home/leon/git/swp-report/iMX6_Platform_SDK/output/mx6dq/lib/libboard_smart_device_rev_c.a(board_mipi.o)
 .debug_abbrev  0x0000d777       0x86 /home/leon/git/swp-report/iMX6_Platform_SDK/output/mx6dq/lib/libboard_smart_device_rev_c.a(board_network.o)
 .debug_abbrev  0x0000d7fd      0x119 /home/leon/git/swp-report/iMX6_Platform_SDK/output/mx6dq/lib/libboard_smart_device_rev_c.a(board_pcie.o)
 .debug_abbrev  0x0000d916      0x102 /home/leon/git/swp-report/iMX6_Platform_SDK/output/mx6dq/lib/libboard_smart_device_rev_c.a(board_sata.o)
 .debug_abbrev  0x0000da18       0xcd /home/leon/git/swp-report/iMX6_Platform_SDK/output/mx6dq/lib/libboard_smart_device_rev_c.a(board_usb.o)
 .debug_abbrev  0x0000dae5       0xbb /home/leon/git/swp-report/iMX6_Platform_SDK/output/mx6dq/lib/libboard_smart_device_rev_c.a(board_usdhc.o)
 .debug_abbrev  0x0000dba0       0x79 /home/leon/git/swp-report/iMX6_Platform_SDK/output/mx6dq/lib/libboard_smart_device_rev_c.a(ecspi_iomux_config.o)
 .debug_abbrev  0x0000dc19       0x79 /home/leon/git/swp-report/iMX6_Platform_SDK/output/mx6dq/lib/libboard_smart_device_rev_c.a(i2c_iomux_config.o)
 .debug_abbrev  0x0000dc92       0x79 /home/leon/git/swp-report/iMX6_Platform_SDK/output/mx6dq/lib/libboard_smart_device_rev_c.a(pwm_iomux_config.o)
 .debug_abbrev  0x0000dd0b       0x79 /home/leon/git/swp-report/iMX6_Platform_SDK/output/mx6dq/lib/libboard_smart_device_rev_c.a(usdhc_iomux_config.o)
 .debug_abbrev  0x0000dd84       0xf9 /home/leon/git/swp-report/iMX6_Platform_SDK/output/mx6dq/lib/libsdk.a(max7310.o)

.debug_aranges  0x00000000     0x1590
 .debug_aranges
                0x00000000       0x18 /home/leon/git/swp-report/iMX6_Platform_SDK/output/mx6dq/sdk_unit_test/smart_device_rev_c/obj/apps/common/ivt.o
 .debug_aranges
                0x00000018       0x20 /home/leon/git/swp-report/iMX6_Platform_SDK/output/mx6dq/sdk_unit_test/smart_device_rev_c/obj/apps/common/platform_init.o
 .debug_aranges
                0x00000038       0x20 /home/leon/git/swp-report/iMX6_Platform_SDK/output/mx6dq/sdk_unit_test/smart_device_rev_c/obj/apps/common/print_clock_info.o
 .debug_aranges
                0x00000058       0x20 /home/leon/git/swp-report/iMX6_Platform_SDK/output/mx6dq/sdk_unit_test/smart_device_rev_c/obj/apps/common/print_version.o
 .debug_aranges
                0x00000078       0x20 /home/leon/git/swp-report/iMX6_Platform_SDK/output/mx6dq/sdk_unit_test/smart_device_rev_c/obj/apps/sdk_unit_test/src/all_test.o
 .debug_aranges
                0x00000098       0x20 /home/leon/git/swp-report/iMX6_Platform_SDK/output/mx6dq/sdk_unit_test/smart_device_rev_c/obj/apps/sdk_unit_test/src/unit_test_main.o
 .debug_aranges
                0x000000b8       0x20 /home/leon/git/swp-report/iMX6_Platform_SDK/output/mx6dq/lib/libsdk.a(ccm_pll.o)
 .debug_aranges
                0x000000d8       0x20 /home/leon/git/swp-report/iMX6_Platform_SDK/output/mx6dq/lib/libsdk.a(gic.o)
 .debug_aranges
                0x000000f8       0x20 /home/leon/git/swp-report/iMX6_Platform_SDK/output/mx6dq/lib/libsdk.a(mmu.o)
 .debug_aranges
                0x00000118       0x20 /home/leon/git/swp-report/iMX6_Platform_SDK/output/mx6dq/lib/libsdk.a(menu.o)
 .debug_aranges
                0x00000138       0x18 /home/leon/git/swp-report/iMX6_Platform_SDK/output/mx6dq/lib/libsdk.a(sdk_version.o)
 .debug_aranges
                0x00000150       0x20 /home/leon/git/swp-report/iMX6_Platform_SDK/output/mx6dq/lib/libsdk.a(system_util.o)
 .debug_aranges
                0x00000170       0x20 /home/leon/git/swp-report/iMX6_Platform_SDK/output/mx6dq/lib/libsdk.a(text_color.o)
 .debug_aranges
                0x00000190       0x20 /home/leon/git/swp-report/iMX6_Platform_SDK/output/mx6dq/lib/libsdk.a(board_id.o)
 .debug_aranges
                0x000001b0       0x20 /home/leon/git/swp-report/iMX6_Platform_SDK/output/mx6dq/lib/libsdk.a(timer.o)
 .debug_aranges
                0x000001d0       0x20 /home/leon/git/swp-report/iMX6_Platform_SDK/output/mx6dq/lib/libsdk.a(imx_uart.o)
 .debug_aranges
                0x000001f0       0x20 /home/leon/git/swp-report/iMX6_Platform_SDK/output/mx6dq/lib/libsdk.a(interrupt.o)
 .debug_aranges
                0x00000210       0x20 /home/leon/git/swp-report/iMX6_Platform_SDK/output/mx6dq/lib/libsdk.a(epit.o)
 .debug_aranges
                0x00000230       0x20 /home/leon/git/swp-report/iMX6_Platform_SDK/output/mx6dq/lib/libsdk.a(abort_handler.o)
 .debug_aranges
                0x00000250       0x20 /home/leon/git/swp-report/iMX6_Platform_SDK/output/mx6dq/lib/libboard_smart_device_rev_c.a(board_io_expanders.o)
 .debug_aranges
                0x00000270       0x18 /home/leon/git/swp-report/iMX6_Platform_SDK/output/mx6dq/lib/libboard_smart_device_rev_c.a(hardware_modules.o)
 .debug_aranges
                0x00000288       0x18 /home/leon/git/swp-report/iMX6_Platform_SDK/output/mx6dq/lib/libboard_smart_device_rev_c.a(dcd.o)
 .debug_aranges
                0x000002a0       0x20 /home/leon/git/swp-report/iMX6_Platform_SDK/output/mx6dq/lib/libboard_smart_device_rev_c.a(uart_iomux_config.o)
 .debug_aranges
                0x000002c0       0x20 /home/leon/git/swp-report/iMX6_Platform_SDK/output/mx6dq/lib/libboard_smart_device_rev_c.a(iomux_config.o)
 .debug_aranges
                0x000002e0       0x20 /home/leon/git/swp-report/iMX6_Platform_SDK/output/mx6dq/lib/libboard_smart_device_rev_c.a(ipu1_iomux_config.o)
 .debug_aranges
                0x00000300       0x20 /home/leon/git/swp-report/iMX6_Platform_SDK/output/mx6dq/lib/libboard_smart_device_rev_c.a(mmdc_iomux_config.o)
 .debug_aranges
                0x00000320       0x20 /home/leon/git/swp-report/iMX6_Platform_SDK/output/mx6dq/lib/libboard_smart_device_rev_c.a(pwm1_iomux_config.o)
 .debug_aranges
                0x00000340       0x20 /home/leon/git/swp-report/iMX6_Platform_SDK/output/mx6dq/lib/libboard_smart_device_rev_c.a(sjc_iomux_config.o)
 .debug_aranges
                0x00000360       0x20 /home/leon/git/swp-report/iMX6_Platform_SDK/output/mx6dq/lib/libboard_smart_device_rev_c.a(uart1_iomux_config.o)
 .debug_aranges
                0x00000380       0x20 /home/leon/git/swp-report/iMX6_Platform_SDK/output/mx6dq/lib/libboard_smart_device_rev_c.a(usb_iomux_config.o)
 .debug_aranges
                0x000003a0       0x20 /home/leon/git/swp-report/iMX6_Platform_SDK/output/mx6dq/lib/libboard_smart_device_rev_c.a(usdhc2_iomux_config.o)
 .debug_aranges
                0x000003c0       0x20 /home/leon/git/swp-report/iMX6_Platform_SDK/output/mx6dq/lib/libboard_smart_device_rev_c.a(usdhc3_iomux_config.o)
 .debug_aranges
                0x000003e0       0x20 /home/leon/git/swp-report/iMX6_Platform_SDK/output/mx6dq/lib/libboard_smart_device_rev_c.a(usdhc4_iomux_config.o)
 .debug_aranges
                0x00000400       0x20 /home/leon/git/swp-report/iMX6_Platform_SDK/output/mx6dq/lib/libboard_smart_device_rev_c.a(audmux_iomux_config.o)
 .debug_aranges
                0x00000420       0x20 /home/leon/git/swp-report/iMX6_Platform_SDK/output/mx6dq/lib/libboard_smart_device_rev_c.a(ccm_iomux_config.o)
 .debug_aranges
                0x00000440       0x20 /home/leon/git/swp-report/iMX6_Platform_SDK/output/mx6dq/lib/libboard_smart_device_rev_c.a(ecspi1_iomux_config.o)
 .debug_aranges
                0x00000460       0x20 /home/leon/git/swp-report/iMX6_Platform_SDK/output/mx6dq/lib/libboard_smart_device_rev_c.a(enet_iomux_config.o)
 .debug_aranges
                0x00000480       0x20 /home/leon/git/swp-report/iMX6_Platform_SDK/output/mx6dq/lib/libboard_smart_device_rev_c.a(flexcan1_iomux_config.o)
 .debug_aranges
                0x000004a0       0x20 /home/leon/git/swp-report/iMX6_Platform_SDK/output/mx6dq/lib/libboard_smart_device_rev_c.a(gpio1_iomux_config.o)
 .debug_aranges
                0x000004c0       0x20 /home/leon/git/swp-report/iMX6_Platform_SDK/output/mx6dq/lib/libboard_smart_device_rev_c.a(gpio2_iomux_config.o)
 .debug_aranges
                0x000004e0       0x20 /home/leon/git/swp-report/iMX6_Platform_SDK/output/mx6dq/lib/libboard_smart_device_rev_c.a(gpio3_iomux_config.o)
 .debug_aranges
                0x00000500       0x20 /home/leon/git/swp-report/iMX6_Platform_SDK/output/mx6dq/lib/libboard_smart_device_rev_c.a(gpio4_iomux_config.o)
 .debug_aranges
                0x00000520       0x20 /home/leon/git/swp-report/iMX6_Platform_SDK/output/mx6dq/lib/libboard_smart_device_rev_c.a(gpio5_iomux_config.o)
 .debug_aranges
                0x00000540       0x20 /home/leon/git/swp-report/iMX6_Platform_SDK/output/mx6dq/lib/libboard_smart_device_rev_c.a(gpio6_iomux_config.o)
 .debug_aranges
                0x00000560       0x20 /home/leon/git/swp-report/iMX6_Platform_SDK/output/mx6dq/lib/libboard_smart_device_rev_c.a(gpio7_iomux_config.o)
 .debug_aranges
                0x00000580       0x20 /home/leon/git/swp-report/iMX6_Platform_SDK/output/mx6dq/lib/libboard_smart_device_rev_c.a(gps_iomux_config.o)
 .debug_aranges
                0x000005a0       0x20 /home/leon/git/swp-report/iMX6_Platform_SDK/output/mx6dq/lib/libboard_smart_device_rev_c.a(i2c1_iomux_config.o)
 .debug_aranges
                0x000005c0       0x20 /home/leon/git/swp-report/iMX6_Platform_SDK/output/mx6dq/lib/libboard_smart_device_rev_c.a(i2c2_iomux_config.o)
 .debug_aranges
                0x000005e0       0x20 /home/leon/git/swp-report/iMX6_Platform_SDK/output/mx6dq/lib/libboard_smart_device_rev_c.a(i2c3_iomux_config.o)
 .debug_aranges
                0x00000600       0x20 /home/leon/git/swp-report/iMX6_Platform_SDK/output/mx6dq/sdk_unit_test/smart_device_rev_c/libsdk_unit_test.a(audio_test.o)
 .debug_aranges
                0x00000620       0x20 /home/leon/git/swp-report/iMX6_Platform_SDK/output/mx6dq/sdk_unit_test/smart_device_rev_c/libsdk_unit_test.a(gic_test.o)
 .debug_aranges
                0x00000640       0x20 /home/leon/git/swp-report/iMX6_Platform_SDK/output/mx6dq/sdk_unit_test/smart_device_rev_c/libsdk_unit_test.a(cpu_wp_test.o)
 .debug_aranges
                0x00000660       0x20 /home/leon/git/swp-report/iMX6_Platform_SDK/output/mx6dq/sdk_unit_test/smart_device_rev_c/libsdk_unit_test.a(multicore_test.o)
 .debug_aranges
                0x00000680       0x20 /home/leon/git/swp-report/iMX6_Platform_SDK/output/mx6dq/sdk_unit_test/smart_device_rev_c/libsdk_unit_test.a(ocotp_test.o)
 .debug_aranges
                0x000006a0       0x20 /home/leon/git/swp-report/iMX6_Platform_SDK/output/mx6dq/sdk_unit_test/smart_device_rev_c/libsdk_unit_test.a(snvs_rtc_test.o)
 .debug_aranges
                0x000006c0       0x20 /home/leon/git/swp-report/iMX6_Platform_SDK/output/mx6dq/sdk_unit_test/smart_device_rev_c/libsdk_unit_test.a(snvs_srtc_test.o)
 .debug_aranges
                0x000006e0       0x20 /home/leon/git/swp-report/iMX6_Platform_SDK/output/mx6dq/sdk_unit_test/smart_device_rev_c/libsdk_unit_test.a(i2c_test.o)
 .debug_aranges
                0x00000700       0x20 /home/leon/git/swp-report/iMX6_Platform_SDK/output/mx6dq/sdk_unit_test/smart_device_rev_c/libsdk_unit_test.a(imx6_i2c_device.o)
 .debug_aranges
                0x00000720       0x20 /home/leon/git/swp-report/iMX6_Platform_SDK/output/mx6dq/sdk_unit_test/smart_device_rev_c/libsdk_unit_test.a(tempmon_test.o)
 .debug_aranges
                0x00000740       0x20 /home/leon/git/swp-report/iMX6_Platform_SDK/output/mx6dq/sdk_unit_test/smart_device_rev_c/libsdk_unit_test.a(sdma_test.o)
 .debug_aranges
                0x00000760       0x20 /home/leon/git/swp-report/iMX6_Platform_SDK/output/mx6dq/sdk_unit_test/smart_device_rev_c/libsdk_unit_test.a(spi_lpb.o)
 .debug_aranges
                0x00000780       0x20 /home/leon/git/swp-report/iMX6_Platform_SDK/output/mx6dq/sdk_unit_test/smart_device_rev_c/libsdk_unit_test.a(uart_loopback.o)
 .debug_aranges
                0x000007a0       0x20 /home/leon/git/swp-report/iMX6_Platform_SDK/output/mx6dq/sdk_unit_test/smart_device_rev_c/libsdk_unit_test.a(uart_test.o)
 .debug_aranges
                0x000007c0       0x20 /home/leon/git/swp-report/iMX6_Platform_SDK/output/mx6dq/sdk_unit_test/smart_device_rev_c/libsdk_unit_test.a(epit_test.o)
 .debug_aranges
                0x000007e0       0x20 /home/leon/git/swp-report/iMX6_Platform_SDK/output/mx6dq/sdk_unit_test/smart_device_rev_c/libsdk_unit_test.a(gpt_test.o)
 .debug_aranges
                0x00000800       0x20 /home/leon/git/swp-report/iMX6_Platform_SDK/output/mx6dq/sdk_unit_test/smart_device_rev_c/libsdk_unit_test.a(timer_test.o)
 .debug_aranges
                0x00000820       0x20 /home/leon/git/swp-report/iMX6_Platform_SDK/output/mx6dq/sdk_unit_test/smart_device_rev_c/libsdk_unit_test.a(usdhc_test.o)
 .debug_aranges
                0x00000840       0x20 /home/leon/git/swp-report/iMX6_Platform_SDK/output/mx6dq/sdk_unit_test/smart_device_rev_c/libsdk_unit_test.a(pwm_test.o)
 .debug_aranges
                0x00000860       0x20 /home/leon/git/swp-report/iMX6_Platform_SDK/output/mx6dq/sdk_unit_test/smart_device_rev_c/libsdk_unit_test.a(watchdog_test.o)
 .debug_aranges
                0x00000880       0x20 /home/leon/git/swp-report/iMX6_Platform_SDK/output/mx6dq/sdk_unit_test/smart_device_rev_c/libsdk_unit_test.a(hdmi_test.o)
 .debug_aranges
                0x000008a0       0x20 /home/leon/git/swp-report/iMX6_Platform_SDK/output/mx6dq/sdk_unit_test/smart_device_rev_c/libsdk_unit_test.a(init_dma_data.o)
 .debug_aranges
                0x000008c0       0x20 /home/leon/git/swp-report/iMX6_Platform_SDK/output/mx6dq/sdk_unit_test/smart_device_rev_c/libsdk_unit_test.a(ips_display.o)
 .debug_aranges
                0x000008e0       0x20 /home/leon/git/swp-report/iMX6_Platform_SDK/output/mx6dq/sdk_unit_test/smart_device_rev_c/libsdk_unit_test.a(ips_test.o)
 .debug_aranges
                0x00000900       0x20 /home/leon/git/swp-report/iMX6_Platform_SDK/output/mx6dq/sdk_unit_test/smart_device_rev_c/libsdk_unit_test.a(ipu_image.o)
 .debug_aranges
                0x00000920       0x20 /home/leon/git/swp-report/iMX6_Platform_SDK/output/mx6dq/sdk_unit_test/smart_device_rev_c/libsdk_unit_test.a(camera_test.o)
 .debug_aranges
                0x00000940       0x20 /home/leon/git/swp-report/iMX6_Platform_SDK/output/mx6dq/sdk_unit_test/smart_device_rev_c/libsdk_unit_test.a(csi_test_mode.o)
 .debug_aranges
                0x00000960       0x20 /home/leon/git/swp-report/iMX6_Platform_SDK/output/mx6dq/sdk_unit_test/smart_device_rev_c/libsdk_unit_test.a(sensor_capture.o)
 .debug_aranges
                0x00000980       0x20 /home/leon/git/swp-report/iMX6_Platform_SDK/output/mx6dq/sdk_unit_test/smart_device_rev_c/libsdk_unit_test.a(keypad_test.o)
 .debug_aranges
                0x000009a0       0x20 /home/leon/git/swp-report/iMX6_Platform_SDK/output/mx6dq/sdk_unit_test/smart_device_rev_c/libsdk_unit_test.a(pcie_test_rc.o)
 .debug_aranges
                0x000009c0       0x20 /home/leon/git/swp-report/iMX6_Platform_SDK/output/mx6dq/sdk_unit_test/smart_device_rev_c/libsdk_unit_test.a(usb_test.o)
 .debug_aranges
                0x000009e0       0x20 /home/leon/git/swp-report/iMX6_Platform_SDK/output/mx6dq/sdk_unit_test/smart_device_rev_c/libsdk_unit_test.a(enet_test.o)
 .debug_aranges
                0x00000a00       0x20 /home/leon/git/swp-report/iMX6_Platform_SDK/output/mx6dq/sdk_unit_test/smart_device_rev_c/libsdk_unit_test.a(spi_test.o)
 .debug_aranges
                0x00000a20       0x20 /home/leon/git/swp-report/iMX6_Platform_SDK/output/mx6dq/sdk_unit_test/smart_device_rev_c/libsdk_unit_test.a(accelerometer_test.o)
 .debug_aranges
                0x00000a40       0x20 /home/leon/git/swp-report/iMX6_Platform_SDK/output/mx6dq/sdk_unit_test/smart_device_rev_c/libsdk_unit_test.a(sata_test.o)
 .debug_aranges
                0x00000a60       0x20 /home/leon/git/swp-report/iMX6_Platform_SDK/output/mx6dq/sdk_unit_test/smart_device_rev_c/libsdk_unit_test.a(at24cxx.o)
 .debug_aranges
                0x00000a80       0x20 /home/leon/git/swp-report/iMX6_Platform_SDK/output/mx6dq/sdk_unit_test/smart_device_rev_c/libsdk_unit_test.a(mem_2_mem.o)
 .debug_aranges
                0x00000aa0       0x20 /home/leon/git/swp-report/iMX6_Platform_SDK/output/mx6dq/sdk_unit_test/smart_device_rev_c/libsdk_unit_test.a(pwm_output.o)
 .debug_aranges
                0x00000ac0       0x20 /home/leon/git/swp-report/iMX6_Platform_SDK/output/mx6dq/sdk_unit_test/smart_device_rev_c/libsdk_unit_test.a(ips_combiner.o)
 .debug_aranges
                0x00000ae0       0x20 /home/leon/git/swp-report/iMX6_Platform_SDK/output/mx6dq/sdk_unit_test/smart_device_rev_c/libsdk_unit_test.a(ips_csc.o)
 .debug_aranges
                0x00000b00       0x20 /home/leon/git/swp-report/iMX6_Platform_SDK/output/mx6dq/sdk_unit_test/smart_device_rev_c/libsdk_unit_test.a(ips_resize.o)
 .debug_aranges
                0x00000b20       0x20 /home/leon/git/swp-report/iMX6_Platform_SDK/output/mx6dq/sdk_unit_test/smart_device_rev_c/libsdk_unit_test.a(ips_rotate.o)
 .debug_aranges
                0x00000b40       0x20 /home/leon/git/swp-report/iMX6_Platform_SDK/output/mx6dq/sdk_unit_test/smart_device_rev_c/libsdk_unit_test.a(usb0_device_mouse_test.o)
 .debug_aranges
                0x00000b60       0x20 /home/leon/git/swp-report/iMX6_Platform_SDK/output/mx6dq/sdk_unit_test/smart_device_rev_c/libsdk_unit_test.a(usb0_host_test.o)
 .debug_aranges
                0x00000b80       0x20 /home/leon/git/swp-report/iMX6_Platform_SDK/output/mx6dq/sdk_unit_test/smart_device_rev_c/libsdk_unit_test.a(usb0_host_testmodes_test.o)
 .debug_aranges
                0x00000ba0       0x20 /home/leon/git/swp-report/iMX6_Platform_SDK/output/mx6dq/sdk_unit_test/smart_device_rev_c/libsdk_unit_test.a(spi_nor_numonyx.o)
 .debug_aranges
                0x00000bc0       0x20 /home/leon/git/swp-report/iMX6_Platform_SDK/output/mx6dq/lib/libsdk.a(profile.o)
 .debug_aranges
                0x00000be0       0x20 /home/leon/git/swp-report/iMX6_Platform_SDK/output/mx6dq/lib/libsdk.a(armv7_cache.o)
 .debug_aranges
                0x00000c00       0x20 /home/leon/git/swp-report/iMX6_Platform_SDK/output/mx6dq/lib/libsdk.a(runtime_support.o)
 .debug_aranges
                0x00000c20       0x20 /home/leon/git/swp-report/iMX6_Platform_SDK/output/mx6dq/lib/libsdk.a(mma8451.o)
 .debug_aranges
                0x00000c40       0x20 /home/leon/git/swp-report/iMX6_Platform_SDK/output/mx6dq/lib/libsdk.a(smd_sensor.o)
 .debug_aranges
                0x00000c60       0x20 /home/leon/git/swp-report/iMX6_Platform_SDK/output/mx6dq/lib/libsdk.a(cpu_get_cores.o)
 .debug_aranges
                0x00000c80       0x20 /home/leon/git/swp-report/iMX6_Platform_SDK/output/mx6dq/lib/libsdk.a(cpu_multicore.o)
 .debug_aranges
                0x00000ca0       0x20 /home/leon/git/swp-report/iMX6_Platform_SDK/output/mx6dq/lib/libsdk.a(cpu_workpoint.o)
 .debug_aranges
                0x00000cc0       0x20 /home/leon/git/swp-report/iMX6_Platform_SDK/output/mx6dq/lib/libsdk.a(enet_drv.o)
 .debug_aranges
                0x00000ce0       0x20 /home/leon/git/swp-report/iMX6_Platform_SDK/output/mx6dq/lib/libsdk.a(gpio.o)
 .debug_aranges
                0x00000d00       0x18 /home/leon/git/swp-report/iMX6_Platform_SDK/output/mx6dq/lib/libsdk.a(imx6dq_gpio_map.o)
 .debug_aranges
                0x00000d18       0x20 /home/leon/git/swp-report/iMX6_Platform_SDK/output/mx6dq/lib/libsdk.a(hdmi_tx.o)
 .debug_aranges
                0x00000d38       0x20 /home/leon/git/swp-report/iMX6_Platform_SDK/output/mx6dq/lib/libsdk.a(hdmi_tx_audio.o)
 .debug_aranges
                0x00000d58       0x20 /home/leon/git/swp-report/iMX6_Platform_SDK/output/mx6dq/lib/libsdk.a(hdmi_tx_phy.o)
 .debug_aranges
                0x00000d78       0x20 /home/leon/git/swp-report/iMX6_Platform_SDK/output/mx6dq/lib/libsdk.a(imx_i2c.o)
 .debug_aranges
                0x00000d98       0x20 /home/leon/git/swp-report/iMX6_Platform_SDK/output/mx6dq/lib/libsdk.a(imx_i2c_slave.o)
 .debug_aranges
                0x00000db8       0x20 /home/leon/git/swp-report/iMX6_Platform_SDK/output/mx6dq/lib/libsdk.a(ips_disp_panel.o)
 .debug_aranges
                0x00000dd8       0x20 /home/leon/git/swp-report/iMX6_Platform_SDK/output/mx6dq/lib/libsdk.a(ipu_common.o)
 .debug_aranges
                0x00000df8       0x20 /home/leon/git/swp-report/iMX6_Platform_SDK/output/mx6dq/lib/libsdk.a(ipu_csi.o)
 .debug_aranges
                0x00000e18       0x20 /home/leon/git/swp-report/iMX6_Platform_SDK/output/mx6dq/lib/libsdk.a(ipu_dc.o)
 .debug_aranges
                0x00000e38       0x20 /home/leon/git/swp-report/iMX6_Platform_SDK/output/mx6dq/lib/libsdk.a(ipu_di.o)
 .debug_aranges
                0x00000e58       0x20 /home/leon/git/swp-report/iMX6_Platform_SDK/output/mx6dq/lib/libsdk.a(ipu_dmfc.o)
 .debug_aranges
                0x00000e78       0x20 /home/leon/git/swp-report/iMX6_Platform_SDK/output/mx6dq/lib/libsdk.a(ipu_dp.o)
 .debug_aranges
                0x00000e98       0x20 /home/leon/git/swp-report/iMX6_Platform_SDK/output/mx6dq/lib/libsdk.a(ipu_ic.o)
 .debug_aranges
                0x00000eb8       0x20 /home/leon/git/swp-report/iMX6_Platform_SDK/output/mx6dq/lib/libsdk.a(ipu_idmac.o)
 .debug_aranges
                0x00000ed8       0x20 /home/leon/git/swp-report/iMX6_Platform_SDK/output/mx6dq/lib/libsdk.a(ipu_vdi.o)
 .debug_aranges
                0x00000ef8       0x20 /home/leon/git/swp-report/iMX6_Platform_SDK/output/mx6dq/lib/libsdk.a(keypad_port.o)
 .debug_aranges
                0x00000f18       0x20 /home/leon/git/swp-report/iMX6_Platform_SDK/output/mx6dq/lib/libsdk.a(ldb.o)
 .debug_aranges
                0x00000f38       0x20 /home/leon/git/swp-report/iMX6_Platform_SDK/output/mx6dq/lib/libsdk.a(ocotp.o)
 .debug_aranges
                0x00000f58       0x20 /home/leon/git/swp-report/iMX6_Platform_SDK/output/mx6dq/lib/libsdk.a(pcie.o)
 .debug_aranges
                0x00000f78       0x20 /home/leon/git/swp-report/iMX6_Platform_SDK/output/mx6dq/lib/libsdk.a(pcie_phy.o)
 .debug_aranges
                0x00000f98       0x20 /home/leon/git/swp-report/iMX6_Platform_SDK/output/mx6dq/lib/libsdk.a(pcie_prot.o)
 .debug_aranges
                0x00000fb8      0x150 /home/leon/git/swp-report/iMX6_Platform_SDK/output/mx6dq/lib/libsdk.a(pmu_driver.o)
 .debug_aranges
                0x00001108       0x20 /home/leon/git/swp-report/iMX6_Platform_SDK/output/mx6dq/lib/libsdk.a(pwm.o)
 .debug_aranges
                0x00001128       0x20 /home/leon/git/swp-report/iMX6_Platform_SDK/output/mx6dq/lib/libsdk.a(rtc.o)
 .debug_aranges
                0x00001148       0x20 /home/leon/git/swp-report/iMX6_Platform_SDK/output/mx6dq/lib/libsdk.a(srtc.o)
 .debug_aranges
                0x00001168       0x20 /home/leon/git/swp-report/iMX6_Platform_SDK/output/mx6dq/lib/libsdk.a(sata.o)
 .debug_aranges
                0x00001188       0x20 /home/leon/git/swp-report/iMX6_Platform_SDK/output/mx6dq/lib/libsdk.a(sdma.o)
 .debug_aranges
                0x000011a8       0x18 /home/leon/git/swp-report/iMX6_Platform_SDK/output/mx6dq/lib/libsdk.a(sdma_script_info.o)
 .debug_aranges
                0x000011c0       0x20 /home/leon/git/swp-report/iMX6_Platform_SDK/output/mx6dq/lib/libsdk.a(snvs.o)
 .debug_aranges
                0x000011e0       0x20 /home/leon/git/swp-report/iMX6_Platform_SDK/output/mx6dq/lib/libsdk.a(ecspi.o)
 .debug_aranges
                0x00001200       0x20 /home/leon/git/swp-report/iMX6_Platform_SDK/output/mx6dq/lib/libsdk.a(tempmon.o)
 .debug_aranges
                0x00001220       0x20 /home/leon/git/swp-report/iMX6_Platform_SDK/output/mx6dq/lib/libsdk.a(gpt.o)
 .debug_aranges
                0x00001240       0x20 /home/leon/git/swp-report/iMX6_Platform_SDK/output/mx6dq/lib/libsdk.a(usb_common.o)
 .debug_aranges
                0x00001260       0x20 /home/leon/git/swp-report/iMX6_Platform_SDK/output/mx6dq/lib/libsdk.a(usbd_drv.o)
 .debug_aranges
                0x00001280       0x20 /home/leon/git/swp-report/iMX6_Platform_SDK/output/mx6dq/lib/libsdk.a(usbh_drv.o)
 .debug_aranges
                0x000012a0       0x20 /home/leon/git/swp-report/iMX6_Platform_SDK/output/mx6dq/lib/libsdk.a(usdhc.o)
 .debug_aranges
                0x000012c0       0x20 /home/leon/git/swp-report/iMX6_Platform_SDK/output/mx6dq/lib/libsdk.a(usdhc_host.o)
 .debug_aranges
                0x000012e0       0x20 /home/leon/git/swp-report/iMX6_Platform_SDK/output/mx6dq/lib/libsdk.a(usdhc_mmc.o)
 .debug_aranges
                0x00001300       0x20 /home/leon/git/swp-report/iMX6_Platform_SDK/output/mx6dq/lib/libsdk.a(usdhc_sd.o)
 .debug_aranges
                0x00001320       0x20 /home/leon/git/swp-report/iMX6_Platform_SDK/output/mx6dq/lib/libsdk.a(spinlock.o)
 .debug_aranges
                0x00001340       0x18 /home/leon/git/swp-report/iMX6_Platform_SDK/output/mx6dq/lib/libsdk.a(camera_profile.o)
 .debug_aranges
                0x00001358       0x20 /home/leon/git/swp-report/iMX6_Platform_SDK/output/mx6dq/lib/libsdk.a(hdmi_common.o)
 .debug_aranges
                0x00001378       0x20 /home/leon/git/swp-report/iMX6_Platform_SDK/output/mx6dq/lib/libsdk.a(mx6x_usb.o)
 .debug_aranges
                0x00001398       0x20 /home/leon/git/swp-report/iMX6_Platform_SDK/output/mx6dq/lib/libboard_smart_device_rev_c.a(board_audio.o)
 .debug_aranges
                0x000013b8       0x20 /home/leon/git/swp-report/iMX6_Platform_SDK/output/mx6dq/lib/libboard_smart_device_rev_c.a(board_camera.o)
 .debug_aranges
                0x000013d8       0x20 /home/leon/git/swp-report/iMX6_Platform_SDK/output/mx6dq/lib/libboard_smart_device_rev_c.a(board_display.o)
 .debug_aranges
                0x000013f8       0x20 /home/leon/git/swp-report/iMX6_Platform_SDK/output/mx6dq/lib/libboard_smart_device_rev_c.a(board_hdmi.o)
 .debug_aranges
                0x00001418       0x18 /home/leon/git/swp-report/iMX6_Platform_SDK/output/mx6dq/lib/libboard_smart_device_rev_c.a(board_i2c.o)
 .debug_aranges
                0x00001430       0x20 /home/leon/git/swp-report/iMX6_Platform_SDK/output/mx6dq/lib/libboard_smart_device_rev_c.a(board_mipi.o)
 .debug_aranges
                0x00001450       0x20 /home/leon/git/swp-report/iMX6_Platform_SDK/output/mx6dq/lib/libboard_smart_device_rev_c.a(board_network.o)
 .debug_aranges
                0x00001470       0x20 /home/leon/git/swp-report/iMX6_Platform_SDK/output/mx6dq/lib/libboard_smart_device_rev_c.a(board_pcie.o)
 .debug_aranges
                0x00001490       0x20 /home/leon/git/swp-report/iMX6_Platform_SDK/output/mx6dq/lib/libboard_smart_device_rev_c.a(board_sata.o)
 .debug_aranges
                0x000014b0       0x20 /home/leon/git/swp-report/iMX6_Platform_SDK/output/mx6dq/lib/libboard_smart_device_rev_c.a(board_usb.o)
 .debug_aranges
                0x000014d0       0x20 /home/leon/git/swp-report/iMX6_Platform_SDK/output/mx6dq/lib/libboard_smart_device_rev_c.a(board_usdhc.o)
 .debug_aranges
                0x000014f0       0x20 /home/leon/git/swp-report/iMX6_Platform_SDK/output/mx6dq/lib/libboard_smart_device_rev_c.a(ecspi_iomux_config.o)
 .debug_aranges
                0x00001510       0x20 /home/leon/git/swp-report/iMX6_Platform_SDK/output/mx6dq/lib/libboard_smart_device_rev_c.a(i2c_iomux_config.o)
 .debug_aranges
                0x00001530       0x20 /home/leon/git/swp-report/iMX6_Platform_SDK/output/mx6dq/lib/libboard_smart_device_rev_c.a(pwm_iomux_config.o)
 .debug_aranges
                0x00001550       0x20 /home/leon/git/swp-report/iMX6_Platform_SDK/output/mx6dq/lib/libboard_smart_device_rev_c.a(usdhc_iomux_config.o)
 .debug_aranges
                0x00001570       0x20 /home/leon/git/swp-report/iMX6_Platform_SDK/output/mx6dq/lib/libsdk.a(max7310.o)

.debug_line     0x00000000    0x1ba3d
 .debug_line    0x00000000      0x103 /home/leon/git/swp-report/iMX6_Platform_SDK/output/mx6dq/sdk_unit_test/smart_device_rev_c/obj/apps/common/ivt.o
 .debug_line    0x00000103      0x1bc /home/leon/git/swp-report/iMX6_Platform_SDK/output/mx6dq/sdk_unit_test/smart_device_rev_c/obj/apps/common/platform_init.o
 .debug_line    0x000002bf      0x171 /home/leon/git/swp-report/iMX6_Platform_SDK/output/mx6dq/sdk_unit_test/smart_device_rev_c/obj/apps/common/print_clock_info.o
 .debug_line    0x00000430      0x17f /home/leon/git/swp-report/iMX6_Platform_SDK/output/mx6dq/sdk_unit_test/smart_device_rev_c/obj/apps/common/print_version.o
 .debug_line    0x000005af       0xc7 /home/leon/git/swp-report/iMX6_Platform_SDK/output/mx6dq/sdk_unit_test/smart_device_rev_c/obj/apps/sdk_unit_test/src/all_test.o
 .debug_line    0x00000676       0x8a /home/leon/git/swp-report/iMX6_Platform_SDK/output/mx6dq/sdk_unit_test/smart_device_rev_c/obj/apps/sdk_unit_test/src/unit_test_main.o
 .debug_line    0x00000700      0x272 /home/leon/git/swp-report/iMX6_Platform_SDK/output/mx6dq/lib/libsdk.a(ccm_pll.o)
 .debug_line    0x00000972      0x165 /home/leon/git/swp-report/iMX6_Platform_SDK/output/mx6dq/lib/libsdk.a(gic.o)
 .debug_line    0x00000ad7      0x188 /home/leon/git/swp-report/iMX6_Platform_SDK/output/mx6dq/lib/libsdk.a(mmu.o)
 .debug_line    0x00000c5f      0x2e0 /home/leon/git/swp-report/iMX6_Platform_SDK/output/mx6dq/lib/libsdk.a(menu.o)
 .debug_line    0x00000f3f       0x6a /home/leon/git/swp-report/iMX6_Platform_SDK/output/mx6dq/lib/libsdk.a(sdk_version.o)
 .debug_line    0x00000fa9      0x365 /home/leon/git/swp-report/iMX6_Platform_SDK/output/mx6dq/lib/libsdk.a(system_util.o)
 .debug_line    0x0000130e       0xf0 /home/leon/git/swp-report/iMX6_Platform_SDK/output/mx6dq/lib/libsdk.a(text_color.o)
 .debug_line    0x000013fe      0x278 /home/leon/git/swp-report/iMX6_Platform_SDK/output/mx6dq/lib/libsdk.a(board_id.o)
 .debug_line    0x00001676      0x200 /home/leon/git/swp-report/iMX6_Platform_SDK/output/mx6dq/lib/libsdk.a(timer.o)
 .debug_line    0x00001876     0x12ca /home/leon/git/swp-report/iMX6_Platform_SDK/output/mx6dq/lib/libsdk.a(imx_uart.o)
 .debug_line    0x00002b40      0x180 /home/leon/git/swp-report/iMX6_Platform_SDK/output/mx6dq/lib/libsdk.a(interrupt.o)
 .debug_line    0x00002cc0      0x57f /home/leon/git/swp-report/iMX6_Platform_SDK/output/mx6dq/lib/libsdk.a(epit.o)
 .debug_line    0x0000323f      0x24a /home/leon/git/swp-report/iMX6_Platform_SDK/output/mx6dq/lib/libsdk.a(abort_handler.o)
 .debug_line    0x00003489      0x129 /home/leon/git/swp-report/iMX6_Platform_SDK/output/mx6dq/lib/libboard_smart_device_rev_c.a(board_io_expanders.o)
 .debug_line    0x000035b2       0xc8 /home/leon/git/swp-report/iMX6_Platform_SDK/output/mx6dq/lib/libboard_smart_device_rev_c.a(hardware_modules.o)
 .debug_line    0x0000367a      0x110 /home/leon/git/swp-report/iMX6_Platform_SDK/output/mx6dq/lib/libboard_smart_device_rev_c.a(dcd.o)
 .debug_line    0x0000378a       0x9d /home/leon/git/swp-report/iMX6_Platform_SDK/output/mx6dq/lib/libboard_smart_device_rev_c.a(uart_iomux_config.o)
 .debug_line    0x00003827       0xfb /home/leon/git/swp-report/iMX6_Platform_SDK/output/mx6dq/lib/libboard_smart_device_rev_c.a(iomux_config.o)
 .debug_line    0x00003922      0x1a7 /home/leon/git/swp-report/iMX6_Platform_SDK/output/mx6dq/lib/libboard_smart_device_rev_c.a(ipu1_iomux_config.o)
 .debug_line    0x00003ac9      0x689 /home/leon/git/swp-report/iMX6_Platform_SDK/output/mx6dq/lib/libboard_smart_device_rev_c.a(mmdc_iomux_config.o)
 .debug_line    0x00004152       0xff /home/leon/git/swp-report/iMX6_Platform_SDK/output/mx6dq/lib/libboard_smart_device_rev_c.a(pwm1_iomux_config.o)
 .debug_line    0x00004251      0x108 /home/leon/git/swp-report/iMX6_Platform_SDK/output/mx6dq/lib/libboard_smart_device_rev_c.a(sjc_iomux_config.o)
 .debug_line    0x00004359      0x10a /home/leon/git/swp-report/iMX6_Platform_SDK/output/mx6dq/lib/libboard_smart_device_rev_c.a(uart1_iomux_config.o)
 .debug_line    0x00004463      0x108 /home/leon/git/swp-report/iMX6_Platform_SDK/output/mx6dq/lib/libboard_smart_device_rev_c.a(usb_iomux_config.o)
 .debug_line    0x0000456b      0x137 /home/leon/git/swp-report/iMX6_Platform_SDK/output/mx6dq/lib/libboard_smart_device_rev_c.a(usdhc2_iomux_config.o)
 .debug_line    0x000046a2      0x137 /home/leon/git/swp-report/iMX6_Platform_SDK/output/mx6dq/lib/libboard_smart_device_rev_c.a(usdhc3_iomux_config.o)
 .debug_line    0x000047d9      0x137 /home/leon/git/swp-report/iMX6_Platform_SDK/output/mx6dq/lib/libboard_smart_device_rev_c.a(usdhc4_iomux_config.o)
 .debug_line    0x00004910      0x113 /home/leon/git/swp-report/iMX6_Platform_SDK/output/mx6dq/lib/libboard_smart_device_rev_c.a(audmux_iomux_config.o)
 .debug_line    0x00004a23       0xfc /home/leon/git/swp-report/iMX6_Platform_SDK/output/mx6dq/lib/libboard_smart_device_rev_c.a(ccm_iomux_config.o)
 .debug_line    0x00004b1f      0x11d /home/leon/git/swp-report/iMX6_Platform_SDK/output/mx6dq/lib/libboard_smart_device_rev_c.a(ecspi1_iomux_config.o)
 .debug_line    0x00004c3c      0x1b0 /home/leon/git/swp-report/iMX6_Platform_SDK/output/mx6dq/lib/libboard_smart_device_rev_c.a(enet_iomux_config.o)
 .debug_line    0x00004dec      0x10c /home/leon/git/swp-report/iMX6_Platform_SDK/output/mx6dq/lib/libboard_smart_device_rev_c.a(flexcan1_iomux_config.o)
 .debug_line    0x00004ef8      0x14e /home/leon/git/swp-report/iMX6_Platform_SDK/output/mx6dq/lib/libboard_smart_device_rev_c.a(gpio1_iomux_config.o)
 .debug_line    0x00005046      0x136 /home/leon/git/swp-report/iMX6_Platform_SDK/output/mx6dq/lib/libboard_smart_device_rev_c.a(gpio2_iomux_config.o)
 .debug_line    0x0000517c      0x154 /home/leon/git/swp-report/iMX6_Platform_SDK/output/mx6dq/lib/libboard_smart_device_rev_c.a(gpio3_iomux_config.o)
 .debug_line    0x000052d0      0x118 /home/leon/git/swp-report/iMX6_Platform_SDK/output/mx6dq/lib/libboard_smart_device_rev_c.a(gpio4_iomux_config.o)
 .debug_line    0x000053e8      0x10c /home/leon/git/swp-report/iMX6_Platform_SDK/output/mx6dq/lib/libboard_smart_device_rev_c.a(gpio5_iomux_config.o)
 .debug_line    0x000054f4      0x130 /home/leon/git/swp-report/iMX6_Platform_SDK/output/mx6dq/lib/libboard_smart_device_rev_c.a(gpio6_iomux_config.o)
 .debug_line    0x00005624      0x10c /home/leon/git/swp-report/iMX6_Platform_SDK/output/mx6dq/lib/libboard_smart_device_rev_c.a(gpio7_iomux_config.o)
 .debug_line    0x00005730      0x11a /home/leon/git/swp-report/iMX6_Platform_SDK/output/mx6dq/lib/libboard_smart_device_rev_c.a(gps_iomux_config.o)
 .debug_line    0x0000584a      0x109 /home/leon/git/swp-report/iMX6_Platform_SDK/output/mx6dq/lib/libboard_smart_device_rev_c.a(i2c1_iomux_config.o)
 .debug_line    0x00005953      0x109 /home/leon/git/swp-report/iMX6_Platform_SDK/output/mx6dq/lib/libboard_smart_device_rev_c.a(i2c2_iomux_config.o)
 .debug_line    0x00005a5c      0x109 /home/leon/git/swp-report/iMX6_Platform_SDK/output/mx6dq/lib/libboard_smart_device_rev_c.a(i2c3_iomux_config.o)
 .debug_line    0x00005b65      0x1fb /home/leon/git/swp-report/iMX6_Platform_SDK/output/mx6dq/sdk_unit_test/smart_device_rev_c/libsdk_unit_test.a(audio_test.o)
 .debug_line    0x00005d60      0x125 /home/leon/git/swp-report/iMX6_Platform_SDK/output/mx6dq/sdk_unit_test/smart_device_rev_c/libsdk_unit_test.a(gic_test.o)
 .debug_line    0x00005e85      0x1f5 /home/leon/git/swp-report/iMX6_Platform_SDK/output/mx6dq/sdk_unit_test/smart_device_rev_c/libsdk_unit_test.a(cpu_wp_test.o)
 .debug_line    0x0000607a      0x1a4 /home/leon/git/swp-report/iMX6_Platform_SDK/output/mx6dq/sdk_unit_test/smart_device_rev_c/libsdk_unit_test.a(multicore_test.o)
 .debug_line    0x0000621e      0x1dc /home/leon/git/swp-report/iMX6_Platform_SDK/output/mx6dq/sdk_unit_test/smart_device_rev_c/libsdk_unit_test.a(ocotp_test.o)
 .debug_line    0x000063fa      0x1a9 /home/leon/git/swp-report/iMX6_Platform_SDK/output/mx6dq/sdk_unit_test/smart_device_rev_c/libsdk_unit_test.a(snvs_rtc_test.o)
 .debug_line    0x000065a3      0x18b /home/leon/git/swp-report/iMX6_Platform_SDK/output/mx6dq/sdk_unit_test/smart_device_rev_c/libsdk_unit_test.a(snvs_srtc_test.o)
 .debug_line    0x0000672e      0x176 /home/leon/git/swp-report/iMX6_Platform_SDK/output/mx6dq/sdk_unit_test/smart_device_rev_c/libsdk_unit_test.a(i2c_test.o)
 .debug_line    0x000068a4      0x2dd /home/leon/git/swp-report/iMX6_Platform_SDK/output/mx6dq/sdk_unit_test/smart_device_rev_c/libsdk_unit_test.a(imx6_i2c_device.o)
 .debug_line    0x00006b81      0x181 /home/leon/git/swp-report/iMX6_Platform_SDK/output/mx6dq/sdk_unit_test/smart_device_rev_c/libsdk_unit_test.a(tempmon_test.o)
 .debug_line    0x00006d02      0x1a6 /home/leon/git/swp-report/iMX6_Platform_SDK/output/mx6dq/sdk_unit_test/smart_device_rev_c/libsdk_unit_test.a(sdma_test.o)
 .debug_line    0x00006ea8      0x217 /home/leon/git/swp-report/iMX6_Platform_SDK/output/mx6dq/sdk_unit_test/smart_device_rev_c/libsdk_unit_test.a(spi_lpb.o)
 .debug_line    0x000070bf      0x313 /home/leon/git/swp-report/iMX6_Platform_SDK/output/mx6dq/sdk_unit_test/smart_device_rev_c/libsdk_unit_test.a(uart_loopback.o)
 .debug_line    0x000073d2      0x217 /home/leon/git/swp-report/iMX6_Platform_SDK/output/mx6dq/sdk_unit_test/smart_device_rev_c/libsdk_unit_test.a(uart_test.o)
 .debug_line    0x000075e9      0x23f /home/leon/git/swp-report/iMX6_Platform_SDK/output/mx6dq/sdk_unit_test/smart_device_rev_c/libsdk_unit_test.a(epit_test.o)
 .debug_line    0x00007828      0x2d3 /home/leon/git/swp-report/iMX6_Platform_SDK/output/mx6dq/sdk_unit_test/smart_device_rev_c/libsdk_unit_test.a(gpt_test.o)
 .debug_line    0x00007afb       0xe6 /home/leon/git/swp-report/iMX6_Platform_SDK/output/mx6dq/sdk_unit_test/smart_device_rev_c/libsdk_unit_test.a(timer_test.o)
 .debug_line    0x00007be1      0x395 /home/leon/git/swp-report/iMX6_Platform_SDK/output/mx6dq/sdk_unit_test/smart_device_rev_c/libsdk_unit_test.a(usdhc_test.o)
 .debug_line    0x00007f76      0x1db /home/leon/git/swp-report/iMX6_Platform_SDK/output/mx6dq/sdk_unit_test/smart_device_rev_c/libsdk_unit_test.a(pwm_test.o)
 .debug_line    0x00008151      0x1eb /home/leon/git/swp-report/iMX6_Platform_SDK/output/mx6dq/sdk_unit_test/smart_device_rev_c/libsdk_unit_test.a(watchdog_test.o)
 .debug_line    0x0000833c      0x291 /home/leon/git/swp-report/iMX6_Platform_SDK/output/mx6dq/sdk_unit_test/smart_device_rev_c/libsdk_unit_test.a(hdmi_test.o)
 .debug_line    0x000085cd      0x157 /home/leon/git/swp-report/iMX6_Platform_SDK/output/mx6dq/sdk_unit_test/smart_device_rev_c/libsdk_unit_test.a(init_dma_data.o)
 .debug_line    0x00008724      0x4a1 /home/leon/git/swp-report/iMX6_Platform_SDK/output/mx6dq/sdk_unit_test/smart_device_rev_c/libsdk_unit_test.a(ips_display.o)
 .debug_line    0x00008bc5      0x1f4 /home/leon/git/swp-report/iMX6_Platform_SDK/output/mx6dq/sdk_unit_test/smart_device_rev_c/libsdk_unit_test.a(ips_test.o)
 .debug_line    0x00008db9      0x1e5 /home/leon/git/swp-report/iMX6_Platform_SDK/output/mx6dq/sdk_unit_test/smart_device_rev_c/libsdk_unit_test.a(ipu_image.o)
 .debug_line    0x00008f9e      0x1e3 /home/leon/git/swp-report/iMX6_Platform_SDK/output/mx6dq/sdk_unit_test/smart_device_rev_c/libsdk_unit_test.a(camera_test.o)
 .debug_line    0x00009181      0x28d /home/leon/git/swp-report/iMX6_Platform_SDK/output/mx6dq/sdk_unit_test/smart_device_rev_c/libsdk_unit_test.a(csi_test_mode.o)
 .debug_line    0x0000940e      0x28c /home/leon/git/swp-report/iMX6_Platform_SDK/output/mx6dq/sdk_unit_test/smart_device_rev_c/libsdk_unit_test.a(sensor_capture.o)
 .debug_line    0x0000969a      0x1b2 /home/leon/git/swp-report/iMX6_Platform_SDK/output/mx6dq/sdk_unit_test/smart_device_rev_c/libsdk_unit_test.a(keypad_test.o)
 .debug_line    0x0000984c      0x25d /home/leon/git/swp-report/iMX6_Platform_SDK/output/mx6dq/sdk_unit_test/smart_device_rev_c/libsdk_unit_test.a(pcie_test_rc.o)
 .debug_line    0x00009aa9       0xef /home/leon/git/swp-report/iMX6_Platform_SDK/output/mx6dq/sdk_unit_test/smart_device_rev_c/libsdk_unit_test.a(usb_test.o)
 .debug_line    0x00009b98      0x282 /home/leon/git/swp-report/iMX6_Platform_SDK/output/mx6dq/sdk_unit_test/smart_device_rev_c/libsdk_unit_test.a(enet_test.o)
 .debug_line    0x00009e1a      0x243 /home/leon/git/swp-report/iMX6_Platform_SDK/output/mx6dq/sdk_unit_test/smart_device_rev_c/libsdk_unit_test.a(spi_test.o)
 .debug_line    0x0000a05d      0x2c9 /home/leon/git/swp-report/iMX6_Platform_SDK/output/mx6dq/sdk_unit_test/smart_device_rev_c/libsdk_unit_test.a(accelerometer_test.o)
 .debug_line    0x0000a326      0x242 /home/leon/git/swp-report/iMX6_Platform_SDK/output/mx6dq/sdk_unit_test/smart_device_rev_c/libsdk_unit_test.a(sata_test.o)
 .debug_line    0x0000a568      0x1f5 /home/leon/git/swp-report/iMX6_Platform_SDK/output/mx6dq/sdk_unit_test/smart_device_rev_c/libsdk_unit_test.a(at24cxx.o)
 .debug_line    0x0000a75d      0x1c4 /home/leon/git/swp-report/iMX6_Platform_SDK/output/mx6dq/sdk_unit_test/smart_device_rev_c/libsdk_unit_test.a(mem_2_mem.o)
 .debug_line    0x0000a921      0x19d /home/leon/git/swp-report/iMX6_Platform_SDK/output/mx6dq/sdk_unit_test/smart_device_rev_c/libsdk_unit_test.a(pwm_output.o)
 .debug_line    0x0000aabe      0x20f /home/leon/git/swp-report/iMX6_Platform_SDK/output/mx6dq/sdk_unit_test/smart_device_rev_c/libsdk_unit_test.a(ips_combiner.o)
 .debug_line    0x0000accd      0x21e /home/leon/git/swp-report/iMX6_Platform_SDK/output/mx6dq/sdk_unit_test/smart_device_rev_c/libsdk_unit_test.a(ips_csc.o)
 .debug_line    0x0000aeeb      0x249 /home/leon/git/swp-report/iMX6_Platform_SDK/output/mx6dq/sdk_unit_test/smart_device_rev_c/libsdk_unit_test.a(ips_resize.o)
 .debug_line    0x0000b134      0x1fd /home/leon/git/swp-report/iMX6_Platform_SDK/output/mx6dq/sdk_unit_test/smart_device_rev_c/libsdk_unit_test.a(ips_rotate.o)
 .debug_line    0x0000b331      0x618 /home/leon/git/swp-report/iMX6_Platform_SDK/output/mx6dq/sdk_unit_test/smart_device_rev_c/libsdk_unit_test.a(usb0_device_mouse_test.o)
 .debug_line    0x0000b949     0x10df /home/leon/git/swp-report/iMX6_Platform_SDK/output/mx6dq/sdk_unit_test/smart_device_rev_c/libsdk_unit_test.a(usb0_host_test.o)
 .debug_line    0x0000ca28      0x4c8 /home/leon/git/swp-report/iMX6_Platform_SDK/output/mx6dq/sdk_unit_test/smart_device_rev_c/libsdk_unit_test.a(usb0_host_testmodes_test.o)
 .debug_line    0x0000cef0      0x22d /home/leon/git/swp-report/iMX6_Platform_SDK/output/mx6dq/sdk_unit_test/smart_device_rev_c/libsdk_unit_test.a(spi_nor_numonyx.o)
 .debug_line    0x0000d11d       0x86 /home/leon/git/swp-report/iMX6_Platform_SDK/output/mx6dq/lib/libsdk.a(profile.o)
 .debug_line    0x0000d1a3      0x1aa /home/leon/git/swp-report/iMX6_Platform_SDK/output/mx6dq/lib/libsdk.a(armv7_cache.o)
 .debug_line    0x0000d34d      0x234 /home/leon/git/swp-report/iMX6_Platform_SDK/output/mx6dq/lib/libsdk.a(runtime_support.o)
 .debug_line    0x0000d581      0x22f /home/leon/git/swp-report/iMX6_Platform_SDK/output/mx6dq/lib/libsdk.a(mma8451.o)
 .debug_line    0x0000d7b0      0x262 /home/leon/git/swp-report/iMX6_Platform_SDK/output/mx6dq/lib/libsdk.a(smd_sensor.o)
 .debug_line    0x0000da12      0x1a6 /home/leon/git/swp-report/iMX6_Platform_SDK/output/mx6dq/lib/libsdk.a(cpu_get_cores.o)
 .debug_line    0x0000dbb8      0x1dc /home/leon/git/swp-report/iMX6_Platform_SDK/output/mx6dq/lib/libsdk.a(cpu_multicore.o)
 .debug_line    0x0000dd94      0x219 /home/leon/git/swp-report/iMX6_Platform_SDK/output/mx6dq/lib/libsdk.a(cpu_workpoint.o)
 .debug_line    0x0000dfad      0x379 /home/leon/git/swp-report/iMX6_Platform_SDK/output/mx6dq/lib/libsdk.a(enet_drv.o)
 .debug_line    0x0000e326      0x7ba /home/leon/git/swp-report/iMX6_Platform_SDK/output/mx6dq/lib/libsdk.a(gpio.o)
 .debug_line    0x0000eae0       0xcf /home/leon/git/swp-report/iMX6_Platform_SDK/output/mx6dq/lib/libsdk.a(imx6dq_gpio_map.o)
 .debug_line    0x0000ebaf      0x2ca /home/leon/git/swp-report/iMX6_Platform_SDK/output/mx6dq/lib/libsdk.a(hdmi_tx.o)
 .debug_line    0x0000ee79      0x2cb /home/leon/git/swp-report/iMX6_Platform_SDK/output/mx6dq/lib/libsdk.a(hdmi_tx_audio.o)
 .debug_line    0x0000f144      0x2ea /home/leon/git/swp-report/iMX6_Platform_SDK/output/mx6dq/lib/libsdk.a(hdmi_tx_phy.o)
 .debug_line    0x0000f42e      0x892 /home/leon/git/swp-report/iMX6_Platform_SDK/output/mx6dq/lib/libsdk.a(imx_i2c.o)
 .debug_line    0x0000fcc0      0x4d6 /home/leon/git/swp-report/iMX6_Platform_SDK/output/mx6dq/lib/libsdk.a(imx_i2c_slave.o)
 .debug_line    0x00010196      0x22d /home/leon/git/swp-report/iMX6_Platform_SDK/output/mx6dq/lib/libsdk.a(ips_disp_panel.o)
 .debug_line    0x000103c3      0x33d /home/leon/git/swp-report/iMX6_Platform_SDK/output/mx6dq/lib/libsdk.a(ipu_common.o)
 .debug_line    0x00010700      0x1d0 /home/leon/git/swp-report/iMX6_Platform_SDK/output/mx6dq/lib/libsdk.a(ipu_csi.o)
 .debug_line    0x000108d0      0x317 /home/leon/git/swp-report/iMX6_Platform_SDK/output/mx6dq/lib/libsdk.a(ipu_dc.o)
 .debug_line    0x00010be7      0x24d /home/leon/git/swp-report/iMX6_Platform_SDK/output/mx6dq/lib/libsdk.a(ipu_di.o)
 .debug_line    0x00010e34      0x14b /home/leon/git/swp-report/iMX6_Platform_SDK/output/mx6dq/lib/libsdk.a(ipu_dmfc.o)
 .debug_line    0x00010f7f      0x188 /home/leon/git/swp-report/iMX6_Platform_SDK/output/mx6dq/lib/libsdk.a(ipu_dp.o)
 .debug_line    0x00011107      0x309 /home/leon/git/swp-report/iMX6_Platform_SDK/output/mx6dq/lib/libsdk.a(ipu_ic.o)
 .debug_line    0x00011410      0xc78 /home/leon/git/swp-report/iMX6_Platform_SDK/output/mx6dq/lib/libsdk.a(ipu_idmac.o)
 .debug_line    0x00012088      0x18e /home/leon/git/swp-report/iMX6_Platform_SDK/output/mx6dq/lib/libsdk.a(ipu_vdi.o)
 .debug_line    0x00012216      0x28a /home/leon/git/swp-report/iMX6_Platform_SDK/output/mx6dq/lib/libsdk.a(keypad_port.o)
 .debug_line    0x000124a0      0x1de /home/leon/git/swp-report/iMX6_Platform_SDK/output/mx6dq/lib/libsdk.a(ldb.o)
 .debug_line    0x0001267e      0x1ad /home/leon/git/swp-report/iMX6_Platform_SDK/output/mx6dq/lib/libsdk.a(ocotp.o)
 .debug_line    0x0001282b      0x1f5 /home/leon/git/swp-report/iMX6_Platform_SDK/output/mx6dq/lib/libsdk.a(pcie.o)
 .debug_line    0x00012a20      0x182 /home/leon/git/swp-report/iMX6_Platform_SDK/output/mx6dq/lib/libsdk.a(pcie_phy.o)
 .debug_line    0x00012ba2      0x197 /home/leon/git/swp-report/iMX6_Platform_SDK/output/mx6dq/lib/libsdk.a(pcie_prot.o)
 .debug_line    0x00012d39      0x910 /home/leon/git/swp-report/iMX6_Platform_SDK/output/mx6dq/lib/libsdk.a(pmu_driver.o)
 .debug_line    0x00013649      0x5ec /home/leon/git/swp-report/iMX6_Platform_SDK/output/mx6dq/lib/libsdk.a(pwm.o)
 .debug_line    0x00013c35      0x253 /home/leon/git/swp-report/iMX6_Platform_SDK/output/mx6dq/lib/libsdk.a(rtc.o)
 .debug_line    0x00013e88      0x238 /home/leon/git/swp-report/iMX6_Platform_SDK/output/mx6dq/lib/libsdk.a(srtc.o)
 .debug_line    0x000140c0      0x5e3 /home/leon/git/swp-report/iMX6_Platform_SDK/output/mx6dq/lib/libsdk.a(sata.o)
 .debug_line    0x000146a3      0x400 /home/leon/git/swp-report/iMX6_Platform_SDK/output/mx6dq/lib/libsdk.a(sdma.o)
 .debug_line    0x00014aa3      0x149 /home/leon/git/swp-report/iMX6_Platform_SDK/output/mx6dq/lib/libsdk.a(sdma_script_info.o)
 .debug_line    0x00014bec      0x1be /home/leon/git/swp-report/iMX6_Platform_SDK/output/mx6dq/lib/libsdk.a(snvs.o)
 .debug_line    0x00014daa      0x97c /home/leon/git/swp-report/iMX6_Platform_SDK/output/mx6dq/lib/libsdk.a(ecspi.o)
 .debug_line    0x00015726      0x279 /home/leon/git/swp-report/iMX6_Platform_SDK/output/mx6dq/lib/libsdk.a(tempmon.o)
 .debug_line    0x0001599f      0x27f /home/leon/git/swp-report/iMX6_Platform_SDK/output/mx6dq/lib/libsdk.a(gpt.o)
 .debug_line    0x00015c1e      0x2a8 /home/leon/git/swp-report/iMX6_Platform_SDK/output/mx6dq/lib/libsdk.a(usb_common.o)
 .debug_line    0x00015ec6      0xcc4 /home/leon/git/swp-report/iMX6_Platform_SDK/output/mx6dq/lib/libsdk.a(usbd_drv.o)
 .debug_line    0x00016b8a     0x1252 /home/leon/git/swp-report/iMX6_Platform_SDK/output/mx6dq/lib/libsdk.a(usbh_drv.o)
 .debug_line    0x00017ddc      0x37f /home/leon/git/swp-report/iMX6_Platform_SDK/output/mx6dq/lib/libsdk.a(usdhc.o)
 .debug_line    0x0001815b     0x14a4 /home/leon/git/swp-report/iMX6_Platform_SDK/output/mx6dq/lib/libsdk.a(usdhc_host.o)
 .debug_line    0x000195ff      0x348 /home/leon/git/swp-report/iMX6_Platform_SDK/output/mx6dq/lib/libsdk.a(usdhc_mmc.o)
 .debug_line    0x00019947      0x202 /home/leon/git/swp-report/iMX6_Platform_SDK/output/mx6dq/lib/libsdk.a(usdhc_sd.o)
 .debug_line    0x00019b49      0x11f /home/leon/git/swp-report/iMX6_Platform_SDK/output/mx6dq/lib/libsdk.a(spinlock.o)
 .debug_line    0x00019c68      0x11f /home/leon/git/swp-report/iMX6_Platform_SDK/output/mx6dq/lib/libsdk.a(camera_profile.o)
 .debug_line    0x00019d87      0x59e /home/leon/git/swp-report/iMX6_Platform_SDK/output/mx6dq/lib/libsdk.a(hdmi_common.o)
 .debug_line    0x0001a325      0x270 /home/leon/git/swp-report/iMX6_Platform_SDK/output/mx6dq/lib/libsdk.a(mx6x_usb.o)
 .debug_line    0x0001a595      0x17b /home/leon/git/swp-report/iMX6_Platform_SDK/output/mx6dq/lib/libboard_smart_device_rev_c.a(board_audio.o)
 .debug_line    0x0001a710      0x240 /home/leon/git/swp-report/iMX6_Platform_SDK/output/mx6dq/lib/libboard_smart_device_rev_c.a(board_camera.o)
 .debug_line    0x0001a950      0x187 /home/leon/git/swp-report/iMX6_Platform_SDK/output/mx6dq/lib/libboard_smart_device_rev_c.a(board_display.o)
 .debug_line    0x0001aad7      0x172 /home/leon/git/swp-report/iMX6_Platform_SDK/output/mx6dq/lib/libboard_smart_device_rev_c.a(board_hdmi.o)
 .debug_line    0x0001ac49      0x10a /home/leon/git/swp-report/iMX6_Platform_SDK/output/mx6dq/lib/libboard_smart_device_rev_c.a(board_i2c.o)
 .debug_line    0x0001ad53      0x17c /home/leon/git/swp-report/iMX6_Platform_SDK/output/mx6dq/lib/libboard_smart_device_rev_c.a(board_mipi.o)
 .debug_line    0x0001aecf       0xd3 /home/leon/git/swp-report/iMX6_Platform_SDK/output/mx6dq/lib/libboard_smart_device_rev_c.a(board_network.o)
 .debug_line    0x0001afa2      0x208 /home/leon/git/swp-report/iMX6_Platform_SDK/output/mx6dq/lib/libboard_smart_device_rev_c.a(board_pcie.o)
 .debug_line    0x0001b1aa      0x236 /home/leon/git/swp-report/iMX6_Platform_SDK/output/mx6dq/lib/libboard_smart_device_rev_c.a(board_sata.o)
 .debug_line    0x0001b3e0      0x121 /home/leon/git/swp-report/iMX6_Platform_SDK/output/mx6dq/lib/libboard_smart_device_rev_c.a(board_usb.o)
 .debug_line    0x0001b501      0x139 /home/leon/git/swp-report/iMX6_Platform_SDK/output/mx6dq/lib/libboard_smart_device_rev_c.a(board_usdhc.o)
 .debug_line    0x0001b63a       0x9e /home/leon/git/swp-report/iMX6_Platform_SDK/output/mx6dq/lib/libboard_smart_device_rev_c.a(ecspi_iomux_config.o)
 .debug_line    0x0001b6d8       0x99 /home/leon/git/swp-report/iMX6_Platform_SDK/output/mx6dq/lib/libboard_smart_device_rev_c.a(i2c_iomux_config.o)
 .debug_line    0x0001b771       0x9b /home/leon/git/swp-report/iMX6_Platform_SDK/output/mx6dq/lib/libboard_smart_device_rev_c.a(pwm_iomux_config.o)
 .debug_line    0x0001b80c       0x9d /home/leon/git/swp-report/iMX6_Platform_SDK/output/mx6dq/lib/libboard_smart_device_rev_c.a(usdhc_iomux_config.o)
 .debug_line    0x0001b8a9      0x194 /home/leon/git/swp-report/iMX6_Platform_SDK/output/mx6dq/lib/libsdk.a(max7310.o)

.debug_str      0x00000000    0x2764a
 .debug_str     0x00000000      0x141 /home/leon/git/swp-report/iMX6_Platform_SDK/output/mx6dq/sdk_unit_test/smart_device_rev_c/obj/apps/common/ivt.o
                                0x1ad (size before relaxing)
 .debug_str     0x00000141      0x1f4 /home/leon/git/swp-report/iMX6_Platform_SDK/output/mx6dq/sdk_unit_test/smart_device_rev_c/obj/apps/common/platform_init.o
                                0x2a3 (size before relaxing)
 .debug_str     0x00000335      0x170 /home/leon/git/swp-report/iMX6_Platform_SDK/output/mx6dq/sdk_unit_test/smart_device_rev_c/obj/apps/common/print_clock_info.o
                                0x277 (size before relaxing)
 .debug_str     0x000004a5      0x11a /home/leon/git/swp-report/iMX6_Platform_SDK/output/mx6dq/sdk_unit_test/smart_device_rev_c/obj/apps/common/print_version.o
                                0x20c (size before relaxing)
 .debug_str     0x000005bf      0x1ee /home/leon/git/swp-report/iMX6_Platform_SDK/output/mx6dq/sdk_unit_test/smart_device_rev_c/obj/apps/sdk_unit_test/src/all_test.o
                                0x2d1 (size before relaxing)
 .debug_str     0x000007ad       0x54 /home/leon/git/swp-report/iMX6_Platform_SDK/output/mx6dq/sdk_unit_test/smart_device_rev_c/obj/apps/sdk_unit_test/src/unit_test_main.o
                                0x140 (size before relaxing)
 .debug_str     0x00000801      0xec7 /home/leon/git/swp-report/iMX6_Platform_SDK/output/mx6dq/lib/libsdk.a(ccm_pll.o)
                               0x10fc (size before relaxing)
 .debug_str     0x000016c8      0x4e1 /home/leon/git/swp-report/iMX6_Platform_SDK/output/mx6dq/lib/libsdk.a(gic.o)
                                0x5f2 (size before relaxing)
 .debug_str     0x00001ba9      0x1a8 /home/leon/git/swp-report/iMX6_Platform_SDK/output/mx6dq/lib/libsdk.a(mmu.o)
                                0x35e (size before relaxing)
 .debug_str     0x00001d51      0x5e9 /home/leon/git/swp-report/iMX6_Platform_SDK/output/mx6dq/lib/libsdk.a(menu.o)
                                0x85d (size before relaxing)
 .debug_str     0x0000233a       0x4a /home/leon/git/swp-report/iMX6_Platform_SDK/output/mx6dq/lib/libsdk.a(sdk_version.o)
                                 0x82 (size before relaxing)
 .debug_str     0x00002384      0x10f /home/leon/git/swp-report/iMX6_Platform_SDK/output/mx6dq/lib/libsdk.a(system_util.o)
                                0x7ac (size before relaxing)
 .debug_str     0x00002493      0x19c /home/leon/git/swp-report/iMX6_Platform_SDK/output/mx6dq/lib/libsdk.a(text_color.o)
                                0x305 (size before relaxing)
 .debug_str     0x0000262f      0x21c /home/leon/git/swp-report/iMX6_Platform_SDK/output/mx6dq/lib/libsdk.a(board_id.o)
                                0x3d2 (size before relaxing)
 .debug_str     0x0000284b      0x2ba /home/leon/git/swp-report/iMX6_Platform_SDK/output/mx6dq/lib/libsdk.a(timer.o)
                                0x3f8 (size before relaxing)
 .debug_str     0x00002b05     0x104c /home/leon/git/swp-report/iMX6_Platform_SDK/output/mx6dq/lib/libsdk.a(imx_uart.o)
                               0x12ee (size before relaxing)
 .debug_str     0x00003b51       0xd7 /home/leon/git/swp-report/iMX6_Platform_SDK/output/mx6dq/lib/libsdk.a(interrupt.o)
                                0xc85 (size before relaxing)
 .debug_str     0x00003c28      0x283 /home/leon/git/swp-report/iMX6_Platform_SDK/output/mx6dq/lib/libsdk.a(epit.o)
                                0xf06 (size before relaxing)
 .debug_str     0x00003eab       0xbc /home/leon/git/swp-report/iMX6_Platform_SDK/output/mx6dq/lib/libsdk.a(abort_handler.o)
                                0x1a1 (size before relaxing)
 .debug_str     0x00003f67      0x13d /home/leon/git/swp-report/iMX6_Platform_SDK/output/mx6dq/lib/libboard_smart_device_rev_c.a(board_io_expanders.o)
                                0x240 (size before relaxing)
 .debug_str     0x000040a4       0x4c /home/leon/git/swp-report/iMX6_Platform_SDK/output/mx6dq/lib/libboard_smart_device_rev_c.a(hardware_modules.o)
                                0x152 (size before relaxing)
 .debug_str     0x000040f0       0xb2 /home/leon/git/swp-report/iMX6_Platform_SDK/output/mx6dq/lib/libboard_smart_device_rev_c.a(dcd.o)
                                0x161 (size before relaxing)
 .debug_str     0x000041a2       0xc8 /home/leon/git/swp-report/iMX6_Platform_SDK/output/mx6dq/lib/libboard_smart_device_rev_c.a(uart_iomux_config.o)
                                0x17e (size before relaxing)
 .debug_str     0x0000426a      0x355 /home/leon/git/swp-report/iMX6_Platform_SDK/output/mx6dq/lib/libboard_smart_device_rev_c.a(iomux_config.o)
                                0x3b6 (size before relaxing)
 .debug_str     0x000045bf     0x1d2b /home/leon/git/swp-report/iMX6_Platform_SDK/output/mx6dq/lib/libboard_smart_device_rev_c.a(ipu1_iomux_config.o)
                               0x1dac (size before relaxing)
 .debug_str     0x000062ea     0x21a5 /home/leon/git/swp-report/iMX6_Platform_SDK/output/mx6dq/lib/libboard_smart_device_rev_c.a(mmdc_iomux_config.o)
                               0x2218 (size before relaxing)
 .debug_str     0x0000848f      0x165 /home/leon/git/swp-report/iMX6_Platform_SDK/output/mx6dq/lib/libboard_smart_device_rev_c.a(pwm1_iomux_config.o)
                                0x1e2 (size before relaxing)
 .debug_str     0x000085f4      0x333 /home/leon/git/swp-report/iMX6_Platform_SDK/output/mx6dq/lib/libboard_smart_device_rev_c.a(sjc_iomux_config.o)
                                0x3a2 (size before relaxing)
 .debug_str     0x00008927      0x2ff /home/leon/git/swp-report/iMX6_Platform_SDK/output/mx6dq/lib/libboard_smart_device_rev_c.a(uart1_iomux_config.o)
                                0x37c (size before relaxing)
 .debug_str     0x00008c26      0x342 /home/leon/git/swp-report/iMX6_Platform_SDK/output/mx6dq/lib/libboard_smart_device_rev_c.a(usb_iomux_config.o)
                                0x3c5 (size before relaxing)
 .debug_str     0x00008f68      0x9df /home/leon/git/swp-report/iMX6_Platform_SDK/output/mx6dq/lib/libboard_smart_device_rev_c.a(usdhc2_iomux_config.o)
                                0xa5c (size before relaxing)
 .debug_str     0x00009947      0x9af /home/leon/git/swp-report/iMX6_Platform_SDK/output/mx6dq/lib/libboard_smart_device_rev_c.a(usdhc3_iomux_config.o)
                                0xa2c (size before relaxing)
 .debug_str     0x0000a2f6      0x9af /home/leon/git/swp-report/iMX6_Platform_SDK/output/mx6dq/lib/libboard_smart_device_rev_c.a(usdhc4_iomux_config.o)
                                0xa2c (size before relaxing)
 .debug_str     0x0000aca5      0x463 /home/leon/git/swp-report/iMX6_Platform_SDK/output/mx6dq/lib/libboard_smart_device_rev_c.a(audmux_iomux_config.o)
                                0x4e0 (size before relaxing)
 .debug_str     0x0000b108      0x151 /home/leon/git/swp-report/iMX6_Platform_SDK/output/mx6dq/lib/libboard_smart_device_rev_c.a(ccm_iomux_config.o)
                                0x1ce (size before relaxing)
 .debug_str     0x0000b259      0x609 /home/leon/git/swp-report/iMX6_Platform_SDK/output/mx6dq/lib/libboard_smart_device_rev_c.a(ecspi1_iomux_config.o)
                                0x68c (size before relaxing)
 .debug_str     0x0000b862     0x1654 /home/leon/git/swp-report/iMX6_Platform_SDK/output/mx6dq/lib/libboard_smart_device_rev_c.a(enet_iomux_config.o)
                               0x16eb (size before relaxing)
 .debug_str     0x0000ceb6      0x2ae /home/leon/git/swp-report/iMX6_Platform_SDK/output/mx6dq/lib/libboard_smart_device_rev_c.a(flexcan1_iomux_config.o)
                                0x331 (size before relaxing)
 .debug_str     0x0000d164      0xd59 /home/leon/git/swp-report/iMX6_Platform_SDK/output/mx6dq/lib/libboard_smart_device_rev_c.a(gpio1_iomux_config.o)
                                0xdd6 (size before relaxing)
 .debug_str     0x0000debd      0x9dd /home/leon/git/swp-report/iMX6_Platform_SDK/output/mx6dq/lib/libboard_smart_device_rev_c.a(gpio2_iomux_config.o)
                                0xa5a (size before relaxing)
 .debug_str     0x0000e89a      0xe71 /home/leon/git/swp-report/iMX6_Platform_SDK/output/mx6dq/lib/libboard_smart_device_rev_c.a(gpio3_iomux_config.o)
                                0xeee (size before relaxing)
 .debug_str     0x0000f70b      0x4f5 /home/leon/git/swp-report/iMX6_Platform_SDK/output/mx6dq/lib/libboard_smart_device_rev_c.a(gpio4_iomux_config.o)
                                0x572 (size before relaxing)
 .debug_str     0x0000fc00      0x355 /home/leon/git/swp-report/iMX6_Platform_SDK/output/mx6dq/lib/libboard_smart_device_rev_c.a(gpio5_iomux_config.o)
                                0x3d2 (size before relaxing)
 .debug_str     0x0000ff55      0x8e3 /home/leon/git/swp-report/iMX6_Platform_SDK/output/mx6dq/lib/libboard_smart_device_rev_c.a(gpio6_iomux_config.o)
                                0x960 (size before relaxing)
 .debug_str     0x00010838      0x31f /home/leon/git/swp-report/iMX6_Platform_SDK/output/mx6dq/lib/libboard_smart_device_rev_c.a(gpio7_iomux_config.o)
                                0x39c (size before relaxing)
 .debug_str     0x00010b57      0x5a7 /home/leon/git/swp-report/iMX6_Platform_SDK/output/mx6dq/lib/libboard_smart_device_rev_c.a(gps_iomux_config.o)
                                0x62a (size before relaxing)
 .debug_str     0x000110fe      0x359 /home/leon/git/swp-report/iMX6_Platform_SDK/output/mx6dq/lib/libboard_smart_device_rev_c.a(i2c1_iomux_config.o)
                                0x3dc (size before relaxing)
 .debug_str     0x00011457      0x335 /home/leon/git/swp-report/iMX6_Platform_SDK/output/mx6dq/lib/libboard_smart_device_rev_c.a(i2c2_iomux_config.o)
                                0x3b8 (size before relaxing)
 .debug_str     0x0001178c      0x31d /home/leon/git/swp-report/iMX6_Platform_SDK/output/mx6dq/lib/libboard_smart_device_rev_c.a(i2c3_iomux_config.o)
                                0x3a0 (size before relaxing)
 .debug_str     0x00011aa9      0x218 /home/leon/git/swp-report/iMX6_Platform_SDK/output/mx6dq/sdk_unit_test/smart_device_rev_c/libsdk_unit_test.a(audio_test.o)
                                0x6a4 (size before relaxing)
 .debug_str     0x00011cc1      0x10b /home/leon/git/swp-report/iMX6_Platform_SDK/output/mx6dq/sdk_unit_test/smart_device_rev_c/libsdk_unit_test.a(gic_test.o)
                                0xc7d (size before relaxing)
 .debug_str     0x00011dcc      0x16f /home/leon/git/swp-report/iMX6_Platform_SDK/output/mx6dq/sdk_unit_test/smart_device_rev_c/libsdk_unit_test.a(cpu_wp_test.o)
                                0x304 (size before relaxing)
 .debug_str     0x00011f3b       0x96 /home/leon/git/swp-report/iMX6_Platform_SDK/output/mx6dq/sdk_unit_test/smart_device_rev_c/libsdk_unit_test.a(multicore_test.o)
                                0xcab (size before relaxing)
 .debug_str     0x00011fd1       0xa3 /home/leon/git/swp-report/iMX6_Platform_SDK/output/mx6dq/sdk_unit_test/smart_device_rev_c/libsdk_unit_test.a(ocotp_test.o)
                                0x521 (size before relaxing)
 .debug_str     0x00012074       0xeb /home/leon/git/swp-report/iMX6_Platform_SDK/output/mx6dq/sdk_unit_test/smart_device_rev_c/libsdk_unit_test.a(snvs_rtc_test.o)
                                0x585 (size before relaxing)
 .debug_str     0x0001215f       0x96 /home/leon/git/swp-report/iMX6_Platform_SDK/output/mx6dq/sdk_unit_test/smart_device_rev_c/libsdk_unit_test.a(snvs_srtc_test.o)
                                0x558 (size before relaxing)
 .debug_str     0x000121f5       0x96 /home/leon/git/swp-report/iMX6_Platform_SDK/output/mx6dq/sdk_unit_test/smart_device_rev_c/libsdk_unit_test.a(i2c_test.o)
                                0x505 (size before relaxing)
 .debug_str     0x0001228b      0x181 /home/leon/git/swp-report/iMX6_Platform_SDK/output/mx6dq/sdk_unit_test/smart_device_rev_c/libsdk_unit_test.a(imx6_i2c_device.o)
                                0x702 (size before relaxing)
 .debug_str     0x0001240c       0xe4 /home/leon/git/swp-report/iMX6_Platform_SDK/output/mx6dq/sdk_unit_test/smart_device_rev_c/libsdk_unit_test.a(tempmon_test.o)
                                0x556 (size before relaxing)
 .debug_str     0x000124f0       0xb1 /home/leon/git/swp-report/iMX6_Platform_SDK/output/mx6dq/sdk_unit_test/smart_device_rev_c/libsdk_unit_test.a(sdma_test.o)
                                0x527 (size before relaxing)
 .debug_str     0x000125a1      0x3a9 /home/leon/git/swp-report/iMX6_Platform_SDK/output/mx6dq/sdk_unit_test/smart_device_rev_c/libsdk_unit_test.a(spi_lpb.o)
                                0x4ee (size before relaxing)
 .debug_str     0x0001294a      0x11c /home/leon/git/swp-report/iMX6_Platform_SDK/output/mx6dq/sdk_unit_test/smart_device_rev_c/libsdk_unit_test.a(uart_loopback.o)
                                0x5de (size before relaxing)
 .debug_str     0x00012a66      0x100 /home/leon/git/swp-report/iMX6_Platform_SDK/output/mx6dq/sdk_unit_test/smart_device_rev_c/libsdk_unit_test.a(uart_test.o)
                                0x6aa (size before relaxing)
 .debug_str     0x00012b66       0xe5 /home/leon/git/swp-report/iMX6_Platform_SDK/output/mx6dq/sdk_unit_test/smart_device_rev_c/libsdk_unit_test.a(epit_test.o)
                                0x66a (size before relaxing)
 .debug_str     0x00012c4b      0x272 /home/leon/git/swp-report/iMX6_Platform_SDK/output/mx6dq/sdk_unit_test/smart_device_rev_c/libsdk_unit_test.a(gpt_test.o)
                                0x954 (size before relaxing)
 .debug_str     0x00012ebd       0x74 /home/leon/git/swp-report/iMX6_Platform_SDK/output/mx6dq/sdk_unit_test/smart_device_rev_c/libsdk_unit_test.a(timer_test.o)
                                0x16d (size before relaxing)
 .debug_str     0x00012f31      0x1aa /home/leon/git/swp-report/iMX6_Platform_SDK/output/mx6dq/sdk_unit_test/smart_device_rev_c/libsdk_unit_test.a(usdhc_test.o)
                                0x6cf (size before relaxing)
 .debug_str     0x000130db       0xbc /home/leon/git/swp-report/iMX6_Platform_SDK/output/mx6dq/sdk_unit_test/smart_device_rev_c/libsdk_unit_test.a(pwm_test.o)
                                0x5b2 (size before relaxing)
 .debug_str     0x00013197       0xd3 /home/leon/git/swp-report/iMX6_Platform_SDK/output/mx6dq/sdk_unit_test/smart_device_rev_c/libsdk_unit_test.a(watchdog_test.o)
                                0x552 (size before relaxing)
 .debug_str     0x0001326a      0xa40 /home/leon/git/swp-report/iMX6_Platform_SDK/output/mx6dq/sdk_unit_test/smart_device_rev_c/libsdk_unit_test.a(hdmi_test.o)
                               0x1613 (size before relaxing)
 .debug_str     0x00013caa      0x136 /home/leon/git/swp-report/iMX6_Platform_SDK/output/mx6dq/sdk_unit_test/smart_device_rev_c/libsdk_unit_test.a(init_dma_data.o)
                                0x2b0 (size before relaxing)
 .debug_str     0x00013de0      0x44c /home/leon/git/swp-report/iMX6_Platform_SDK/output/mx6dq/sdk_unit_test/smart_device_rev_c/libsdk_unit_test.a(ips_display.o)
                                0x92c (size before relaxing)
 .debug_str     0x0001422c       0x6a /home/leon/git/swp-report/iMX6_Platform_SDK/output/mx6dq/sdk_unit_test/smart_device_rev_c/libsdk_unit_test.a(ips_test.o)
                                0x673 (size before relaxing)
 .debug_str     0x00014296      0x113 /home/leon/git/swp-report/iMX6_Platform_SDK/output/mx6dq/sdk_unit_test/smart_device_rev_c/libsdk_unit_test.a(ipu_image.o)
                                0x33d (size before relaxing)
 .debug_str     0x000143a9       0xe2 /home/leon/git/swp-report/iMX6_Platform_SDK/output/mx6dq/sdk_unit_test/smart_device_rev_c/libsdk_unit_test.a(camera_test.o)
                                0x5f7 (size before relaxing)
 .debug_str     0x0001448b       0xee /home/leon/git/swp-report/iMX6_Platform_SDK/output/mx6dq/sdk_unit_test/smart_device_rev_c/libsdk_unit_test.a(csi_test_mode.o)
                                0x784 (size before relaxing)
 .debug_str     0x00014579      0x145 /home/leon/git/swp-report/iMX6_Platform_SDK/output/mx6dq/sdk_unit_test/smart_device_rev_c/libsdk_unit_test.a(sensor_capture.o)
                                0x8a3 (size before relaxing)
 .debug_str     0x000146be       0xe7 /home/leon/git/swp-report/iMX6_Platform_SDK/output/mx6dq/sdk_unit_test/smart_device_rev_c/libsdk_unit_test.a(keypad_test.o)
                                0x557 (size before relaxing)
 .debug_str     0x000147a5      0x2f0 /home/leon/git/swp-report/iMX6_Platform_SDK/output/mx6dq/sdk_unit_test/smart_device_rev_c/libsdk_unit_test.a(pcie_test_rc.o)
                                0x782 (size before relaxing)
 .debug_str     0x00014a95      0x165 /home/leon/git/swp-report/iMX6_Platform_SDK/output/mx6dq/sdk_unit_test/smart_device_rev_c/libsdk_unit_test.a(usb_test.o)
                                0x20e (size before relaxing)
 .debug_str     0x00014bfa      0xe12 /home/leon/git/swp-report/iMX6_Platform_SDK/output/mx6dq/sdk_unit_test/smart_device_rev_c/libsdk_unit_test.a(enet_test.o)
                               0x1036 (size before relaxing)
 .debug_str     0x00015a0c      0x165 /home/leon/git/swp-report/iMX6_Platform_SDK/output/mx6dq/sdk_unit_test/smart_device_rev_c/libsdk_unit_test.a(spi_test.o)
                                0x613 (size before relaxing)
 .debug_str     0x00015b71      0x183 /home/leon/git/swp-report/iMX6_Platform_SDK/output/mx6dq/sdk_unit_test/smart_device_rev_c/libsdk_unit_test.a(accelerometer_test.o)
                                0x642 (size before relaxing)
 .debug_str     0x00015cf4      0x1b4 /home/leon/git/swp-report/iMX6_Platform_SDK/output/mx6dq/sdk_unit_test/smart_device_rev_c/libsdk_unit_test.a(sata_test.o)
                                0x6d6 (size before relaxing)
 .debug_str     0x00015ea8       0xac /home/leon/git/swp-report/iMX6_Platform_SDK/output/mx6dq/sdk_unit_test/smart_device_rev_c/libsdk_unit_test.a(at24cxx.o)
                                0x2df (size before relaxing)
 .debug_str     0x00015f54       0x83 /home/leon/git/swp-report/iMX6_Platform_SDK/output/mx6dq/sdk_unit_test/smart_device_rev_c/libsdk_unit_test.a(mem_2_mem.o)
                                0x4f5 (size before relaxing)
 .debug_str     0x00015fd7      0x156 /home/leon/git/swp-report/iMX6_Platform_SDK/output/mx6dq/sdk_unit_test/smart_device_rev_c/libsdk_unit_test.a(pwm_output.o)
                                0x289 (size before relaxing)
 .debug_str     0x0001612d       0x9e /home/leon/git/swp-report/iMX6_Platform_SDK/output/mx6dq/sdk_unit_test/smart_device_rev_c/libsdk_unit_test.a(ips_combiner.o)
                                0x7ba (size before relaxing)
 .debug_str     0x000161cb      0x3f5 /home/leon/git/swp-report/iMX6_Platform_SDK/output/mx6dq/sdk_unit_test/smart_device_rev_c/libsdk_unit_test.a(ips_csc.o)
                                0xb2e (size before relaxing)
 .debug_str     0x000165c0       0xde /home/leon/git/swp-report/iMX6_Platform_SDK/output/mx6dq/sdk_unit_test/smart_device_rev_c/libsdk_unit_test.a(ips_resize.o)
                                0xb5a (size before relaxing)
 .debug_str     0x0001669e       0x5e /home/leon/git/swp-report/iMX6_Platform_SDK/output/mx6dq/sdk_unit_test/smart_device_rev_c/libsdk_unit_test.a(ips_rotate.o)
                                0xaf0 (size before relaxing)
 .debug_str     0x000166fc      0xc3a /home/leon/git/swp-report/iMX6_Platform_SDK/output/mx6dq/sdk_unit_test/smart_device_rev_c/libsdk_unit_test.a(usb0_device_mouse_test.o)
                               0x121f (size before relaxing)
 .debug_str     0x00017336      0x466 /home/leon/git/swp-report/iMX6_Platform_SDK/output/mx6dq/sdk_unit_test/smart_device_rev_c/libsdk_unit_test.a(usb0_host_test.o)
                                0xa0b (size before relaxing)
 .debug_str     0x0001779c       0x84 /home/leon/git/swp-report/iMX6_Platform_SDK/output/mx6dq/sdk_unit_test/smart_device_rev_c/libsdk_unit_test.a(usb0_host_testmodes_test.o)
                                0x370 (size before relaxing)
 .debug_str     0x00017820      0x138 /home/leon/git/swp-report/iMX6_Platform_SDK/output/mx6dq/sdk_unit_test/smart_device_rev_c/libsdk_unit_test.a(spi_nor_numonyx.o)
                                0x2af (size before relaxing)
 .debug_str     0x00017958       0x6a /home/leon/git/swp-report/iMX6_Platform_SDK/output/mx6dq/lib/libsdk.a(profile.o)
                                 0x8b (size before relaxing)
 .debug_str     0x000179c2      0x1e7 /home/leon/git/swp-report/iMX6_Platform_SDK/output/mx6dq/lib/libsdk.a(armv7_cache.o)
                                0x2aa (size before relaxing)
 .debug_str     0x00017ba9      0x1fd /home/leon/git/swp-report/iMX6_Platform_SDK/output/mx6dq/lib/libsdk.a(runtime_support.o)
                                0x3ac (size before relaxing)
 .debug_str     0x00017da6      0x316 /home/leon/git/swp-report/iMX6_Platform_SDK/output/mx6dq/lib/libsdk.a(mma8451.o)
                                0x4e1 (size before relaxing)
 .debug_str     0x000180bc      0x27b /home/leon/git/swp-report/iMX6_Platform_SDK/output/mx6dq/lib/libsdk.a(smd_sensor.o)
                                0x524 (size before relaxing)
 .debug_str     0x00018337      0x118 /home/leon/git/swp-report/iMX6_Platform_SDK/output/mx6dq/lib/libsdk.a(cpu_get_cores.o)
                                0x20a (size before relaxing)
 .debug_str     0x0001844f      0x377 /home/leon/git/swp-report/iMX6_Platform_SDK/output/mx6dq/lib/libsdk.a(cpu_multicore.o)
                                0x494 (size before relaxing)
 .debug_str     0x000187c6      0x485 /home/leon/git/swp-report/iMX6_Platform_SDK/output/mx6dq/lib/libsdk.a(cpu_workpoint.o)
                                0x641 (size before relaxing)
 .debug_str     0x00018c4b      0x2b1 /home/leon/git/swp-report/iMX6_Platform_SDK/output/mx6dq/lib/libsdk.a(enet_drv.o)
                               0x1153 (size before relaxing)
 .debug_str     0x00018efc      0x37a /home/leon/git/swp-report/iMX6_Platform_SDK/output/mx6dq/lib/libsdk.a(gpio.o)
                                0x48b (size before relaxing)
 .debug_str     0x00019276       0x53 /home/leon/git/swp-report/iMX6_Platform_SDK/output/mx6dq/lib/libsdk.a(imx6dq_gpio_map.o)
                                0x10a (size before relaxing)
 .debug_str     0x000192c9     0x1b0d /home/leon/git/swp-report/iMX6_Platform_SDK/output/mx6dq/lib/libsdk.a(hdmi_tx.o)
                               0x1f9b (size before relaxing)
 .debug_str     0x0001add6      0xb79 /home/leon/git/swp-report/iMX6_Platform_SDK/output/mx6dq/lib/libsdk.a(hdmi_tx_audio.o)
                                0xd5b (size before relaxing)
 .debug_str     0x0001b94f      0x8d9 /home/leon/git/swp-report/iMX6_Platform_SDK/output/mx6dq/lib/libsdk.a(hdmi_tx_phy.o)
                                0xa56 (size before relaxing)
 .debug_str     0x0001c228      0x2c8 /home/leon/git/swp-report/iMX6_Platform_SDK/output/mx6dq/lib/libsdk.a(imx_i2c.o)
                               0x1099 (size before relaxing)
 .debug_str     0x0001c4f0      0x10b /home/leon/git/swp-report/iMX6_Platform_SDK/output/mx6dq/lib/libsdk.a(imx_i2c_slave.o)
                                0x3e9 (size before relaxing)
 .debug_str     0x0001c5fb      0x451 /home/leon/git/swp-report/iMX6_Platform_SDK/output/mx6dq/lib/libsdk.a(ips_disp_panel.o)
                                0x66a (size before relaxing)
 .debug_str     0x0001ca4c      0x2cc /home/leon/git/swp-report/iMX6_Platform_SDK/output/mx6dq/lib/libsdk.a(ipu_common.o)
                                0xa48 (size before relaxing)
 .debug_str     0x0001cd18      0x238 /home/leon/git/swp-report/iMX6_Platform_SDK/output/mx6dq/lib/libsdk.a(ipu_csi.o)
                                0x430 (size before relaxing)
 .debug_str     0x0001cf50      0x22e /home/leon/git/swp-report/iMX6_Platform_SDK/output/mx6dq/lib/libsdk.a(ipu_dc.o)
                                0x442 (size before relaxing)
 .debug_str     0x0001d17e      0x29f /home/leon/git/swp-report/iMX6_Platform_SDK/output/mx6dq/lib/libsdk.a(ipu_di.o)
                                0x4f1 (size before relaxing)
 .debug_str     0x0001d41d       0x70 /home/leon/git/swp-report/iMX6_Platform_SDK/output/mx6dq/lib/libsdk.a(ipu_dmfc.o)
                                0x399 (size before relaxing)
 .debug_str     0x0001d48d       0x9e /home/leon/git/swp-report/iMX6_Platform_SDK/output/mx6dq/lib/libsdk.a(ipu_dp.o)
                                0x1e2 (size before relaxing)
 .debug_str     0x0001d52b      0x2b2 /home/leon/git/swp-report/iMX6_Platform_SDK/output/mx6dq/lib/libsdk.a(ipu_ic.o)
                                0x581 (size before relaxing)
 .debug_str     0x0001d7dd      0x24a /home/leon/git/swp-report/iMX6_Platform_SDK/output/mx6dq/lib/libsdk.a(ipu_idmac.o)
                                0x88f (size before relaxing)
 .debug_str     0x0001da27      0x293 /home/leon/git/swp-report/iMX6_Platform_SDK/output/mx6dq/lib/libsdk.a(ipu_vdi.o)
                                0x942 (size before relaxing)
 .debug_str     0x0001dcba      0x323 /home/leon/git/swp-report/iMX6_Platform_SDK/output/mx6dq/lib/libsdk.a(keypad_port.o)
                                0xee3 (size before relaxing)
 .debug_str     0x0001dfdd      0x1a4 /home/leon/git/swp-report/iMX6_Platform_SDK/output/mx6dq/lib/libsdk.a(ldb.o)
                                0x42f (size before relaxing)
 .debug_str     0x0001e181      0x2df /home/leon/git/swp-report/iMX6_Platform_SDK/output/mx6dq/lib/libsdk.a(ocotp.o)
                                0x3d6 (size before relaxing)
 .debug_str     0x0001e460      0x8d9 /home/leon/git/swp-report/iMX6_Platform_SDK/output/mx6dq/lib/libsdk.a(pcie.o)
                                0xaa2 (size before relaxing)
 .debug_str     0x0001ed39      0x171 /home/leon/git/swp-report/iMX6_Platform_SDK/output/mx6dq/lib/libsdk.a(pcie_phy.o)
                                0x279 (size before relaxing)
 .debug_str     0x0001eeaa      0x29c /home/leon/git/swp-report/iMX6_Platform_SDK/output/mx6dq/lib/libsdk.a(pcie_prot.o)
                                0x4a3 (size before relaxing)
 .debug_str     0x0001f146     0x1c36 /home/leon/git/swp-report/iMX6_Platform_SDK/output/mx6dq/lib/libsdk.a(pmu_driver.o)
                               0x2b40 (size before relaxing)
 .debug_str     0x00020d7c      0x271 /home/leon/git/swp-report/iMX6_Platform_SDK/output/mx6dq/lib/libsdk.a(pwm.o)
                                0xfb4 (size before relaxing)
 .debug_str     0x00020fed      0x211 /home/leon/git/swp-report/iMX6_Platform_SDK/output/mx6dq/lib/libsdk.a(rtc.o)
                                0xe35 (size before relaxing)
 .debug_str     0x000211fe      0x14f /home/leon/git/swp-report/iMX6_Platform_SDK/output/mx6dq/lib/libsdk.a(srtc.o)
                                0xd86 (size before relaxing)
 .debug_str     0x0002134d     0x13a3 /home/leon/git/swp-report/iMX6_Platform_SDK/output/mx6dq/lib/libsdk.a(sata.o)
                               0x175b (size before relaxing)
 .debug_str     0x000226f0      0x702 /home/leon/git/swp-report/iMX6_Platform_SDK/output/mx6dq/lib/libsdk.a(sdma.o)
                               0x15e6 (size before relaxing)
 .debug_str     0x00022df2       0x5e /home/leon/git/swp-report/iMX6_Platform_SDK/output/mx6dq/lib/libsdk.a(sdma_script_info.o)
                                0x2dc (size before relaxing)
 .debug_str     0x00022e50      0x3fa /home/leon/git/swp-report/iMX6_Platform_SDK/output/mx6dq/lib/libsdk.a(snvs.o)
                                0x50b (size before relaxing)
 .debug_str     0x0002324a      0x2e1 /home/leon/git/swp-report/iMX6_Platform_SDK/output/mx6dq/lib/libsdk.a(ecspi.o)
                                0x4a7 (size before relaxing)
 .debug_str     0x0002352b      0x2e3 /home/leon/git/swp-report/iMX6_Platform_SDK/output/mx6dq/lib/libsdk.a(tempmon.o)
                                0xe8c (size before relaxing)
 .debug_str     0x0002380e      0x339 /home/leon/git/swp-report/iMX6_Platform_SDK/output/mx6dq/lib/libsdk.a(gpt.o)
                               0x110b (size before relaxing)
 .debug_str     0x00023b47       0xca /home/leon/git/swp-report/iMX6_Platform_SDK/output/mx6dq/lib/libsdk.a(usb_common.o)
                                0x79d (size before relaxing)
 .debug_str     0x00023c11      0x4b3 /home/leon/git/swp-report/iMX6_Platform_SDK/output/mx6dq/lib/libsdk.a(usbd_drv.o)
                                0xef2 (size before relaxing)
 .debug_str     0x000240c4      0x2ef /home/leon/git/swp-report/iMX6_Platform_SDK/output/mx6dq/lib/libsdk.a(usbh_drv.o)
                                0xaab (size before relaxing)
 .debug_str     0x000243b3      0x57c /home/leon/git/swp-report/iMX6_Platform_SDK/output/mx6dq/lib/libsdk.a(usdhc.o)
                               0x1201 (size before relaxing)
 .debug_str     0x0002492f      0xb3c /home/leon/git/swp-report/iMX6_Platform_SDK/output/mx6dq/lib/libsdk.a(usdhc_host.o)
                                0xfad (size before relaxing)
 .debug_str     0x0002546b      0x224 /home/leon/git/swp-report/iMX6_Platform_SDK/output/mx6dq/lib/libsdk.a(usdhc_mmc.o)
                                0x72e (size before relaxing)
 .debug_str     0x0002568f       0xae /home/leon/git/swp-report/iMX6_Platform_SDK/output/mx6dq/lib/libsdk.a(usdhc_sd.o)
                                0x58d (size before relaxing)
 .debug_str     0x0002573d       0x72 /home/leon/git/swp-report/iMX6_Platform_SDK/output/mx6dq/lib/libsdk.a(spinlock.o)
                                0x18c (size before relaxing)
 .debug_str     0x000257af      0x1c6 /home/leon/git/swp-report/iMX6_Platform_SDK/output/mx6dq/lib/libsdk.a(camera_profile.o)
                                0x4be (size before relaxing)
 .debug_str     0x00025975       0xbd /home/leon/git/swp-report/iMX6_Platform_SDK/output/mx6dq/lib/libsdk.a(hdmi_common.o)
                                0x39d (size before relaxing)
 .debug_str     0x00025a32      0x1b6 /home/leon/git/swp-report/iMX6_Platform_SDK/output/mx6dq/lib/libsdk.a(mx6x_usb.o)
                                0x3df (size before relaxing)
 .debug_str     0x00025be8      0x188 /home/leon/git/swp-report/iMX6_Platform_SDK/output/mx6dq/lib/libboard_smart_device_rev_c.a(board_audio.o)
                                0x40c (size before relaxing)
 .debug_str     0x00025d70      0xcf9 /home/leon/git/swp-report/iMX6_Platform_SDK/output/mx6dq/lib/libboard_smart_device_rev_c.a(board_camera.o)
                               0x1183 (size before relaxing)
 .debug_str     0x00026a69       0xc1 /home/leon/git/swp-report/iMX6_Platform_SDK/output/mx6dq/lib/libboard_smart_device_rev_c.a(board_display.o)
                                0x58b (size before relaxing)
 .debug_str     0x00026b2a      0x247 /home/leon/git/swp-report/iMX6_Platform_SDK/output/mx6dq/lib/libboard_smart_device_rev_c.a(board_hdmi.o)
                                0x96e (size before relaxing)
 .debug_str     0x00026d71      0x154 /home/leon/git/swp-report/iMX6_Platform_SDK/output/mx6dq/lib/libboard_smart_device_rev_c.a(board_i2c.o)
                                0x29f (size before relaxing)
 .debug_str     0x00026ec5      0x108 /home/leon/git/swp-report/iMX6_Platform_SDK/output/mx6dq/lib/libboard_smart_device_rev_c.a(board_mipi.o)
                                0x6de (size before relaxing)
 .debug_str     0x00026fcd       0xa1 /home/leon/git/swp-report/iMX6_Platform_SDK/output/mx6dq/lib/libboard_smart_device_rev_c.a(board_network.o)
                                0x1d5 (size before relaxing)
 .debug_str     0x0002706e      0x15e /home/leon/git/swp-report/iMX6_Platform_SDK/output/mx6dq/lib/libboard_smart_device_rev_c.a(board_pcie.o)
                                0x401 (size before relaxing)
 .debug_str     0x000271cc       0x9d /home/leon/git/swp-report/iMX6_Platform_SDK/output/mx6dq/lib/libboard_smart_device_rev_c.a(board_sata.o)
                                0x42c (size before relaxing)
 .debug_str     0x00027269       0x70 /home/leon/git/swp-report/iMX6_Platform_SDK/output/mx6dq/lib/libboard_smart_device_rev_c.a(board_usb.o)
                                0x231 (size before relaxing)
 .debug_str     0x000272d9       0x83 /home/leon/git/swp-report/iMX6_Platform_SDK/output/mx6dq/lib/libboard_smart_device_rev_c.a(board_usdhc.o)
                                0x1d1 (size before relaxing)
 .debug_str     0x0002735c       0x79 /home/leon/git/swp-report/iMX6_Platform_SDK/output/mx6dq/lib/libboard_smart_device_rev_c.a(ecspi_iomux_config.o)
                                0x180 (size before relaxing)
 .debug_str     0x000273d5       0x75 /home/leon/git/swp-report/iMX6_Platform_SDK/output/mx6dq/lib/libboard_smart_device_rev_c.a(i2c_iomux_config.o)
                                0x17c (size before relaxing)
 .debug_str     0x0002744a       0x75 /home/leon/git/swp-report/iMX6_Platform_SDK/output/mx6dq/lib/libboard_smart_device_rev_c.a(pwm_iomux_config.o)
                                0x17c (size before relaxing)
 .debug_str     0x000274bf       0x79 /home/leon/git/swp-report/iMX6_Platform_SDK/output/mx6dq/lib/libboard_smart_device_rev_c.a(usdhc_iomux_config.o)
                                0x180 (size before relaxing)
 .debug_str     0x00027538      0x112 /home/leon/git/swp-report/iMX6_Platform_SDK/output/mx6dq/lib/libsdk.a(max7310.o)
                                0x2ab (size before relaxing)

.debug_loc      0x00000000     0x9a2c
 .debug_loc     0x00000000       0x2c /home/leon/git/swp-report/iMX6_Platform_SDK/output/mx6dq/sdk_unit_test/smart_device_rev_c/obj/apps/common/platform_init.o
 .debug_loc     0x0000002c       0x58 /home/leon/git/swp-report/iMX6_Platform_SDK/output/mx6dq/sdk_unit_test/smart_device_rev_c/obj/apps/common/print_clock_info.o
 .debug_loc     0x00000084       0x2c /home/leon/git/swp-report/iMX6_Platform_SDK/output/mx6dq/sdk_unit_test/smart_device_rev_c/obj/apps/common/print_version.o
 .debug_loc     0x000000b0       0x58 /home/leon/git/swp-report/iMX6_Platform_SDK/output/mx6dq/sdk_unit_test/smart_device_rev_c/obj/apps/sdk_unit_test/src/all_test.o
 .debug_loc     0x00000108       0x2c /home/leon/git/swp-report/iMX6_Platform_SDK/output/mx6dq/sdk_unit_test/smart_device_rev_c/obj/apps/sdk_unit_test/src/unit_test_main.o
 .debug_loc     0x00000134      0x18c /home/leon/git/swp-report/iMX6_Platform_SDK/output/mx6dq/lib/libsdk.a(ccm_pll.o)
 .debug_loc     0x000002c0      0x2ec /home/leon/git/swp-report/iMX6_Platform_SDK/output/mx6dq/lib/libsdk.a(gic.o)
 .debug_loc     0x000005ac       0xdc /home/leon/git/swp-report/iMX6_Platform_SDK/output/mx6dq/lib/libsdk.a(mmu.o)
 .debug_loc     0x00000688      0x1e4 /home/leon/git/swp-report/iMX6_Platform_SDK/output/mx6dq/lib/libsdk.a(menu.o)
 .debug_loc     0x0000086c      0x108 /home/leon/git/swp-report/iMX6_Platform_SDK/output/mx6dq/lib/libsdk.a(system_util.o)
 .debug_loc     0x00000974       0x58 /home/leon/git/swp-report/iMX6_Platform_SDK/output/mx6dq/lib/libsdk.a(text_color.o)
 .debug_loc     0x000009cc      0x134 /home/leon/git/swp-report/iMX6_Platform_SDK/output/mx6dq/lib/libsdk.a(board_id.o)
 .debug_loc     0x00000b00       0xb0 /home/leon/git/swp-report/iMX6_Platform_SDK/output/mx6dq/lib/libsdk.a(timer.o)
 .debug_loc     0x00000bb0      0x134 /home/leon/git/swp-report/iMX6_Platform_SDK/output/mx6dq/lib/libsdk.a(imx_uart.o)
 .debug_loc     0x00000ce4       0xdc /home/leon/git/swp-report/iMX6_Platform_SDK/output/mx6dq/lib/libsdk.a(interrupt.o)
 .debug_loc     0x00000dc0      0x160 /home/leon/git/swp-report/iMX6_Platform_SDK/output/mx6dq/lib/libsdk.a(epit.o)
 .debug_loc     0x00000f20       0x2c /home/leon/git/swp-report/iMX6_Platform_SDK/output/mx6dq/lib/libsdk.a(abort_handler.o)
 .debug_loc     0x00000f4c       0x58 /home/leon/git/swp-report/iMX6_Platform_SDK/output/mx6dq/lib/libboard_smart_device_rev_c.a(board_io_expanders.o)
 .debug_loc     0x00000fa4       0x2c /home/leon/git/swp-report/iMX6_Platform_SDK/output/mx6dq/lib/libboard_smart_device_rev_c.a(uart_iomux_config.o)
 .debug_loc     0x00000fd0      0x738 /home/leon/git/swp-report/iMX6_Platform_SDK/output/mx6dq/lib/libboard_smart_device_rev_c.a(iomux_config.o)
 .debug_loc     0x00001708       0x2c /home/leon/git/swp-report/iMX6_Platform_SDK/output/mx6dq/lib/libboard_smart_device_rev_c.a(ipu1_iomux_config.o)
 .debug_loc     0x00001734       0x2c /home/leon/git/swp-report/iMX6_Platform_SDK/output/mx6dq/lib/libboard_smart_device_rev_c.a(mmdc_iomux_config.o)
 .debug_loc     0x00001760       0x2c /home/leon/git/swp-report/iMX6_Platform_SDK/output/mx6dq/lib/libboard_smart_device_rev_c.a(pwm1_iomux_config.o)
 .debug_loc     0x0000178c       0x2c /home/leon/git/swp-report/iMX6_Platform_SDK/output/mx6dq/lib/libboard_smart_device_rev_c.a(sjc_iomux_config.o)
 .debug_loc     0x000017b8       0x2c /home/leon/git/swp-report/iMX6_Platform_SDK/output/mx6dq/lib/libboard_smart_device_rev_c.a(uart1_iomux_config.o)
 .debug_loc     0x000017e4       0x2c /home/leon/git/swp-report/iMX6_Platform_SDK/output/mx6dq/lib/libboard_smart_device_rev_c.a(usb_iomux_config.o)
 .debug_loc     0x00001810       0x2c /home/leon/git/swp-report/iMX6_Platform_SDK/output/mx6dq/lib/libboard_smart_device_rev_c.a(usdhc2_iomux_config.o)
 .debug_loc     0x0000183c       0x2c /home/leon/git/swp-report/iMX6_Platform_SDK/output/mx6dq/lib/libboard_smart_device_rev_c.a(usdhc3_iomux_config.o)
 .debug_loc     0x00001868       0x2c /home/leon/git/swp-report/iMX6_Platform_SDK/output/mx6dq/lib/libboard_smart_device_rev_c.a(usdhc4_iomux_config.o)
 .debug_loc     0x00001894       0x2c /home/leon/git/swp-report/iMX6_Platform_SDK/output/mx6dq/lib/libboard_smart_device_rev_c.a(audmux_iomux_config.o)
 .debug_loc     0x000018c0       0x2c /home/leon/git/swp-report/iMX6_Platform_SDK/output/mx6dq/lib/libboard_smart_device_rev_c.a(ccm_iomux_config.o)
 .debug_loc     0x000018ec       0x2c /home/leon/git/swp-report/iMX6_Platform_SDK/output/mx6dq/lib/libboard_smart_device_rev_c.a(ecspi1_iomux_config.o)
 .debug_loc     0x00001918       0x2c /home/leon/git/swp-report/iMX6_Platform_SDK/output/mx6dq/lib/libboard_smart_device_rev_c.a(enet_iomux_config.o)
 .debug_loc     0x00001944       0x2c /home/leon/git/swp-report/iMX6_Platform_SDK/output/mx6dq/lib/libboard_smart_device_rev_c.a(flexcan1_iomux_config.o)
 .debug_loc     0x00001970       0x2c /home/leon/git/swp-report/iMX6_Platform_SDK/output/mx6dq/lib/libboard_smart_device_rev_c.a(gpio1_iomux_config.o)
 .debug_loc     0x0000199c       0x2c /home/leon/git/swp-report/iMX6_Platform_SDK/output/mx6dq/lib/libboard_smart_device_rev_c.a(gpio2_iomux_config.o)
 .debug_loc     0x000019c8       0x2c /home/leon/git/swp-report/iMX6_Platform_SDK/output/mx6dq/lib/libboard_smart_device_rev_c.a(gpio3_iomux_config.o)
 .debug_loc     0x000019f4       0x2c /home/leon/git/swp-report/iMX6_Platform_SDK/output/mx6dq/lib/libboard_smart_device_rev_c.a(gpio4_iomux_config.o)
 .debug_loc     0x00001a20       0x2c /home/leon/git/swp-report/iMX6_Platform_SDK/output/mx6dq/lib/libboard_smart_device_rev_c.a(gpio5_iomux_config.o)
 .debug_loc     0x00001a4c       0x2c /home/leon/git/swp-report/iMX6_Platform_SDK/output/mx6dq/lib/libboard_smart_device_rev_c.a(gpio6_iomux_config.o)
 .debug_loc     0x00001a78       0x2c /home/leon/git/swp-report/iMX6_Platform_SDK/output/mx6dq/lib/libboard_smart_device_rev_c.a(gpio7_iomux_config.o)
 .debug_loc     0x00001aa4       0x2c /home/leon/git/swp-report/iMX6_Platform_SDK/output/mx6dq/lib/libboard_smart_device_rev_c.a(gps_iomux_config.o)
 .debug_loc     0x00001ad0       0x2c /home/leon/git/swp-report/iMX6_Platform_SDK/output/mx6dq/lib/libboard_smart_device_rev_c.a(i2c1_iomux_config.o)
 .debug_loc     0x00001afc       0x2c /home/leon/git/swp-report/iMX6_Platform_SDK/output/mx6dq/lib/libboard_smart_device_rev_c.a(i2c2_iomux_config.o)
 .debug_loc     0x00001b28       0x2c /home/leon/git/swp-report/iMX6_Platform_SDK/output/mx6dq/lib/libboard_smart_device_rev_c.a(i2c3_iomux_config.o)
 .debug_loc     0x00001b54       0x2c /home/leon/git/swp-report/iMX6_Platform_SDK/output/mx6dq/sdk_unit_test/smart_device_rev_c/libsdk_unit_test.a(audio_test.o)
 .debug_loc     0x00001b80       0x58 /home/leon/git/swp-report/iMX6_Platform_SDK/output/mx6dq/sdk_unit_test/smart_device_rev_c/libsdk_unit_test.a(gic_test.o)
 .debug_loc     0x00001bd8       0x84 /home/leon/git/swp-report/iMX6_Platform_SDK/output/mx6dq/sdk_unit_test/smart_device_rev_c/libsdk_unit_test.a(cpu_wp_test.o)
 .debug_loc     0x00001c5c       0x84 /home/leon/git/swp-report/iMX6_Platform_SDK/output/mx6dq/sdk_unit_test/smart_device_rev_c/libsdk_unit_test.a(multicore_test.o)
 .debug_loc     0x00001ce0       0x2c /home/leon/git/swp-report/iMX6_Platform_SDK/output/mx6dq/sdk_unit_test/smart_device_rev_c/libsdk_unit_test.a(ocotp_test.o)
 .debug_loc     0x00001d0c       0xdc /home/leon/git/swp-report/iMX6_Platform_SDK/output/mx6dq/sdk_unit_test/smart_device_rev_c/libsdk_unit_test.a(snvs_rtc_test.o)
 .debug_loc     0x00001de8       0x84 /home/leon/git/swp-report/iMX6_Platform_SDK/output/mx6dq/sdk_unit_test/smart_device_rev_c/libsdk_unit_test.a(snvs_srtc_test.o)
 .debug_loc     0x00001e6c       0x2c /home/leon/git/swp-report/iMX6_Platform_SDK/output/mx6dq/sdk_unit_test/smart_device_rev_c/libsdk_unit_test.a(i2c_test.o)
 .debug_loc     0x00001e98       0x84 /home/leon/git/swp-report/iMX6_Platform_SDK/output/mx6dq/sdk_unit_test/smart_device_rev_c/libsdk_unit_test.a(imx6_i2c_device.o)
 .debug_loc     0x00001f1c       0x84 /home/leon/git/swp-report/iMX6_Platform_SDK/output/mx6dq/sdk_unit_test/smart_device_rev_c/libsdk_unit_test.a(tempmon_test.o)
 .debug_loc     0x00001fa0       0x2c /home/leon/git/swp-report/iMX6_Platform_SDK/output/mx6dq/sdk_unit_test/smart_device_rev_c/libsdk_unit_test.a(sdma_test.o)
 .debug_loc     0x00001fcc       0x84 /home/leon/git/swp-report/iMX6_Platform_SDK/output/mx6dq/sdk_unit_test/smart_device_rev_c/libsdk_unit_test.a(spi_lpb.o)
 .debug_loc     0x00002050      0x134 /home/leon/git/swp-report/iMX6_Platform_SDK/output/mx6dq/sdk_unit_test/smart_device_rev_c/libsdk_unit_test.a(uart_loopback.o)
 .debug_loc     0x00002184       0x58 /home/leon/git/swp-report/iMX6_Platform_SDK/output/mx6dq/sdk_unit_test/smart_device_rev_c/libsdk_unit_test.a(uart_test.o)
 .debug_loc     0x000021dc       0xb0 /home/leon/git/swp-report/iMX6_Platform_SDK/output/mx6dq/sdk_unit_test/smart_device_rev_c/libsdk_unit_test.a(epit_test.o)
 .debug_loc     0x0000228c       0xb0 /home/leon/git/swp-report/iMX6_Platform_SDK/output/mx6dq/sdk_unit_test/smart_device_rev_c/libsdk_unit_test.a(gpt_test.o)
 .debug_loc     0x0000233c       0x2c /home/leon/git/swp-report/iMX6_Platform_SDK/output/mx6dq/sdk_unit_test/smart_device_rev_c/libsdk_unit_test.a(timer_test.o)
 .debug_loc     0x00002368      0x1e4 /home/leon/git/swp-report/iMX6_Platform_SDK/output/mx6dq/sdk_unit_test/smart_device_rev_c/libsdk_unit_test.a(usdhc_test.o)
 .debug_loc     0x0000254c       0x2c /home/leon/git/swp-report/iMX6_Platform_SDK/output/mx6dq/sdk_unit_test/smart_device_rev_c/libsdk_unit_test.a(pwm_test.o)
 .debug_loc     0x00002578       0x58 /home/leon/git/swp-report/iMX6_Platform_SDK/output/mx6dq/sdk_unit_test/smart_device_rev_c/libsdk_unit_test.a(watchdog_test.o)
 .debug_loc     0x000025d0       0xdc /home/leon/git/swp-report/iMX6_Platform_SDK/output/mx6dq/sdk_unit_test/smart_device_rev_c/libsdk_unit_test.a(hdmi_test.o)
 .debug_loc     0x000026ac       0x2c /home/leon/git/swp-report/iMX6_Platform_SDK/output/mx6dq/sdk_unit_test/smart_device_rev_c/libsdk_unit_test.a(init_dma_data.o)
 .debug_loc     0x000026d8      0x134 /home/leon/git/swp-report/iMX6_Platform_SDK/output/mx6dq/sdk_unit_test/smart_device_rev_c/libsdk_unit_test.a(ips_display.o)
 .debug_loc     0x0000280c       0x2c /home/leon/git/swp-report/iMX6_Platform_SDK/output/mx6dq/sdk_unit_test/smart_device_rev_c/libsdk_unit_test.a(ips_test.o)
 .debug_loc     0x00002838       0xdc /home/leon/git/swp-report/iMX6_Platform_SDK/output/mx6dq/sdk_unit_test/smart_device_rev_c/libsdk_unit_test.a(ipu_image.o)
 .debug_loc     0x00002914       0x2c /home/leon/git/swp-report/iMX6_Platform_SDK/output/mx6dq/sdk_unit_test/smart_device_rev_c/libsdk_unit_test.a(camera_test.o)
 .debug_loc     0x00002940       0x2c /home/leon/git/swp-report/iMX6_Platform_SDK/output/mx6dq/sdk_unit_test/smart_device_rev_c/libsdk_unit_test.a(csi_test_mode.o)
 .debug_loc     0x0000296c       0x2c /home/leon/git/swp-report/iMX6_Platform_SDK/output/mx6dq/sdk_unit_test/smart_device_rev_c/libsdk_unit_test.a(sensor_capture.o)
 .debug_loc     0x00002998       0x58 /home/leon/git/swp-report/iMX6_Platform_SDK/output/mx6dq/sdk_unit_test/smart_device_rev_c/libsdk_unit_test.a(keypad_test.o)
 .debug_loc     0x000029f0       0x2c /home/leon/git/swp-report/iMX6_Platform_SDK/output/mx6dq/sdk_unit_test/smart_device_rev_c/libsdk_unit_test.a(pcie_test_rc.o)
 .debug_loc     0x00002a1c       0x2c /home/leon/git/swp-report/iMX6_Platform_SDK/output/mx6dq/sdk_unit_test/smart_device_rev_c/libsdk_unit_test.a(usb_test.o)
 .debug_loc     0x00002a48       0x84 /home/leon/git/swp-report/iMX6_Platform_SDK/output/mx6dq/sdk_unit_test/smart_device_rev_c/libsdk_unit_test.a(enet_test.o)
 .debug_loc     0x00002acc       0x58 /home/leon/git/swp-report/iMX6_Platform_SDK/output/mx6dq/sdk_unit_test/smart_device_rev_c/libsdk_unit_test.a(spi_test.o)
 .debug_loc     0x00002b24       0x2c /home/leon/git/swp-report/iMX6_Platform_SDK/output/mx6dq/sdk_unit_test/smart_device_rev_c/libsdk_unit_test.a(accelerometer_test.o)
 .debug_loc     0x00002b50       0x58 /home/leon/git/swp-report/iMX6_Platform_SDK/output/mx6dq/sdk_unit_test/smart_device_rev_c/libsdk_unit_test.a(sata_test.o)
 .debug_loc     0x00002ba8       0x84 /home/leon/git/swp-report/iMX6_Platform_SDK/output/mx6dq/sdk_unit_test/smart_device_rev_c/libsdk_unit_test.a(at24cxx.o)
 .debug_loc     0x00002c2c       0x2c /home/leon/git/swp-report/iMX6_Platform_SDK/output/mx6dq/sdk_unit_test/smart_device_rev_c/libsdk_unit_test.a(mem_2_mem.o)
 .debug_loc     0x00002c58       0x58 /home/leon/git/swp-report/iMX6_Platform_SDK/output/mx6dq/sdk_unit_test/smart_device_rev_c/libsdk_unit_test.a(pwm_output.o)
 .debug_loc     0x00002cb0       0x2c /home/leon/git/swp-report/iMX6_Platform_SDK/output/mx6dq/sdk_unit_test/smart_device_rev_c/libsdk_unit_test.a(ips_combiner.o)
 .debug_loc     0x00002cdc       0x2c /home/leon/git/swp-report/iMX6_Platform_SDK/output/mx6dq/sdk_unit_test/smart_device_rev_c/libsdk_unit_test.a(ips_csc.o)
 .debug_loc     0x00002d08       0x2c /home/leon/git/swp-report/iMX6_Platform_SDK/output/mx6dq/sdk_unit_test/smart_device_rev_c/libsdk_unit_test.a(ips_resize.o)
 .debug_loc     0x00002d34       0x2c /home/leon/git/swp-report/iMX6_Platform_SDK/output/mx6dq/sdk_unit_test/smart_device_rev_c/libsdk_unit_test.a(ips_rotate.o)
 .debug_loc     0x00002d60       0x84 /home/leon/git/swp-report/iMX6_Platform_SDK/output/mx6dq/sdk_unit_test/smart_device_rev_c/libsdk_unit_test.a(usb0_device_mouse_test.o)
 .debug_loc     0x00002de4      0x160 /home/leon/git/swp-report/iMX6_Platform_SDK/output/mx6dq/sdk_unit_test/smart_device_rev_c/libsdk_unit_test.a(usb0_host_test.o)
 .debug_loc     0x00002f44       0x2c /home/leon/git/swp-report/iMX6_Platform_SDK/output/mx6dq/sdk_unit_test/smart_device_rev_c/libsdk_unit_test.a(usb0_host_testmodes_test.o)
 .debug_loc     0x00002f70      0x160 /home/leon/git/swp-report/iMX6_Platform_SDK/output/mx6dq/sdk_unit_test/smart_device_rev_c/libsdk_unit_test.a(spi_nor_numonyx.o)
 .debug_loc     0x000030d0       0x58 /home/leon/git/swp-report/iMX6_Platform_SDK/output/mx6dq/lib/libsdk.a(profile.o)
 .debug_loc     0x00003128      0x2c0 /home/leon/git/swp-report/iMX6_Platform_SDK/output/mx6dq/lib/libsdk.a(armv7_cache.o)
 .debug_loc     0x000033e8      0x370 /home/leon/git/swp-report/iMX6_Platform_SDK/output/mx6dq/lib/libsdk.a(runtime_support.o)
 .debug_loc     0x00003758       0xb0 /home/leon/git/swp-report/iMX6_Platform_SDK/output/mx6dq/lib/libsdk.a(mma8451.o)
 .debug_loc     0x00003808      0x1b8 /home/leon/git/swp-report/iMX6_Platform_SDK/output/mx6dq/lib/libsdk.a(smd_sensor.o)
 .debug_loc     0x000039c0       0x2c /home/leon/git/swp-report/iMX6_Platform_SDK/output/mx6dq/lib/libsdk.a(cpu_get_cores.o)
 .debug_loc     0x000039ec       0x84 /home/leon/git/swp-report/iMX6_Platform_SDK/output/mx6dq/lib/libsdk.a(cpu_multicore.o)
 .debug_loc     0x00003a70       0x2c /home/leon/git/swp-report/iMX6_Platform_SDK/output/mx6dq/lib/libsdk.a(cpu_workpoint.o)
 .debug_loc     0x00003a9c      0x344 /home/leon/git/swp-report/iMX6_Platform_SDK/output/mx6dq/lib/libsdk.a(enet_drv.o)
 .debug_loc     0x00003de0      0x1e4 /home/leon/git/swp-report/iMX6_Platform_SDK/output/mx6dq/lib/libsdk.a(gpio.o)
 .debug_loc     0x00003fc4      0x1b8 /home/leon/git/swp-report/iMX6_Platform_SDK/output/mx6dq/lib/libsdk.a(hdmi_tx.o)
 .debug_loc     0x0000417c      0x39c /home/leon/git/swp-report/iMX6_Platform_SDK/output/mx6dq/lib/libsdk.a(hdmi_tx_audio.o)
 .debug_loc     0x00004518      0x39c /home/leon/git/swp-report/iMX6_Platform_SDK/output/mx6dq/lib/libsdk.a(hdmi_tx_phy.o)
 .debug_loc     0x000048b4      0x268 /home/leon/git/swp-report/iMX6_Platform_SDK/output/mx6dq/lib/libsdk.a(imx_i2c.o)
 .debug_loc     0x00004b1c       0x84 /home/leon/git/swp-report/iMX6_Platform_SDK/output/mx6dq/lib/libsdk.a(imx_i2c_slave.o)
 .debug_loc     0x00004ba0      0x2ec /home/leon/git/swp-report/iMX6_Platform_SDK/output/mx6dq/lib/libsdk.a(ips_disp_panel.o)
 .debug_loc     0x00004e8c      0x268 /home/leon/git/swp-report/iMX6_Platform_SDK/output/mx6dq/lib/libsdk.a(ipu_common.o)
 .debug_loc     0x000050f4      0x108 /home/leon/git/swp-report/iMX6_Platform_SDK/output/mx6dq/lib/libsdk.a(ipu_csi.o)
 .debug_loc     0x000051fc      0x108 /home/leon/git/swp-report/iMX6_Platform_SDK/output/mx6dq/lib/libsdk.a(ipu_dc.o)
 .debug_loc     0x00005304      0x134 /home/leon/git/swp-report/iMX6_Platform_SDK/output/mx6dq/lib/libsdk.a(ipu_di.o)
 .debug_loc     0x00005438       0x58 /home/leon/git/swp-report/iMX6_Platform_SDK/output/mx6dq/lib/libsdk.a(ipu_dmfc.o)
 .debug_loc     0x00005490       0x84 /home/leon/git/swp-report/iMX6_Platform_SDK/output/mx6dq/lib/libsdk.a(ipu_dp.o)
 .debug_loc     0x00005514      0x18c /home/leon/git/swp-report/iMX6_Platform_SDK/output/mx6dq/lib/libsdk.a(ipu_ic.o)
 .debug_loc     0x000056a0      0x2ec /home/leon/git/swp-report/iMX6_Platform_SDK/output/mx6dq/lib/libsdk.a(ipu_idmac.o)
 .debug_loc     0x0000598c      0x160 /home/leon/git/swp-report/iMX6_Platform_SDK/output/mx6dq/lib/libsdk.a(ipu_vdi.o)
 .debug_loc     0x00005aec      0x160 /home/leon/git/swp-report/iMX6_Platform_SDK/output/mx6dq/lib/libsdk.a(keypad_port.o)
 .debug_loc     0x00005c4c       0x84 /home/leon/git/swp-report/iMX6_Platform_SDK/output/mx6dq/lib/libsdk.a(ldb.o)
 .debug_loc     0x00005cd0      0x134 /home/leon/git/swp-report/iMX6_Platform_SDK/output/mx6dq/lib/libsdk.a(ocotp.o)
 .debug_loc     0x00005e04       0xdc /home/leon/git/swp-report/iMX6_Platform_SDK/output/mx6dq/lib/libsdk.a(pcie.o)
 .debug_loc     0x00005ee0       0xb0 /home/leon/git/swp-report/iMX6_Platform_SDK/output/mx6dq/lib/libsdk.a(pcie_phy.o)
 .debug_loc     0x00005f90       0xdc /home/leon/git/swp-report/iMX6_Platform_SDK/output/mx6dq/lib/libsdk.a(pcie_prot.o)
 .debug_loc     0x0000606c      0xf20 /home/leon/git/swp-report/iMX6_Platform_SDK/output/mx6dq/lib/libsdk.a(pmu_driver.o)
 .debug_loc     0x00006f8c      0x160 /home/leon/git/swp-report/iMX6_Platform_SDK/output/mx6dq/lib/libsdk.a(pwm.o)
 .debug_loc     0x000070ec      0x134 /home/leon/git/swp-report/iMX6_Platform_SDK/output/mx6dq/lib/libsdk.a(rtc.o)
 .debug_loc     0x00007220       0xdc /home/leon/git/swp-report/iMX6_Platform_SDK/output/mx6dq/lib/libsdk.a(srtc.o)
 .debug_loc     0x000072fc      0x4a4 /home/leon/git/swp-report/iMX6_Platform_SDK/output/mx6dq/lib/libsdk.a(sata.o)
 .debug_loc     0x000077a0      0x2c0 /home/leon/git/swp-report/iMX6_Platform_SDK/output/mx6dq/lib/libsdk.a(sdma.o)
 .debug_loc     0x00007a60      0x1e4 /home/leon/git/swp-report/iMX6_Platform_SDK/output/mx6dq/lib/libsdk.a(snvs.o)
 .debug_loc     0x00007c44      0x134 /home/leon/git/swp-report/iMX6_Platform_SDK/output/mx6dq/lib/libsdk.a(ecspi.o)
 .debug_loc     0x00007d78      0x134 /home/leon/git/swp-report/iMX6_Platform_SDK/output/mx6dq/lib/libsdk.a(tempmon.o)
 .debug_loc     0x00007eac      0x1b8 /home/leon/git/swp-report/iMX6_Platform_SDK/output/mx6dq/lib/libsdk.a(gpt.o)
 .debug_loc     0x00008064       0x84 /home/leon/git/swp-report/iMX6_Platform_SDK/output/mx6dq/lib/libsdk.a(usb_common.o)
 .debug_loc     0x000080e8      0x18c /home/leon/git/swp-report/iMX6_Platform_SDK/output/mx6dq/lib/libsdk.a(usbd_drv.o)
 .debug_loc     0x00008274      0x160 /home/leon/git/swp-report/iMX6_Platform_SDK/output/mx6dq/lib/libsdk.a(usbh_drv.o)
 .debug_loc     0x000083d4      0x318 /home/leon/git/swp-report/iMX6_Platform_SDK/output/mx6dq/lib/libsdk.a(usdhc.o)
 .debug_loc     0x000086ec      0x44c /home/leon/git/swp-report/iMX6_Platform_SDK/output/mx6dq/lib/libsdk.a(usdhc_host.o)
 .debug_loc     0x00008b38      0x23c /home/leon/git/swp-report/iMX6_Platform_SDK/output/mx6dq/lib/libsdk.a(usdhc_mmc.o)
 .debug_loc     0x00008d74       0xb0 /home/leon/git/swp-report/iMX6_Platform_SDK/output/mx6dq/lib/libsdk.a(usdhc_sd.o)
 .debug_loc     0x00008e24       0x58 /home/leon/git/swp-report/iMX6_Platform_SDK/output/mx6dq/lib/libsdk.a(spinlock.o)
 .debug_loc     0x00008e7c       0xdc /home/leon/git/swp-report/iMX6_Platform_SDK/output/mx6dq/lib/libsdk.a(hdmi_common.o)
 .debug_loc     0x00008f58       0x58 /home/leon/git/swp-report/iMX6_Platform_SDK/output/mx6dq/lib/libsdk.a(mx6x_usb.o)
 .debug_loc     0x00008fb0      0x134 /home/leon/git/swp-report/iMX6_Platform_SDK/output/mx6dq/lib/libboard_smart_device_rev_c.a(board_audio.o)
 .debug_loc     0x000090e4      0x108 /home/leon/git/swp-report/iMX6_Platform_SDK/output/mx6dq/lib/libboard_smart_device_rev_c.a(board_camera.o)
 .debug_loc     0x000091ec      0x134 /home/leon/git/swp-report/iMX6_Platform_SDK/output/mx6dq/lib/libboard_smart_device_rev_c.a(board_display.o)
 .debug_loc     0x00009320      0x108 /home/leon/git/swp-report/iMX6_Platform_SDK/output/mx6dq/lib/libboard_smart_device_rev_c.a(board_hdmi.o)
 .debug_loc     0x00009428       0xdc /home/leon/git/swp-report/iMX6_Platform_SDK/output/mx6dq/lib/libboard_smart_device_rev_c.a(board_mipi.o)
 .debug_loc     0x00009504       0xdc /home/leon/git/swp-report/iMX6_Platform_SDK/output/mx6dq/lib/libboard_smart_device_rev_c.a(board_network.o)
 .debug_loc     0x000095e0       0xdc /home/leon/git/swp-report/iMX6_Platform_SDK/output/mx6dq/lib/libboard_smart_device_rev_c.a(board_pcie.o)
 .debug_loc     0x000096bc      0x108 /home/leon/git/swp-report/iMX6_Platform_SDK/output/mx6dq/lib/libboard_smart_device_rev_c.a(board_sata.o)
 .debug_loc     0x000097c4       0x84 /home/leon/git/swp-report/iMX6_Platform_SDK/output/mx6dq/lib/libboard_smart_device_rev_c.a(board_usb.o)
 .debug_loc     0x00009848       0x84 /home/leon/git/swp-report/iMX6_Platform_SDK/output/mx6dq/lib/libboard_smart_device_rev_c.a(board_usdhc.o)
 .debug_loc     0x000098cc       0x2c /home/leon/git/swp-report/iMX6_Platform_SDK/output/mx6dq/lib/libboard_smart_device_rev_c.a(ecspi_iomux_config.o)
 .debug_loc     0x000098f8       0x2c /home/leon/git/swp-report/iMX6_Platform_SDK/output/mx6dq/lib/libboard_smart_device_rev_c.a(i2c_iomux_config.o)
 .debug_loc     0x00009924       0x2c /home/leon/git/swp-report/iMX6_Platform_SDK/output/mx6dq/lib/libboard_smart_device_rev_c.a(pwm_iomux_config.o)
 .debug_loc     0x00009950       0x2c /home/leon/git/swp-report/iMX6_Platform_SDK/output/mx6dq/lib/libboard_smart_device_rev_c.a(usdhc_iomux_config.o)
 .debug_loc     0x0000997c       0xb0 /home/leon/git/swp-report/iMX6_Platform_SDK/output/mx6dq/lib/libsdk.a(max7310.o)

.debug_frame    0x00000000     0x9ec0
 .debug_frame   0x00000000       0x30 /home/leon/git/swp-report/iMX6_Platform_SDK/output/mx6dq/sdk_unit_test/smart_device_rev_c/obj/apps/common/platform_init.o
 .debug_frame   0x00000030       0x50 /home/leon/git/swp-report/iMX6_Platform_SDK/output/mx6dq/sdk_unit_test/smart_device_rev_c/obj/apps/common/print_clock_info.o
 .debug_frame   0x00000080       0x30 /home/leon/git/swp-report/iMX6_Platform_SDK/output/mx6dq/sdk_unit_test/smart_device_rev_c/obj/apps/common/print_version.o
 .debug_frame   0x000000b0       0x50 /home/leon/git/swp-report/iMX6_Platform_SDK/output/mx6dq/sdk_unit_test/smart_device_rev_c/obj/apps/sdk_unit_test/src/all_test.o
 .debug_frame   0x00000100       0x30 /home/leon/git/swp-report/iMX6_Platform_SDK/output/mx6dq/sdk_unit_test/smart_device_rev_c/obj/apps/sdk_unit_test/src/unit_test_main.o
 .debug_frame   0x00000130      0x130 /home/leon/git/swp-report/iMX6_Platform_SDK/output/mx6dq/lib/libsdk.a(ccm_pll.o)
 .debug_frame   0x00000260      0x230 /home/leon/git/swp-report/iMX6_Platform_SDK/output/mx6dq/lib/libsdk.a(gic.o)
 .debug_frame   0x00000490       0xb0 /home/leon/git/swp-report/iMX6_Platform_SDK/output/mx6dq/lib/libsdk.a(mmu.o)
 .debug_frame   0x00000540      0x170 /home/leon/git/swp-report/iMX6_Platform_SDK/output/mx6dq/lib/libsdk.a(menu.o)
 .debug_frame   0x000006b0       0xe0 /home/leon/git/swp-report/iMX6_Platform_SDK/output/mx6dq/lib/libsdk.a(system_util.o)
 .debug_frame   0x00000790       0x54 /home/leon/git/swp-report/iMX6_Platform_SDK/output/mx6dq/lib/libsdk.a(text_color.o)
 .debug_frame   0x000007e4       0xf0 /home/leon/git/swp-report/iMX6_Platform_SDK/output/mx6dq/lib/libsdk.a(board_id.o)
 .debug_frame   0x000008d4       0x94 /home/leon/git/swp-report/iMX6_Platform_SDK/output/mx6dq/lib/libsdk.a(timer.o)
 .debug_frame   0x00000968       0xf0 /home/leon/git/swp-report/iMX6_Platform_SDK/output/mx6dq/lib/libsdk.a(imx_uart.o)
 .debug_frame   0x00000a58       0xb8 /home/leon/git/swp-report/iMX6_Platform_SDK/output/mx6dq/lib/libsdk.a(interrupt.o)
 .debug_frame   0x00000b10      0x110 /home/leon/git/swp-report/iMX6_Platform_SDK/output/mx6dq/lib/libsdk.a(epit.o)
 .debug_frame   0x00000c20       0x38 /home/leon/git/swp-report/iMX6_Platform_SDK/output/mx6dq/lib/libsdk.a(abort_handler.o)
 .debug_frame   0x00000c58       0x50 /home/leon/git/swp-report/iMX6_Platform_SDK/output/mx6dq/lib/libboard_smart_device_rev_c.a(board_io_expanders.o)
 .debug_frame   0x00000ca8       0x30 /home/leon/git/swp-report/iMX6_Platform_SDK/output/mx6dq/lib/libboard_smart_device_rev_c.a(uart_iomux_config.o)
 .debug_frame   0x00000cd8      0x550 /home/leon/git/swp-report/iMX6_Platform_SDK/output/mx6dq/lib/libboard_smart_device_rev_c.a(iomux_config.o)
 .debug_frame   0x00001228       0x30 /home/leon/git/swp-report/iMX6_Platform_SDK/output/mx6dq/lib/libboard_smart_device_rev_c.a(ipu1_iomux_config.o)
 .debug_frame   0x00001258       0x30 /home/leon/git/swp-report/iMX6_Platform_SDK/output/mx6dq/lib/libboard_smart_device_rev_c.a(mmdc_iomux_config.o)
 .debug_frame   0x00001288       0x30 /home/leon/git/swp-report/iMX6_Platform_SDK/output/mx6dq/lib/libboard_smart_device_rev_c.a(pwm1_iomux_config.o)
 .debug_frame   0x000012b8       0x30 /home/leon/git/swp-report/iMX6_Platform_SDK/output/mx6dq/lib/libboard_smart_device_rev_c.a(sjc_iomux_config.o)
 .debug_frame   0x000012e8       0x30 /home/leon/git/swp-report/iMX6_Platform_SDK/output/mx6dq/lib/libboard_smart_device_rev_c.a(uart1_iomux_config.o)
 .debug_frame   0x00001318       0x30 /home/leon/git/swp-report/iMX6_Platform_SDK/output/mx6dq/lib/libboard_smart_device_rev_c.a(usb_iomux_config.o)
 .debug_frame   0x00001348       0x30 /home/leon/git/swp-report/iMX6_Platform_SDK/output/mx6dq/lib/libboard_smart_device_rev_c.a(usdhc2_iomux_config.o)
 .debug_frame   0x00001378       0x30 /home/leon/git/swp-report/iMX6_Platform_SDK/output/mx6dq/lib/libboard_smart_device_rev_c.a(usdhc3_iomux_config.o)
 .debug_frame   0x000013a8       0x30 /home/leon/git/swp-report/iMX6_Platform_SDK/output/mx6dq/lib/libboard_smart_device_rev_c.a(usdhc4_iomux_config.o)
 .debug_frame   0x000013d8       0x30 /home/leon/git/swp-report/iMX6_Platform_SDK/output/mx6dq/lib/libboard_smart_device_rev_c.a(audmux_iomux_config.o)
 .debug_frame   0x00001408       0x30 /home/leon/git/swp-report/iMX6_Platform_SDK/output/mx6dq/lib/libboard_smart_device_rev_c.a(ccm_iomux_config.o)
 .debug_frame   0x00001438       0x30 /home/leon/git/swp-report/iMX6_Platform_SDK/output/mx6dq/lib/libboard_smart_device_rev_c.a(ecspi1_iomux_config.o)
 .debug_frame   0x00001468       0x30 /home/leon/git/swp-report/iMX6_Platform_SDK/output/mx6dq/lib/libboard_smart_device_rev_c.a(enet_iomux_config.o)
 .debug_frame   0x00001498       0x30 /home/leon/git/swp-report/iMX6_Platform_SDK/output/mx6dq/lib/libboard_smart_device_rev_c.a(flexcan1_iomux_config.o)
 .debug_frame   0x000014c8       0x30 /home/leon/git/swp-report/iMX6_Platform_SDK/output/mx6dq/lib/libboard_smart_device_rev_c.a(gpio1_iomux_config.o)
 .debug_frame   0x000014f8       0x30 /home/leon/git/swp-report/iMX6_Platform_SDK/output/mx6dq/lib/libboard_smart_device_rev_c.a(gpio2_iomux_config.o)
 .debug_frame   0x00001528       0x30 /home/leon/git/swp-report/iMX6_Platform_SDK/output/mx6dq/lib/libboard_smart_device_rev_c.a(gpio3_iomux_config.o)
 .debug_frame   0x00001558       0x30 /home/leon/git/swp-report/iMX6_Platform_SDK/output/mx6dq/lib/libboard_smart_device_rev_c.a(gpio4_iomux_config.o)
 .debug_frame   0x00001588       0x30 /home/leon/git/swp-report/iMX6_Platform_SDK/output/mx6dq/lib/libboard_smart_device_rev_c.a(gpio5_iomux_config.o)
 .debug_frame   0x000015b8       0x30 /home/leon/git/swp-report/iMX6_Platform_SDK/output/mx6dq/lib/libboard_smart_device_rev_c.a(gpio6_iomux_config.o)
 .debug_frame   0x000015e8       0x30 /home/leon/git/swp-report/iMX6_Platform_SDK/output/mx6dq/lib/libboard_smart_device_rev_c.a(gpio7_iomux_config.o)
 .debug_frame   0x00001618       0x30 /home/leon/git/swp-report/iMX6_Platform_SDK/output/mx6dq/lib/libboard_smart_device_rev_c.a(gps_iomux_config.o)
 .debug_frame   0x00001648       0x30 /home/leon/git/swp-report/iMX6_Platform_SDK/output/mx6dq/lib/libboard_smart_device_rev_c.a(i2c1_iomux_config.o)
 .debug_frame   0x00001678       0x30 /home/leon/git/swp-report/iMX6_Platform_SDK/output/mx6dq/lib/libboard_smart_device_rev_c.a(i2c2_iomux_config.o)
 .debug_frame   0x000016a8       0x30 /home/leon/git/swp-report/iMX6_Platform_SDK/output/mx6dq/lib/libboard_smart_device_rev_c.a(i2c3_iomux_config.o)
 .debug_frame   0x000016d8       0x30 /home/leon/git/swp-report/iMX6_Platform_SDK/output/mx6dq/sdk_unit_test/smart_device_rev_c/libsdk_unit_test.a(audio_test.o)
 .debug_frame   0x00001708       0x50 /home/leon/git/swp-report/iMX6_Platform_SDK/output/mx6dq/sdk_unit_test/smart_device_rev_c/libsdk_unit_test.a(gic_test.o)
 .debug_frame   0x00001758       0x70 /home/leon/git/swp-report/iMX6_Platform_SDK/output/mx6dq/sdk_unit_test/smart_device_rev_c/libsdk_unit_test.a(cpu_wp_test.o)
 .debug_frame   0x000017c8       0x70 /home/leon/git/swp-report/iMX6_Platform_SDK/output/mx6dq/sdk_unit_test/smart_device_rev_c/libsdk_unit_test.a(multicore_test.o)
 .debug_frame   0x00001838       0x30 /home/leon/git/swp-report/iMX6_Platform_SDK/output/mx6dq/sdk_unit_test/smart_device_rev_c/libsdk_unit_test.a(ocotp_test.o)
 .debug_frame   0x00001868       0xb0 /home/leon/git/swp-report/iMX6_Platform_SDK/output/mx6dq/sdk_unit_test/smart_device_rev_c/libsdk_unit_test.a(snvs_rtc_test.o)
 .debug_frame   0x00001918       0x70 /home/leon/git/swp-report/iMX6_Platform_SDK/output/mx6dq/sdk_unit_test/smart_device_rev_c/libsdk_unit_test.a(snvs_srtc_test.o)
 .debug_frame   0x00001988       0x30 /home/leon/git/swp-report/iMX6_Platform_SDK/output/mx6dq/sdk_unit_test/smart_device_rev_c/libsdk_unit_test.a(i2c_test.o)
 .debug_frame   0x000019b8       0x70 /home/leon/git/swp-report/iMX6_Platform_SDK/output/mx6dq/sdk_unit_test/smart_device_rev_c/libsdk_unit_test.a(imx6_i2c_device.o)
 .debug_frame   0x00001a28       0x70 /home/leon/git/swp-report/iMX6_Platform_SDK/output/mx6dq/sdk_unit_test/smart_device_rev_c/libsdk_unit_test.a(tempmon_test.o)
 .debug_frame   0x00001a98       0x30 /home/leon/git/swp-report/iMX6_Platform_SDK/output/mx6dq/sdk_unit_test/smart_device_rev_c/libsdk_unit_test.a(sdma_test.o)
 .debug_frame   0x00001ac8       0x70 /home/leon/git/swp-report/iMX6_Platform_SDK/output/mx6dq/sdk_unit_test/smart_device_rev_c/libsdk_unit_test.a(spi_lpb.o)
 .debug_frame   0x00001b38       0xf0 /home/leon/git/swp-report/iMX6_Platform_SDK/output/mx6dq/sdk_unit_test/smart_device_rev_c/libsdk_unit_test.a(uart_loopback.o)
 .debug_frame   0x00001c28       0x50 /home/leon/git/swp-report/iMX6_Platform_SDK/output/mx6dq/sdk_unit_test/smart_device_rev_c/libsdk_unit_test.a(uart_test.o)
 .debug_frame   0x00001c78       0x90 /home/leon/git/swp-report/iMX6_Platform_SDK/output/mx6dq/sdk_unit_test/smart_device_rev_c/libsdk_unit_test.a(epit_test.o)
 .debug_frame   0x00001d08       0x90 /home/leon/git/swp-report/iMX6_Platform_SDK/output/mx6dq/sdk_unit_test/smart_device_rev_c/libsdk_unit_test.a(gpt_test.o)
 .debug_frame   0x00001d98       0x38 /home/leon/git/swp-report/iMX6_Platform_SDK/output/mx6dq/sdk_unit_test/smart_device_rev_c/libsdk_unit_test.a(timer_test.o)
 .debug_frame   0x00001dd0      0x170 /home/leon/git/swp-report/iMX6_Platform_SDK/output/mx6dq/sdk_unit_test/smart_device_rev_c/libsdk_unit_test.a(usdhc_test.o)
 .debug_frame   0x00001f40       0x30 /home/leon/git/swp-report/iMX6_Platform_SDK/output/mx6dq/sdk_unit_test/smart_device_rev_c/libsdk_unit_test.a(pwm_test.o)
 .debug_frame   0x00001f70       0x50 /home/leon/git/swp-report/iMX6_Platform_SDK/output/mx6dq/sdk_unit_test/smart_device_rev_c/libsdk_unit_test.a(watchdog_test.o)
 .debug_frame   0x00001fc0       0xb0 /home/leon/git/swp-report/iMX6_Platform_SDK/output/mx6dq/sdk_unit_test/smart_device_rev_c/libsdk_unit_test.a(hdmi_test.o)
 .debug_frame   0x00002070       0x34 /home/leon/git/swp-report/iMX6_Platform_SDK/output/mx6dq/sdk_unit_test/smart_device_rev_c/libsdk_unit_test.a(init_dma_data.o)
 .debug_frame   0x000020a4       0xf0 /home/leon/git/swp-report/iMX6_Platform_SDK/output/mx6dq/sdk_unit_test/smart_device_rev_c/libsdk_unit_test.a(ips_display.o)
 .debug_frame   0x00002194       0x30 /home/leon/git/swp-report/iMX6_Platform_SDK/output/mx6dq/sdk_unit_test/smart_device_rev_c/libsdk_unit_test.a(ips_test.o)
 .debug_frame   0x000021c4       0xb0 /home/leon/git/swp-report/iMX6_Platform_SDK/output/mx6dq/sdk_unit_test/smart_device_rev_c/libsdk_unit_test.a(ipu_image.o)
 .debug_frame   0x00002274       0x30 /home/leon/git/swp-report/iMX6_Platform_SDK/output/mx6dq/sdk_unit_test/smart_device_rev_c/libsdk_unit_test.a(camera_test.o)
 .debug_frame   0x000022a4       0x30 /home/leon/git/swp-report/iMX6_Platform_SDK/output/mx6dq/sdk_unit_test/smart_device_rev_c/libsdk_unit_test.a(csi_test_mode.o)
 .debug_frame   0x000022d4       0x30 /home/leon/git/swp-report/iMX6_Platform_SDK/output/mx6dq/sdk_unit_test/smart_device_rev_c/libsdk_unit_test.a(sensor_capture.o)
 .debug_frame   0x00002304       0x50 /home/leon/git/swp-report/iMX6_Platform_SDK/output/mx6dq/sdk_unit_test/smart_device_rev_c/libsdk_unit_test.a(keypad_test.o)
 .debug_frame   0x00002354       0x30 /home/leon/git/swp-report/iMX6_Platform_SDK/output/mx6dq/sdk_unit_test/smart_device_rev_c/libsdk_unit_test.a(pcie_test_rc.o)
 .debug_frame   0x00002384       0x30 /home/leon/git/swp-report/iMX6_Platform_SDK/output/mx6dq/sdk_unit_test/smart_device_rev_c/libsdk_unit_test.a(usb_test.o)
 .debug_frame   0x000023b4       0x70 /home/leon/git/swp-report/iMX6_Platform_SDK/output/mx6dq/sdk_unit_test/smart_device_rev_c/libsdk_unit_test.a(enet_test.o)
 .debug_frame   0x00002424       0x50 /home/leon/git/swp-report/iMX6_Platform_SDK/output/mx6dq/sdk_unit_test/smart_device_rev_c/libsdk_unit_test.a(spi_test.o)
 .debug_frame   0x00002474       0x38 /home/leon/git/swp-report/iMX6_Platform_SDK/output/mx6dq/sdk_unit_test/smart_device_rev_c/libsdk_unit_test.a(accelerometer_test.o)
 .debug_frame   0x000024ac       0x50 /home/leon/git/swp-report/iMX6_Platform_SDK/output/mx6dq/sdk_unit_test/smart_device_rev_c/libsdk_unit_test.a(sata_test.o)
 .debug_frame   0x000024fc       0x70 /home/leon/git/swp-report/iMX6_Platform_SDK/output/mx6dq/sdk_unit_test/smart_device_rev_c/libsdk_unit_test.a(at24cxx.o)
 .debug_frame   0x0000256c       0x34 /home/leon/git/swp-report/iMX6_Platform_SDK/output/mx6dq/sdk_unit_test/smart_device_rev_c/libsdk_unit_test.a(mem_2_mem.o)
 .debug_frame   0x000025a0       0x54 /home/leon/git/swp-report/iMX6_Platform_SDK/output/mx6dq/sdk_unit_test/smart_device_rev_c/libsdk_unit_test.a(pwm_output.o)
 .debug_frame   0x000025f4       0x30 /home/leon/git/swp-report/iMX6_Platform_SDK/output/mx6dq/sdk_unit_test/smart_device_rev_c/libsdk_unit_test.a(ips_combiner.o)
 .debug_frame   0x00002624       0x30 /home/leon/git/swp-report/iMX6_Platform_SDK/output/mx6dq/sdk_unit_test/smart_device_rev_c/libsdk_unit_test.a(ips_csc.o)
 .debug_frame   0x00002654       0x34 /home/leon/git/swp-report/iMX6_Platform_SDK/output/mx6dq/sdk_unit_test/smart_device_rev_c/libsdk_unit_test.a(ips_resize.o)
 .debug_frame   0x00002688       0x30 /home/leon/git/swp-report/iMX6_Platform_SDK/output/mx6dq/sdk_unit_test/smart_device_rev_c/libsdk_unit_test.a(ips_rotate.o)
 .debug_frame   0x000026b8       0x70 /home/leon/git/swp-report/iMX6_Platform_SDK/output/mx6dq/sdk_unit_test/smart_device_rev_c/libsdk_unit_test.a(usb0_device_mouse_test.o)
 .debug_frame   0x00002728      0x110 /home/leon/git/swp-report/iMX6_Platform_SDK/output/mx6dq/sdk_unit_test/smart_device_rev_c/libsdk_unit_test.a(usb0_host_test.o)
 .debug_frame   0x00002838       0x30 /home/leon/git/swp-report/iMX6_Platform_SDK/output/mx6dq/sdk_unit_test/smart_device_rev_c/libsdk_unit_test.a(usb0_host_testmodes_test.o)
 .debug_frame   0x00002868      0x110 /home/leon/git/swp-report/iMX6_Platform_SDK/output/mx6dq/sdk_unit_test/smart_device_rev_c/libsdk_unit_test.a(spi_nor_numonyx.o)
 .debug_frame   0x00002978       0x28 /home/leon/riotboard/arm-2012.09/bin/../arm-none-eabi/lib//libm.a(lib_a-sf_cos.o)
 .debug_frame   0x000029a0       0x20 /home/leon/riotboard/arm-2012.09/bin/../arm-none-eabi/lib//libm.a(lib_a-sf_fabs.o)
 .debug_frame   0x000029c0       0x28 /home/leon/riotboard/arm-2012.09/bin/../arm-none-eabi/lib//libm.a(lib_a-sf_modf.o)
 .debug_frame   0x000029e8       0x28 /home/leon/riotboard/arm-2012.09/bin/../arm-none-eabi/lib//libm.a(lib_a-sf_sin.o)
 .debug_frame   0x00002a10       0x38 /home/leon/riotboard/arm-2012.09/bin/../arm-none-eabi/lib//libm.a(lib_a-ef_rem_pio2.o)
 .debug_frame   0x00002a48       0x34 /home/leon/riotboard/arm-2012.09/bin/../arm-none-eabi/lib//libm.a(lib_a-kf_cos.o)
 .debug_frame   0x00002a7c       0x3c /home/leon/riotboard/arm-2012.09/bin/../arm-none-eabi/lib//libm.a(lib_a-kf_rem_pio2.o)
 .debug_frame   0x00002ab8       0x34 /home/leon/riotboard/arm-2012.09/bin/../arm-none-eabi/lib//libm.a(lib_a-kf_sin.o)
 .debug_frame   0x00002aec       0x30 /home/leon/riotboard/arm-2012.09/bin/../arm-none-eabi/lib//libm.a(lib_a-sf_floor.o)
 .debug_frame   0x00002b1c       0x28 /home/leon/riotboard/arm-2012.09/bin/../arm-none-eabi/lib//libm.a(lib_a-sf_scalbn.o)
 .debug_frame   0x00002b44       0x20 /home/leon/riotboard/arm-2012.09/bin/../arm-none-eabi/lib//libm.a(lib_a-sf_copysign.o)
 .debug_frame   0x00002b64       0x40 /home/leon/riotboard/arm-2012.09/bin/../arm-none-eabi/lib//libc.a(lib_a-assert.o)
 .debug_frame   0x00002ba4       0x20 /home/leon/riotboard/arm-2012.09/bin/../arm-none-eabi/lib//libc.a(lib_a-bzero.o)
 .debug_frame   0x00002bc4       0x48 /home/leon/riotboard/arm-2012.09/bin/../arm-none-eabi/lib//libc.a(lib_a-fflush.o)
 .debug_frame   0x00002c0c      0x134 /home/leon/riotboard/arm-2012.09/bin/../arm-none-eabi/lib//libc.a(lib_a-findfp.o)
 .debug_frame   0x00002d40       0x54 /home/leon/riotboard/arm-2012.09/bin/../arm-none-eabi/lib//libc.a(lib_a-fiprintf.o)
 .debug_frame   0x00002d94       0x48 /home/leon/riotboard/arm-2012.09/bin/../arm-none-eabi/lib//libc.a(lib_a-fputc.o)
 .debug_frame   0x00002ddc       0x3c /home/leon/riotboard/arm-2012.09/bin/../arm-none-eabi/lib//libc.a(lib_a-fputs.o)
 .debug_frame   0x00002e18       0x50 /home/leon/riotboard/arm-2012.09/bin/../arm-none-eabi/lib//libc.a(lib_a-freer.o)
 .debug_frame   0x00002e68       0x38 /home/leon/riotboard/arm-2012.09/bin/../arm-none-eabi/lib//libc.a(lib_a-fvwrite.o)
 .debug_frame   0x00002ea0       0x54 /home/leon/riotboard/arm-2012.09/bin/../arm-none-eabi/lib//libc.a(lib_a-fwalk.o)
 .debug_frame   0x00002ef4       0x2c /home/leon/riotboard/arm-2012.09/bin/../arm-none-eabi/lib//libc.a(lib_a-init.o)
 .debug_frame   0x00002f20       0x40 /home/leon/riotboard/arm-2012.09/bin/../arm-none-eabi/lib//libc.a(lib_a-malloc.o)
 .debug_frame   0x00002f60       0x38 /home/leon/riotboard/arm-2012.09/bin/../arm-none-eabi/lib//libc.a(lib_a-mallocr.o)
 .debug_frame   0x00002f98       0x2c /home/leon/riotboard/arm-2012.09/bin/../arm-none-eabi/lib//libc.a(lib_a-memchr.o)
 .debug_frame   0x00002fc4       0x30 /home/leon/riotboard/arm-2012.09/bin/../arm-none-eabi/lib//libc.a(lib_a-memcpy.o)
 .debug_frame   0x00002ff4       0x2c /home/leon/riotboard/arm-2012.09/bin/../arm-none-eabi/lib//libc.a(lib_a-memmove.o)
 .debug_frame   0x00003020       0x28 /home/leon/riotboard/arm-2012.09/bin/../arm-none-eabi/lib//libc.a(lib_a-memset.o)
 .debug_frame   0x00003048       0x30 /home/leon/riotboard/arm-2012.09/bin/../arm-none-eabi/lib//libc.a(lib_a-mlock.o)
 .debug_frame   0x00003078       0x58 /home/leon/riotboard/arm-2012.09/bin/../arm-none-eabi/lib//libc.a(lib_a-printf.o)
 .debug_frame   0x000030d0       0x48 /home/leon/riotboard/arm-2012.09/bin/../arm-none-eabi/lib//libc.a(lib_a-putc.o)
 .debug_frame   0x00003118       0x28 /home/leon/riotboard/arm-2012.09/bin/../arm-none-eabi/lib//libc.a(lib_a-realloc.o)
 .debug_frame   0x00003140       0x38 /home/leon/riotboard/arm-2012.09/bin/../arm-none-eabi/lib//libc.a(lib_a-reallocr.o)
 .debug_frame   0x00003178       0x3c /home/leon/riotboard/arm-2012.09/bin/../arm-none-eabi/lib//libc.a(lib_a-rget.o)
 .debug_frame   0x000031b4       0x2c /home/leon/riotboard/arm-2012.09/bin/../arm-none-eabi/lib//libc.a(lib_a-sbrkr.o)
 .debug_frame   0x000031e0       0x5c /home/leon/riotboard/arm-2012.09/bin/../arm-none-eabi/lib//libc.a(lib_a-sprintf.o)
 .debug_frame   0x0000323c       0x88 /home/leon/riotboard/arm-2012.09/bin/../arm-none-eabi/lib//libc.a(lib_a-stdio.o)
 .debug_frame   0x000032c4       0x20 /home/leon/riotboard/arm-2012.09/bin/../arm-none-eabi/lib//libc.a(lib_a-strlen.o)
 .debug_frame   0x000032e4       0x28 /home/leon/riotboard/arm-2012.09/bin/../arm-none-eabi/lib//libc.a(lib_a-strncasecmp.o)
 .debug_frame   0x0000330c       0x3c /home/leon/riotboard/arm-2012.09/bin/../arm-none-eabi/lib//libc.a(lib_a-svfprintf.o)
 .debug_frame   0x00003348       0x7c /home/leon/riotboard/arm-2012.09/bin/../arm-none-eabi/lib//libc.a(lib_a-vfiprintf.o)
 .debug_frame   0x000033c4       0x58 /home/leon/riotboard/arm-2012.09/bin/../arm-none-eabi/lib//libc.a(lib_a-vfprintf.o)
 .debug_frame   0x0000341c       0x40 /home/leon/riotboard/arm-2012.09/bin/../arm-none-eabi/lib//libc.a(lib_a-vprintf.o)
 .debug_frame   0x0000345c       0x3c /home/leon/riotboard/arm-2012.09/bin/../arm-none-eabi/lib//libc.a(lib_a-wbuf.o)
 .debug_frame   0x00003498       0x2c /home/leon/riotboard/arm-2012.09/bin/../arm-none-eabi/lib//libc.a(lib_a-writer.o)
 .debug_frame   0x000034c4       0x2c /home/leon/riotboard/arm-2012.09/bin/../arm-none-eabi/lib//libc.a(lib_a-wsetup.o)
 .debug_frame   0x000034f0       0x28 /home/leon/riotboard/arm-2012.09/bin/../arm-none-eabi/lib//libc.a(lib_a-abort.o)
 .debug_frame   0x00003518       0x2c /home/leon/riotboard/arm-2012.09/bin/../arm-none-eabi/lib//libc.a(lib_a-closer.o)
 .debug_frame   0x00003544       0x64 /home/leon/riotboard/arm-2012.09/bin/../arm-none-eabi/lib//libc.a(lib_a-dtoa.o)
 .debug_frame   0x000035a8       0x3c /home/leon/riotboard/arm-2012.09/bin/../arm-none-eabi/lib//libc.a(lib_a-fclose.o)
 .debug_frame   0x000035e4       0x50 /home/leon/riotboard/arm-2012.09/bin/../arm-none-eabi/lib//libc.a(lib_a-fputwc.o)
 .debug_frame   0x00003634       0x98 /home/leon/riotboard/arm-2012.09/bin/../arm-none-eabi/lib//libc.a(lib_a-locale.o)
 .debug_frame   0x000036cc       0x2c /home/leon/riotboard/arm-2012.09/bin/../arm-none-eabi/lib//libc.a(lib_a-lseekr.o)
 .debug_frame   0x000036f8       0x30 /home/leon/riotboard/arm-2012.09/bin/../arm-none-eabi/lib//libc.a(lib_a-makebuf.o)
 .debug_frame   0x00003728      0x220 /home/leon/riotboard/arm-2012.09/bin/../arm-none-eabi/lib//libc.a(lib_a-mprec.o)
 .debug_frame   0x00003948       0x2c /home/leon/riotboard/arm-2012.09/bin/../arm-none-eabi/lib//libc.a(lib_a-readr.o)
 .debug_frame   0x00003974       0x68 /home/leon/riotboard/arm-2012.09/bin/../arm-none-eabi/lib//libc.a(lib_a-reent.o)
 .debug_frame   0x000039dc       0x44 /home/leon/riotboard/arm-2012.09/bin/../arm-none-eabi/lib//libc.a(lib_a-refill.o)
 .debug_frame   0x00003a20       0x20 /home/leon/riotboard/arm-2012.09/bin/../arm-none-eabi/lib//libc.a(lib_a-s_fpclassify.o)
 .debug_frame   0x00003a40       0xc0 /home/leon/riotboard/arm-2012.09/bin/../arm-none-eabi/lib//libc.a(lib_a-signal.o)
 .debug_frame   0x00003b00       0x44 /home/leon/riotboard/arm-2012.09/bin/../arm-none-eabi/lib//libc.a(lib_a-signalr.o)
 .debug_frame   0x00003b44       0x30 /home/leon/riotboard/arm-2012.09/bin/../arm-none-eabi/lib//libc.a(lib_a-strcmp.o)
 .debug_frame   0x00003b74       0x64 /home/leon/riotboard/arm-2012.09/bin/../arm-none-eabi/lib//libc.a(lib_a-svfiprintf.o)
 .debug_frame   0x00003bd8       0x58 /home/leon/riotboard/arm-2012.09/bin/../arm-none-eabi/lib//libc.a(lib_a-wcrtomb.o)
 .debug_frame   0x00003c30       0x44 /home/leon/riotboard/arm-2012.09/bin/../arm-none-eabi/lib//libc.a(lib_a-wctomb_r.o)
 .debug_frame   0x00003c74       0x28 /home/leon/riotboard/arm-2012.09/bin/../arm-none-eabi/lib//libc.a(lib_a-callocr.o)
 .debug_frame   0x00003c9c       0x2c /home/leon/riotboard/arm-2012.09/bin/../arm-none-eabi/lib//libc.a(lib_a-fstatr.o)
 .debug_frame   0x00003cc8       0x2c /home/leon/riotboard/arm-2012.09/bin/../arm-none-eabi/lib//libc.a(lib_a-isattyr.o)
 .debug_frame   0x00003cf4       0x20 /home/leon/riotboard/arm-2012.09/bin/../lib/gcc/arm-none-eabi/4.7.2//libgcc.a(_udivsi3.o)
 .debug_frame   0x00003d14       0x54 /home/leon/riotboard/arm-2012.09/bin/../lib/gcc/arm-none-eabi/4.7.2//libgcc.a(bpabi.o)
 .debug_frame   0x00003d68       0x38 /home/leon/riotboard/arm-2012.09/bin/../lib/gcc/arm-none-eabi/4.7.2//libgcc.a(_divdi3.o)
 .debug_frame   0x00003da0       0x38 /home/leon/riotboard/arm-2012.09/bin/../lib/gcc/arm-none-eabi/4.7.2//libgcc.a(_udivdi3.o)
 .debug_frame   0x00003dd8       0x50 /home/leon/git/swp-report/iMX6_Platform_SDK/output/mx6dq/lib/libsdk.a(profile.o)
 .debug_frame   0x00003e28      0x210 /home/leon/git/swp-report/iMX6_Platform_SDK/output/mx6dq/lib/libsdk.a(armv7_cache.o)
 .debug_frame   0x00004038      0x290 /home/leon/git/swp-report/iMX6_Platform_SDK/output/mx6dq/lib/libsdk.a(runtime_support.o)
 .debug_frame   0x000042c8       0x90 /home/leon/git/swp-report/iMX6_Platform_SDK/output/mx6dq/lib/libsdk.a(mma8451.o)
 .debug_frame   0x00004358      0x150 /home/leon/git/swp-report/iMX6_Platform_SDK/output/mx6dq/lib/libsdk.a(smd_sensor.o)
 .debug_frame   0x000044a8       0x30 /home/leon/git/swp-report/iMX6_Platform_SDK/output/mx6dq/lib/libsdk.a(cpu_get_cores.o)
 .debug_frame   0x000044d8       0x70 /home/leon/git/swp-report/iMX6_Platform_SDK/output/mx6dq/lib/libsdk.a(cpu_multicore.o)
 .debug_frame   0x00004548       0x30 /home/leon/git/swp-report/iMX6_Platform_SDK/output/mx6dq/lib/libsdk.a(cpu_workpoint.o)
 .debug_frame   0x00004578      0x270 /home/leon/git/swp-report/iMX6_Platform_SDK/output/mx6dq/lib/libsdk.a(enet_drv.o)
 .debug_frame   0x000047e8      0x178 /home/leon/git/swp-report/iMX6_Platform_SDK/output/mx6dq/lib/libsdk.a(gpio.o)
 .debug_frame   0x00004960      0x150 /home/leon/git/swp-report/iMX6_Platform_SDK/output/mx6dq/lib/libsdk.a(hdmi_tx.o)
 .debug_frame   0x00004ab0      0x2b0 /home/leon/git/swp-report/iMX6_Platform_SDK/output/mx6dq/lib/libsdk.a(hdmi_tx_audio.o)
 .debug_frame   0x00004d60      0x2b0 /home/leon/git/swp-report/iMX6_Platform_SDK/output/mx6dq/lib/libsdk.a(hdmi_tx_phy.o)
 .debug_frame   0x00005010      0x1d8 /home/leon/git/swp-report/iMX6_Platform_SDK/output/mx6dq/lib/libsdk.a(imx_i2c.o)
 .debug_frame   0x000051e8       0x70 /home/leon/git/swp-report/iMX6_Platform_SDK/output/mx6dq/lib/libsdk.a(imx_i2c_slave.o)
 .debug_frame   0x00005258      0x230 /home/leon/git/swp-report/iMX6_Platform_SDK/output/mx6dq/lib/libsdk.a(ips_disp_panel.o)
 .debug_frame   0x00005488      0x1d0 /home/leon/git/swp-report/iMX6_Platform_SDK/output/mx6dq/lib/libsdk.a(ipu_common.o)
 .debug_frame   0x00005658       0xd0 /home/leon/git/swp-report/iMX6_Platform_SDK/output/mx6dq/lib/libsdk.a(ipu_csi.o)
 .debug_frame   0x00005728       0xd0 /home/leon/git/swp-report/iMX6_Platform_SDK/output/mx6dq/lib/libsdk.a(ipu_dc.o)
 .debug_frame   0x000057f8       0xf4 /home/leon/git/swp-report/iMX6_Platform_SDK/output/mx6dq/lib/libsdk.a(ipu_di.o)
 .debug_frame   0x000058ec       0x50 /home/leon/git/swp-report/iMX6_Platform_SDK/output/mx6dq/lib/libsdk.a(ipu_dmfc.o)
 .debug_frame   0x0000593c       0x70 /home/leon/git/swp-report/iMX6_Platform_SDK/output/mx6dq/lib/libsdk.a(ipu_dp.o)
 .debug_frame   0x000059ac      0x130 /home/leon/git/swp-report/iMX6_Platform_SDK/output/mx6dq/lib/libsdk.a(ipu_ic.o)
 .debug_frame   0x00005adc      0x230 /home/leon/git/swp-report/iMX6_Platform_SDK/output/mx6dq/lib/libsdk.a(ipu_idmac.o)
 .debug_frame   0x00005d0c      0x110 /home/leon/git/swp-report/iMX6_Platform_SDK/output/mx6dq/lib/libsdk.a(ipu_vdi.o)
 .debug_frame   0x00005e1c      0x110 /home/leon/git/swp-report/iMX6_Platform_SDK/output/mx6dq/lib/libsdk.a(keypad_port.o)
 .debug_frame   0x00005f2c       0x70 /home/leon/git/swp-report/iMX6_Platform_SDK/output/mx6dq/lib/libsdk.a(ldb.o)
 .debug_frame   0x00005f9c       0xf0 /home/leon/git/swp-report/iMX6_Platform_SDK/output/mx6dq/lib/libsdk.a(ocotp.o)
 .debug_frame   0x0000608c       0xb0 /home/leon/git/swp-report/iMX6_Platform_SDK/output/mx6dq/lib/libsdk.a(pcie.o)
 .debug_frame   0x0000613c       0x90 /home/leon/git/swp-report/iMX6_Platform_SDK/output/mx6dq/lib/libsdk.a(pcie_phy.o)
 .debug_frame   0x000061cc       0xb0 /home/leon/git/swp-report/iMX6_Platform_SDK/output/mx6dq/lib/libsdk.a(pcie_prot.o)
 .debug_frame   0x0000627c      0xb10 /home/leon/git/swp-report/iMX6_Platform_SDK/output/mx6dq/lib/libsdk.a(pmu_driver.o)
 .debug_frame   0x00006d8c      0x110 /home/leon/git/swp-report/iMX6_Platform_SDK/output/mx6dq/lib/libsdk.a(pwm.o)
 .debug_frame   0x00006e9c       0xf0 /home/leon/git/swp-report/iMX6_Platform_SDK/output/mx6dq/lib/libsdk.a(rtc.o)
 .debug_frame   0x00006f8c       0xb0 /home/leon/git/swp-report/iMX6_Platform_SDK/output/mx6dq/lib/libsdk.a(srtc.o)
 .debug_frame   0x0000703c      0x37c /home/leon/git/swp-report/iMX6_Platform_SDK/output/mx6dq/lib/libsdk.a(sata.o)
 .debug_frame   0x000073b8      0x210 /home/leon/git/swp-report/iMX6_Platform_SDK/output/mx6dq/lib/libsdk.a(sdma.o)
 .debug_frame   0x000075c8      0x17c /home/leon/git/swp-report/iMX6_Platform_SDK/output/mx6dq/lib/libsdk.a(snvs.o)
 .debug_frame   0x00007744       0xf0 /home/leon/git/swp-report/iMX6_Platform_SDK/output/mx6dq/lib/libsdk.a(ecspi.o)
 .debug_frame   0x00007834       0xf0 /home/leon/git/swp-report/iMX6_Platform_SDK/output/mx6dq/lib/libsdk.a(tempmon.o)
 .debug_frame   0x00007924      0x150 /home/leon/git/swp-report/iMX6_Platform_SDK/output/mx6dq/lib/libsdk.a(gpt.o)
 .debug_frame   0x00007a74       0x70 /home/leon/git/swp-report/iMX6_Platform_SDK/output/mx6dq/lib/libsdk.a(usb_common.o)
 .debug_frame   0x00007ae4      0x130 /home/leon/git/swp-report/iMX6_Platform_SDK/output/mx6dq/lib/libsdk.a(usbd_drv.o)
 .debug_frame   0x00007c14      0x110 /home/leon/git/swp-report/iMX6_Platform_SDK/output/mx6dq/lib/libsdk.a(usbh_drv.o)
 .debug_frame   0x00007d24      0x250 /home/leon/git/swp-report/iMX6_Platform_SDK/output/mx6dq/lib/libsdk.a(usdhc.o)
 .debug_frame   0x00007f74      0x330 /home/leon/git/swp-report/iMX6_Platform_SDK/output/mx6dq/lib/libsdk.a(usdhc_host.o)
 .debug_frame   0x000082a4      0x1b0 /home/leon/git/swp-report/iMX6_Platform_SDK/output/mx6dq/lib/libsdk.a(usdhc_mmc.o)
 .debug_frame   0x00008454       0x90 /home/leon/git/swp-report/iMX6_Platform_SDK/output/mx6dq/lib/libsdk.a(usdhc_sd.o)
 .debug_frame   0x000084e4       0x50 /home/leon/git/swp-report/iMX6_Platform_SDK/output/mx6dq/lib/libsdk.a(spinlock.o)
 .debug_frame   0x00008534       0xb0 /home/leon/git/swp-report/iMX6_Platform_SDK/output/mx6dq/lib/libsdk.a(hdmi_common.o)
 .debug_frame   0x000085e4       0x50 /home/leon/git/swp-report/iMX6_Platform_SDK/output/mx6dq/lib/libsdk.a(mx6x_usb.o)
 .debug_frame   0x00008634       0xf0 /home/leon/git/swp-report/iMX6_Platform_SDK/output/mx6dq/lib/libboard_smart_device_rev_c.a(board_audio.o)
 .debug_frame   0x00008724       0xd0 /home/leon/git/swp-report/iMX6_Platform_SDK/output/mx6dq/lib/libboard_smart_device_rev_c.a(board_camera.o)
 .debug_frame   0x000087f4       0xf0 /home/leon/git/swp-report/iMX6_Platform_SDK/output/mx6dq/lib/libboard_smart_device_rev_c.a(board_display.o)
 .debug_frame   0x000088e4       0xd0 /home/leon/git/swp-report/iMX6_Platform_SDK/output/mx6dq/lib/libboard_smart_device_rev_c.a(board_hdmi.o)
 .debug_frame   0x000089b4       0xb0 /home/leon/git/swp-report/iMX6_Platform_SDK/output/mx6dq/lib/libboard_smart_device_rev_c.a(board_mipi.o)
 .debug_frame   0x00008a64       0xb0 /home/leon/git/swp-report/iMX6_Platform_SDK/output/mx6dq/lib/libboard_smart_device_rev_c.a(board_network.o)
 .debug_frame   0x00008b14       0xb0 /home/leon/git/swp-report/iMX6_Platform_SDK/output/mx6dq/lib/libboard_smart_device_rev_c.a(board_pcie.o)
 .debug_frame   0x00008bc4       0xd0 /home/leon/git/swp-report/iMX6_Platform_SDK/output/mx6dq/lib/libboard_smart_device_rev_c.a(board_sata.o)
 .debug_frame   0x00008c94       0x70 /home/leon/git/swp-report/iMX6_Platform_SDK/output/mx6dq/lib/libboard_smart_device_rev_c.a(board_usb.o)
 .debug_frame   0x00008d04       0x70 /home/leon/git/swp-report/iMX6_Platform_SDK/output/mx6dq/lib/libboard_smart_device_rev_c.a(board_usdhc.o)
 .debug_frame   0x00008d74       0x30 /home/leon/git/swp-report/iMX6_Platform_SDK/output/mx6dq/lib/libboard_smart_device_rev_c.a(ecspi_iomux_config.o)
 .debug_frame   0x00008da4       0x30 /home/leon/git/swp-report/iMX6_Platform_SDK/output/mx6dq/lib/libboard_smart_device_rev_c.a(i2c_iomux_config.o)
 .debug_frame   0x00008dd4       0x30 /home/leon/git/swp-report/iMX6_Platform_SDK/output/mx6dq/lib/libboard_smart_device_rev_c.a(pwm_iomux_config.o)
 .debug_frame   0x00008e04       0x30 /home/leon/git/swp-report/iMX6_Platform_SDK/output/mx6dq/lib/libboard_smart_device_rev_c.a(usdhc_iomux_config.o)
 .debug_frame   0x00008e34       0x40 /home/leon/riotboard/arm-2012.09/bin/../arm-none-eabi/lib//libstdc++.a(pure.o)
 .debug_frame   0x00008e74       0x90 /home/leon/riotboard/arm-2012.09/bin/../arm-none-eabi/lib//libstdc++.a(eh_terminate.o)
 .debug_frame   0x00008f04       0x60 /home/leon/riotboard/arm-2012.09/bin/../arm-none-eabi/lib//libstdc++.a(eh_call.o)
 .debug_frame   0x00008f64       0x5c /home/leon/riotboard/arm-2012.09/bin/../arm-none-eabi/lib//libstdc++.a(eh_throw.o)
 .debug_frame   0x00008fc0       0x60 /home/leon/riotboard/arm-2012.09/bin/../arm-none-eabi/lib//libstdc++.a(eh_arm.o)
 .debug_frame   0x00009020       0xd0 /home/leon/riotboard/arm-2012.09/bin/../arm-none-eabi/lib//libstdc++.a(eh_exception.o)
 .debug_frame   0x000090f0       0x74 /home/leon/riotboard/arm-2012.09/bin/../arm-none-eabi/lib//libstdc++.a(eh_alloc.o)
 .debug_frame   0x00009164       0x30 /home/leon/riotboard/arm-2012.09/bin/../arm-none-eabi/lib//libstdc++.a(eh_globals.o)
 .debug_frame   0x00009194       0xa8 /home/leon/riotboard/arm-2012.09/bin/../arm-none-eabi/lib//libstdc++.a(si_class_type_info.o)
 .debug_frame   0x0000923c       0xa8 /home/leon/riotboard/arm-2012.09/bin/../arm-none-eabi/lib//libstdc++.a(eh_personality.o)
 .debug_frame   0x000092e4       0x68 /home/leon/riotboard/arm-2012.09/bin/../arm-none-eabi/lib//libstdc++.a(eh_catch.o)
 .debug_frame   0x0000934c       0xc8 /home/leon/riotboard/arm-2012.09/bin/../arm-none-eabi/lib//libstdc++.a(class_type_info.o)
 .debug_frame   0x00009414       0x30 /home/leon/riotboard/arm-2012.09/bin/../arm-none-eabi/lib//libstdc++.a(vterminate.o)
 .debug_frame   0x00009444      0x4b0 /home/leon/riotboard/arm-2012.09/bin/../arm-none-eabi/lib//libstdc++.a(cp-demangle.o)
 .debug_frame   0x000098f4       0x28 /home/leon/riotboard/arm-2012.09/bin/../arm-none-eabi/lib//libstdc++.a(eh_type.o)
 .debug_frame   0x0000991c       0x28 /home/leon/riotboard/arm-2012.09/bin/../arm-none-eabi/lib//libstdc++.a(del_op.o)
 .debug_frame   0x00009944       0x90 /home/leon/riotboard/arm-2012.09/bin/../arm-none-eabi/lib//libstdc++.a(tinfo.o)
 .debug_frame   0x000099d4       0x50 /home/leon/riotboard/arm-2012.09/bin/../arm-none-eabi/lib//libc.a(lib_a-fwrite.o)
 .debug_frame   0x00009a24       0x28 /home/leon/riotboard/arm-2012.09/bin/../arm-none-eabi/lib//libc.a(lib_a-memcmp.o)
 .debug_frame   0x00009a4c       0x28 /home/leon/riotboard/arm-2012.09/bin/../arm-none-eabi/lib//libc.a(lib_a-strncmp.o)
 .debug_frame   0x00009a74       0x28 /home/leon/riotboard/arm-2012.09/bin/../arm-none-eabi/lib//libc.a(lib_a-syswrite.o)
 .debug_frame   0x00009a9c       0x20 /home/leon/riotboard/arm-2012.09/bin/../lib/gcc/arm-none-eabi/4.7.2//libgcc.a(_divsi3.o)
 .debug_frame   0x00009abc      0x290 /home/leon/riotboard/arm-2012.09/bin/../lib/gcc/arm-none-eabi/4.7.2//libgcc.a(unwind-arm.o)
 .debug_frame   0x00009d4c       0xe4 /home/leon/riotboard/arm-2012.09/bin/../lib/gcc/arm-none-eabi/4.7.2//libgcc.a(pr-support.o)
 .debug_frame   0x00009e30       0x90 /home/leon/git/swp-report/iMX6_Platform_SDK/output/mx6dq/lib/libsdk.a(max7310.o)

.debug_ranges   0x00000000      0x1a0
 .debug_ranges  0x00000000       0x30 /home/leon/git/swp-report/iMX6_Platform_SDK/output/mx6dq/lib/libsdk.a(menu.o)
 .debug_ranges  0x00000030       0x18 /home/leon/git/swp-report/iMX6_Platform_SDK/output/mx6dq/lib/libsdk.a(system_util.o)
 .debug_ranges  0x00000048       0x18 /home/leon/git/swp-report/iMX6_Platform_SDK/output/mx6dq/sdk_unit_test/smart_device_rev_c/libsdk_unit_test.a(sata_test.o)
 .debug_ranges  0x00000060      0x140 /home/leon/git/swp-report/iMX6_Platform_SDK/output/mx6dq/lib/libsdk.a(pmu_driver.o)

Cross Reference Table

Symbol                                            File
ALL_test                                          /home/leon/git/swp-report/iMX6_Platform_SDK/output/mx6dq/sdk_unit_test/smart_device_rev_c/obj/apps/sdk_unit_test/src/all_test.o
                                                  /home/leon/git/swp-report/iMX6_Platform_SDK/output/mx6dq/sdk_unit_test/smart_device_rev_c/obj/apps/sdk_unit_test/src/unit_test_main.o
Audio_ChannelCount                                /home/leon/git/swp-report/iMX6_Platform_SDK/output/mx6dq/lib/libsdk.a(hdmi_tx_audio.o)
Delay4Reload                                      /home/leon/git/swp-report/iMX6_Platform_SDK/output/mx6dq/lib/libsdk.a(ocotp.o)
IRQ_HDLR                                          /home/leon/git/swp-report/iMX6_Platform_SDK/output/mx6dq/lib/libsdk.a(interrupt.o)
                                                  /home/leon/git/swp-report/iMX6_Platform_SDK/output/mx6dq/lib/libsdk.a(vectors.o)
PLL1_OUTPUT                                       /home/leon/git/swp-report/iMX6_Platform_SDK/output/mx6dq/lib/libsdk.a(ccm_pll.o)
PLL2_OUTPUT                                       /home/leon/git/swp-report/iMX6_Platform_SDK/output/mx6dq/lib/libsdk.a(ccm_pll.o)
PLL3_OUTPUT                                       /home/leon/git/swp-report/iMX6_Platform_SDK/output/mx6dq/lib/libsdk.a(ccm_pll.o)
PLL4_OUTPUT                                       /home/leon/git/swp-report/iMX6_Platform_SDK/output/mx6dq/lib/libsdk.a(ccm_pll.o)
PLL5_OUTPUT                                       /home/leon/git/swp-report/iMX6_Platform_SDK/output/mx6dq/lib/libsdk.a(ccm_pll.o)
SGI3_ISR                                          /home/leon/git/swp-report/iMX6_Platform_SDK/output/mx6dq/sdk_unit_test/smart_device_rev_c/libsdk_unit_test.a(multicore_test.o)
SGTL5000PowerUp_and_clockinit                     /home/leon/git/swp-report/iMX6_Platform_SDK/output/mx6dq/lib/libboard_smart_device_rev_c.a(board_audio.o)
StartPerfCounter                                  /home/leon/git/swp-report/iMX6_Platform_SDK/output/mx6dq/lib/libsdk.a(profile.o)
                                                  /home/leon/git/swp-report/iMX6_Platform_SDK/output/mx6dq/sdk_unit_test/smart_device_rev_c/libsdk_unit_test.a(mem_2_mem.o)
StopPerfCounter                                   /home/leon/git/swp-report/iMX6_Platform_SDK/output/mx6dq/lib/libsdk.a(profile.o)
                                                  /home/leon/git/swp-report/iMX6_Platform_SDK/output/mx6dq/sdk_unit_test/smart_device_rev_c/libsdk_unit_test.a(mem_2_mem.o)
_Balloc                                           /home/leon/riotboard/arm-2012.09/bin/../arm-none-eabi/lib//libc.a(lib_a-mprec.o)
                                                  /home/leon/riotboard/arm-2012.09/bin/../arm-none-eabi/lib//libc.a(lib_a-dtoa.o)
_Bfree                                            /home/leon/riotboard/arm-2012.09/bin/../arm-none-eabi/lib//libc.a(lib_a-mprec.o)
                                                  /home/leon/riotboard/arm-2012.09/bin/../arm-none-eabi/lib//libc.a(lib_a-dtoa.o)
_ITM_deregisterTMCloneTable                       /home/leon/riotboard/arm-2012.09/bin/../lib/gcc/arm-none-eabi/4.7.2//crtbegin.o
_ITM_registerTMCloneTable                         /home/leon/riotboard/arm-2012.09/bin/../lib/gcc/arm-none-eabi/4.7.2//crtbegin.o
_Jv_RegisterClasses                               /home/leon/riotboard/arm-2012.09/bin/../lib/gcc/arm-none-eabi/4.7.2//crtbegin.o
_PathLocale                                       /home/leon/riotboard/arm-2012.09/bin/../arm-none-eabi/lib//libc.a(lib_a-locale.o)
_Unwind_Backtrace                                 /home/leon/riotboard/arm-2012.09/bin/../lib/gcc/arm-none-eabi/4.7.2//libgcc.a(libunwind.o)
_Unwind_Complete                                  /home/leon/riotboard/arm-2012.09/bin/../lib/gcc/arm-none-eabi/4.7.2//libgcc.a(unwind-arm.o)
                                                  /home/leon/riotboard/arm-2012.09/bin/../arm-none-eabi/lib//libstdc++.a(eh_catch.o)
_Unwind_DeleteException                           /home/leon/riotboard/arm-2012.09/bin/../lib/gcc/arm-none-eabi/4.7.2//libgcc.a(unwind-arm.o)
                                                  /home/leon/riotboard/arm-2012.09/bin/../arm-none-eabi/lib//libstdc++.a(eh_catch.o)
_Unwind_ForcedUnwind                              /home/leon/riotboard/arm-2012.09/bin/../lib/gcc/arm-none-eabi/4.7.2//libgcc.a(libunwind.o)
_Unwind_GetCFA                                    /home/leon/riotboard/arm-2012.09/bin/../lib/gcc/arm-none-eabi/4.7.2//libgcc.a(unwind-arm.o)
_Unwind_GetDataRelBase                            /home/leon/riotboard/arm-2012.09/bin/../lib/gcc/arm-none-eabi/4.7.2//libgcc.a(pr-support.o)
                                                  /home/leon/riotboard/arm-2012.09/bin/../arm-none-eabi/lib//libstdc++.a(eh_personality.o)
_Unwind_GetLanguageSpecificData                   /home/leon/riotboard/arm-2012.09/bin/../lib/gcc/arm-none-eabi/4.7.2//libgcc.a(pr-support.o)
                                                  /home/leon/riotboard/arm-2012.09/bin/../arm-none-eabi/lib//libstdc++.a(eh_personality.o)
_Unwind_GetRegionStart                            /home/leon/riotboard/arm-2012.09/bin/../lib/gcc/arm-none-eabi/4.7.2//libgcc.a(pr-support.o)
                                                  /home/leon/riotboard/arm-2012.09/bin/../arm-none-eabi/lib//libstdc++.a(eh_personality.o)
_Unwind_GetTextRelBase                            /home/leon/riotboard/arm-2012.09/bin/../lib/gcc/arm-none-eabi/4.7.2//libgcc.a(pr-support.o)
                                                  /home/leon/riotboard/arm-2012.09/bin/../arm-none-eabi/lib//libstdc++.a(eh_personality.o)
_Unwind_RaiseException                            /home/leon/riotboard/arm-2012.09/bin/../lib/gcc/arm-none-eabi/4.7.2//libgcc.a(libunwind.o)
                                                  /home/leon/riotboard/arm-2012.09/bin/../arm-none-eabi/lib//libstdc++.a(eh_throw.o)
_Unwind_Resume                                    /home/leon/riotboard/arm-2012.09/bin/../lib/gcc/arm-none-eabi/4.7.2//libgcc.a(libunwind.o)
                                                  /home/leon/riotboard/arm-2012.09/bin/../arm-none-eabi/lib//libstdc++.a(eh_arm.o)
_Unwind_Resume_or_Rethrow                         /home/leon/riotboard/arm-2012.09/bin/../lib/gcc/arm-none-eabi/4.7.2//libgcc.a(libunwind.o)
                                                  /home/leon/riotboard/arm-2012.09/bin/../arm-none-eabi/lib//libstdc++.a(eh_throw.o)
_Unwind_VRS_Get                                   /home/leon/riotboard/arm-2012.09/bin/../lib/gcc/arm-none-eabi/4.7.2//libgcc.a(unwind-arm.o)
                                                  /home/leon/riotboard/arm-2012.09/bin/../lib/gcc/arm-none-eabi/4.7.2//libgcc.a(pr-support.o)
                                                  /home/leon/riotboard/arm-2012.09/bin/../arm-none-eabi/lib//libstdc++.a(eh_personality.o)
_Unwind_VRS_Pop                                   /home/leon/riotboard/arm-2012.09/bin/../lib/gcc/arm-none-eabi/4.7.2//libgcc.a(unwind-arm.o)
                                                  /home/leon/riotboard/arm-2012.09/bin/../lib/gcc/arm-none-eabi/4.7.2//libgcc.a(pr-support.o)
_Unwind_VRS_Set                                   /home/leon/riotboard/arm-2012.09/bin/../lib/gcc/arm-none-eabi/4.7.2//libgcc.a(unwind-arm.o)
                                                  /home/leon/riotboard/arm-2012.09/bin/../lib/gcc/arm-none-eabi/4.7.2//libgcc.a(pr-support.o)
                                                  /home/leon/riotboard/arm-2012.09/bin/../arm-none-eabi/lib//libstdc++.a(eh_personality.o)
__TMC_END__                                       /home/leon/riotboard/arm-2012.09/bin/../lib/gcc/arm-none-eabi/4.7.2//crtend.o
                                                  /home/leon/riotboard/arm-2012.09/bin/../lib/gcc/arm-none-eabi/4.7.2//crtbegin.o
___Unwind_Backtrace                               /home/leon/riotboard/arm-2012.09/bin/../lib/gcc/arm-none-eabi/4.7.2//libgcc.a(libunwind.o)
___Unwind_ForcedUnwind                            /home/leon/riotboard/arm-2012.09/bin/../lib/gcc/arm-none-eabi/4.7.2//libgcc.a(libunwind.o)
___Unwind_RaiseException                          /home/leon/riotboard/arm-2012.09/bin/../lib/gcc/arm-none-eabi/4.7.2//libgcc.a(libunwind.o)
___Unwind_Resume                                  /home/leon/riotboard/arm-2012.09/bin/../lib/gcc/arm-none-eabi/4.7.2//libgcc.a(libunwind.o)
___Unwind_Resume_or_Rethrow                       /home/leon/riotboard/arm-2012.09/bin/../lib/gcc/arm-none-eabi/4.7.2//libgcc.a(libunwind.o)
__adddf3                                          /home/leon/riotboard/arm-2012.09/bin/../lib/gcc/arm-none-eabi/4.7.2//libgcc.a(_arm_addsubdf3.o)
__addsf3                                          /home/leon/riotboard/arm-2012.09/bin/../lib/gcc/arm-none-eabi/4.7.2//libgcc.a(_arm_addsubsf3.o)
__aeabi_cdcmpeq                                   /home/leon/riotboard/arm-2012.09/bin/../lib/gcc/arm-none-eabi/4.7.2//libgcc.a(_arm_cmpdf2.o)
__aeabi_cdcmple                                   /home/leon/riotboard/arm-2012.09/bin/../lib/gcc/arm-none-eabi/4.7.2//libgcc.a(_arm_cmpdf2.o)
__aeabi_cdrcmple                                  /home/leon/riotboard/arm-2012.09/bin/../lib/gcc/arm-none-eabi/4.7.2//libgcc.a(_arm_cmpdf2.o)
__aeabi_cfcmpeq                                   /home/leon/riotboard/arm-2012.09/bin/../lib/gcc/arm-none-eabi/4.7.2//libgcc.a(_arm_cmpsf2.o)
__aeabi_cfcmple                                   /home/leon/riotboard/arm-2012.09/bin/../lib/gcc/arm-none-eabi/4.7.2//libgcc.a(_arm_cmpsf2.o)
__aeabi_cfrcmple                                  /home/leon/riotboard/arm-2012.09/bin/../lib/gcc/arm-none-eabi/4.7.2//libgcc.a(_arm_cmpsf2.o)
__aeabi_d2iz                                      /home/leon/riotboard/arm-2012.09/bin/../lib/gcc/arm-none-eabi/4.7.2//libgcc.a(_arm_fixdfsi.o)
                                                  /home/leon/riotboard/arm-2012.09/bin/../arm-none-eabi/lib//libc.a(lib_a-dtoa.o)
__aeabi_dadd                                      /home/leon/riotboard/arm-2012.09/bin/../lib/gcc/arm-none-eabi/4.7.2//libgcc.a(_arm_addsubdf3.o)
                                                  /home/leon/riotboard/arm-2012.09/bin/../arm-none-eabi/lib//libc.a(lib_a-dtoa.o)
__aeabi_dcmpeq                                    /home/leon/riotboard/arm-2012.09/bin/../lib/gcc/arm-none-eabi/4.7.2//libgcc.a(_arm_cmpdf2.o)
                                                  /home/leon/riotboard/arm-2012.09/bin/../arm-none-eabi/lib//libc.a(lib_a-dtoa.o)
                                                  /home/leon/riotboard/arm-2012.09/bin/../arm-none-eabi/lib//libc.a(lib_a-vfprintf.o)
                                                  /home/leon/riotboard/arm-2012.09/bin/../arm-none-eabi/lib//libc.a(lib_a-svfprintf.o)
__aeabi_dcmpge                                    /home/leon/riotboard/arm-2012.09/bin/../lib/gcc/arm-none-eabi/4.7.2//libgcc.a(_arm_cmpdf2.o)
                                                  /home/leon/riotboard/arm-2012.09/bin/../arm-none-eabi/lib//libc.a(lib_a-dtoa.o)
__aeabi_dcmpgt                                    /home/leon/riotboard/arm-2012.09/bin/../lib/gcc/arm-none-eabi/4.7.2//libgcc.a(_arm_cmpdf2.o)
                                                  /home/leon/riotboard/arm-2012.09/bin/../arm-none-eabi/lib//libc.a(lib_a-dtoa.o)
__aeabi_dcmple                                    /home/leon/riotboard/arm-2012.09/bin/../lib/gcc/arm-none-eabi/4.7.2//libgcc.a(_arm_cmpdf2.o)
__aeabi_dcmplt                                    /home/leon/riotboard/arm-2012.09/bin/../lib/gcc/arm-none-eabi/4.7.2//libgcc.a(_arm_cmpdf2.o)
                                                  /home/leon/riotboard/arm-2012.09/bin/../arm-none-eabi/lib//libc.a(lib_a-dtoa.o)
                                                  /home/leon/riotboard/arm-2012.09/bin/../arm-none-eabi/lib//libc.a(lib_a-vfprintf.o)
                                                  /home/leon/riotboard/arm-2012.09/bin/../arm-none-eabi/lib//libc.a(lib_a-svfprintf.o)
__aeabi_ddiv                                      /home/leon/riotboard/arm-2012.09/bin/../lib/gcc/arm-none-eabi/4.7.2//libgcc.a(_arm_muldivdf3.o)
                                                  /home/leon/riotboard/arm-2012.09/bin/../arm-none-eabi/lib//libc.a(lib_a-mprec.o)
                                                  /home/leon/riotboard/arm-2012.09/bin/../arm-none-eabi/lib//libc.a(lib_a-dtoa.o)
__aeabi_dmul                                      /home/leon/riotboard/arm-2012.09/bin/../lib/gcc/arm-none-eabi/4.7.2//libgcc.a(_arm_muldivdf3.o)
                                                  /home/leon/riotboard/arm-2012.09/bin/../arm-none-eabi/lib//libc.a(lib_a-mprec.o)
                                                  /home/leon/riotboard/arm-2012.09/bin/../arm-none-eabi/lib//libc.a(lib_a-dtoa.o)
__aeabi_drsub                                     /home/leon/riotboard/arm-2012.09/bin/../lib/gcc/arm-none-eabi/4.7.2//libgcc.a(_arm_addsubdf3.o)
__aeabi_dsub                                      /home/leon/riotboard/arm-2012.09/bin/../lib/gcc/arm-none-eabi/4.7.2//libgcc.a(_arm_addsubdf3.o)
                                                  /home/leon/riotboard/arm-2012.09/bin/../arm-none-eabi/lib//libc.a(lib_a-dtoa.o)
__aeabi_f2d                                       /home/leon/riotboard/arm-2012.09/bin/../lib/gcc/arm-none-eabi/4.7.2//libgcc.a(_arm_addsubdf3.o)
__aeabi_f2iz                                      /home/leon/riotboard/arm-2012.09/bin/../lib/gcc/arm-none-eabi/4.7.2//libgcc.a(_arm_fixsfsi.o)
                                                  /home/leon/riotboard/arm-2012.09/bin/../arm-none-eabi/lib//libm.a(lib_a-kf_sin.o)
                                                  /home/leon/riotboard/arm-2012.09/bin/../arm-none-eabi/lib//libm.a(lib_a-kf_rem_pio2.o)
                                                  /home/leon/riotboard/arm-2012.09/bin/../arm-none-eabi/lib//libm.a(lib_a-kf_cos.o)
                                                  /home/leon/riotboard/arm-2012.09/bin/../arm-none-eabi/lib//libm.a(lib_a-ef_rem_pio2.o)
__aeabi_fadd                                      /home/leon/riotboard/arm-2012.09/bin/../lib/gcc/arm-none-eabi/4.7.2//libgcc.a(_arm_addsubsf3.o)
                                                  /home/leon/riotboard/arm-2012.09/bin/../arm-none-eabi/lib//libm.a(lib_a-sf_scalbn.o)
                                                  /home/leon/riotboard/arm-2012.09/bin/../arm-none-eabi/lib//libm.a(lib_a-sf_floor.o)
                                                  /home/leon/riotboard/arm-2012.09/bin/../arm-none-eabi/lib//libm.a(lib_a-kf_sin.o)
                                                  /home/leon/riotboard/arm-2012.09/bin/../arm-none-eabi/lib//libm.a(lib_a-kf_rem_pio2.o)
                                                  /home/leon/riotboard/arm-2012.09/bin/../arm-none-eabi/lib//libm.a(lib_a-kf_cos.o)
                                                  /home/leon/riotboard/arm-2012.09/bin/../arm-none-eabi/lib//libm.a(lib_a-ef_rem_pio2.o)
__aeabi_fcmpeq                                    /home/leon/riotboard/arm-2012.09/bin/../lib/gcc/arm-none-eabi/4.7.2//libgcc.a(_arm_cmpsf2.o)
                                                  /home/leon/riotboard/arm-2012.09/bin/../arm-none-eabi/lib//libm.a(lib_a-kf_rem_pio2.o)
                                                  /home/leon/riotboard/arm-2012.09/bin/../arm-none-eabi/lib//libm.a(lib_a-ef_rem_pio2.o)
__aeabi_fcmpge                                    /home/leon/riotboard/arm-2012.09/bin/../lib/gcc/arm-none-eabi/4.7.2//libgcc.a(_arm_cmpsf2.o)
                                                  /home/leon/riotboard/arm-2012.09/bin/../arm-none-eabi/lib//libm.a(lib_a-kf_rem_pio2.o)
__aeabi_fcmpgt                                    /home/leon/riotboard/arm-2012.09/bin/../lib/gcc/arm-none-eabi/4.7.2//libgcc.a(_arm_cmpsf2.o)
                                                  /home/leon/riotboard/arm-2012.09/bin/../arm-none-eabi/lib//libm.a(lib_a-sf_floor.o)
__aeabi_fcmple                                    /home/leon/riotboard/arm-2012.09/bin/../lib/gcc/arm-none-eabi/4.7.2//libgcc.a(_arm_cmpsf2.o)
__aeabi_fcmplt                                    /home/leon/riotboard/arm-2012.09/bin/../lib/gcc/arm-none-eabi/4.7.2//libgcc.a(_arm_cmpsf2.o)
__aeabi_fdiv                                      /home/leon/riotboard/arm-2012.09/bin/../lib/gcc/arm-none-eabi/4.7.2//libgcc.a(_arm_muldivsf3.o)
__aeabi_fmul                                      /home/leon/riotboard/arm-2012.09/bin/../lib/gcc/arm-none-eabi/4.7.2//libgcc.a(_arm_muldivsf3.o)
                                                  /home/leon/riotboard/arm-2012.09/bin/../arm-none-eabi/lib//libm.a(lib_a-sf_scalbn.o)
                                                  /home/leon/riotboard/arm-2012.09/bin/../arm-none-eabi/lib//libm.a(lib_a-kf_sin.o)
                                                  /home/leon/riotboard/arm-2012.09/bin/../arm-none-eabi/lib//libm.a(lib_a-kf_rem_pio2.o)
                                                  /home/leon/riotboard/arm-2012.09/bin/../arm-none-eabi/lib//libm.a(lib_a-kf_cos.o)
                                                  /home/leon/riotboard/arm-2012.09/bin/../arm-none-eabi/lib//libm.a(lib_a-ef_rem_pio2.o)
__aeabi_frsub                                     /home/leon/riotboard/arm-2012.09/bin/../lib/gcc/arm-none-eabi/4.7.2//libgcc.a(_arm_addsubsf3.o)
__aeabi_fsub                                      /home/leon/riotboard/arm-2012.09/bin/../lib/gcc/arm-none-eabi/4.7.2//libgcc.a(_arm_addsubsf3.o)
                                                  /home/leon/riotboard/arm-2012.09/bin/../arm-none-eabi/lib//libm.a(lib_a-kf_sin.o)
                                                  /home/leon/riotboard/arm-2012.09/bin/../arm-none-eabi/lib//libm.a(lib_a-kf_rem_pio2.o)
                                                  /home/leon/riotboard/arm-2012.09/bin/../arm-none-eabi/lib//libm.a(lib_a-kf_cos.o)
                                                  /home/leon/riotboard/arm-2012.09/bin/../arm-none-eabi/lib//libm.a(lib_a-ef_rem_pio2.o)
                                                  /home/leon/riotboard/arm-2012.09/bin/../arm-none-eabi/lib//libm.a(lib_a-sf_sin.o)
                                                  /home/leon/riotboard/arm-2012.09/bin/../arm-none-eabi/lib//libm.a(lib_a-sf_modf.o)
                                                  /home/leon/riotboard/arm-2012.09/bin/../arm-none-eabi/lib//libm.a(lib_a-sf_cos.o)
__aeabi_i2d                                       /home/leon/riotboard/arm-2012.09/bin/../lib/gcc/arm-none-eabi/4.7.2//libgcc.a(_arm_addsubdf3.o)
                                                  /home/leon/riotboard/arm-2012.09/bin/../arm-none-eabi/lib//libc.a(lib_a-dtoa.o)
__aeabi_i2f                                       /home/leon/riotboard/arm-2012.09/bin/../lib/gcc/arm-none-eabi/4.7.2//libgcc.a(_arm_addsubsf3.o)
                                                  /home/leon/riotboard/arm-2012.09/bin/../arm-none-eabi/lib//libm.a(lib_a-kf_rem_pio2.o)
                                                  /home/leon/riotboard/arm-2012.09/bin/../arm-none-eabi/lib//libm.a(lib_a-ef_rem_pio2.o)
__aeabi_idiv                                      /home/leon/riotboard/arm-2012.09/bin/../lib/gcc/arm-none-eabi/4.7.2//libgcc.a(_divsi3.o)
                                                  /home/leon/git/swp-report/iMX6_Platform_SDK/output/mx6dq/lib/libsdk.a(usdhc_host.o)
                                                  /home/leon/git/swp-report/iMX6_Platform_SDK/output/mx6dq/lib/libsdk.a(ipu_ic.o)
                                                  /home/leon/git/swp-report/iMX6_Platform_SDK/output/mx6dq/lib/libsdk.a(ipu_common.o)
__aeabi_idiv0                                     /home/leon/riotboard/arm-2012.09/bin/../lib/gcc/arm-none-eabi/4.7.2//libgcc.a(_dvmd_tls.o)
                                                  /home/leon/riotboard/arm-2012.09/bin/../lib/gcc/arm-none-eabi/4.7.2//libgcc.a(_divsi3.o)
                                                  /home/leon/riotboard/arm-2012.09/bin/../lib/gcc/arm-none-eabi/4.7.2//libgcc.a(_udivsi3.o)
__aeabi_idivmod                                   /home/leon/riotboard/arm-2012.09/bin/../lib/gcc/arm-none-eabi/4.7.2//libgcc.a(_divsi3.o)
                                                  /home/leon/git/swp-report/iMX6_Platform_SDK/output/mx6dq/lib/libsdk.a(usdhc_host.o)
                                                  /home/leon/git/swp-report/iMX6_Platform_SDK/output/mx6dq/lib/libsdk.a(ipu_common.o)
__aeabi_l2d                                       /home/leon/riotboard/arm-2012.09/bin/../lib/gcc/arm-none-eabi/4.7.2//libgcc.a(_arm_addsubdf3.o)
__aeabi_l2f                                       /home/leon/riotboard/arm-2012.09/bin/../lib/gcc/arm-none-eabi/4.7.2//libgcc.a(_arm_addsubsf3.o)
__aeabi_ldiv0                                     /home/leon/riotboard/arm-2012.09/bin/../lib/gcc/arm-none-eabi/4.7.2//libgcc.a(_dvmd_tls.o)
                                                  /home/leon/riotboard/arm-2012.09/bin/../lib/gcc/arm-none-eabi/4.7.2//libgcc.a(_aeabi_uldivmod.o)
__aeabi_ui2d                                      /home/leon/riotboard/arm-2012.09/bin/../lib/gcc/arm-none-eabi/4.7.2//libgcc.a(_arm_addsubdf3.o)
                                                  /home/leon/riotboard/arm-2012.09/bin/../arm-none-eabi/lib//libc.a(lib_a-dtoa.o)
__aeabi_ui2f                                      /home/leon/riotboard/arm-2012.09/bin/../lib/gcc/arm-none-eabi/4.7.2//libgcc.a(_arm_addsubsf3.o)
__aeabi_uidiv                                     /home/leon/riotboard/arm-2012.09/bin/../lib/gcc/arm-none-eabi/4.7.2//libgcc.a(_udivsi3.o)
                                                  /home/leon/riotboard/arm-2012.09/bin/../arm-none-eabi/lib//libc.a(lib_a-fwrite.o)
                                                  /home/leon/git/swp-report/iMX6_Platform_SDK/output/mx6dq/lib/libsdk.a(sata.o)
                                                  /home/leon/git/swp-report/iMX6_Platform_SDK/output/mx6dq/lib/libsdk.a(imx_i2c.o)
                                                  /home/leon/riotboard/arm-2012.09/bin/../lib/gcc/arm-none-eabi/4.7.2//libgcc.a(_udivdi3.o)
                                                  /home/leon/riotboard/arm-2012.09/bin/../lib/gcc/arm-none-eabi/4.7.2//libgcc.a(_divdi3.o)
                                                  /home/leon/riotboard/arm-2012.09/bin/../arm-none-eabi/lib//libc.a(lib_a-dtoa.o)
                                                  /home/leon/git/swp-report/iMX6_Platform_SDK/output/mx6dq/sdk_unit_test/smart_device_rev_c/libsdk_unit_test.a(ips_resize.o)
                                                  /home/leon/git/swp-report/iMX6_Platform_SDK/output/mx6dq/sdk_unit_test/smart_device_rev_c/libsdk_unit_test.a(gpt_test.o)
                                                  /home/leon/git/swp-report/iMX6_Platform_SDK/output/mx6dq/lib/libsdk.a(ccm_pll.o)
__aeabi_uidivmod                                  /home/leon/riotboard/arm-2012.09/bin/../lib/gcc/arm-none-eabi/4.7.2//libgcc.a(_udivsi3.o)
                                                  /home/leon/git/swp-report/iMX6_Platform_SDK/output/mx6dq/lib/libsdk.a(sata.o)
                                                  /home/leon/riotboard/arm-2012.09/bin/../lib/gcc/arm-none-eabi/4.7.2//libgcc.a(_udivdi3.o)
                                                  /home/leon/riotboard/arm-2012.09/bin/../lib/gcc/arm-none-eabi/4.7.2//libgcc.a(_divdi3.o)
__aeabi_ul2d                                      /home/leon/riotboard/arm-2012.09/bin/../lib/gcc/arm-none-eabi/4.7.2//libgcc.a(_arm_addsubdf3.o)
__aeabi_ul2f                                      /home/leon/riotboard/arm-2012.09/bin/../lib/gcc/arm-none-eabi/4.7.2//libgcc.a(_arm_addsubsf3.o)
__aeabi_uldivmod                                  /home/leon/riotboard/arm-2012.09/bin/../lib/gcc/arm-none-eabi/4.7.2//libgcc.a(_aeabi_uldivmod.o)
                                                  /home/leon/git/swp-report/iMX6_Platform_SDK/output/mx6dq/lib/libsdk.a(runtime_support.o)
                                                  /home/leon/riotboard/arm-2012.09/bin/../arm-none-eabi/lib//libc.a(lib_a-svfiprintf.o)
                                                  /home/leon/riotboard/arm-2012.09/bin/../arm-none-eabi/lib//libc.a(lib_a-vfprintf.o)
                                                  /home/leon/riotboard/arm-2012.09/bin/../arm-none-eabi/lib//libc.a(lib_a-vfiprintf.o)
                                                  /home/leon/riotboard/arm-2012.09/bin/../arm-none-eabi/lib//libc.a(lib_a-svfprintf.o)
                                                  /home/leon/git/swp-report/iMX6_Platform_SDK/output/mx6dq/lib/libsdk.a(timer.o)
__aeabi_unwind_cpp_pr0                            /home/leon/riotboard/arm-2012.09/bin/../lib/gcc/arm-none-eabi/4.7.2//libgcc.a(unwind-arm.o)
                                                  /home/leon/riotboard/arm-2012.09/bin/../lib/gcc/arm-none-eabi/4.7.2//libgcc.a(pr-support.o)
                                                  /home/leon/riotboard/arm-2012.09/bin/../arm-none-eabi/lib//libstdc++.a(class_type_info.o)
                                                  /home/leon/riotboard/arm-2012.09/bin/../arm-none-eabi/lib//libstdc++.a(eh_personality.o)
                                                  /home/leon/riotboard/arm-2012.09/bin/../arm-none-eabi/lib//libstdc++.a(si_class_type_info.o)
                                                  /home/leon/riotboard/arm-2012.09/bin/../arm-none-eabi/lib//libstdc++.a(eh_arm.o)
                                                  /home/leon/riotboard/arm-2012.09/bin/../arm-none-eabi/lib//libstdc++.a(eh_throw.o)
__aeabi_unwind_cpp_pr1                            /home/leon/riotboard/arm-2012.09/bin/../lib/gcc/arm-none-eabi/4.7.2//libgcc.a(unwind-arm.o)
                                                  /home/leon/riotboard/arm-2012.09/bin/../lib/gcc/arm-none-eabi/4.7.2//libgcc.a(pr-support.o)
                                                  /home/leon/riotboard/arm-2012.09/bin/../arm-none-eabi/lib//libstdc++.a(eh_catch.o)
                                                  /home/leon/riotboard/arm-2012.09/bin/../arm-none-eabi/lib//libstdc++.a(eh_personality.o)
                                                  /home/leon/riotboard/arm-2012.09/bin/../arm-none-eabi/lib//libstdc++.a(eh_terminate.o)
                                                  /home/leon/riotboard/arm-2012.09/bin/../arm-none-eabi/lib//libstdc++.a(pure.o)
__aeabi_unwind_cpp_pr2                            /home/leon/riotboard/arm-2012.09/bin/../lib/gcc/arm-none-eabi/4.7.2//libgcc.a(unwind-arm.o)
__any_on                                          /home/leon/riotboard/arm-2012.09/bin/../arm-none-eabi/lib//libc.a(lib_a-mprec.o)
__ascii_wctomb                                    /home/leon/riotboard/arm-2012.09/bin/../arm-none-eabi/lib//libc.a(lib_a-wctomb_r.o)
__assert                                          /home/leon/riotboard/arm-2012.09/bin/../arm-none-eabi/lib//libc.a(lib_a-assert.o)
__assert_func                                     /home/leon/riotboard/arm-2012.09/bin/../arm-none-eabi/lib//libc.a(lib_a-assert.o)
                                                  /home/leon/git/swp-report/iMX6_Platform_SDK/output/mx6dq/lib/libboard_smart_device_rev_c.a(usdhc_iomux_config.o)
                                                  /home/leon/git/swp-report/iMX6_Platform_SDK/output/mx6dq/lib/libboard_smart_device_rev_c.a(pwm_iomux_config.o)
                                                  /home/leon/git/swp-report/iMX6_Platform_SDK/output/mx6dq/lib/libboard_smart_device_rev_c.a(i2c_iomux_config.o)
                                                  /home/leon/git/swp-report/iMX6_Platform_SDK/output/mx6dq/lib/libboard_smart_device_rev_c.a(ecspi_iomux_config.o)
                                                  /home/leon/git/swp-report/iMX6_Platform_SDK/output/mx6dq/lib/libsdk.a(cpu_multicore.o)
                                                  /home/leon/git/swp-report/iMX6_Platform_SDK/output/mx6dq/lib/libboard_smart_device_rev_c.a(uart_iomux_config.o)
                                                  /home/leon/git/swp-report/iMX6_Platform_SDK/output/mx6dq/lib/libsdk.a(gic.o)
__b2d                                             /home/leon/riotboard/arm-2012.09/bin/../arm-none-eabi/lib//libc.a(lib_a-mprec.o)
__bss_end__                                       /home/leon/git/swp-report/iMX6_Platform_SDK/output/mx6dq/lib/libsdk.a(startup.o)
__bss_start__                                     /home/leon/git/swp-report/iMX6_Platform_SDK/output/mx6dq/lib/libsdk.a(startup.o)
__clzsi2                                          /home/leon/riotboard/arm-2012.09/bin/../lib/gcc/arm-none-eabi/4.7.2//libgcc.a(_clzsi2.o)
                                                  /home/leon/riotboard/arm-2012.09/bin/../lib/gcc/arm-none-eabi/4.7.2//libgcc.a(_udivdi3.o)
                                                  /home/leon/riotboard/arm-2012.09/bin/../lib/gcc/arm-none-eabi/4.7.2//libgcc.a(_divdi3.o)
__cmpdf2                                          /home/leon/riotboard/arm-2012.09/bin/../lib/gcc/arm-none-eabi/4.7.2//libgcc.a(_arm_cmpdf2.o)
__cmpsf2                                          /home/leon/riotboard/arm-2012.09/bin/../lib/gcc/arm-none-eabi/4.7.2//libgcc.a(_arm_cmpsf2.o)
__copybits                                        /home/leon/riotboard/arm-2012.09/bin/../arm-none-eabi/lib//libc.a(lib_a-mprec.o)
__ctype_ptr__                                     /home/leon/riotboard/arm-2012.09/bin/../arm-none-eabi/lib//libc.a(lib_a-ctype_.o)
                                                  /home/leon/riotboard/arm-2012.09/bin/../arm-none-eabi/lib//libc.a(lib_a-strncasecmp.o)
__cxa_allocate_dependent_exception                /home/leon/riotboard/arm-2012.09/bin/../arm-none-eabi/lib//libstdc++.a(eh_alloc.o)
__cxa_allocate_exception                          /home/leon/riotboard/arm-2012.09/bin/../arm-none-eabi/lib//libstdc++.a(eh_alloc.o)
                                                  /home/leon/riotboard/arm-2012.09/bin/../arm-none-eabi/lib//libstdc++.a(eh_call.o)
__cxa_begin_catch                                 /home/leon/riotboard/arm-2012.09/bin/../arm-none-eabi/lib//libstdc++.a(eh_catch.o)
                                                  /home/leon/riotboard/arm-2012.09/bin/../arm-none-eabi/lib//libstdc++.a(vterminate.o)
                                                  /home/leon/riotboard/arm-2012.09/bin/../arm-none-eabi/lib//libstdc++.a(eh_personality.o)
                                                  /home/leon/riotboard/arm-2012.09/bin/../arm-none-eabi/lib//libstdc++.a(eh_throw.o)
                                                  /home/leon/riotboard/arm-2012.09/bin/../arm-none-eabi/lib//libstdc++.a(eh_call.o)
                                                  /home/leon/riotboard/arm-2012.09/bin/../arm-none-eabi/lib//libstdc++.a(eh_terminate.o)
__cxa_begin_cleanup                               /home/leon/riotboard/arm-2012.09/bin/../arm-none-eabi/lib//libstdc++.a(eh_arm.o)
                                                  /home/leon/riotboard/arm-2012.09/bin/../lib/gcc/arm-none-eabi/4.7.2//libgcc.a(unwind-arm.o)
                                                  /home/leon/riotboard/arm-2012.09/bin/../arm-none-eabi/lib//libstdc++.a(eh_personality.o)
__cxa_call_terminate                              /home/leon/riotboard/arm-2012.09/bin/../arm-none-eabi/lib//libstdc++.a(eh_call.o)
                                                  /home/leon/riotboard/arm-2012.09/bin/../arm-none-eabi/lib//libstdc++.a(eh_personality.o)
__cxa_call_unexpected                             /home/leon/riotboard/arm-2012.09/bin/../arm-none-eabi/lib//libstdc++.a(eh_call.o)
                                                  /home/leon/riotboard/arm-2012.09/bin/../lib/gcc/arm-none-eabi/4.7.2//libgcc.a(unwind-arm.o)
                                                  /home/leon/riotboard/arm-2012.09/bin/../arm-none-eabi/lib//libstdc++.a(eh_catch.o)
                                                  /home/leon/riotboard/arm-2012.09/bin/../arm-none-eabi/lib//libstdc++.a(eh_terminate.o)
__cxa_current_exception_type                      /home/leon/riotboard/arm-2012.09/bin/../arm-none-eabi/lib//libstdc++.a(eh_type.o)
                                                  /home/leon/riotboard/arm-2012.09/bin/../arm-none-eabi/lib//libstdc++.a(vterminate.o)
__cxa_deleted_virtual                             /home/leon/riotboard/arm-2012.09/bin/../arm-none-eabi/lib//libstdc++.a(pure.o)
__cxa_demangle                                    /home/leon/riotboard/arm-2012.09/bin/../arm-none-eabi/lib//libstdc++.a(cp-demangle.o)
                                                  /home/leon/riotboard/arm-2012.09/bin/../arm-none-eabi/lib//libstdc++.a(vterminate.o)
__cxa_end_catch                                   /home/leon/riotboard/arm-2012.09/bin/../arm-none-eabi/lib//libstdc++.a(eh_catch.o)
                                                  /home/leon/riotboard/arm-2012.09/bin/../arm-none-eabi/lib//libstdc++.a(vterminate.o)
                                                  /home/leon/riotboard/arm-2012.09/bin/../arm-none-eabi/lib//libstdc++.a(eh_call.o)
                                                  /home/leon/riotboard/arm-2012.09/bin/../arm-none-eabi/lib//libstdc++.a(eh_terminate.o)
__cxa_end_cleanup                                 /home/leon/riotboard/arm-2012.09/bin/../arm-none-eabi/lib//libstdc++.a(eh_arm.o)
                                                  /home/leon/riotboard/arm-2012.09/bin/../arm-none-eabi/lib//libstdc++.a(vterminate.o)
                                                  /home/leon/riotboard/arm-2012.09/bin/../arm-none-eabi/lib//libstdc++.a(eh_catch.o)
                                                  /home/leon/riotboard/arm-2012.09/bin/../arm-none-eabi/lib//libstdc++.a(eh_call.o)
                                                  /home/leon/riotboard/arm-2012.09/bin/../arm-none-eabi/lib//libstdc++.a(eh_terminate.o)
__cxa_free_dependent_exception                    /home/leon/riotboard/arm-2012.09/bin/../arm-none-eabi/lib//libstdc++.a(eh_alloc.o)
__cxa_free_exception                              /home/leon/riotboard/arm-2012.09/bin/../arm-none-eabi/lib//libstdc++.a(eh_alloc.o)
                                                  /home/leon/riotboard/arm-2012.09/bin/../arm-none-eabi/lib//libstdc++.a(eh_throw.o)
__cxa_get_exception_ptr                           /home/leon/riotboard/arm-2012.09/bin/../arm-none-eabi/lib//libstdc++.a(eh_catch.o)
__cxa_get_globals                                 /home/leon/riotboard/arm-2012.09/bin/../arm-none-eabi/lib//libstdc++.a(eh_globals.o)
                                                  /home/leon/riotboard/arm-2012.09/bin/../arm-none-eabi/lib//libstdc++.a(eh_type.o)
                                                  /home/leon/riotboard/arm-2012.09/bin/../arm-none-eabi/lib//libstdc++.a(eh_catch.o)
                                                  /home/leon/riotboard/arm-2012.09/bin/../arm-none-eabi/lib//libstdc++.a(eh_alloc.o)
                                                  /home/leon/riotboard/arm-2012.09/bin/../arm-none-eabi/lib//libstdc++.a(eh_arm.o)
                                                  /home/leon/riotboard/arm-2012.09/bin/../arm-none-eabi/lib//libstdc++.a(eh_throw.o)
__cxa_get_globals_fast                            /home/leon/riotboard/arm-2012.09/bin/../arm-none-eabi/lib//libstdc++.a(eh_globals.o)
                                                  /home/leon/riotboard/arm-2012.09/bin/../arm-none-eabi/lib//libstdc++.a(eh_catch.o)
                                                  /home/leon/riotboard/arm-2012.09/bin/../arm-none-eabi/lib//libstdc++.a(eh_call.o)
__cxa_pure_virtual                                /home/leon/riotboard/arm-2012.09/bin/../arm-none-eabi/lib//libstdc++.a(pure.o)
                                                  /home/leon/riotboard/arm-2012.09/bin/../arm-none-eabi/lib//libstdc++.a(eh_exception.o)
                                                  /home/leon/git/swp-report/iMX6_Platform_SDK/output/mx6dq/lib/libsdk.a(pmu_driver.o)
__cxa_rethrow                                     /home/leon/riotboard/arm-2012.09/bin/../arm-none-eabi/lib//libstdc++.a(eh_throw.o)
                                                  /home/leon/riotboard/arm-2012.09/bin/../arm-none-eabi/lib//libstdc++.a(vterminate.o)
                                                  /home/leon/riotboard/arm-2012.09/bin/../arm-none-eabi/lib//libstdc++.a(eh_call.o)
__cxa_throw                                       /home/leon/riotboard/arm-2012.09/bin/../arm-none-eabi/lib//libstdc++.a(eh_throw.o)
                                                  /home/leon/riotboard/arm-2012.09/bin/../arm-none-eabi/lib//libstdc++.a(eh_call.o)
__cxa_type_match                                  /home/leon/riotboard/arm-2012.09/bin/../arm-none-eabi/lib//libstdc++.a(eh_arm.o)
                                                  /home/leon/riotboard/arm-2012.09/bin/../lib/gcc/arm-none-eabi/4.7.2//libgcc.a(unwind-arm.o)
                                                  /home/leon/riotboard/arm-2012.09/bin/../arm-none-eabi/lib//libstdc++.a(eh_personality.o)
                                                  /home/leon/riotboard/arm-2012.09/bin/../arm-none-eabi/lib//libstdc++.a(eh_call.o)
__cxxabiv1::__class_type_info::__do_catch(std::type_info const*, void**, unsigned int) const /home/leon/riotboard/arm-2012.09/bin/../arm-none-eabi/lib//libstdc++.a(class_type_info.o)
                                                  /home/leon/riotboard/arm-2012.09/bin/../arm-none-eabi/lib//libstdc++.a(si_class_type_info.o)
__cxxabiv1::__class_type_info::__do_dyncast(int, __cxxabiv1::__class_type_info::__sub_kind, __cxxabiv1::__class_type_info const*, void const*, __cxxabiv1::__class_type_info const*, void const*, __cxxabiv1::__class_type_info::__dyncast_result&) const /home/leon/riotboard/arm-2012.09/bin/../arm-none-eabi/lib//libstdc++.a(class_type_info.o)
__cxxabiv1::__class_type_info::__do_find_public_src(int, void const*, __cxxabiv1::__class_type_info const*, void const*) const /home/leon/riotboard/arm-2012.09/bin/../arm-none-eabi/lib//libstdc++.a(class_type_info.o)
__cxxabiv1::__class_type_info::__do_upcast(__cxxabiv1::__class_type_info const*, void const*, __cxxabiv1::__class_type_info::__upcast_result&) const /home/leon/riotboard/arm-2012.09/bin/../arm-none-eabi/lib//libstdc++.a(class_type_info.o)
                                                  /home/leon/riotboard/arm-2012.09/bin/../arm-none-eabi/lib//libstdc++.a(si_class_type_info.o)
__cxxabiv1::__class_type_info::__do_upcast(__cxxabiv1::__class_type_info const*, void**) const /home/leon/riotboard/arm-2012.09/bin/../arm-none-eabi/lib//libstdc++.a(class_type_info.o)
                                                  /home/leon/riotboard/arm-2012.09/bin/../arm-none-eabi/lib//libstdc++.a(si_class_type_info.o)
__cxxabiv1::__class_type_info::~__class_type_info() /home/leon/riotboard/arm-2012.09/bin/../arm-none-eabi/lib//libstdc++.a(class_type_info.o)
__cxxabiv1::__class_type_info::~__class_type_info() /home/leon/riotboard/arm-2012.09/bin/../arm-none-eabi/lib//libstdc++.a(class_type_info.o)
                                                  /home/leon/riotboard/arm-2012.09/bin/../arm-none-eabi/lib//libstdc++.a(si_class_type_info.o)
__cxxabiv1::__class_type_info::~__class_type_info() /home/leon/riotboard/arm-2012.09/bin/../arm-none-eabi/lib//libstdc++.a(class_type_info.o)
__cxxabiv1::__forced_unwind::~__forced_unwind()   /home/leon/riotboard/arm-2012.09/bin/../arm-none-eabi/lib//libstdc++.a(eh_exception.o)
__cxxabiv1::__forced_unwind::~__forced_unwind()   /home/leon/riotboard/arm-2012.09/bin/../arm-none-eabi/lib//libstdc++.a(eh_exception.o)
__cxxabiv1::__forced_unwind::~__forced_unwind()   /home/leon/riotboard/arm-2012.09/bin/../arm-none-eabi/lib//libstdc++.a(eh_exception.o)
__cxxabiv1::__foreign_exception::~__foreign_exception() /home/leon/riotboard/arm-2012.09/bin/../arm-none-eabi/lib//libstdc++.a(eh_exception.o)
__cxxabiv1::__foreign_exception::~__foreign_exception() /home/leon/riotboard/arm-2012.09/bin/../arm-none-eabi/lib//libstdc++.a(eh_exception.o)
__cxxabiv1::__foreign_exception::~__foreign_exception() /home/leon/riotboard/arm-2012.09/bin/../arm-none-eabi/lib//libstdc++.a(eh_exception.o)
__cxxabiv1::__si_class_type_info::__do_dyncast(int, __cxxabiv1::__class_type_info::__sub_kind, __cxxabiv1::__class_type_info const*, void const*, __cxxabiv1::__class_type_info const*, void const*, __cxxabiv1::__class_type_info::__dyncast_result&) const /home/leon/riotboard/arm-2012.09/bin/../arm-none-eabi/lib//libstdc++.a(si_class_type_info.o)
__cxxabiv1::__si_class_type_info::__do_find_public_src(int, void const*, __cxxabiv1::__class_type_info const*, void const*) const /home/leon/riotboard/arm-2012.09/bin/../arm-none-eabi/lib//libstdc++.a(si_class_type_info.o)
__cxxabiv1::__si_class_type_info::__do_upcast(__cxxabiv1::__class_type_info const*, void const*, __cxxabiv1::__class_type_info::__upcast_result&) const /home/leon/riotboard/arm-2012.09/bin/../arm-none-eabi/lib//libstdc++.a(si_class_type_info.o)
__cxxabiv1::__si_class_type_info::~__si_class_type_info() /home/leon/riotboard/arm-2012.09/bin/../arm-none-eabi/lib//libstdc++.a(si_class_type_info.o)
__cxxabiv1::__si_class_type_info::~__si_class_type_info() /home/leon/riotboard/arm-2012.09/bin/../arm-none-eabi/lib//libstdc++.a(si_class_type_info.o)
__cxxabiv1::__si_class_type_info::~__si_class_type_info() /home/leon/riotboard/arm-2012.09/bin/../arm-none-eabi/lib//libstdc++.a(si_class_type_info.o)
__cxxabiv1::__terminate(void (*)())               /home/leon/riotboard/arm-2012.09/bin/../arm-none-eabi/lib//libstdc++.a(eh_terminate.o)
                                                  /home/leon/riotboard/arm-2012.09/bin/../arm-none-eabi/lib//libstdc++.a(eh_throw.o)
                                                  /home/leon/riotboard/arm-2012.09/bin/../arm-none-eabi/lib//libstdc++.a(eh_call.o)
__cxxabiv1::__terminate_handler                   /home/leon/riotboard/arm-2012.09/bin/../arm-none-eabi/lib//libstdc++.a(eh_term_handler.o)
                                                  /home/leon/riotboard/arm-2012.09/bin/../arm-none-eabi/lib//libstdc++.a(eh_throw.o)
                                                  /home/leon/riotboard/arm-2012.09/bin/../arm-none-eabi/lib//libstdc++.a(eh_terminate.o)
__cxxabiv1::__unexpected(void (*)())              /home/leon/riotboard/arm-2012.09/bin/../arm-none-eabi/lib//libstdc++.a(eh_terminate.o)
                                                  /home/leon/riotboard/arm-2012.09/bin/../arm-none-eabi/lib//libstdc++.a(eh_call.o)
__cxxabiv1::__unexpected_handler                  /home/leon/riotboard/arm-2012.09/bin/../arm-none-eabi/lib//libstdc++.a(eh_unex_handler.o)
                                                  /home/leon/riotboard/arm-2012.09/bin/../arm-none-eabi/lib//libstdc++.a(eh_throw.o)
                                                  /home/leon/riotboard/arm-2012.09/bin/../arm-none-eabi/lib//libstdc++.a(eh_terminate.o)
__d2b                                             /home/leon/riotboard/arm-2012.09/bin/../arm-none-eabi/lib//libc.a(lib_a-mprec.o)
                                                  /home/leon/riotboard/arm-2012.09/bin/../arm-none-eabi/lib//libc.a(lib_a-dtoa.o)
__deregister_frame_info                           /home/leon/riotboard/arm-2012.09/bin/../lib/gcc/arm-none-eabi/4.7.2//crtbegin.o
__divdf3                                          /home/leon/riotboard/arm-2012.09/bin/../lib/gcc/arm-none-eabi/4.7.2//libgcc.a(_arm_muldivdf3.o)
__divdi3                                          /home/leon/riotboard/arm-2012.09/bin/../lib/gcc/arm-none-eabi/4.7.2//libgcc.a(_divdi3.o)
                                                  /home/leon/riotboard/arm-2012.09/bin/../lib/gcc/arm-none-eabi/4.7.2//libgcc.a(bpabi.o)
__divsf3                                          /home/leon/riotboard/arm-2012.09/bin/../lib/gcc/arm-none-eabi/4.7.2//libgcc.a(_arm_muldivsf3.o)
__divsi3                                          /home/leon/riotboard/arm-2012.09/bin/../lib/gcc/arm-none-eabi/4.7.2//libgcc.a(_divsi3.o)
__dso_handle                                      /home/leon/riotboard/arm-2012.09/bin/../lib/gcc/arm-none-eabi/4.7.2//crtbegin.o
__env                                             /home/leon/git/swp-report/iMX6_Platform_SDK/output/mx6dq/lib/libsdk.a(runtime_support.o)
__eqdf2                                           /home/leon/riotboard/arm-2012.09/bin/../lib/gcc/arm-none-eabi/4.7.2//libgcc.a(_arm_cmpdf2.o)
__eqsf2                                           /home/leon/riotboard/arm-2012.09/bin/../lib/gcc/arm-none-eabi/4.7.2//libgcc.a(_arm_cmpsf2.o)
__exidx_end                                       /home/leon/riotboard/arm-2012.09/bin/../lib/gcc/arm-none-eabi/4.7.2//libgcc.a(unwind-arm.o)
__exidx_start                                     /home/leon/riotboard/arm-2012.09/bin/../lib/gcc/arm-none-eabi/4.7.2//libgcc.a(unwind-arm.o)
__extendsfdf2                                     /home/leon/riotboard/arm-2012.09/bin/../lib/gcc/arm-none-eabi/4.7.2//libgcc.a(_arm_addsubdf3.o)
__fixdfsi                                         /home/leon/riotboard/arm-2012.09/bin/../lib/gcc/arm-none-eabi/4.7.2//libgcc.a(_arm_fixdfsi.o)
__fixsfsi                                         /home/leon/riotboard/arm-2012.09/bin/../lib/gcc/arm-none-eabi/4.7.2//libgcc.a(_arm_fixsfsi.o)
__floatdidf                                       /home/leon/riotboard/arm-2012.09/bin/../lib/gcc/arm-none-eabi/4.7.2//libgcc.a(_arm_addsubdf3.o)
__floatdisf                                       /home/leon/riotboard/arm-2012.09/bin/../lib/gcc/arm-none-eabi/4.7.2//libgcc.a(_arm_addsubsf3.o)
__floatsidf                                       /home/leon/riotboard/arm-2012.09/bin/../lib/gcc/arm-none-eabi/4.7.2//libgcc.a(_arm_addsubdf3.o)
__floatsisf                                       /home/leon/riotboard/arm-2012.09/bin/../lib/gcc/arm-none-eabi/4.7.2//libgcc.a(_arm_addsubsf3.o)
__floatundidf                                     /home/leon/riotboard/arm-2012.09/bin/../lib/gcc/arm-none-eabi/4.7.2//libgcc.a(_arm_addsubdf3.o)
__floatundisf                                     /home/leon/riotboard/arm-2012.09/bin/../lib/gcc/arm-none-eabi/4.7.2//libgcc.a(_arm_addsubsf3.o)
__floatunsidf                                     /home/leon/riotboard/arm-2012.09/bin/../lib/gcc/arm-none-eabi/4.7.2//libgcc.a(_arm_addsubdf3.o)
__floatunsisf                                     /home/leon/riotboard/arm-2012.09/bin/../lib/gcc/arm-none-eabi/4.7.2//libgcc.a(_arm_addsubsf3.o)
__fp_lock_all                                     /home/leon/riotboard/arm-2012.09/bin/../arm-none-eabi/lib//libc.a(lib_a-findfp.o)
__fp_unlock_all                                   /home/leon/riotboard/arm-2012.09/bin/../arm-none-eabi/lib//libc.a(lib_a-findfp.o)
__fpclassifyd                                     /home/leon/riotboard/arm-2012.09/bin/../arm-none-eabi/lib//libc.a(lib_a-s_fpclassify.o)
                                                  /home/leon/riotboard/arm-2012.09/bin/../arm-none-eabi/lib//libc.a(lib_a-vfprintf.o)
                                                  /home/leon/riotboard/arm-2012.09/bin/../arm-none-eabi/lib//libc.a(lib_a-svfprintf.o)
__gcclibcxx_demangle_callback                     /home/leon/riotboard/arm-2012.09/bin/../arm-none-eabi/lib//libstdc++.a(cp-demangle.o)
__gedf2                                           /home/leon/riotboard/arm-2012.09/bin/../lib/gcc/arm-none-eabi/4.7.2//libgcc.a(_arm_cmpdf2.o)
__gesf2                                           /home/leon/riotboard/arm-2012.09/bin/../lib/gcc/arm-none-eabi/4.7.2//libgcc.a(_arm_cmpsf2.o)
__gnu_Unwind_Backtrace                            /home/leon/riotboard/arm-2012.09/bin/../lib/gcc/arm-none-eabi/4.7.2//libgcc.a(unwind-arm.o)
                                                  /home/leon/riotboard/arm-2012.09/bin/../lib/gcc/arm-none-eabi/4.7.2//libgcc.a(libunwind.o)
__gnu_Unwind_Find_exidx                           /home/leon/riotboard/arm-2012.09/bin/../lib/gcc/arm-none-eabi/4.7.2//libgcc.a(unwind-arm.o)
__gnu_Unwind_ForcedUnwind                         /home/leon/riotboard/arm-2012.09/bin/../lib/gcc/arm-none-eabi/4.7.2//libgcc.a(unwind-arm.o)
                                                  /home/leon/riotboard/arm-2012.09/bin/../lib/gcc/arm-none-eabi/4.7.2//libgcc.a(libunwind.o)
__gnu_Unwind_RaiseException                       /home/leon/riotboard/arm-2012.09/bin/../lib/gcc/arm-none-eabi/4.7.2//libgcc.a(unwind-arm.o)
                                                  /home/leon/riotboard/arm-2012.09/bin/../lib/gcc/arm-none-eabi/4.7.2//libgcc.a(libunwind.o)
__gnu_Unwind_Restore_VFP                          /home/leon/riotboard/arm-2012.09/bin/../lib/gcc/arm-none-eabi/4.7.2//libgcc.a(libunwind.o)
                                                  /home/leon/riotboard/arm-2012.09/bin/../lib/gcc/arm-none-eabi/4.7.2//libgcc.a(unwind-arm.o)
__gnu_Unwind_Restore_VFP_D                        /home/leon/riotboard/arm-2012.09/bin/../lib/gcc/arm-none-eabi/4.7.2//libgcc.a(libunwind.o)
                                                  /home/leon/riotboard/arm-2012.09/bin/../lib/gcc/arm-none-eabi/4.7.2//libgcc.a(unwind-arm.o)
__gnu_Unwind_Restore_VFP_D_16_to_31               /home/leon/riotboard/arm-2012.09/bin/../lib/gcc/arm-none-eabi/4.7.2//libgcc.a(libunwind.o)
                                                  /home/leon/riotboard/arm-2012.09/bin/../lib/gcc/arm-none-eabi/4.7.2//libgcc.a(unwind-arm.o)
__gnu_Unwind_Restore_WMMXC                        /home/leon/riotboard/arm-2012.09/bin/../lib/gcc/arm-none-eabi/4.7.2//libgcc.a(libunwind.o)
                                                  /home/leon/riotboard/arm-2012.09/bin/../lib/gcc/arm-none-eabi/4.7.2//libgcc.a(unwind-arm.o)
__gnu_Unwind_Restore_WMMXD                        /home/leon/riotboard/arm-2012.09/bin/../lib/gcc/arm-none-eabi/4.7.2//libgcc.a(libunwind.o)
                                                  /home/leon/riotboard/arm-2012.09/bin/../lib/gcc/arm-none-eabi/4.7.2//libgcc.a(unwind-arm.o)
__gnu_Unwind_Resume                               /home/leon/riotboard/arm-2012.09/bin/../lib/gcc/arm-none-eabi/4.7.2//libgcc.a(unwind-arm.o)
                                                  /home/leon/riotboard/arm-2012.09/bin/../lib/gcc/arm-none-eabi/4.7.2//libgcc.a(libunwind.o)
__gnu_Unwind_Resume_or_Rethrow                    /home/leon/riotboard/arm-2012.09/bin/../lib/gcc/arm-none-eabi/4.7.2//libgcc.a(unwind-arm.o)
                                                  /home/leon/riotboard/arm-2012.09/bin/../lib/gcc/arm-none-eabi/4.7.2//libgcc.a(libunwind.o)
__gnu_Unwind_Save_VFP                             /home/leon/riotboard/arm-2012.09/bin/../lib/gcc/arm-none-eabi/4.7.2//libgcc.a(libunwind.o)
                                                  /home/leon/riotboard/arm-2012.09/bin/../lib/gcc/arm-none-eabi/4.7.2//libgcc.a(unwind-arm.o)
__gnu_Unwind_Save_VFP_D                           /home/leon/riotboard/arm-2012.09/bin/../lib/gcc/arm-none-eabi/4.7.2//libgcc.a(libunwind.o)
                                                  /home/leon/riotboard/arm-2012.09/bin/../lib/gcc/arm-none-eabi/4.7.2//libgcc.a(unwind-arm.o)
__gnu_Unwind_Save_VFP_D_16_to_31                  /home/leon/riotboard/arm-2012.09/bin/../lib/gcc/arm-none-eabi/4.7.2//libgcc.a(libunwind.o)
                                                  /home/leon/riotboard/arm-2012.09/bin/../lib/gcc/arm-none-eabi/4.7.2//libgcc.a(unwind-arm.o)
__gnu_Unwind_Save_WMMXC                           /home/leon/riotboard/arm-2012.09/bin/../lib/gcc/arm-none-eabi/4.7.2//libgcc.a(libunwind.o)
                                                  /home/leon/riotboard/arm-2012.09/bin/../lib/gcc/arm-none-eabi/4.7.2//libgcc.a(unwind-arm.o)
__gnu_Unwind_Save_WMMXD                           /home/leon/riotboard/arm-2012.09/bin/../lib/gcc/arm-none-eabi/4.7.2//libgcc.a(libunwind.o)
                                                  /home/leon/riotboard/arm-2012.09/bin/../lib/gcc/arm-none-eabi/4.7.2//libgcc.a(unwind-arm.o)
__gnu_cxx::__verbose_terminate_handler()          /home/leon/riotboard/arm-2012.09/bin/../arm-none-eabi/lib//libstdc++.a(vterminate.o)
                                                  /home/leon/riotboard/arm-2012.09/bin/../arm-none-eabi/lib//libstdc++.a(eh_term_handler.o)
__gnu_end_cleanup                                 /home/leon/riotboard/arm-2012.09/bin/../arm-none-eabi/lib//libstdc++.a(eh_arm.o)
__gnu_ldivmod_helper                              /home/leon/riotboard/arm-2012.09/bin/../lib/gcc/arm-none-eabi/4.7.2//libgcc.a(bpabi.o)
__gnu_uldivmod_helper                             /home/leon/riotboard/arm-2012.09/bin/../lib/gcc/arm-none-eabi/4.7.2//libgcc.a(bpabi.o)
                                                  /home/leon/riotboard/arm-2012.09/bin/../lib/gcc/arm-none-eabi/4.7.2//libgcc.a(_aeabi_uldivmod.o)
__gnu_unwind_execute                              /home/leon/riotboard/arm-2012.09/bin/../lib/gcc/arm-none-eabi/4.7.2//libgcc.a(pr-support.o)
                                                  /home/leon/riotboard/arm-2012.09/bin/../lib/gcc/arm-none-eabi/4.7.2//libgcc.a(unwind-arm.o)
__gnu_unwind_frame                                /home/leon/riotboard/arm-2012.09/bin/../lib/gcc/arm-none-eabi/4.7.2//libgcc.a(pr-support.o)
                                                  /home/leon/riotboard/arm-2012.09/bin/../arm-none-eabi/lib//libstdc++.a(eh_personality.o)
__gtdf2                                           /home/leon/riotboard/arm-2012.09/bin/../lib/gcc/arm-none-eabi/4.7.2//libgcc.a(_arm_cmpdf2.o)
__gtsf2                                           /home/leon/riotboard/arm-2012.09/bin/../lib/gcc/arm-none-eabi/4.7.2//libgcc.a(_arm_cmpsf2.o)
__gxx_personality_v0                              /home/leon/riotboard/arm-2012.09/bin/../arm-none-eabi/lib//libstdc++.a(eh_personality.o)
                                                  /home/leon/riotboard/arm-2012.09/bin/../arm-none-eabi/lib//libstdc++.a(vterminate.o)
                                                  /home/leon/riotboard/arm-2012.09/bin/../arm-none-eabi/lib//libstdc++.a(eh_catch.o)
                                                  /home/leon/riotboard/arm-2012.09/bin/../arm-none-eabi/lib//libstdc++.a(eh_call.o)
                                                  /home/leon/riotboard/arm-2012.09/bin/../arm-none-eabi/lib//libstdc++.a(eh_terminate.o)
__hab_data                                        /home/leon/git/swp-report/iMX6_Platform_SDK/output/mx6dq/sdk_unit_test/smart_device_rev_c/obj/apps/common/ivt.o
__hi0bits                                         /home/leon/riotboard/arm-2012.09/bin/../arm-none-eabi/lib//libc.a(lib_a-mprec.o)
                                                  /home/leon/riotboard/arm-2012.09/bin/../arm-none-eabi/lib//libc.a(lib_a-dtoa.o)
__i2b                                             /home/leon/riotboard/arm-2012.09/bin/../arm-none-eabi/lib//libc.a(lib_a-mprec.o)
                                                  /home/leon/riotboard/arm-2012.09/bin/../arm-none-eabi/lib//libc.a(lib_a-dtoa.o)
__ieee754_rem_pio2f                               /home/leon/riotboard/arm-2012.09/bin/../arm-none-eabi/lib//libm.a(lib_a-ef_rem_pio2.o)
                                                  /home/leon/riotboard/arm-2012.09/bin/../arm-none-eabi/lib//libm.a(lib_a-sf_sin.o)
                                                  /home/leon/riotboard/arm-2012.09/bin/../arm-none-eabi/lib//libm.a(lib_a-sf_cos.o)
__init_array_end                                  /home/leon/riotboard/arm-2012.09/bin/../arm-none-eabi/lib//libc.a(lib_a-init.o)
__init_array_start                                /home/leon/riotboard/arm-2012.09/bin/../arm-none-eabi/lib//libc.a(lib_a-init.o)
__kernel_cosf                                     /home/leon/riotboard/arm-2012.09/bin/../arm-none-eabi/lib//libm.a(lib_a-kf_cos.o)
                                                  /home/leon/riotboard/arm-2012.09/bin/../arm-none-eabi/lib//libm.a(lib_a-sf_sin.o)
                                                  /home/leon/riotboard/arm-2012.09/bin/../arm-none-eabi/lib//libm.a(lib_a-sf_cos.o)
__kernel_rem_pio2f                                /home/leon/riotboard/arm-2012.09/bin/../arm-none-eabi/lib//libm.a(lib_a-kf_rem_pio2.o)
                                                  /home/leon/riotboard/arm-2012.09/bin/../arm-none-eabi/lib//libm.a(lib_a-ef_rem_pio2.o)
__kernel_sinf                                     /home/leon/riotboard/arm-2012.09/bin/../arm-none-eabi/lib//libm.a(lib_a-kf_sin.o)
                                                  /home/leon/riotboard/arm-2012.09/bin/../arm-none-eabi/lib//libm.a(lib_a-sf_sin.o)
                                                  /home/leon/riotboard/arm-2012.09/bin/../arm-none-eabi/lib//libm.a(lib_a-sf_cos.o)
__l1_page_table_start                             /home/leon/git/swp-report/iMX6_Platform_SDK/output/mx6dq/lib/libsdk.a(mmu.o)
__ledf2                                           /home/leon/riotboard/arm-2012.09/bin/../lib/gcc/arm-none-eabi/4.7.2//libgcc.a(_arm_cmpdf2.o)
__lesf2                                           /home/leon/riotboard/arm-2012.09/bin/../lib/gcc/arm-none-eabi/4.7.2//libgcc.a(_arm_cmpsf2.o)
__libc_init_array                                 /home/leon/riotboard/arm-2012.09/bin/../arm-none-eabi/lib//libc.a(lib_a-init.o)
                                                  /home/leon/git/swp-report/iMX6_Platform_SDK/output/mx6dq/lib/libsdk.a(startup.o)
__lo0bits                                         /home/leon/riotboard/arm-2012.09/bin/../arm-none-eabi/lib//libc.a(lib_a-mprec.o)
__locale_charset                                  /home/leon/riotboard/arm-2012.09/bin/../arm-none-eabi/lib//libc.a(lib_a-locale.o)
                                                  /home/leon/riotboard/arm-2012.09/bin/../arm-none-eabi/lib//libc.a(lib_a-wctomb_r.o)
                                                  /home/leon/riotboard/arm-2012.09/bin/../arm-none-eabi/lib//libc.a(lib_a-wcrtomb.o)
__locale_cjk_lang                                 /home/leon/riotboard/arm-2012.09/bin/../arm-none-eabi/lib//libc.a(lib_a-locale.o)
__locale_mb_cur_max                               /home/leon/riotboard/arm-2012.09/bin/../arm-none-eabi/lib//libc.a(lib_a-locale.o)
                                                  /home/leon/riotboard/arm-2012.09/bin/../arm-none-eabi/lib//libc.a(lib_a-fputwc.o)
__locale_msgcharset                               /home/leon/riotboard/arm-2012.09/bin/../arm-none-eabi/lib//libc.a(lib_a-locale.o)
__lshift                                          /home/leon/riotboard/arm-2012.09/bin/../arm-none-eabi/lib//libc.a(lib_a-mprec.o)
                                                  /home/leon/riotboard/arm-2012.09/bin/../arm-none-eabi/lib//libc.a(lib_a-dtoa.o)
__ltdf2                                           /home/leon/riotboard/arm-2012.09/bin/../lib/gcc/arm-none-eabi/4.7.2//libgcc.a(_arm_cmpdf2.o)
__ltsf2                                           /home/leon/riotboard/arm-2012.09/bin/../lib/gcc/arm-none-eabi/4.7.2//libgcc.a(_arm_cmpsf2.o)
__malloc_av_                                      /home/leon/riotboard/arm-2012.09/bin/../arm-none-eabi/lib//libc.a(lib_a-mallocr.o)
                                                  /home/leon/riotboard/arm-2012.09/bin/../arm-none-eabi/lib//libc.a(lib_a-reallocr.o)
                                                  /home/leon/riotboard/arm-2012.09/bin/../arm-none-eabi/lib//libc.a(lib_a-freer.o)
__malloc_current_mallinfo                         /home/leon/riotboard/arm-2012.09/bin/../arm-none-eabi/lib//libc.a(lib_a-mallocr.o)
                                                  /home/leon/riotboard/arm-2012.09/bin/../arm-none-eabi/lib//libc.a(lib_a-freer.o)
__malloc_lock                                     /home/leon/riotboard/arm-2012.09/bin/../arm-none-eabi/lib//libc.a(lib_a-mlock.o)
                                                  /home/leon/riotboard/arm-2012.09/bin/../arm-none-eabi/lib//libc.a(lib_a-reallocr.o)
                                                  /home/leon/riotboard/arm-2012.09/bin/../arm-none-eabi/lib//libc.a(lib_a-mallocr.o)
                                                  /home/leon/riotboard/arm-2012.09/bin/../arm-none-eabi/lib//libc.a(lib_a-freer.o)
__malloc_max_sbrked_mem                           /home/leon/riotboard/arm-2012.09/bin/../arm-none-eabi/lib//libc.a(lib_a-mallocr.o)
__malloc_max_total_mem                            /home/leon/riotboard/arm-2012.09/bin/../arm-none-eabi/lib//libc.a(lib_a-mallocr.o)
__malloc_sbrk_base                                /home/leon/riotboard/arm-2012.09/bin/../arm-none-eabi/lib//libc.a(lib_a-mallocr.o)
                                                  /home/leon/riotboard/arm-2012.09/bin/../arm-none-eabi/lib//libc.a(lib_a-freer.o)
__malloc_top_pad                                  /home/leon/riotboard/arm-2012.09/bin/../arm-none-eabi/lib//libc.a(lib_a-mallocr.o)
                                                  /home/leon/riotboard/arm-2012.09/bin/../arm-none-eabi/lib//libc.a(lib_a-freer.o)
__malloc_trim_threshold                           /home/leon/riotboard/arm-2012.09/bin/../arm-none-eabi/lib//libc.a(lib_a-mallocr.o)
                                                  /home/leon/riotboard/arm-2012.09/bin/../arm-none-eabi/lib//libc.a(lib_a-freer.o)
__malloc_unlock                                   /home/leon/riotboard/arm-2012.09/bin/../arm-none-eabi/lib//libc.a(lib_a-mlock.o)
                                                  /home/leon/riotboard/arm-2012.09/bin/../arm-none-eabi/lib//libc.a(lib_a-reallocr.o)
                                                  /home/leon/riotboard/arm-2012.09/bin/../arm-none-eabi/lib//libc.a(lib_a-mallocr.o)
                                                  /home/leon/riotboard/arm-2012.09/bin/../arm-none-eabi/lib//libc.a(lib_a-freer.o)
__mb_cur_max                                      /home/leon/riotboard/arm-2012.09/bin/../arm-none-eabi/lib//libc.a(lib_a-locale.o)
__mcmp                                            /home/leon/riotboard/arm-2012.09/bin/../arm-none-eabi/lib//libc.a(lib_a-mprec.o)
                                                  /home/leon/riotboard/arm-2012.09/bin/../arm-none-eabi/lib//libc.a(lib_a-dtoa.o)
__mdiff                                           /home/leon/riotboard/arm-2012.09/bin/../arm-none-eabi/lib//libc.a(lib_a-mprec.o)
                                                  /home/leon/riotboard/arm-2012.09/bin/../arm-none-eabi/lib//libc.a(lib_a-dtoa.o)
__mlocale_changed                                 /home/leon/riotboard/arm-2012.09/bin/../arm-none-eabi/lib//libc.a(lib_a-locale.o)
__mprec_bigtens                                   /home/leon/riotboard/arm-2012.09/bin/../arm-none-eabi/lib//libc.a(lib_a-mprec.o)
                                                  /home/leon/riotboard/arm-2012.09/bin/../arm-none-eabi/lib//libc.a(lib_a-dtoa.o)
__mprec_tens                                      /home/leon/riotboard/arm-2012.09/bin/../arm-none-eabi/lib//libc.a(lib_a-mprec.o)
                                                  /home/leon/riotboard/arm-2012.09/bin/../arm-none-eabi/lib//libc.a(lib_a-dtoa.o)
__mprec_tinytens                                  /home/leon/riotboard/arm-2012.09/bin/../arm-none-eabi/lib//libc.a(lib_a-mprec.o)
__muldf3                                          /home/leon/riotboard/arm-2012.09/bin/../lib/gcc/arm-none-eabi/4.7.2//libgcc.a(_arm_muldivdf3.o)
__mulsf3                                          /home/leon/riotboard/arm-2012.09/bin/../lib/gcc/arm-none-eabi/4.7.2//libgcc.a(_arm_muldivsf3.o)
__multadd                                         /home/leon/riotboard/arm-2012.09/bin/../arm-none-eabi/lib//libc.a(lib_a-mprec.o)
                                                  /home/leon/riotboard/arm-2012.09/bin/../arm-none-eabi/lib//libc.a(lib_a-dtoa.o)
__multiply                                        /home/leon/riotboard/arm-2012.09/bin/../arm-none-eabi/lib//libc.a(lib_a-mprec.o)
                                                  /home/leon/riotboard/arm-2012.09/bin/../arm-none-eabi/lib//libc.a(lib_a-dtoa.o)
__nedf2                                           /home/leon/riotboard/arm-2012.09/bin/../lib/gcc/arm-none-eabi/4.7.2//libgcc.a(_arm_cmpdf2.o)
__nesf2                                           /home/leon/riotboard/arm-2012.09/bin/../lib/gcc/arm-none-eabi/4.7.2//libgcc.a(_arm_cmpsf2.o)
__nlocale_changed                                 /home/leon/riotboard/arm-2012.09/bin/../arm-none-eabi/lib//libc.a(lib_a-locale.o)
__pow5mult                                        /home/leon/riotboard/arm-2012.09/bin/../arm-none-eabi/lib//libc.a(lib_a-mprec.o)
                                                  /home/leon/riotboard/arm-2012.09/bin/../arm-none-eabi/lib//libc.a(lib_a-dtoa.o)
__preinit_array_end                               /home/leon/riotboard/arm-2012.09/bin/../arm-none-eabi/lib//libc.a(lib_a-init.o)
__preinit_array_start                             /home/leon/riotboard/arm-2012.09/bin/../arm-none-eabi/lib//libc.a(lib_a-init.o)
__ram_vectors_end                                 /home/leon/git/swp-report/iMX6_Platform_SDK/output/mx6dq/lib/libsdk.a(startup.o)
__ram_vectors_start                               /home/leon/git/swp-report/iMX6_Platform_SDK/output/mx6dq/lib/libsdk.a(startup.o)
__ratio                                           /home/leon/riotboard/arm-2012.09/bin/../arm-none-eabi/lib//libc.a(lib_a-mprec.o)
__register_frame_info                             /home/leon/riotboard/arm-2012.09/bin/../lib/gcc/arm-none-eabi/4.7.2//crtbegin.o
__restore_core_regs                               /home/leon/riotboard/arm-2012.09/bin/../lib/gcc/arm-none-eabi/4.7.2//libgcc.a(libunwind.o)
__s2b                                             /home/leon/riotboard/arm-2012.09/bin/../arm-none-eabi/lib//libc.a(lib_a-mprec.o)
__sclose                                          /home/leon/riotboard/arm-2012.09/bin/../arm-none-eabi/lib//libc.a(lib_a-stdio.o)
                                                  /home/leon/riotboard/arm-2012.09/bin/../arm-none-eabi/lib//libc.a(lib_a-findfp.o)
__seofread                                        /home/leon/riotboard/arm-2012.09/bin/../arm-none-eabi/lib//libc.a(lib_a-stdio.o)
__sfmoreglue                                      /home/leon/riotboard/arm-2012.09/bin/../arm-none-eabi/lib//libc.a(lib_a-findfp.o)
__sfp                                             /home/leon/riotboard/arm-2012.09/bin/../arm-none-eabi/lib//libc.a(lib_a-findfp.o)
__sfp_lock_acquire                                /home/leon/riotboard/arm-2012.09/bin/../arm-none-eabi/lib//libc.a(lib_a-findfp.o)
                                                  /home/leon/riotboard/arm-2012.09/bin/../arm-none-eabi/lib//libc.a(lib_a-fclose.o)
                                                  /home/leon/riotboard/arm-2012.09/bin/../arm-none-eabi/lib//libc.a(lib_a-fwalk.o)
__sfp_lock_release                                /home/leon/riotboard/arm-2012.09/bin/../arm-none-eabi/lib//libc.a(lib_a-findfp.o)
                                                  /home/leon/riotboard/arm-2012.09/bin/../arm-none-eabi/lib//libc.a(lib_a-fclose.o)
                                                  /home/leon/riotboard/arm-2012.09/bin/../arm-none-eabi/lib//libc.a(lib_a-fwalk.o)
__sfvwrite_r                                      /home/leon/riotboard/arm-2012.09/bin/../arm-none-eabi/lib//libc.a(lib_a-fvwrite.o)
                                                  /home/leon/riotboard/arm-2012.09/bin/../arm-none-eabi/lib//libc.a(lib_a-fwrite.o)
                                                  /home/leon/riotboard/arm-2012.09/bin/../arm-none-eabi/lib//libc.a(lib_a-vfiprintf.o)
                                                  /home/leon/riotboard/arm-2012.09/bin/../arm-none-eabi/lib//libc.a(lib_a-fputs.o)
__sigtramp                                        /home/leon/riotboard/arm-2012.09/bin/../arm-none-eabi/lib//libc.a(lib_a-signal.o)
__sigtramp_r                                      /home/leon/riotboard/arm-2012.09/bin/../arm-none-eabi/lib//libc.a(lib_a-signal.o)
__sinit                                           /home/leon/riotboard/arm-2012.09/bin/../arm-none-eabi/lib//libc.a(lib_a-findfp.o)
                                                  /home/leon/riotboard/arm-2012.09/bin/../arm-none-eabi/lib//libc.a(lib_a-fwrite.o)
                                                  /home/leon/riotboard/arm-2012.09/bin/../arm-none-eabi/lib//libc.a(lib_a-refill.o)
                                                  /home/leon/riotboard/arm-2012.09/bin/../arm-none-eabi/lib//libc.a(lib_a-fputwc.o)
                                                  /home/leon/riotboard/arm-2012.09/bin/../arm-none-eabi/lib//libc.a(lib_a-fclose.o)
                                                  /home/leon/riotboard/arm-2012.09/bin/../arm-none-eabi/lib//libc.a(lib_a-wsetup.o)
                                                  /home/leon/riotboard/arm-2012.09/bin/../arm-none-eabi/lib//libc.a(lib_a-wbuf.o)
                                                  /home/leon/riotboard/arm-2012.09/bin/../arm-none-eabi/lib//libc.a(lib_a-vfprintf.o)
                                                  /home/leon/riotboard/arm-2012.09/bin/../arm-none-eabi/lib//libc.a(lib_a-vfiprintf.o)
                                                  /home/leon/riotboard/arm-2012.09/bin/../arm-none-eabi/lib//libc.a(lib_a-rget.o)
                                                  /home/leon/riotboard/arm-2012.09/bin/../arm-none-eabi/lib//libc.a(lib_a-putc.o)
                                                  /home/leon/riotboard/arm-2012.09/bin/../arm-none-eabi/lib//libc.a(lib_a-fputs.o)
                                                  /home/leon/riotboard/arm-2012.09/bin/../arm-none-eabi/lib//libc.a(lib_a-fputc.o)
                                                  /home/leon/riotboard/arm-2012.09/bin/../arm-none-eabi/lib//libc.a(lib_a-fflush.o)
__sinit_lock_acquire                              /home/leon/riotboard/arm-2012.09/bin/../arm-none-eabi/lib//libc.a(lib_a-findfp.o)
__sinit_lock_release                              /home/leon/riotboard/arm-2012.09/bin/../arm-none-eabi/lib//libc.a(lib_a-findfp.o)
__smakebuf_r                                      /home/leon/riotboard/arm-2012.09/bin/../arm-none-eabi/lib//libc.a(lib_a-makebuf.o)
                                                  /home/leon/riotboard/arm-2012.09/bin/../arm-none-eabi/lib//libc.a(lib_a-refill.o)
                                                  /home/leon/riotboard/arm-2012.09/bin/../arm-none-eabi/lib//libc.a(lib_a-wsetup.o)
__sprint_r                                        /home/leon/riotboard/arm-2012.09/bin/../arm-none-eabi/lib//libc.a(lib_a-vfiprintf.o)
                                                  /home/leon/riotboard/arm-2012.09/bin/../arm-none-eabi/lib//libc.a(lib_a-vfprintf.o)
__sread                                           /home/leon/riotboard/arm-2012.09/bin/../arm-none-eabi/lib//libc.a(lib_a-stdio.o)
                                                  /home/leon/riotboard/arm-2012.09/bin/../arm-none-eabi/lib//libc.a(lib_a-findfp.o)
__srefill_r                                       /home/leon/riotboard/arm-2012.09/bin/../arm-none-eabi/lib//libc.a(lib_a-refill.o)
                                                  /home/leon/riotboard/arm-2012.09/bin/../arm-none-eabi/lib//libc.a(lib_a-rget.o)
__srget                                           /home/leon/riotboard/arm-2012.09/bin/../arm-none-eabi/lib//libc.a(lib_a-rget.o)
__srget_r                                         /home/leon/riotboard/arm-2012.09/bin/../arm-none-eabi/lib//libc.a(lib_a-rget.o)
                                                  /home/leon/git/swp-report/iMX6_Platform_SDK/output/mx6dq/lib/libsdk.a(usb_common.o)
                                                  /home/leon/git/swp-report/iMX6_Platform_SDK/output/mx6dq/sdk_unit_test/smart_device_rev_c/libsdk_unit_test.a(usb0_device_mouse_test.o)
                                                  /home/leon/git/swp-report/iMX6_Platform_SDK/output/mx6dq/sdk_unit_test/smart_device_rev_c/libsdk_unit_test.a(ips_rotate.o)
                                                  /home/leon/git/swp-report/iMX6_Platform_SDK/output/mx6dq/sdk_unit_test/smart_device_rev_c/libsdk_unit_test.a(ips_resize.o)
                                                  /home/leon/git/swp-report/iMX6_Platform_SDK/output/mx6dq/sdk_unit_test/smart_device_rev_c/libsdk_unit_test.a(ips_csc.o)
                                                  /home/leon/git/swp-report/iMX6_Platform_SDK/output/mx6dq/sdk_unit_test/smart_device_rev_c/libsdk_unit_test.a(ips_combiner.o)
                                                  /home/leon/git/swp-report/iMX6_Platform_SDK/output/mx6dq/sdk_unit_test/smart_device_rev_c/libsdk_unit_test.a(sata_test.o)
                                                  /home/leon/git/swp-report/iMX6_Platform_SDK/output/mx6dq/sdk_unit_test/smart_device_rev_c/libsdk_unit_test.a(accelerometer_test.o)
                                                  /home/leon/git/swp-report/iMX6_Platform_SDK/output/mx6dq/sdk_unit_test/smart_device_rev_c/libsdk_unit_test.a(spi_test.o)
                                                  /home/leon/git/swp-report/iMX6_Platform_SDK/output/mx6dq/sdk_unit_test/smart_device_rev_c/libsdk_unit_test.a(pcie_test_rc.o)
                                                  /home/leon/git/swp-report/iMX6_Platform_SDK/output/mx6dq/sdk_unit_test/smart_device_rev_c/libsdk_unit_test.a(keypad_test.o)
                                                  /home/leon/git/swp-report/iMX6_Platform_SDK/output/mx6dq/sdk_unit_test/smart_device_rev_c/libsdk_unit_test.a(sensor_capture.o)
                                                  /home/leon/git/swp-report/iMX6_Platform_SDK/output/mx6dq/sdk_unit_test/smart_device_rev_c/libsdk_unit_test.a(csi_test_mode.o)
                                                  /home/leon/git/swp-report/iMX6_Platform_SDK/output/mx6dq/sdk_unit_test/smart_device_rev_c/libsdk_unit_test.a(camera_test.o)
                                                  /home/leon/git/swp-report/iMX6_Platform_SDK/output/mx6dq/sdk_unit_test/smart_device_rev_c/libsdk_unit_test.a(ips_test.o)
                                                  /home/leon/git/swp-report/iMX6_Platform_SDK/output/mx6dq/sdk_unit_test/smart_device_rev_c/libsdk_unit_test.a(ips_display.o)
                                                  /home/leon/git/swp-report/iMX6_Platform_SDK/output/mx6dq/sdk_unit_test/smart_device_rev_c/libsdk_unit_test.a(watchdog_test.o)
                                                  /home/leon/git/swp-report/iMX6_Platform_SDK/output/mx6dq/sdk_unit_test/smart_device_rev_c/libsdk_unit_test.a(pwm_test.o)
                                                  /home/leon/git/swp-report/iMX6_Platform_SDK/output/mx6dq/sdk_unit_test/smart_device_rev_c/libsdk_unit_test.a(usdhc_test.o)
                                                  /home/leon/git/swp-report/iMX6_Platform_SDK/output/mx6dq/sdk_unit_test/smart_device_rev_c/libsdk_unit_test.a(gpt_test.o)
                                                  /home/leon/git/swp-report/iMX6_Platform_SDK/output/mx6dq/sdk_unit_test/smart_device_rev_c/libsdk_unit_test.a(epit_test.o)
                                                  /home/leon/git/swp-report/iMX6_Platform_SDK/output/mx6dq/sdk_unit_test/smart_device_rev_c/libsdk_unit_test.a(uart_test.o)
                                                  /home/leon/git/swp-report/iMX6_Platform_SDK/output/mx6dq/sdk_unit_test/smart_device_rev_c/libsdk_unit_test.a(sdma_test.o)
                                                  /home/leon/git/swp-report/iMX6_Platform_SDK/output/mx6dq/sdk_unit_test/smart_device_rev_c/libsdk_unit_test.a(tempmon_test.o)
                                                  /home/leon/git/swp-report/iMX6_Platform_SDK/output/mx6dq/sdk_unit_test/smart_device_rev_c/libsdk_unit_test.a(imx6_i2c_device.o)
                                                  /home/leon/git/swp-report/iMX6_Platform_SDK/output/mx6dq/sdk_unit_test/smart_device_rev_c/libsdk_unit_test.a(i2c_test.o)
                                                  /home/leon/git/swp-report/iMX6_Platform_SDK/output/mx6dq/sdk_unit_test/smart_device_rev_c/libsdk_unit_test.a(snvs_srtc_test.o)
                                                  /home/leon/git/swp-report/iMX6_Platform_SDK/output/mx6dq/sdk_unit_test/smart_device_rev_c/libsdk_unit_test.a(snvs_rtc_test.o)
                                                  /home/leon/git/swp-report/iMX6_Platform_SDK/output/mx6dq/sdk_unit_test/smart_device_rev_c/libsdk_unit_test.a(ocotp_test.o)
                                                  /home/leon/git/swp-report/iMX6_Platform_SDK/output/mx6dq/sdk_unit_test/smart_device_rev_c/libsdk_unit_test.a(audio_test.o)
                                                  /home/leon/git/swp-report/iMX6_Platform_SDK/output/mx6dq/lib/libsdk.a(system_util.o)
                                                  /home/leon/git/swp-report/iMX6_Platform_SDK/output/mx6dq/lib/libsdk.a(menu.o)
__sseek                                           /home/leon/riotboard/arm-2012.09/bin/../arm-none-eabi/lib//libc.a(lib_a-stdio.o)
                                                  /home/leon/riotboard/arm-2012.09/bin/../arm-none-eabi/lib//libc.a(lib_a-makebuf.o)
                                                  /home/leon/riotboard/arm-2012.09/bin/../arm-none-eabi/lib//libc.a(lib_a-findfp.o)
__ssprint_r                                       /home/leon/riotboard/arm-2012.09/bin/../arm-none-eabi/lib//libc.a(lib_a-svfiprintf.o)
                                                  /home/leon/riotboard/arm-2012.09/bin/../arm-none-eabi/lib//libc.a(lib_a-svfprintf.o)
__stacks_start                                    /home/leon/git/swp-report/iMX6_Platform_SDK/output/mx6dq/lib/libsdk.a(startup.o)
__start_boot_data                                 /home/leon/git/swp-report/iMX6_Platform_SDK/output/mx6dq/sdk_unit_test/smart_device_rev_c/obj/apps/common/ivt.o
__subdf3                                          /home/leon/riotboard/arm-2012.09/bin/../lib/gcc/arm-none-eabi/4.7.2//libgcc.a(_arm_addsubdf3.o)
__subsf3                                          /home/leon/riotboard/arm-2012.09/bin/../lib/gcc/arm-none-eabi/4.7.2//libgcc.a(_arm_addsubsf3.o)
__swbuf                                           /home/leon/riotboard/arm-2012.09/bin/../arm-none-eabi/lib//libc.a(lib_a-wbuf.o)
__swbuf_r                                         /home/leon/riotboard/arm-2012.09/bin/../arm-none-eabi/lib//libc.a(lib_a-wbuf.o)
                                                  /home/leon/riotboard/arm-2012.09/bin/../arm-none-eabi/lib//libc.a(lib_a-fputwc.o)
                                                  /home/leon/riotboard/arm-2012.09/bin/../arm-none-eabi/lib//libc.a(lib_a-putc.o)
__swrite                                          /home/leon/riotboard/arm-2012.09/bin/../arm-none-eabi/lib//libc.a(lib_a-stdio.o)
                                                  /home/leon/riotboard/arm-2012.09/bin/../arm-none-eabi/lib//libc.a(lib_a-findfp.o)
__swsetup_r                                       /home/leon/riotboard/arm-2012.09/bin/../arm-none-eabi/lib//libc.a(lib_a-wsetup.o)
                                                  /home/leon/riotboard/arm-2012.09/bin/../arm-none-eabi/lib//libc.a(lib_a-wbuf.o)
                                                  /home/leon/riotboard/arm-2012.09/bin/../arm-none-eabi/lib//libc.a(lib_a-vfprintf.o)
                                                  /home/leon/riotboard/arm-2012.09/bin/../arm-none-eabi/lib//libc.a(lib_a-vfiprintf.o)
                                                  /home/leon/riotboard/arm-2012.09/bin/../arm-none-eabi/lib//libc.a(lib_a-fvwrite.o)
__udivdi3                                         /home/leon/riotboard/arm-2012.09/bin/../lib/gcc/arm-none-eabi/4.7.2//libgcc.a(_udivdi3.o)
                                                  /home/leon/riotboard/arm-2012.09/bin/../lib/gcc/arm-none-eabi/4.7.2//libgcc.a(bpabi.o)
__udivsi3                                         /home/leon/riotboard/arm-2012.09/bin/../lib/gcc/arm-none-eabi/4.7.2//libgcc.a(_udivsi3.o)
__ulp                                             /home/leon/riotboard/arm-2012.09/bin/../arm-none-eabi/lib//libc.a(lib_a-mprec.o)
__wctomb                                          /home/leon/riotboard/arm-2012.09/bin/../arm-none-eabi/lib//libc.a(lib_a-wctomb_r.o)
                                                  /home/leon/riotboard/arm-2012.09/bin/../arm-none-eabi/lib//libc.a(lib_a-wcrtomb.o)
_calloc_r                                         /home/leon/riotboard/arm-2012.09/bin/../arm-none-eabi/lib//libc.a(lib_a-callocr.o)
                                                  /home/leon/riotboard/arm-2012.09/bin/../arm-none-eabi/lib//libc.a(lib_a-mprec.o)
_cleanup                                          /home/leon/riotboard/arm-2012.09/bin/../arm-none-eabi/lib//libc.a(lib_a-findfp.o)
_cleanup_r                                        /home/leon/riotboard/arm-2012.09/bin/../arm-none-eabi/lib//libc.a(lib_a-findfp.o)
                                                  /home/leon/riotboard/arm-2012.09/bin/../arm-none-eabi/lib//libc.a(lib_a-makebuf.o)
_close                                            /home/leon/git/swp-report/iMX6_Platform_SDK/output/mx6dq/lib/libsdk.a(runtime_support.o)
                                                  /home/leon/riotboard/arm-2012.09/bin/../arm-none-eabi/lib//libc.a(lib_a-closer.o)
_close_r                                          /home/leon/riotboard/arm-2012.09/bin/../arm-none-eabi/lib//libc.a(lib_a-closer.o)
                                                  /home/leon/riotboard/arm-2012.09/bin/../arm-none-eabi/lib//libc.a(lib_a-stdio.o)
_ctype_                                           /home/leon/riotboard/arm-2012.09/bin/../arm-none-eabi/lib//libc.a(lib_a-ctype_.o)
_dtoa_r                                           /home/leon/riotboard/arm-2012.09/bin/../arm-none-eabi/lib//libc.a(lib_a-dtoa.o)
                                                  /home/leon/riotboard/arm-2012.09/bin/../arm-none-eabi/lib//libc.a(lib_a-vfprintf.o)
                                                  /home/leon/riotboard/arm-2012.09/bin/../arm-none-eabi/lib//libc.a(lib_a-svfprintf.o)
_execve                                           /home/leon/git/swp-report/iMX6_Platform_SDK/output/mx6dq/lib/libsdk.a(runtime_support.o)
_exit                                             /home/leon/git/swp-report/iMX6_Platform_SDK/output/mx6dq/lib/libsdk.a(runtime_support.o)
                                                  /home/leon/riotboard/arm-2012.09/bin/../arm-none-eabi/lib//libc.a(lib_a-abort.o)
_fclose_r                                         /home/leon/riotboard/arm-2012.09/bin/../arm-none-eabi/lib//libc.a(lib_a-fclose.o)
_fflush_r                                         /home/leon/riotboard/arm-2012.09/bin/../arm-none-eabi/lib//libc.a(lib_a-fflush.o)
                                                  /home/leon/riotboard/arm-2012.09/bin/../arm-none-eabi/lib//libc.a(lib_a-refill.o)
                                                  /home/leon/riotboard/arm-2012.09/bin/../arm-none-eabi/lib//libc.a(lib_a-fclose.o)
                                                  /home/leon/riotboard/arm-2012.09/bin/../arm-none-eabi/lib//libc.a(lib_a-wbuf.o)
                                                  /home/leon/riotboard/arm-2012.09/bin/../arm-none-eabi/lib//libc.a(lib_a-vfprintf.o)
                                                  /home/leon/riotboard/arm-2012.09/bin/../arm-none-eabi/lib//libc.a(lib_a-vfiprintf.o)
                                                  /home/leon/riotboard/arm-2012.09/bin/../arm-none-eabi/lib//libc.a(lib_a-fvwrite.o)
_fini                                             /home/leon/riotboard/arm-2012.09/bin/../lib/gcc/arm-none-eabi/4.7.2//crti.o
_fiprintf_r                                       /home/leon/riotboard/arm-2012.09/bin/../arm-none-eabi/lib//libc.a(lib_a-fiprintf.o)
_fork                                             /home/leon/git/swp-report/iMX6_Platform_SDK/output/mx6dq/lib/libsdk.a(runtime_support.o)
_fputc_r                                          /home/leon/riotboard/arm-2012.09/bin/../arm-none-eabi/lib//libc.a(lib_a-fputc.o)
_fputs_r                                          /home/leon/riotboard/arm-2012.09/bin/../arm-none-eabi/lib//libc.a(lib_a-fputs.o)
_fputwc_r                                         /home/leon/riotboard/arm-2012.09/bin/../arm-none-eabi/lib//libc.a(lib_a-fputwc.o)
                                                  /home/leon/riotboard/arm-2012.09/bin/../arm-none-eabi/lib//libc.a(lib_a-vfiprintf.o)
_free_r                                           /home/leon/riotboard/arm-2012.09/bin/../arm-none-eabi/lib//libc.a(lib_a-freer.o)
                                                  /home/leon/riotboard/arm-2012.09/bin/../arm-none-eabi/lib//libc.a(lib_a-svfiprintf.o)
                                                  /home/leon/riotboard/arm-2012.09/bin/../arm-none-eabi/lib//libc.a(lib_a-refill.o)
                                                  /home/leon/riotboard/arm-2012.09/bin/../arm-none-eabi/lib//libc.a(lib_a-reent.o)
                                                  /home/leon/riotboard/arm-2012.09/bin/../arm-none-eabi/lib//libc.a(lib_a-fclose.o)
                                                  /home/leon/riotboard/arm-2012.09/bin/../arm-none-eabi/lib//libc.a(lib_a-wsetup.o)
                                                  /home/leon/riotboard/arm-2012.09/bin/../arm-none-eabi/lib//libc.a(lib_a-reallocr.o)
                                                  /home/leon/riotboard/arm-2012.09/bin/../arm-none-eabi/lib//libc.a(lib_a-mallocr.o)
                                                  /home/leon/riotboard/arm-2012.09/bin/../arm-none-eabi/lib//libc.a(lib_a-malloc.o)
                                                  /home/leon/riotboard/arm-2012.09/bin/../arm-none-eabi/lib//libc.a(lib_a-fvwrite.o)
                                                  /home/leon/riotboard/arm-2012.09/bin/../arm-none-eabi/lib//libc.a(lib_a-fflush.o)
_fstat                                            /home/leon/git/swp-report/iMX6_Platform_SDK/output/mx6dq/lib/libsdk.a(runtime_support.o)
                                                  /home/leon/riotboard/arm-2012.09/bin/../arm-none-eabi/lib//libc.a(lib_a-fstatr.o)
_fstat_r                                          /home/leon/riotboard/arm-2012.09/bin/../arm-none-eabi/lib//libc.a(lib_a-fstatr.o)
                                                  /home/leon/riotboard/arm-2012.09/bin/../arm-none-eabi/lib//libc.a(lib_a-makebuf.o)
_fwalk                                            /home/leon/riotboard/arm-2012.09/bin/../arm-none-eabi/lib//libc.a(lib_a-fwalk.o)
                                                  /home/leon/riotboard/arm-2012.09/bin/../arm-none-eabi/lib//libc.a(lib_a-refill.o)
                                                  /home/leon/riotboard/arm-2012.09/bin/../arm-none-eabi/lib//libc.a(lib_a-findfp.o)
_fwalk_reent                                      /home/leon/riotboard/arm-2012.09/bin/../arm-none-eabi/lib//libc.a(lib_a-fwalk.o)
                                                  /home/leon/riotboard/arm-2012.09/bin/../arm-none-eabi/lib//libc.a(lib_a-fflush.o)
_fwrite_r                                         /home/leon/riotboard/arm-2012.09/bin/../arm-none-eabi/lib//libc.a(lib_a-fwrite.o)
_getpid                                           /home/leon/git/swp-report/iMX6_Platform_SDK/output/mx6dq/lib/libsdk.a(runtime_support.o)
                                                  /home/leon/riotboard/arm-2012.09/bin/../arm-none-eabi/lib//libc.a(lib_a-signalr.o)
_getpid_r                                         /home/leon/riotboard/arm-2012.09/bin/../arm-none-eabi/lib//libc.a(lib_a-signalr.o)
                                                  /home/leon/riotboard/arm-2012.09/bin/../arm-none-eabi/lib//libc.a(lib_a-signal.o)
_gettimeofday                                     /home/leon/git/swp-report/iMX6_Platform_SDK/output/mx6dq/lib/libsdk.a(runtime_support.o)
_global_impure_ptr                                /home/leon/riotboard/arm-2012.09/bin/../arm-none-eabi/lib//libc.a(lib_a-impure.o)
                                                  /home/leon/riotboard/arm-2012.09/bin/../arm-none-eabi/lib//libc.a(lib_a-refill.o)
                                                  /home/leon/riotboard/arm-2012.09/bin/../arm-none-eabi/lib//libc.a(lib_a-findfp.o)
                                                  /home/leon/riotboard/arm-2012.09/bin/../arm-none-eabi/lib//libc.a(lib_a-fflush.o)
_image_size                                       /home/leon/git/swp-report/iMX6_Platform_SDK/output/mx6dq/sdk_unit_test/smart_device_rev_c/obj/apps/common/ivt.o
_impure_ptr                                       /home/leon/riotboard/arm-2012.09/bin/../arm-none-eabi/lib//libc.a(lib_a-impure.o)
                                                  /home/leon/riotboard/arm-2012.09/bin/../arm-none-eabi/lib//libc.a(lib_a-syswrite.o)
                                                  /home/leon/riotboard/arm-2012.09/bin/../arm-none-eabi/lib//libc.a(lib_a-fwrite.o)
                                                  /home/leon/riotboard/arm-2012.09/bin/../arm-none-eabi/lib//libstdc++.a(vterminate.o)
                                                  /home/leon/git/swp-report/iMX6_Platform_SDK/output/mx6dq/lib/libsdk.a(usb_common.o)
                                                  /home/leon/riotboard/arm-2012.09/bin/../arm-none-eabi/lib//libc.a(lib_a-wcrtomb.o)
                                                  /home/leon/riotboard/arm-2012.09/bin/../arm-none-eabi/lib//libc.a(lib_a-signal.o)
                                                  /home/leon/riotboard/arm-2012.09/bin/../arm-none-eabi/lib//libc.a(lib_a-reent.o)
                                                  /home/leon/riotboard/arm-2012.09/bin/../arm-none-eabi/lib//libc.a(lib_a-locale.o)
                                                  /home/leon/riotboard/arm-2012.09/bin/../arm-none-eabi/lib//libc.a(lib_a-fputwc.o)
                                                  /home/leon/riotboard/arm-2012.09/bin/../arm-none-eabi/lib//libc.a(lib_a-fclose.o)
                                                  /home/leon/riotboard/arm-2012.09/bin/../arm-none-eabi/lib//libc.a(lib_a-wsetup.o)
                                                  /home/leon/riotboard/arm-2012.09/bin/../arm-none-eabi/lib//libc.a(lib_a-wbuf.o)
                                                  /home/leon/riotboard/arm-2012.09/bin/../arm-none-eabi/lib//libc.a(lib_a-vprintf.o)
                                                  /home/leon/riotboard/arm-2012.09/bin/../arm-none-eabi/lib//libc.a(lib_a-vfprintf.o)
                                                  /home/leon/riotboard/arm-2012.09/bin/../arm-none-eabi/lib//libc.a(lib_a-vfiprintf.o)
                                                  /home/leon/riotboard/arm-2012.09/bin/../arm-none-eabi/lib//libc.a(lib_a-sprintf.o)
                                                  /home/leon/riotboard/arm-2012.09/bin/../arm-none-eabi/lib//libc.a(lib_a-rget.o)
                                                  /home/leon/riotboard/arm-2012.09/bin/../arm-none-eabi/lib//libc.a(lib_a-realloc.o)
                                                  /home/leon/riotboard/arm-2012.09/bin/../arm-none-eabi/lib//libc.a(lib_a-putc.o)
                                                  /home/leon/riotboard/arm-2012.09/bin/../arm-none-eabi/lib//libc.a(lib_a-printf.o)
                                                  /home/leon/riotboard/arm-2012.09/bin/../arm-none-eabi/lib//libc.a(lib_a-malloc.o)
                                                  /home/leon/riotboard/arm-2012.09/bin/../arm-none-eabi/lib//libc.a(lib_a-fputs.o)
                                                  /home/leon/riotboard/arm-2012.09/bin/../arm-none-eabi/lib//libc.a(lib_a-fputc.o)
                                                  /home/leon/riotboard/arm-2012.09/bin/../arm-none-eabi/lib//libc.a(lib_a-fiprintf.o)
                                                  /home/leon/riotboard/arm-2012.09/bin/../arm-none-eabi/lib//libc.a(lib_a-findfp.o)
                                                  /home/leon/riotboard/arm-2012.09/bin/../arm-none-eabi/lib//libc.a(lib_a-fflush.o)
                                                  /home/leon/riotboard/arm-2012.09/bin/../arm-none-eabi/lib//libc.a(lib_a-assert.o)
                                                  /home/leon/git/swp-report/iMX6_Platform_SDK/output/mx6dq/sdk_unit_test/smart_device_rev_c/libsdk_unit_test.a(usb0_device_mouse_test.o)
                                                  /home/leon/git/swp-report/iMX6_Platform_SDK/output/mx6dq/sdk_unit_test/smart_device_rev_c/libsdk_unit_test.a(ips_rotate.o)
                                                  /home/leon/git/swp-report/iMX6_Platform_SDK/output/mx6dq/sdk_unit_test/smart_device_rev_c/libsdk_unit_test.a(ips_resize.o)
                                                  /home/leon/git/swp-report/iMX6_Platform_SDK/output/mx6dq/sdk_unit_test/smart_device_rev_c/libsdk_unit_test.a(ips_csc.o)
                                                  /home/leon/git/swp-report/iMX6_Platform_SDK/output/mx6dq/sdk_unit_test/smart_device_rev_c/libsdk_unit_test.a(ips_combiner.o)
                                                  /home/leon/git/swp-report/iMX6_Platform_SDK/output/mx6dq/sdk_unit_test/smart_device_rev_c/libsdk_unit_test.a(sata_test.o)
                                                  /home/leon/git/swp-report/iMX6_Platform_SDK/output/mx6dq/sdk_unit_test/smart_device_rev_c/libsdk_unit_test.a(accelerometer_test.o)
                                                  /home/leon/git/swp-report/iMX6_Platform_SDK/output/mx6dq/sdk_unit_test/smart_device_rev_c/libsdk_unit_test.a(spi_test.o)
                                                  /home/leon/git/swp-report/iMX6_Platform_SDK/output/mx6dq/sdk_unit_test/smart_device_rev_c/libsdk_unit_test.a(pcie_test_rc.o)
                                                  /home/leon/git/swp-report/iMX6_Platform_SDK/output/mx6dq/sdk_unit_test/smart_device_rev_c/libsdk_unit_test.a(keypad_test.o)
                                                  /home/leon/git/swp-report/iMX6_Platform_SDK/output/mx6dq/sdk_unit_test/smart_device_rev_c/libsdk_unit_test.a(sensor_capture.o)
                                                  /home/leon/git/swp-report/iMX6_Platform_SDK/output/mx6dq/sdk_unit_test/smart_device_rev_c/libsdk_unit_test.a(csi_test_mode.o)
                                                  /home/leon/git/swp-report/iMX6_Platform_SDK/output/mx6dq/sdk_unit_test/smart_device_rev_c/libsdk_unit_test.a(camera_test.o)
                                                  /home/leon/git/swp-report/iMX6_Platform_SDK/output/mx6dq/sdk_unit_test/smart_device_rev_c/libsdk_unit_test.a(ips_test.o)
                                                  /home/leon/git/swp-report/iMX6_Platform_SDK/output/mx6dq/sdk_unit_test/smart_device_rev_c/libsdk_unit_test.a(ips_display.o)
                                                  /home/leon/git/swp-report/iMX6_Platform_SDK/output/mx6dq/sdk_unit_test/smart_device_rev_c/libsdk_unit_test.a(watchdog_test.o)
                                                  /home/leon/git/swp-report/iMX6_Platform_SDK/output/mx6dq/sdk_unit_test/smart_device_rev_c/libsdk_unit_test.a(pwm_test.o)
                                                  /home/leon/git/swp-report/iMX6_Platform_SDK/output/mx6dq/sdk_unit_test/smart_device_rev_c/libsdk_unit_test.a(usdhc_test.o)
                                                  /home/leon/git/swp-report/iMX6_Platform_SDK/output/mx6dq/sdk_unit_test/smart_device_rev_c/libsdk_unit_test.a(gpt_test.o)
                                                  /home/leon/git/swp-report/iMX6_Platform_SDK/output/mx6dq/sdk_unit_test/smart_device_rev_c/libsdk_unit_test.a(epit_test.o)
                                                  /home/leon/git/swp-report/iMX6_Platform_SDK/output/mx6dq/sdk_unit_test/smart_device_rev_c/libsdk_unit_test.a(uart_test.o)
                                                  /home/leon/git/swp-report/iMX6_Platform_SDK/output/mx6dq/sdk_unit_test/smart_device_rev_c/libsdk_unit_test.a(sdma_test.o)
                                                  /home/leon/git/swp-report/iMX6_Platform_SDK/output/mx6dq/sdk_unit_test/smart_device_rev_c/libsdk_unit_test.a(tempmon_test.o)
                                                  /home/leon/git/swp-report/iMX6_Platform_SDK/output/mx6dq/sdk_unit_test/smart_device_rev_c/libsdk_unit_test.a(imx6_i2c_device.o)
                                                  /home/leon/git/swp-report/iMX6_Platform_SDK/output/mx6dq/sdk_unit_test/smart_device_rev_c/libsdk_unit_test.a(i2c_test.o)
                                                  /home/leon/git/swp-report/iMX6_Platform_SDK/output/mx6dq/sdk_unit_test/smart_device_rev_c/libsdk_unit_test.a(snvs_srtc_test.o)
                                                  /home/leon/git/swp-report/iMX6_Platform_SDK/output/mx6dq/sdk_unit_test/smart_device_rev_c/libsdk_unit_test.a(snvs_rtc_test.o)
                                                  /home/leon/git/swp-report/iMX6_Platform_SDK/output/mx6dq/sdk_unit_test/smart_device_rev_c/libsdk_unit_test.a(ocotp_test.o)
                                                  /home/leon/git/swp-report/iMX6_Platform_SDK/output/mx6dq/sdk_unit_test/smart_device_rev_c/libsdk_unit_test.a(audio_test.o)
                                                  /home/leon/git/swp-report/iMX6_Platform_SDK/output/mx6dq/lib/libsdk.a(system_util.o)
                                                  /home/leon/git/swp-report/iMX6_Platform_SDK/output/mx6dq/lib/libsdk.a(menu.o)
_init                                             /home/leon/riotboard/arm-2012.09/bin/../lib/gcc/arm-none-eabi/4.7.2//crti.o
                                                  /home/leon/riotboard/arm-2012.09/bin/../arm-none-eabi/lib//libc.a(lib_a-init.o)
_init_signal                                      /home/leon/riotboard/arm-2012.09/bin/../arm-none-eabi/lib//libc.a(lib_a-signal.o)
_init_signal_r                                    /home/leon/riotboard/arm-2012.09/bin/../arm-none-eabi/lib//libc.a(lib_a-signal.o)
_isatty                                           /home/leon/git/swp-report/iMX6_Platform_SDK/output/mx6dq/lib/libsdk.a(runtime_support.o)
                                                  /home/leon/riotboard/arm-2012.09/bin/../arm-none-eabi/lib//libc.a(lib_a-isattyr.o)
_isatty_r                                         /home/leon/riotboard/arm-2012.09/bin/../arm-none-eabi/lib//libc.a(lib_a-isattyr.o)
                                                  /home/leon/riotboard/arm-2012.09/bin/../arm-none-eabi/lib//libc.a(lib_a-makebuf.o)
_kill                                             /home/leon/git/swp-report/iMX6_Platform_SDK/output/mx6dq/lib/libsdk.a(runtime_support.o)
                                                  /home/leon/riotboard/arm-2012.09/bin/../arm-none-eabi/lib//libc.a(lib_a-signalr.o)
_kill_r                                           /home/leon/riotboard/arm-2012.09/bin/../arm-none-eabi/lib//libc.a(lib_a-signalr.o)
                                                  /home/leon/riotboard/arm-2012.09/bin/../arm-none-eabi/lib//libc.a(lib_a-signal.o)
_link                                             /home/leon/git/swp-report/iMX6_Platform_SDK/output/mx6dq/lib/libsdk.a(runtime_support.o)
_localeconv_r                                     /home/leon/riotboard/arm-2012.09/bin/../arm-none-eabi/lib//libc.a(lib_a-locale.o)
                                                  /home/leon/riotboard/arm-2012.09/bin/../arm-none-eabi/lib//libc.a(lib_a-vfprintf.o)
                                                  /home/leon/riotboard/arm-2012.09/bin/../arm-none-eabi/lib//libc.a(lib_a-svfprintf.o)
_lseek                                            /home/leon/git/swp-report/iMX6_Platform_SDK/output/mx6dq/lib/libsdk.a(runtime_support.o)
                                                  /home/leon/riotboard/arm-2012.09/bin/../arm-none-eabi/lib//libc.a(lib_a-lseekr.o)
_lseek_r                                          /home/leon/riotboard/arm-2012.09/bin/../arm-none-eabi/lib//libc.a(lib_a-lseekr.o)
                                                  /home/leon/riotboard/arm-2012.09/bin/../arm-none-eabi/lib//libc.a(lib_a-stdio.o)
_malloc_r                                         /home/leon/riotboard/arm-2012.09/bin/../arm-none-eabi/lib//libc.a(lib_a-mallocr.o)
                                                  /home/leon/riotboard/arm-2012.09/bin/../arm-none-eabi/lib//libc.a(lib_a-callocr.o)
                                                  /home/leon/riotboard/arm-2012.09/bin/../arm-none-eabi/lib//libc.a(lib_a-svfiprintf.o)
                                                  /home/leon/riotboard/arm-2012.09/bin/../arm-none-eabi/lib//libc.a(lib_a-signal.o)
                                                  /home/leon/riotboard/arm-2012.09/bin/../arm-none-eabi/lib//libc.a(lib_a-makebuf.o)
                                                  /home/leon/riotboard/arm-2012.09/bin/../arm-none-eabi/lib//libc.a(lib_a-svfprintf.o)
                                                  /home/leon/riotboard/arm-2012.09/bin/../arm-none-eabi/lib//libc.a(lib_a-reallocr.o)
                                                  /home/leon/riotboard/arm-2012.09/bin/../arm-none-eabi/lib//libc.a(lib_a-malloc.o)
                                                  /home/leon/riotboard/arm-2012.09/bin/../arm-none-eabi/lib//libc.a(lib_a-fvwrite.o)
                                                  /home/leon/riotboard/arm-2012.09/bin/../arm-none-eabi/lib//libc.a(lib_a-findfp.o)
_malloc_trim_r                                    /home/leon/riotboard/arm-2012.09/bin/../arm-none-eabi/lib//libc.a(lib_a-freer.o)
_mprec_log10                                      /home/leon/riotboard/arm-2012.09/bin/../arm-none-eabi/lib//libc.a(lib_a-mprec.o)
_open                                             /home/leon/git/swp-report/iMX6_Platform_SDK/output/mx6dq/lib/libsdk.a(runtime_support.o)
_printf_r                                         /home/leon/riotboard/arm-2012.09/bin/../arm-none-eabi/lib//libc.a(lib_a-printf.o)
_putc_r                                           /home/leon/riotboard/arm-2012.09/bin/../arm-none-eabi/lib//libc.a(lib_a-putc.o)
                                                  /home/leon/riotboard/arm-2012.09/bin/../arm-none-eabi/lib//libc.a(lib_a-fputc.o)
_raise_r                                          /home/leon/riotboard/arm-2012.09/bin/../arm-none-eabi/lib//libc.a(lib_a-signal.o)
_raw_puts                                         /home/leon/git/swp-report/iMX6_Platform_SDK/output/mx6dq/lib/libsdk.a(runtime_support.o)
_read                                             /home/leon/git/swp-report/iMX6_Platform_SDK/output/mx6dq/lib/libsdk.a(runtime_support.o)
                                                  /home/leon/riotboard/arm-2012.09/bin/../arm-none-eabi/lib//libc.a(lib_a-readr.o)
_read_r                                           /home/leon/riotboard/arm-2012.09/bin/../arm-none-eabi/lib//libc.a(lib_a-readr.o)
                                                  /home/leon/riotboard/arm-2012.09/bin/../arm-none-eabi/lib//libc.a(lib_a-stdio.o)
_realloc_r                                        /home/leon/riotboard/arm-2012.09/bin/../arm-none-eabi/lib//libc.a(lib_a-reallocr.o)
                                                  /home/leon/riotboard/arm-2012.09/bin/../arm-none-eabi/lib//libc.a(lib_a-svfiprintf.o)
                                                  /home/leon/riotboard/arm-2012.09/bin/../arm-none-eabi/lib//libc.a(lib_a-realloc.o)
                                                  /home/leon/riotboard/arm-2012.09/bin/../arm-none-eabi/lib//libc.a(lib_a-fvwrite.o)
_reclaim_reent                                    /home/leon/riotboard/arm-2012.09/bin/../arm-none-eabi/lib//libc.a(lib_a-reent.o)
_sbrk                                             /home/leon/git/swp-report/iMX6_Platform_SDK/output/mx6dq/lib/libsdk.a(runtime_support.o)
                                                  /home/leon/riotboard/arm-2012.09/bin/../arm-none-eabi/lib//libc.a(lib_a-sbrkr.o)
_sbrk_r                                           /home/leon/riotboard/arm-2012.09/bin/../arm-none-eabi/lib//libc.a(lib_a-sbrkr.o)
                                                  /home/leon/riotboard/arm-2012.09/bin/../arm-none-eabi/lib//libc.a(lib_a-mallocr.o)
                                                  /home/leon/riotboard/arm-2012.09/bin/../arm-none-eabi/lib//libc.a(lib_a-freer.o)
_setlocale_r                                      /home/leon/riotboard/arm-2012.09/bin/../arm-none-eabi/lib//libc.a(lib_a-locale.o)
_signal_r                                         /home/leon/riotboard/arm-2012.09/bin/../arm-none-eabi/lib//libc.a(lib_a-signal.o)
_sprintf_r                                        /home/leon/riotboard/arm-2012.09/bin/../arm-none-eabi/lib//libc.a(lib_a-sprintf.o)
_start                                            /home/leon/git/swp-report/iMX6_Platform_SDK/output/mx6dq/lib/libsdk.a(startup.o)
                                                  /home/leon/git/swp-report/iMX6_Platform_SDK/output/mx6dq/lib/libsdk.a(cpu_multicore.o)
                                                  /home/leon/git/swp-report/iMX6_Platform_SDK/output/mx6dq/lib/libsdk.a(vectors.o)
                                                  /home/leon/git/swp-report/iMX6_Platform_SDK/output/mx6dq/sdk_unit_test/smart_device_rev_c/obj/apps/common/ivt.o
_start_image_add                                  /home/leon/git/swp-report/iMX6_Platform_SDK/output/mx6dq/sdk_unit_test/smart_device_rev_c/obj/apps/common/ivt.o
_stat                                             /home/leon/git/swp-report/iMX6_Platform_SDK/output/mx6dq/lib/libsdk.a(runtime_support.o)
_svfiprintf_r                                     /home/leon/riotboard/arm-2012.09/bin/../arm-none-eabi/lib//libc.a(lib_a-svfiprintf.o)
_svfprintf_r                                      /home/leon/riotboard/arm-2012.09/bin/../arm-none-eabi/lib//libc.a(lib_a-svfprintf.o)
                                                  /home/leon/riotboard/arm-2012.09/bin/../arm-none-eabi/lib//libc.a(lib_a-sprintf.o)
_sys_exit                                         /home/leon/git/swp-report/iMX6_Platform_SDK/output/mx6dq/lib/libsdk.a(system_util.o)
                                                  /home/leon/git/swp-report/iMX6_Platform_SDK/output/mx6dq/lib/libsdk.a(runtime_support.o)
                                                  /home/leon/git/swp-report/iMX6_Platform_SDK/output/mx6dq/lib/libsdk.a(startup.o)
_times                                            /home/leon/git/swp-report/iMX6_Platform_SDK/output/mx6dq/lib/libsdk.a(runtime_support.o)
_unlink                                           /home/leon/git/swp-report/iMX6_Platform_SDK/output/mx6dq/lib/libsdk.a(runtime_support.o)
_vfiprintf_r                                      /home/leon/riotboard/arm-2012.09/bin/../arm-none-eabi/lib//libc.a(lib_a-vfiprintf.o)
                                                  /home/leon/riotboard/arm-2012.09/bin/../arm-none-eabi/lib//libc.a(lib_a-fiprintf.o)
_vfprintf_r                                       /home/leon/riotboard/arm-2012.09/bin/../arm-none-eabi/lib//libc.a(lib_a-vfprintf.o)
                                                  /home/leon/riotboard/arm-2012.09/bin/../arm-none-eabi/lib//libc.a(lib_a-vprintf.o)
                                                  /home/leon/riotboard/arm-2012.09/bin/../arm-none-eabi/lib//libc.a(lib_a-printf.o)
_vprintf_r                                        /home/leon/riotboard/arm-2012.09/bin/../arm-none-eabi/lib//libc.a(lib_a-vprintf.o)
_wait                                             /home/leon/git/swp-report/iMX6_Platform_SDK/output/mx6dq/lib/libsdk.a(runtime_support.o)
_wcrtomb_r                                        /home/leon/riotboard/arm-2012.09/bin/../arm-none-eabi/lib//libc.a(lib_a-wcrtomb.o)
                                                  /home/leon/riotboard/arm-2012.09/bin/../arm-none-eabi/lib//libc.a(lib_a-fputwc.o)
_wctomb_r                                         /home/leon/riotboard/arm-2012.09/bin/../arm-none-eabi/lib//libc.a(lib_a-wctomb_r.o)
_wrapup_reent                                     /home/leon/riotboard/arm-2012.09/bin/../arm-none-eabi/lib//libc.a(lib_a-reent.o)
_write                                            /home/leon/git/swp-report/iMX6_Platform_SDK/output/mx6dq/lib/libsdk.a(runtime_support.o)
                                                  /home/leon/riotboard/arm-2012.09/bin/../arm-none-eabi/lib//libc.a(lib_a-writer.o)
_write_r                                          /home/leon/riotboard/arm-2012.09/bin/../arm-none-eabi/lib//libc.a(lib_a-writer.o)
                                                  /home/leon/riotboard/arm-2012.09/bin/../arm-none-eabi/lib//libc.a(lib_a-syswrite.o)
                                                  /home/leon/riotboard/arm-2012.09/bin/../arm-none-eabi/lib//libc.a(lib_a-stdio.o)
abort                                             /home/leon/riotboard/arm-2012.09/bin/../arm-none-eabi/lib//libc.a(lib_a-abort.o)
                                                  /home/leon/riotboard/arm-2012.09/bin/../lib/gcc/arm-none-eabi/4.7.2//libgcc.a(pr-support.o)
                                                  /home/leon/riotboard/arm-2012.09/bin/../lib/gcc/arm-none-eabi/4.7.2//libgcc.a(unwind-arm.o)
                                                  /home/leon/riotboard/arm-2012.09/bin/../arm-none-eabi/lib//libstdc++.a(vterminate.o)
                                                  /home/leon/riotboard/arm-2012.09/bin/../arm-none-eabi/lib//libstdc++.a(eh_personality.o)
                                                  /home/leon/riotboard/arm-2012.09/bin/../arm-none-eabi/lib//libstdc++.a(eh_terminate.o)
                                                  /home/leon/git/swp-report/iMX6_Platform_SDK/output/mx6dq/lib/libsdk.a(runtime_support.o)
                                                  /home/leon/riotboard/arm-2012.09/bin/../arm-none-eabi/lib//libc.a(lib_a-assert.o)
accelerometer_test                                /home/leon/git/swp-report/iMX6_Platform_SDK/output/mx6dq/sdk_unit_test/smart_device_rev_c/libsdk_unit_test.a(accelerometer_test.o)
                                                  /home/leon/git/swp-report/iMX6_Platform_SDK/output/mx6dq/sdk_unit_test/smart_device_rev_c/obj/apps/sdk_unit_test/src/all_test.o
arm_branch_prediction_disable                     /home/leon/git/swp-report/iMX6_Platform_SDK/output/mx6dq/lib/libsdk.a(cortexA9.o)
arm_branch_prediction_enable                      /home/leon/git/swp-report/iMX6_Platform_SDK/output/mx6dq/lib/libsdk.a(cortexA9.o)
arm_branch_target_cache_invalidate                /home/leon/git/swp-report/iMX6_Platform_SDK/output/mx6dq/lib/libsdk.a(cortexA9.o)
arm_branch_target_cache_invalidate_is             /home/leon/git/swp-report/iMX6_Platform_SDK/output/mx6dq/lib/libsdk.a(cortexA9.o)
arm_dcache_disable                                /home/leon/git/swp-report/iMX6_Platform_SDK/output/mx6dq/lib/libsdk.a(armv7_cache.o)
                                                  /home/leon/git/swp-report/iMX6_Platform_SDK/output/mx6dq/sdk_unit_test/smart_device_rev_c/libsdk_unit_test.a(cpu_wp_test.o)
arm_dcache_enable                                 /home/leon/git/swp-report/iMX6_Platform_SDK/output/mx6dq/lib/libsdk.a(armv7_cache.o)
arm_dcache_flush                                  /home/leon/git/swp-report/iMX6_Platform_SDK/output/mx6dq/lib/libsdk.a(armv7_cache.o)
                                                  /home/leon/git/swp-report/iMX6_Platform_SDK/output/mx6dq/sdk_unit_test/smart_device_rev_c/libsdk_unit_test.a(cpu_wp_test.o)
arm_dcache_flush_line                             /home/leon/git/swp-report/iMX6_Platform_SDK/output/mx6dq/lib/libsdk.a(armv7_cache.o)
arm_dcache_flush_mlines                           /home/leon/git/swp-report/iMX6_Platform_SDK/output/mx6dq/lib/libsdk.a(armv7_cache.o)
                                                  /home/leon/git/swp-report/iMX6_Platform_SDK/output/mx6dq/lib/libsdk.a(usdhc.o)
arm_dcache_invalidate                             /home/leon/git/swp-report/iMX6_Platform_SDK/output/mx6dq/lib/libsdk.a(armv7_cache.o)
                                                  /home/leon/git/swp-report/iMX6_Platform_SDK/output/mx6dq/sdk_unit_test/smart_device_rev_c/libsdk_unit_test.a(cpu_wp_test.o)
arm_dcache_invalidate_line                        /home/leon/git/swp-report/iMX6_Platform_SDK/output/mx6dq/lib/libsdk.a(armv7_cache.o)
arm_dcache_invalidate_mlines                      /home/leon/git/swp-report/iMX6_Platform_SDK/output/mx6dq/lib/libsdk.a(armv7_cache.o)
                                                  /home/leon/git/swp-report/iMX6_Platform_SDK/output/mx6dq/lib/libsdk.a(usdhc.o)
arm_dcache_state_query                            /home/leon/git/swp-report/iMX6_Platform_SDK/output/mx6dq/lib/libsdk.a(armv7_cache.o)
                                                  /home/leon/git/swp-report/iMX6_Platform_SDK/output/mx6dq/lib/libsdk.a(usdhc.o)
                                                  /home/leon/git/swp-report/iMX6_Platform_SDK/output/mx6dq/sdk_unit_test/smart_device_rev_c/libsdk_unit_test.a(cpu_wp_test.o)
arm_icache_disable                                /home/leon/git/swp-report/iMX6_Platform_SDK/output/mx6dq/lib/libsdk.a(armv7_cache.o)
arm_icache_enable                                 /home/leon/git/swp-report/iMX6_Platform_SDK/output/mx6dq/lib/libsdk.a(armv7_cache.o)
arm_icache_invalidate                             /home/leon/git/swp-report/iMX6_Platform_SDK/output/mx6dq/lib/libsdk.a(armv7_cache.o)
arm_icache_invalidate_is                          /home/leon/git/swp-report/iMX6_Platform_SDK/output/mx6dq/lib/libsdk.a(armv7_cache.o)
arm_icache_invalidate_line                        /home/leon/git/swp-report/iMX6_Platform_SDK/output/mx6dq/lib/libsdk.a(armv7_cache.o)
arm_icache_invalidate_mlines                      /home/leon/git/swp-report/iMX6_Platform_SDK/output/mx6dq/lib/libsdk.a(armv7_cache.o)
arm_icache_state_query                            /home/leon/git/swp-report/iMX6_Platform_SDK/output/mx6dq/lib/libsdk.a(armv7_cache.o)
arm_iomux_config                                  /home/leon/git/swp-report/iMX6_Platform_SDK/output/mx6dq/lib/libboard_smart_device_rev_c.a(iomux_config.o)
arm_set_interrupt_state                           /home/leon/git/swp-report/iMX6_Platform_SDK/output/mx6dq/lib/libsdk.a(cortexA9.o)
                                                  /home/leon/git/swp-report/iMX6_Platform_SDK/output/mx6dq/sdk_unit_test/smart_device_rev_c/obj/apps/common/platform_init.o
arm_unified_tlb_invalidate                        /home/leon/git/swp-report/iMX6_Platform_SDK/output/mx6dq/lib/libsdk.a(cortexA9.o)
                                                  /home/leon/git/swp-report/iMX6_Platform_SDK/output/mx6dq/lib/libsdk.a(mmu.o)
arm_unified_tlb_invalidate_is                     /home/leon/git/swp-report/iMX6_Platform_SDK/output/mx6dq/lib/libsdk.a(cortexA9.o)
asrc_iomux_config                                 /home/leon/git/swp-report/iMX6_Platform_SDK/output/mx6dq/lib/libboard_smart_device_rev_c.a(iomux_config.o)
audio_ComputeCTS                                  /home/leon/git/swp-report/iMX6_Platform_SDK/output/mx6dq/lib/libsdk.a(hdmi_tx_audio.o)
audio_ComputeN                                    /home/leon/git/swp-report/iMX6_Platform_SDK/output/mx6dq/lib/libsdk.a(hdmi_tx_audio.o)
audio_Configure                                   /home/leon/git/swp-report/iMX6_Platform_SDK/output/mx6dq/lib/libsdk.a(hdmi_tx_audio.o)
                                                  /home/leon/git/swp-report/iMX6_Platform_SDK/output/mx6dq/sdk_unit_test/smart_device_rev_c/libsdk_unit_test.a(hdmi_test.o)
audio_Configure_DMA                               /home/leon/git/swp-report/iMX6_Platform_SDK/output/mx6dq/lib/libsdk.a(hdmi_tx_audio.o)
                                                  /home/leon/git/swp-report/iMX6_Platform_SDK/output/mx6dq/sdk_unit_test/smart_device_rev_c/libsdk_unit_test.a(hdmi_test.o)
audio_DMA_BurstMode                               /home/leon/git/swp-report/iMX6_Platform_SDK/output/mx6dq/lib/libsdk.a(hdmi_tx_audio.o)
audio_DMA_IncrType                                /home/leon/git/swp-report/iMX6_Platform_SDK/output/mx6dq/lib/libsdk.a(hdmi_tx_audio.o)
audio_DMA_InterruptMask                           /home/leon/git/swp-report/iMX6_Platform_SDK/output/mx6dq/lib/libsdk.a(hdmi_tx_audio.o)
audio_DMA_InterruptPolarity                       /home/leon/git/swp-report/iMX6_Platform_SDK/output/mx6dq/lib/libsdk.a(hdmi_tx_audio.o)
audio_DMA_LockEnable                              /home/leon/git/swp-report/iMX6_Platform_SDK/output/mx6dq/lib/libsdk.a(hdmi_tx_audio.o)
audio_DMA_ResetFIFO                               /home/leon/git/swp-report/iMX6_Platform_SDK/output/mx6dq/lib/libsdk.a(hdmi_tx_audio.o)
audio_DMA_SetCONF1                                /home/leon/git/swp-report/iMX6_Platform_SDK/output/mx6dq/lib/libsdk.a(hdmi_tx_audio.o)
audio_DMA_Start                                   /home/leon/git/swp-report/iMX6_Platform_SDK/output/mx6dq/lib/libsdk.a(hdmi_tx_audio.o)
audio_DMA_StartAddr                               /home/leon/git/swp-report/iMX6_Platform_SDK/output/mx6dq/lib/libsdk.a(hdmi_tx_audio.o)
audio_DMA_StopAddr                                /home/leon/git/swp-report/iMX6_Platform_SDK/output/mx6dq/lib/libsdk.a(hdmi_tx_audio.o)
audio_DMA_Threshold                               /home/leon/git/swp-report/iMX6_Platform_SDK/output/mx6dq/lib/libsdk.a(hdmi_tx_audio.o)
audio_PacketLayout                                /home/leon/git/swp-report/iMX6_Platform_SDK/output/mx6dq/lib/libsdk.a(hdmi_tx_audio.o)
audio_clk_CTS                                     /home/leon/git/swp-report/iMX6_Platform_SDK/output/mx6dq/lib/libsdk.a(hdmi_tx_audio.o)
audio_clk_N                                       /home/leon/git/swp-report/iMX6_Platform_SDK/output/mx6dq/lib/libsdk.a(hdmi_tx_audio.o)
audio_clock_config                                /home/leon/git/swp-report/iMX6_Platform_SDK/output/mx6dq/lib/libboard_smart_device_rev_c.a(board_audio.o)
audio_codec_power_on                              /home/leon/git/swp-report/iMX6_Platform_SDK/output/mx6dq/lib/libboard_smart_device_rev_c.a(board_audio.o)
                                                  /home/leon/git/swp-report/iMX6_Platform_SDK/output/mx6dq/lib/libsdk.a(smd_sensor.o)
audio_info_config                                 /home/leon/git/swp-report/iMX6_Platform_SDK/output/mx6dq/lib/libsdk.a(hdmi_tx_audio.o)
audio_test                                        /home/leon/git/swp-report/iMX6_Platform_SDK/output/mx6dq/sdk_unit_test/smart_device_rev_c/libsdk_unit_test.a(audio_test.o)
                                                  /home/leon/git/swp-report/iMX6_Platform_SDK/output/mx6dq/sdk_unit_test/smart_device_rev_c/obj/apps/sdk_unit_test/src/all_test.o
audmux_iomux_config                               /home/leon/git/swp-report/iMX6_Platform_SDK/output/mx6dq/lib/libboard_smart_device_rev_c.a(audmux_iomux_config.o)
                                                  /home/leon/git/swp-report/iMX6_Platform_SDK/output/mx6dq/lib/libboard_smart_device_rev_c.a(iomux_config.o)
bd                                                /home/leon/git/swp-report/iMX6_Platform_SDK/output/mx6dq/sdk_unit_test/smart_device_rev_c/obj/apps/common/ivt.o
board_description                                 /home/leon/git/swp-report/iMX6_Platform_SDK/output/mx6dq/lib/libsdk.a(board_id.o)
board_ioexpander_init                             /home/leon/git/swp-report/iMX6_Platform_SDK/output/mx6dq/lib/libboard_smart_device_rev_c.a(board_io_expanders.o)
                                                  /home/leon/git/swp-report/iMX6_Platform_SDK/output/mx6dq/sdk_unit_test/smart_device_rev_c/obj/apps/common/platform_init.o
board_ioexpander_iomux_config                     /home/leon/git/swp-report/iMX6_Platform_SDK/output/mx6dq/lib/libboard_smart_device_rev_c.a(board_io_expanders.o)
                                                  /home/leon/git/swp-report/iMX6_Platform_SDK/output/mx6dq/lib/libboard_smart_device_rev_c.a(board_sata.o)
board_name                                        /home/leon/git/swp-report/iMX6_Platform_SDK/output/mx6dq/lib/libsdk.a(board_id.o)
                                                  /home/leon/git/swp-report/iMX6_Platform_SDK/output/mx6dq/sdk_unit_test/smart_device_rev_c/obj/apps/common/print_version.o
board_revision                                    /home/leon/git/swp-report/iMX6_Platform_SDK/output/mx6dq/lib/libsdk.a(board_id.o)
                                                  /home/leon/git/swp-report/iMX6_Platform_SDK/output/mx6dq/sdk_unit_test/smart_device_rev_c/obj/apps/common/print_version.o
bzero                                             /home/leon/riotboard/arm-2012.09/bin/../arm-none-eabi/lib//libc.a(lib_a-bzero.o)
                                                  /home/leon/git/swp-report/iMX6_Platform_SDK/output/mx6dq/lib/libsdk.a(mmu.o)
camera_ipu1_iomux_config                          /home/leon/git/swp-report/iMX6_Platform_SDK/output/mx6dq/lib/libboard_smart_device_rev_c.a(board_camera.o)
camera_power_on                                   /home/leon/git/swp-report/iMX6_Platform_SDK/output/mx6dq/lib/libboard_smart_device_rev_c.a(board_camera.o)
                                                  /home/leon/git/swp-report/iMX6_Platform_SDK/output/mx6dq/lib/libsdk.a(smd_sensor.o)
camera_strobeflash_off                            /home/leon/git/swp-report/iMX6_Platform_SDK/output/mx6dq/lib/libsdk.a(smd_sensor.o)
camera_strobeflash_on                             /home/leon/git/swp-report/iMX6_Platform_SDK/output/mx6dq/lib/libsdk.a(smd_sensor.o)
camera_test                                       /home/leon/git/swp-report/iMX6_Platform_SDK/output/mx6dq/sdk_unit_test/smart_device_rev_c/libsdk_unit_test.a(camera_test.o)
                                                  /home/leon/git/swp-report/iMX6_Platform_SDK/output/mx6dq/sdk_unit_test/smart_device_rev_c/obj/apps/sdk_unit_test/src/all_test.o
card_cmd_config                                   /home/leon/git/swp-report/iMX6_Platform_SDK/output/mx6dq/lib/libsdk.a(usdhc.o)
                                                  /home/leon/git/swp-report/iMX6_Platform_SDK/output/mx6dq/lib/libsdk.a(usdhc_sd.o)
                                                  /home/leon/git/swp-report/iMX6_Platform_SDK/output/mx6dq/lib/libsdk.a(usdhc_mmc.o)
card_data_read                                    /home/leon/git/swp-report/iMX6_Platform_SDK/output/mx6dq/lib/libsdk.a(usdhc.o)
                                                  /home/leon/git/swp-report/iMX6_Platform_SDK/output/mx6dq/sdk_unit_test/smart_device_rev_c/libsdk_unit_test.a(usdhc_test.o)
card_data_write                                   /home/leon/git/swp-report/iMX6_Platform_SDK/output/mx6dq/lib/libsdk.a(usdhc.o)
                                                  /home/leon/git/swp-report/iMX6_Platform_SDK/output/mx6dq/sdk_unit_test/smart_device_rev_c/libsdk_unit_test.a(usdhc_test.o)
card_detect_test_en                               /home/leon/git/swp-report/iMX6_Platform_SDK/output/mx6dq/lib/libsdk.a(usdhc.o)
card_emmc_init                                    /home/leon/git/swp-report/iMX6_Platform_SDK/output/mx6dq/lib/libsdk.a(usdhc.o)
                                                  /home/leon/git/swp-report/iMX6_Platform_SDK/output/mx6dq/sdk_unit_test/smart_device_rev_c/libsdk_unit_test.a(usdhc_test.o)
card_enter_trans                                  /home/leon/git/swp-report/iMX6_Platform_SDK/output/mx6dq/lib/libsdk.a(usdhc.o)
                                                  /home/leon/git/swp-report/iMX6_Platform_SDK/output/mx6dq/lib/libsdk.a(usdhc_sd.o)
                                                  /home/leon/git/swp-report/iMX6_Platform_SDK/output/mx6dq/lib/libsdk.a(usdhc_mmc.o)
card_get_cid                                      /home/leon/git/swp-report/iMX6_Platform_SDK/output/mx6dq/lib/libsdk.a(usdhc.o)
                                                  /home/leon/git/swp-report/iMX6_Platform_SDK/output/mx6dq/lib/libsdk.a(usdhc_sd.o)
                                                  /home/leon/git/swp-report/iMX6_Platform_SDK/output/mx6dq/lib/libsdk.a(usdhc_mmc.o)
card_get_port                                     /home/leon/git/swp-report/iMX6_Platform_SDK/output/mx6dq/lib/libsdk.a(usdhc.o)
                                                  /home/leon/git/swp-report/iMX6_Platform_SDK/output/mx6dq/lib/libsdk.a(usdhc_sd.o)
                                                  /home/leon/git/swp-report/iMX6_Platform_SDK/output/mx6dq/lib/libsdk.a(usdhc_mmc.o)
                                                  /home/leon/git/swp-report/iMX6_Platform_SDK/output/mx6dq/lib/libsdk.a(usdhc_host.o)
card_init                                         /home/leon/git/swp-report/iMX6_Platform_SDK/output/mx6dq/lib/libsdk.a(usdhc.o)
                                                  /home/leon/git/swp-report/iMX6_Platform_SDK/output/mx6dq/sdk_unit_test/smart_device_rev_c/libsdk_unit_test.a(usdhc_test.o)
card_set_blklen                                   /home/leon/git/swp-report/iMX6_Platform_SDK/output/mx6dq/lib/libsdk.a(usdhc.o)
card_trans_status                                 /home/leon/git/swp-report/iMX6_Platform_SDK/output/mx6dq/lib/libsdk.a(usdhc.o)
                                                  /home/leon/git/swp-report/iMX6_Platform_SDK/output/mx6dq/lib/libsdk.a(usdhc_mmc.o)
card_wait_xfer_done                               /home/leon/git/swp-report/iMX6_Platform_SDK/output/mx6dq/lib/libsdk.a(usdhc.o)
card_xfer_result                                  /home/leon/git/swp-report/iMX6_Platform_SDK/output/mx6dq/lib/libsdk.a(usdhc.o)
                                                  /home/leon/git/swp-report/iMX6_Platform_SDK/output/mx6dq/sdk_unit_test/smart_device_rev_c/libsdk_unit_test.a(usdhc_test.o)
ccm_ccgr_config                                   /home/leon/git/swp-report/iMX6_Platform_SDK/output/mx6dq/lib/libsdk.a(ccm_pll.o)
ccm_enter_low_power                               /home/leon/git/swp-report/iMX6_Platform_SDK/output/mx6dq/lib/libsdk.a(ccm_pll.o)
ccm_init                                          /home/leon/git/swp-report/iMX6_Platform_SDK/output/mx6dq/lib/libsdk.a(ccm_pll.o)
                                                  /home/leon/git/swp-report/iMX6_Platform_SDK/output/mx6dq/sdk_unit_test/smart_device_rev_c/obj/apps/common/platform_init.o
ccm_iomux_config                                  /home/leon/git/swp-report/iMX6_Platform_SDK/output/mx6dq/lib/libboard_smart_device_rev_c.a(ccm_iomux_config.o)
                                                  /home/leon/git/swp-report/iMX6_Platform_SDK/output/mx6dq/lib/libboard_smart_device_rev_c.a(board_audio.o)
                                                  /home/leon/git/swp-report/iMX6_Platform_SDK/output/mx6dq/lib/libboard_smart_device_rev_c.a(iomux_config.o)
ccm_set_lpm_wakeup_source                         /home/leon/git/swp-report/iMX6_Platform_SDK/output/mx6dq/lib/libsdk.a(ccm_pll.o)
chip_name                                         /home/leon/git/swp-report/iMX6_Platform_SDK/output/mx6dq/lib/libsdk.a(board_id.o)
                                                  /home/leon/git/swp-report/iMX6_Platform_SDK/output/mx6dq/sdk_unit_test/smart_device_rev_c/obj/apps/common/print_version.o
chip_revision                                     /home/leon/git/swp-report/iMX6_Platform_SDK/output/mx6dq/lib/libsdk.a(board_id.o)
                                                  /home/leon/git/swp-report/iMX6_Platform_SDK/output/mx6dq/sdk_unit_test/smart_device_rev_c/obj/apps/common/print_version.o
cleanup_glue                                      /home/leon/riotboard/arm-2012.09/bin/../arm-none-eabi/lib//libc.a(lib_a-reent.o)
clock_gating_config                               /home/leon/git/swp-report/iMX6_Platform_SDK/output/mx6dq/lib/libsdk.a(ccm_pll.o)
                                                  /home/leon/git/swp-report/iMX6_Platform_SDK/output/mx6dq/lib/libboard_smart_device_rev_c.a(board_sata.o)
                                                  /home/leon/git/swp-report/iMX6_Platform_SDK/output/mx6dq/lib/libboard_smart_device_rev_c.a(board_audio.o)
                                                  /home/leon/git/swp-report/iMX6_Platform_SDK/output/mx6dq/lib/libsdk.a(gpt.o)
                                                  /home/leon/git/swp-report/iMX6_Platform_SDK/output/mx6dq/lib/libsdk.a(ecspi.o)
                                                  /home/leon/git/swp-report/iMX6_Platform_SDK/output/mx6dq/lib/libsdk.a(imx_i2c.o)
                                                  /home/leon/git/swp-report/iMX6_Platform_SDK/output/mx6dq/lib/libsdk.a(epit.o)
                                                  /home/leon/git/swp-report/iMX6_Platform_SDK/output/mx6dq/lib/libsdk.a(imx_uart.o)
cmdhdr                                            /home/leon/git/swp-report/iMX6_Platform_SDK/output/mx6dq/lib/libsdk.a(sata.o)
cmdtbl                                            /home/leon/git/swp-report/iMX6_Platform_SDK/output/mx6dq/lib/libsdk.a(sata.o)
common_abort_handler                              /home/leon/git/swp-report/iMX6_Platform_SDK/output/mx6dq/lib/libsdk.a(arm_abort.o)
compute_alarm                                     /home/leon/git/swp-report/iMX6_Platform_SDK/output/mx6dq/lib/libsdk.a(tempmon.o)
compute_temp                                      /home/leon/git/swp-report/iMX6_Platform_SDK/output/mx6dq/lib/libsdk.a(tempmon.o)
copysignf                                         /home/leon/riotboard/arm-2012.09/bin/../arm-none-eabi/lib//libm.a(lib_a-sf_copysign.o)
                                                  /home/leon/riotboard/arm-2012.09/bin/../arm-none-eabi/lib//libm.a(lib_a-sf_scalbn.o)
cosf                                              /home/leon/riotboard/arm-2012.09/bin/../arm-none-eabi/lib//libm.a(lib_a-sf_cos.o)
                                                  /home/leon/git/swp-report/iMX6_Platform_SDK/output/mx6dq/sdk_unit_test/smart_device_rev_c/libsdk_unit_test.a(usb0_device_mouse_test.o)
cpu_disable                                       /home/leon/git/swp-report/iMX6_Platform_SDK/output/mx6dq/lib/libsdk.a(cpu_multicore.o)
                                                  /home/leon/git/swp-report/iMX6_Platform_SDK/output/mx6dq/sdk_unit_test/smart_device_rev_c/libsdk_unit_test.a(multicore_test.o)
cpu_get_cores                                     /home/leon/git/swp-report/iMX6_Platform_SDK/output/mx6dq/lib/libsdk.a(cpu_get_cores.o)
                                                  /home/leon/git/swp-report/iMX6_Platform_SDK/output/mx6dq/lib/libsdk.a(cpu_multicore.o)
                                                  /home/leon/git/swp-report/iMX6_Platform_SDK/output/mx6dq/sdk_unit_test/smart_device_rev_c/libsdk_unit_test.a(multicore_test.o)
cpu_get_current                                   /home/leon/git/swp-report/iMX6_Platform_SDK/output/mx6dq/lib/libsdk.a(cortexA9.o)
                                                  /home/leon/git/swp-report/iMX6_Platform_SDK/output/mx6dq/lib/libsdk.a(spinlock_lock_unlock.o)
                                                  /home/leon/git/swp-report/iMX6_Platform_SDK/output/mx6dq/lib/libsdk.a(cpu_multicore.o)
                                                  /home/leon/git/swp-report/iMX6_Platform_SDK/output/mx6dq/sdk_unit_test/smart_device_rev_c/libsdk_unit_test.a(multicore_test.o)
cpu_start_secondary                               /home/leon/git/swp-report/iMX6_Platform_SDK/output/mx6dq/lib/libsdk.a(cpu_multicore.o)
                                                  /home/leon/git/swp-report/iMX6_Platform_SDK/output/mx6dq/sdk_unit_test/smart_device_rev_c/libsdk_unit_test.a(multicore_test.o)
cpu_workpoint_set                                 /home/leon/git/swp-report/iMX6_Platform_SDK/output/mx6dq/lib/libsdk.a(cpu_workpoint.o)
                                                  /home/leon/git/swp-report/iMX6_Platform_SDK/output/mx6dq/sdk_unit_test/smart_device_rev_c/libsdk_unit_test.a(cpu_wp_test.o)
cpu_wp_test                                       /home/leon/git/swp-report/iMX6_Platform_SDK/output/mx6dq/sdk_unit_test/smart_device_rev_c/libsdk_unit_test.a(cpu_wp_test.o)
                                                  /home/leon/git/swp-report/iMX6_Platform_SDK/output/mx6dq/sdk_unit_test/smart_device_rev_c/obj/apps/sdk_unit_test/src/all_test.o
csi_dma_band_mode                                 /home/leon/git/swp-report/iMX6_Platform_SDK/output/mx6dq/lib/libsdk.a(ipu_common.o)
                                                  /home/leon/git/swp-report/iMX6_Platform_SDK/output/mx6dq/sdk_unit_test/smart_device_rev_c/libsdk_unit_test.a(csi_test_mode.o)
                                                  /home/leon/git/swp-report/iMX6_Platform_SDK/output/mx6dq/sdk_unit_test/smart_device_rev_c/libsdk_unit_test.a(camera_test.o)
csi_port0_iomux_config                            /home/leon/git/swp-report/iMX6_Platform_SDK/output/mx6dq/lib/libboard_smart_device_rev_c.a(board_camera.o)
                                                  /home/leon/git/swp-report/iMX6_Platform_SDK/output/mx6dq/lib/libsdk.a(smd_sensor.o)
csi_test_mode                                     /home/leon/git/swp-report/iMX6_Platform_SDK/output/mx6dq/sdk_unit_test/smart_device_rev_c/libsdk_unit_test.a(csi_test_mode.o)
                                                  /home/leon/git/swp-report/iMX6_Platform_SDK/output/mx6dq/sdk_unit_test/smart_device_rev_c/libsdk_unit_test.a(camera_test.o)
csi_vdi_direct_path                               /home/leon/git/swp-report/iMX6_Platform_SDK/output/mx6dq/lib/libsdk.a(ipu_common.o)
                                                  /home/leon/git/swp-report/iMX6_Platform_SDK/output/mx6dq/lib/libsdk.a(ipu_idmac.o)
                                                  /home/leon/git/swp-report/iMX6_Platform_SDK/output/mx6dq/lib/libsdk.a(ipu_csi.o)
data_abort_handler                                /home/leon/git/swp-report/iMX6_Platform_SDK/output/mx6dq/lib/libsdk.a(arm_abort.o)
                                                  /home/leon/git/swp-report/iMX6_Platform_SDK/output/mx6dq/lib/libsdk.a(vectors.o)
dcic1_iomux_config                                /home/leon/git/swp-report/iMX6_Platform_SDK/output/mx6dq/lib/libboard_smart_device_rev_c.a(iomux_config.o)
dcic2_iomux_config                                /home/leon/git/swp-report/iMX6_Platform_SDK/output/mx6dq/lib/libboard_smart_device_rev_c.a(iomux_config.o)
default_interrupt_routine                         /home/leon/git/swp-report/iMX6_Platform_SDK/output/mx6dq/lib/libsdk.a(interrupt.o)
dev_spi_nor                                       /home/leon/git/swp-report/iMX6_Platform_SDK/output/mx6dq/sdk_unit_test/smart_device_rev_c/libsdk_unit_test.a(spi_test.o)
                                                  /home/leon/git/swp-report/iMX6_Platform_SDK/output/mx6dq/sdk_unit_test/smart_device_rev_c/libsdk_unit_test.a(spi_nor_numonyx.o)
disable_L1_cache                                  /home/leon/git/swp-report/iMX6_Platform_SDK/output/mx6dq/lib/libsdk.a(cortexA9.o)
disable_interrupt                                 /home/leon/git/swp-report/iMX6_Platform_SDK/output/mx6dq/lib/libsdk.a(interrupt.o)
                                                  /home/leon/git/swp-report/iMX6_Platform_SDK/output/mx6dq/lib/libsdk.a(usdhc.o)
                                                  /home/leon/git/swp-report/iMX6_Platform_SDK/output/mx6dq/lib/libsdk.a(gpt.o)
                                                  /home/leon/git/swp-report/iMX6_Platform_SDK/output/mx6dq/lib/libsdk.a(tempmon.o)
                                                  /home/leon/git/swp-report/iMX6_Platform_SDK/output/mx6dq/lib/libsdk.a(srtc.o)
                                                  /home/leon/git/swp-report/iMX6_Platform_SDK/output/mx6dq/lib/libsdk.a(rtc.o)
                                                  /home/leon/git/swp-report/iMX6_Platform_SDK/output/mx6dq/lib/libsdk.a(pwm.o)
                                                  /home/leon/git/swp-report/iMX6_Platform_SDK/output/mx6dq/lib/libsdk.a(keypad_port.o)
                                                  /home/leon/git/swp-report/iMX6_Platform_SDK/output/mx6dq/lib/libsdk.a(imx_i2c.o)
                                                  /home/leon/git/swp-report/iMX6_Platform_SDK/output/mx6dq/sdk_unit_test/smart_device_rev_c/libsdk_unit_test.a(hdmi_test.o)
                                                  /home/leon/git/swp-report/iMX6_Platform_SDK/output/mx6dq/lib/libsdk.a(epit.o)
                                                  /home/leon/git/swp-report/iMX6_Platform_SDK/output/mx6dq/lib/libsdk.a(imx_uart.o)
disable_para_panel                                /home/leon/git/swp-report/iMX6_Platform_SDK/output/mx6dq/lib/libboard_smart_device_rev_c.a(board_display.o)
disable_strict_align_check                        /home/leon/git/swp-report/iMX6_Platform_SDK/output/mx6dq/lib/libsdk.a(cortexA9.o)
                                                  /home/leon/git/swp-report/iMX6_Platform_SDK/output/mx6dq/sdk_unit_test/smart_device_rev_c/obj/apps/common/platform_init.o
disp_dev_list                                     /home/leon/git/swp-report/iMX6_Platform_SDK/output/mx6dq/lib/libsdk.a(ips_disp_panel.o)
dump_regs                                         /home/leon/git/swp-report/iMX6_Platform_SDK/output/mx6dq/lib/libsdk.a(abort_handler.o)
                                                  /home/leon/git/swp-report/iMX6_Platform_SDK/output/mx6dq/lib/libsdk.a(arm_abort.o)
ecspi1_iomux_config                               /home/leon/git/swp-report/iMX6_Platform_SDK/output/mx6dq/lib/libboard_smart_device_rev_c.a(ecspi1_iomux_config.o)
                                                  /home/leon/git/swp-report/iMX6_Platform_SDK/output/mx6dq/lib/libboard_smart_device_rev_c.a(ecspi_iomux_config.o)
                                                  /home/leon/git/swp-report/iMX6_Platform_SDK/output/mx6dq/lib/libboard_smart_device_rev_c.a(iomux_config.o)
ecspi2_iomux_config                               /home/leon/git/swp-report/iMX6_Platform_SDK/output/mx6dq/lib/libboard_smart_device_rev_c.a(iomux_config.o)
                                                  /home/leon/git/swp-report/iMX6_Platform_SDK/output/mx6dq/lib/libboard_smart_device_rev_c.a(ecspi_iomux_config.o)
ecspi3_iomux_config                               /home/leon/git/swp-report/iMX6_Platform_SDK/output/mx6dq/lib/libboard_smart_device_rev_c.a(iomux_config.o)
                                                  /home/leon/git/swp-report/iMX6_Platform_SDK/output/mx6dq/lib/libboard_smart_device_rev_c.a(ecspi_iomux_config.o)
ecspi4_iomux_config                               /home/leon/git/swp-report/iMX6_Platform_SDK/output/mx6dq/lib/libboard_smart_device_rev_c.a(iomux_config.o)
                                                  /home/leon/git/swp-report/iMX6_Platform_SDK/output/mx6dq/lib/libboard_smart_device_rev_c.a(ecspi_iomux_config.o)
ecspi5_iomux_config                               /home/leon/git/swp-report/iMX6_Platform_SDK/output/mx6dq/lib/libboard_smart_device_rev_c.a(iomux_config.o)
                                                  /home/leon/git/swp-report/iMX6_Platform_SDK/output/mx6dq/lib/libboard_smart_device_rev_c.a(ecspi_iomux_config.o)
ecspi_app_test                                    /home/leon/git/swp-report/iMX6_Platform_SDK/output/mx6dq/sdk_unit_test/smart_device_rev_c/libsdk_unit_test.a(spi_lpb.o)
ecspi_close                                       /home/leon/git/swp-report/iMX6_Platform_SDK/output/mx6dq/lib/libsdk.a(ecspi.o)
                                                  /home/leon/git/swp-report/iMX6_Platform_SDK/output/mx6dq/sdk_unit_test/smart_device_rev_c/libsdk_unit_test.a(spi_test.o)
ecspi_configure                                   /home/leon/git/swp-report/iMX6_Platform_SDK/output/mx6dq/lib/libsdk.a(ecspi.o)
                                                  /home/leon/git/swp-report/iMX6_Platform_SDK/output/mx6dq/sdk_unit_test/smart_device_rev_c/libsdk_unit_test.a(spi_test.o)
ecspi_iomux_config                                /home/leon/git/swp-report/iMX6_Platform_SDK/output/mx6dq/lib/libboard_smart_device_rev_c.a(ecspi_iomux_config.o)
                                                  /home/leon/git/swp-report/iMX6_Platform_SDK/output/mx6dq/lib/libsdk.a(ecspi.o)
ecspi_open                                        /home/leon/git/swp-report/iMX6_Platform_SDK/output/mx6dq/lib/libsdk.a(ecspi.o)
                                                  /home/leon/git/swp-report/iMX6_Platform_SDK/output/mx6dq/sdk_unit_test/smart_device_rev_c/libsdk_unit_test.a(spi_test.o)
ecspi_shp_test                                    /home/leon/git/swp-report/iMX6_Platform_SDK/output/mx6dq/sdk_unit_test/smart_device_rev_c/libsdk_unit_test.a(spi_lpb.o)
                                                  /home/leon/git/swp-report/iMX6_Platform_SDK/output/mx6dq/sdk_unit_test/smart_device_rev_c/libsdk_unit_test.a(sdma_test.o)
ecspi_xfer                                        /home/leon/git/swp-report/iMX6_Platform_SDK/output/mx6dq/lib/libsdk.a(ecspi.o)
                                                  /home/leon/git/swp-report/iMX6_Platform_SDK/output/mx6dq/sdk_unit_test/smart_device_rev_c/libsdk_unit_test.a(spi_nor_numonyx.o)
eim_iomux_config                                  /home/leon/git/swp-report/iMX6_Platform_SDK/output/mx6dq/lib/libboard_smart_device_rev_c.a(iomux_config.o)
emmc_init                                         /home/leon/git/swp-report/iMX6_Platform_SDK/output/mx6dq/lib/libsdk.a(usdhc_mmc.o)
                                                  /home/leon/git/swp-report/iMX6_Platform_SDK/output/mx6dq/lib/libsdk.a(usdhc.o)
emmc_print_cfg_info                               /home/leon/git/swp-report/iMX6_Platform_SDK/output/mx6dq/lib/libsdk.a(usdhc_mmc.o)
                                                  /home/leon/git/swp-report/iMX6_Platform_SDK/output/mx6dq/sdk_unit_test/smart_device_rev_c/libsdk_unit_test.a(usdhc_test.o)
emuerateDevice                                    /home/leon/git/swp-report/iMX6_Platform_SDK/output/mx6dq/sdk_unit_test/smart_device_rev_c/libsdk_unit_test.a(usb0_host_test.o)
enable_extrn_100mhz_clk                           /home/leon/git/swp-report/iMX6_Platform_SDK/output/mx6dq/lib/libboard_smart_device_rev_c.a(board_sata.o)
enable_interrupt                                  /home/leon/git/swp-report/iMX6_Platform_SDK/output/mx6dq/lib/libsdk.a(interrupt.o)
                                                  /home/leon/git/swp-report/iMX6_Platform_SDK/output/mx6dq/lib/libsdk.a(usdhc.o)
                                                  /home/leon/git/swp-report/iMX6_Platform_SDK/output/mx6dq/lib/libsdk.a(gpt.o)
                                                  /home/leon/git/swp-report/iMX6_Platform_SDK/output/mx6dq/lib/libsdk.a(tempmon.o)
                                                  /home/leon/git/swp-report/iMX6_Platform_SDK/output/mx6dq/lib/libsdk.a(sdma.o)
                                                  /home/leon/git/swp-report/iMX6_Platform_SDK/output/mx6dq/lib/libsdk.a(srtc.o)
                                                  /home/leon/git/swp-report/iMX6_Platform_SDK/output/mx6dq/lib/libsdk.a(rtc.o)
                                                  /home/leon/git/swp-report/iMX6_Platform_SDK/output/mx6dq/lib/libsdk.a(pwm.o)
                                                  /home/leon/git/swp-report/iMX6_Platform_SDK/output/mx6dq/lib/libsdk.a(keypad_port.o)
                                                  /home/leon/git/swp-report/iMX6_Platform_SDK/output/mx6dq/lib/libsdk.a(ipu_common.o)
                                                  /home/leon/git/swp-report/iMX6_Platform_SDK/output/mx6dq/lib/libsdk.a(imx_i2c.o)
                                                  /home/leon/git/swp-report/iMX6_Platform_SDK/output/mx6dq/sdk_unit_test/smart_device_rev_c/libsdk_unit_test.a(hdmi_test.o)
                                                  /home/leon/git/swp-report/iMX6_Platform_SDK/output/mx6dq/sdk_unit_test/smart_device_rev_c/libsdk_unit_test.a(gic_test.o)
                                                  /home/leon/git/swp-report/iMX6_Platform_SDK/output/mx6dq/lib/libsdk.a(epit.o)
                                                  /home/leon/git/swp-report/iMX6_Platform_SDK/output/mx6dq/lib/libsdk.a(imx_uart.o)
enable_neon_fpu                                   /home/leon/git/swp-report/iMX6_Platform_SDK/output/mx6dq/lib/libsdk.a(cortexA9.o)
                                                  /home/leon/git/swp-report/iMX6_Platform_SDK/output/mx6dq/sdk_unit_test/smart_device_rev_c/obj/apps/common/platform_init.o
endpointList                                      /home/leon/git/swp-report/iMX6_Platform_SDK/output/mx6dq/sdk_unit_test/smart_device_rev_c/libsdk_unit_test.a(usb0_device_mouse_test.o)
enet_iomux_config                                 /home/leon/git/swp-report/iMX6_Platform_SDK/output/mx6dq/lib/libboard_smart_device_rev_c.a(enet_iomux_config.o)
                                                  /home/leon/git/swp-report/iMX6_Platform_SDK/output/mx6dq/lib/libboard_smart_device_rev_c.a(board_network.o)
                                                  /home/leon/git/swp-report/iMX6_Platform_SDK/output/mx6dq/lib/libboard_smart_device_rev_c.a(iomux_config.o)
enet_phy_rework_ar8031                            /home/leon/git/swp-report/iMX6_Platform_SDK/output/mx6dq/lib/libsdk.a(enet_drv.o)
enet_phy_rework_ksz9021                           /home/leon/git/swp-report/iMX6_Platform_SDK/output/mx6dq/lib/libsdk.a(enet_drv.o)
enet_test                                         /home/leon/git/swp-report/iMX6_Platform_SDK/output/mx6dq/sdk_unit_test/smart_device_rev_c/libsdk_unit_test.a(enet_test.o)
                                                  /home/leon/git/swp-report/iMX6_Platform_SDK/output/mx6dq/sdk_unit_test/smart_device_rev_c/obj/apps/sdk_unit_test/src/all_test.o
environ                                           /home/leon/git/swp-report/iMX6_Platform_SDK/output/mx6dq/lib/libsdk.a(runtime_support.o)
ep1_resources                                     /home/leon/git/swp-report/iMX6_Platform_SDK/output/mx6dq/sdk_unit_test/smart_device_rev_c/libsdk_unit_test.a(pcie_test_rc.o)
epdc_clock_setting                                /home/leon/git/swp-report/iMX6_Platform_SDK/output/mx6dq/lib/libboard_smart_device_rev_c.a(board_display.o)
epdc_power_supply                                 /home/leon/git/swp-report/iMX6_Platform_SDK/output/mx6dq/lib/libboard_smart_device_rev_c.a(board_display.o)
epit1_iomux_config                                /home/leon/git/swp-report/iMX6_Platform_SDK/output/mx6dq/lib/libboard_smart_device_rev_c.a(iomux_config.o)
epit2_iomux_config                                /home/leon/git/swp-report/iMX6_Platform_SDK/output/mx6dq/lib/libboard_smart_device_rev_c.a(iomux_config.o)
epit_counter_disable                              /home/leon/git/swp-report/iMX6_Platform_SDK/output/mx6dq/lib/libsdk.a(epit.o)
                                                  /home/leon/git/swp-report/iMX6_Platform_SDK/output/mx6dq/sdk_unit_test/smart_device_rev_c/libsdk_unit_test.a(epit_test.o)
                                                  /home/leon/git/swp-report/iMX6_Platform_SDK/output/mx6dq/sdk_unit_test/smart_device_rev_c/libsdk_unit_test.a(cpu_wp_test.o)
                                                  /home/leon/git/swp-report/iMX6_Platform_SDK/output/mx6dq/lib/libsdk.a(timer.o)
epit_counter_enable                               /home/leon/git/swp-report/iMX6_Platform_SDK/output/mx6dq/lib/libsdk.a(epit.o)
                                                  /home/leon/git/swp-report/iMX6_Platform_SDK/output/mx6dq/sdk_unit_test/smart_device_rev_c/libsdk_unit_test.a(epit_test.o)
                                                  /home/leon/git/swp-report/iMX6_Platform_SDK/output/mx6dq/sdk_unit_test/smart_device_rev_c/libsdk_unit_test.a(cpu_wp_test.o)
                                                  /home/leon/git/swp-report/iMX6_Platform_SDK/output/mx6dq/lib/libsdk.a(timer.o)
epit_get_compare_event                            /home/leon/git/swp-report/iMX6_Platform_SDK/output/mx6dq/lib/libsdk.a(epit.o)
                                                  /home/leon/git/swp-report/iMX6_Platform_SDK/output/mx6dq/sdk_unit_test/smart_device_rev_c/libsdk_unit_test.a(epit_test.o)
                                                  /home/leon/git/swp-report/iMX6_Platform_SDK/output/mx6dq/lib/libsdk.a(timer.o)
epit_get_counter_value                            /home/leon/git/swp-report/iMX6_Platform_SDK/output/mx6dq/lib/libsdk.a(epit.o)
                                                  /home/leon/git/swp-report/iMX6_Platform_SDK/output/mx6dq/sdk_unit_test/smart_device_rev_c/libsdk_unit_test.a(cpu_wp_test.o)
epit_init                                         /home/leon/git/swp-report/iMX6_Platform_SDK/output/mx6dq/lib/libsdk.a(epit.o)
                                                  /home/leon/git/swp-report/iMX6_Platform_SDK/output/mx6dq/sdk_unit_test/smart_device_rev_c/libsdk_unit_test.a(epit_test.o)
                                                  /home/leon/git/swp-report/iMX6_Platform_SDK/output/mx6dq/sdk_unit_test/smart_device_rev_c/libsdk_unit_test.a(cpu_wp_test.o)
                                                  /home/leon/git/swp-report/iMX6_Platform_SDK/output/mx6dq/lib/libsdk.a(timer.o)
epit_reload_counter                               /home/leon/git/swp-report/iMX6_Platform_SDK/output/mx6dq/lib/libsdk.a(epit.o)
epit_set_compare_event                            /home/leon/git/swp-report/iMX6_Platform_SDK/output/mx6dq/lib/libsdk.a(epit.o)
epit_setup_interrupt                              /home/leon/git/swp-report/iMX6_Platform_SDK/output/mx6dq/lib/libsdk.a(epit.o)
                                                  /home/leon/git/swp-report/iMX6_Platform_SDK/output/mx6dq/sdk_unit_test/smart_device_rev_c/libsdk_unit_test.a(epit_test.o)
                                                  /home/leon/git/swp-report/iMX6_Platform_SDK/output/mx6dq/sdk_unit_test/smart_device_rev_c/libsdk_unit_test.a(cpu_wp_test.o)
epit_test                                         /home/leon/git/swp-report/iMX6_Platform_SDK/output/mx6dq/sdk_unit_test/smart_device_rev_c/libsdk_unit_test.a(epit_test.o)
                                                  /home/leon/git/swp-report/iMX6_Platform_SDK/output/mx6dq/sdk_unit_test/smart_device_rev_c/obj/apps/sdk_unit_test/src/all_test.o
errno                                             /home/leon/git/swp-report/iMX6_Platform_SDK/output/mx6dq/lib/libsdk.a(runtime_support.o)
                                                  /home/leon/riotboard/arm-2012.09/bin/../arm-none-eabi/lib//libc.a(lib_a-isattyr.o)
                                                  /home/leon/riotboard/arm-2012.09/bin/../arm-none-eabi/lib//libc.a(lib_a-fstatr.o)
                                                  /home/leon/riotboard/arm-2012.09/bin/../arm-none-eabi/lib//libc.a(lib_a-signalr.o)
                                                  /home/leon/riotboard/arm-2012.09/bin/../arm-none-eabi/lib//libc.a(lib_a-reent.o)
                                                  /home/leon/riotboard/arm-2012.09/bin/../arm-none-eabi/lib//libc.a(lib_a-readr.o)
                                                  /home/leon/riotboard/arm-2012.09/bin/../arm-none-eabi/lib//libc.a(lib_a-lseekr.o)
                                                  /home/leon/riotboard/arm-2012.09/bin/../arm-none-eabi/lib//libc.a(lib_a-closer.o)
                                                  /home/leon/riotboard/arm-2012.09/bin/../arm-none-eabi/lib//libc.a(lib_a-writer.o)
                                                  /home/leon/riotboard/arm-2012.09/bin/../arm-none-eabi/lib//libc.a(lib_a-sbrkr.o)
esai_clk_sel_gate_on                              /home/leon/git/swp-report/iMX6_Platform_SDK/output/mx6dq/lib/libboard_smart_device_rev_c.a(board_audio.o)
esai_codec_power_on                               /home/leon/git/swp-report/iMX6_Platform_SDK/output/mx6dq/lib/libboard_smart_device_rev_c.a(board_audio.o)
esai_iomux_config                                 /home/leon/git/swp-report/iMX6_Platform_SDK/output/mx6dq/lib/libboard_smart_device_rev_c.a(iomux_config.o)
exception_handler                                 /home/leon/git/swp-report/iMX6_Platform_SDK/output/mx6dq/lib/libsdk.a(vectors.o)
ext_hdmi_transmitter_power_on                     /home/leon/git/swp-report/iMX6_Platform_SDK/output/mx6dq/lib/libboard_smart_device_rev_c.a(board_hdmi.o)
                                                  /home/leon/git/swp-report/iMX6_Platform_SDK/output/mx6dq/lib/libsdk.a(ips_disp_panel.o)
fabsf                                             /home/leon/riotboard/arm-2012.09/bin/../arm-none-eabi/lib//libm.a(lib_a-sf_fabs.o)
                                                  /home/leon/riotboard/arm-2012.09/bin/../arm-none-eabi/lib//libm.a(lib_a-ef_rem_pio2.o)
                                                  /home/leon/git/swp-report/iMX6_Platform_SDK/output/mx6dq/sdk_unit_test/smart_device_rev_c/libsdk_unit_test.a(accelerometer_test.o)
fclose                                            /home/leon/riotboard/arm-2012.09/bin/../arm-none-eabi/lib//libc.a(lib_a-fclose.o)
                                                  /home/leon/riotboard/arm-2012.09/bin/../arm-none-eabi/lib//libc.a(lib_a-findfp.o)
fflush                                            /home/leon/riotboard/arm-2012.09/bin/../arm-none-eabi/lib//libc.a(lib_a-fflush.o)
                                                  /home/leon/riotboard/arm-2012.09/bin/../arm-none-eabi/lib//libc.a(lib_a-refill.o)
                                                  /home/leon/git/swp-report/iMX6_Platform_SDK/output/mx6dq/sdk_unit_test/smart_device_rev_c/libsdk_unit_test.a(accelerometer_test.o)
fillBuffer                                        /home/leon/git/swp-report/iMX6_Platform_SDK/output/mx6dq/sdk_unit_test/smart_device_rev_c/libsdk_unit_test.a(usb0_device_mouse_test.o)
fiprintf                                          /home/leon/riotboard/arm-2012.09/bin/../arm-none-eabi/lib//libc.a(lib_a-fiprintf.o)
                                                  /home/leon/riotboard/arm-2012.09/bin/../arm-none-eabi/lib//libc.a(lib_a-assert.o)
flexcan1_iomux_config                             /home/leon/git/swp-report/iMX6_Platform_SDK/output/mx6dq/lib/libboard_smart_device_rev_c.a(flexcan1_iomux_config.o)
                                                  /home/leon/git/swp-report/iMX6_Platform_SDK/output/mx6dq/lib/libboard_smart_device_rev_c.a(iomux_config.o)
flexcan2_iomux_config                             /home/leon/git/swp-report/iMX6_Platform_SDK/output/mx6dq/lib/libboard_smart_device_rev_c.a(iomux_config.o)
floorf                                            /home/leon/riotboard/arm-2012.09/bin/../arm-none-eabi/lib//libm.a(lib_a-sf_floor.o)
                                                  /home/leon/riotboard/arm-2012.09/bin/../arm-none-eabi/lib//libm.a(lib_a-kf_rem_pio2.o)
fputc                                             /home/leon/riotboard/arm-2012.09/bin/../arm-none-eabi/lib//libc.a(lib_a-fputc.o)
                                                  /home/leon/riotboard/arm-2012.09/bin/../arm-none-eabi/lib//libstdc++.a(vterminate.o)
                                                  /home/leon/git/swp-report/iMX6_Platform_SDK/output/mx6dq/lib/libsdk.a(system_util.o)
                                                  /home/leon/git/swp-report/iMX6_Platform_SDK/output/mx6dq/lib/libsdk.a(menu.o)
fputs                                             /home/leon/riotboard/arm-2012.09/bin/../arm-none-eabi/lib//libc.a(lib_a-fputs.o)
                                                  /home/leon/riotboard/arm-2012.09/bin/../arm-none-eabi/lib//libstdc++.a(vterminate.o)
                                                  /home/leon/git/swp-report/iMX6_Platform_SDK/output/mx6dq/sdk_unit_test/smart_device_rev_c/libsdk_unit_test.a(accelerometer_test.o)
fputwc                                            /home/leon/riotboard/arm-2012.09/bin/../arm-none-eabi/lib//libc.a(lib_a-fputwc.o)
frame_list                                        /home/leon/git/swp-report/iMX6_Platform_SDK/output/mx6dq/sdk_unit_test/smart_device_rev_c/libsdk_unit_test.a(usb0_host_test.o)
free                                              /home/leon/riotboard/arm-2012.09/bin/../arm-none-eabi/lib//libc.a(lib_a-malloc.o)
                                                  /home/leon/riotboard/arm-2012.09/bin/../arm-none-eabi/lib//libstdc++.a(del_op.o)
                                                  /home/leon/riotboard/arm-2012.09/bin/../arm-none-eabi/lib//libstdc++.a(cp-demangle.o)
                                                  /home/leon/riotboard/arm-2012.09/bin/../arm-none-eabi/lib//libstdc++.a(vterminate.o)
                                                  /home/leon/riotboard/arm-2012.09/bin/../arm-none-eabi/lib//libstdc++.a(eh_alloc.o)
                                                  /home/leon/git/swp-report/iMX6_Platform_SDK/output/mx6dq/lib/libsdk.a(usbh_drv.o)
                                                  /home/leon/git/swp-report/iMX6_Platform_SDK/output/mx6dq/lib/libsdk.a(usbd_drv.o)
                                                  /home/leon/git/swp-report/iMX6_Platform_SDK/output/mx6dq/sdk_unit_test/smart_device_rev_c/libsdk_unit_test.a(usb0_host_test.o)
                                                  /home/leon/git/swp-report/iMX6_Platform_SDK/output/mx6dq/sdk_unit_test/smart_device_rev_c/libsdk_unit_test.a(audio_test.o)
free_memory_end                                   /home/leon/git/swp-report/iMX6_Platform_SDK/output/mx6dq/lib/libsdk.a(runtime_support.o)
free_memory_start                                 /home/leon/git/swp-report/iMX6_Platform_SDK/output/mx6dq/lib/libsdk.a(runtime_support.o)
fwrite                                            /home/leon/riotboard/arm-2012.09/bin/../arm-none-eabi/lib//libc.a(lib_a-fwrite.o)
                                                  /home/leon/riotboard/arm-2012.09/bin/../arm-none-eabi/lib//libstdc++.a(vterminate.o)
gAudio_sample                                     /home/leon/git/swp-report/iMX6_Platform_SDK/output/mx6dq/sdk_unit_test/smart_device_rev_c/libsdk_unit_test.a(init_dma_data.o)
gImage_foretext                                   /home/leon/git/swp-report/iMX6_Platform_SDK/output/mx6dq/sdk_unit_test/smart_device_rev_c/libsdk_unit_test.a(ipu_image.o)
g_TextAttributeBlink                              /home/leon/git/swp-report/iMX6_Platform_SDK/output/mx6dq/lib/libsdk.a(text_color.o)
g_TextAttributeBold                               /home/leon/git/swp-report/iMX6_Platform_SDK/output/mx6dq/lib/libsdk.a(text_color.o)
                                                  /home/leon/git/swp-report/iMX6_Platform_SDK/output/mx6dq/lib/libsdk.a(system_util.o)
                                                  /home/leon/git/swp-report/iMX6_Platform_SDK/output/mx6dq/lib/libsdk.a(menu.o)
g_TextAttributeDefault                            /home/leon/git/swp-report/iMX6_Platform_SDK/output/mx6dq/lib/libsdk.a(text_color.o)
                                                  /home/leon/git/swp-report/iMX6_Platform_SDK/output/mx6dq/lib/libsdk.a(menu.o)
g_TextAttributeDim                                /home/leon/git/swp-report/iMX6_Platform_SDK/output/mx6dq/lib/libsdk.a(text_color.o)
g_TextAttributeHidden                             /home/leon/git/swp-report/iMX6_Platform_SDK/output/mx6dq/lib/libsdk.a(text_color.o)
g_TextAttributeReverse                            /home/leon/git/swp-report/iMX6_Platform_SDK/output/mx6dq/lib/libsdk.a(text_color.o)
g_TextAttributeUnderline                          /home/leon/git/swp-report/iMX6_Platform_SDK/output/mx6dq/lib/libsdk.a(text_color.o)
g_TextColorBlack                                  /home/leon/git/swp-report/iMX6_Platform_SDK/output/mx6dq/lib/libsdk.a(text_color.o)
g_TextColorBlue                                   /home/leon/git/swp-report/iMX6_Platform_SDK/output/mx6dq/lib/libsdk.a(text_color.o)
                                                  /home/leon/git/swp-report/iMX6_Platform_SDK/output/mx6dq/lib/libsdk.a(menu.o)
g_TextColorCyan                                   /home/leon/git/swp-report/iMX6_Platform_SDK/output/mx6dq/lib/libsdk.a(text_color.o)
g_TextColorGray                                   /home/leon/git/swp-report/iMX6_Platform_SDK/output/mx6dq/lib/libsdk.a(text_color.o)
g_TextColorGreen                                  /home/leon/git/swp-report/iMX6_Platform_SDK/output/mx6dq/lib/libsdk.a(text_color.o)
g_TextColorLightBlue                              /home/leon/git/swp-report/iMX6_Platform_SDK/output/mx6dq/lib/libsdk.a(text_color.o)
g_TextColorMagenta                                /home/leon/git/swp-report/iMX6_Platform_SDK/output/mx6dq/lib/libsdk.a(text_color.o)
                                                  /home/leon/git/swp-report/iMX6_Platform_SDK/output/mx6dq/lib/libsdk.a(menu.o)
g_TextColorOrange                                 /home/leon/git/swp-report/iMX6_Platform_SDK/output/mx6dq/lib/libsdk.a(text_color.o)
g_TextColorPurple                                 /home/leon/git/swp-report/iMX6_Platform_SDK/output/mx6dq/lib/libsdk.a(text_color.o)
g_TextColorRed                                    /home/leon/git/swp-report/iMX6_Platform_SDK/output/mx6dq/lib/libsdk.a(text_color.o)
                                                  /home/leon/git/swp-report/iMX6_Platform_SDK/output/mx6dq/lib/libsdk.a(system_util.o)
                                                  /home/leon/git/swp-report/iMX6_Platform_SDK/output/mx6dq/lib/libsdk.a(menu.o)
g_TextColorWhite                                  /home/leon/git/swp-report/iMX6_Platform_SDK/output/mx6dq/lib/libsdk.a(text_color.o)
g_TextColorYellow                                 /home/leon/git/swp-report/iMX6_Platform_SDK/output/mx6dq/lib/libsdk.a(text_color.o)
                                                  /home/leon/git/swp-report/iMX6_Platform_SDK/output/mx6dq/lib/libsdk.a(menu.o)
g_adv7180_i2c_device                              /home/leon/git/swp-report/iMX6_Platform_SDK/output/mx6dq/lib/libboard_smart_device_rev_c.a(board_i2c.o)
g_at24cx_i2c_device                               /home/leon/git/swp-report/iMX6_Platform_SDK/output/mx6dq/lib/libboard_smart_device_rev_c.a(board_i2c.o)
                                                  /home/leon/git/swp-report/iMX6_Platform_SDK/output/mx6dq/sdk_unit_test/smart_device_rev_c/libsdk_unit_test.a(at24cxx.o)
g_camera_i2c_port                                 /home/leon/git/swp-report/iMX6_Platform_SDK/output/mx6dq/lib/libboard_smart_device_rev_c.a(board_camera.o)
                                                  /home/leon/git/swp-report/iMX6_Platform_SDK/output/mx6dq/lib/libsdk.a(smd_sensor.o)
g_camera_modes                                    /home/leon/git/swp-report/iMX6_Platform_SDK/output/mx6dq/lib/libsdk.a(camera_profile.o)
g_camera_profiles                                 /home/leon/git/swp-report/iMX6_Platform_SDK/output/mx6dq/lib/libsdk.a(camera_profile.o)
                                                  /home/leon/git/swp-report/iMX6_Platform_SDK/output/mx6dq/lib/libsdk.a(smd_sensor.o)
g_camera_test_name                                /home/leon/git/swp-report/iMX6_Platform_SDK/output/mx6dq/sdk_unit_test/smart_device_rev_c/libsdk_unit_test.a(camera_test.o)
g_cs42888_i2c_device                              /home/leon/git/swp-report/iMX6_Platform_SDK/output/mx6dq/lib/libboard_smart_device_rev_c.a(board_i2c.o)
g_debug_uart_port                                 /home/leon/git/swp-report/iMX6_Platform_SDK/output/mx6dq/lib/libboard_smart_device_rev_c.a(hardware_modules.o)
                                                  /home/leon/git/swp-report/iMX6_Platform_SDK/output/mx6dq/lib/libsdk.a(runtime_support.o)
                                                  /home/leon/git/swp-report/iMX6_Platform_SDK/output/mx6dq/sdk_unit_test/smart_device_rev_c/libsdk_unit_test.a(csi_test_mode.o)
                                                  /home/leon/git/swp-report/iMX6_Platform_SDK/output/mx6dq/lib/libsdk.a(system_util.o)
                                                  /home/leon/git/swp-report/iMX6_Platform_SDK/output/mx6dq/sdk_unit_test/smart_device_rev_c/obj/apps/common/print_clock_info.o
                                                  /home/leon/git/swp-report/iMX6_Platform_SDK/output/mx6dq/sdk_unit_test/smart_device_rev_c/obj/apps/common/platform_init.o
g_interrupt_handlers                              /home/leon/git/swp-report/iMX6_Platform_SDK/output/mx6dq/lib/libsdk.a(interrupt.o)
g_microsecondTimerMultiple                        /home/leon/git/swp-report/iMX6_Platform_SDK/output/mx6dq/lib/libsdk.a(timer.o)
g_mma8451_i2c_device                              /home/leon/git/swp-report/iMX6_Platform_SDK/output/mx6dq/lib/libboard_smart_device_rev_c.a(board_i2c.o)
                                                  /home/leon/git/swp-report/iMX6_Platform_SDK/output/mx6dq/sdk_unit_test/smart_device_rev_c/libsdk_unit_test.a(accelerometer_test.o)
g_mt9p111_af_firmware                             /home/leon/git/swp-report/iMX6_Platform_SDK/output/mx6dq/lib/libsdk.a(camera_profile.o)
g_mt9p111_af_ready                                /home/leon/git/swp-report/iMX6_Platform_SDK/output/mx6dq/lib/libsdk.a(camera_profile.o)
g_mt9p111_af_trigger                              /home/leon/git/swp-report/iMX6_Platform_SDK/output/mx6dq/lib/libsdk.a(camera_profile.o)
g_mt9p111_mode_vga_640_480_30fps                  /home/leon/git/swp-report/iMX6_Platform_SDK/output/mx6dq/lib/libsdk.a(camera_profile.o)
g_mt9p111_sensor_detection                        /home/leon/git/swp-report/iMX6_Platform_SDK/output/mx6dq/lib/libsdk.a(camera_profile.o)
g_os81050_i2c_device                              /home/leon/git/swp-report/iMX6_Platform_SDK/output/mx6dq/lib/libboard_smart_device_rev_c.a(board_i2c.o)
g_ov3640_mode_vga_640_480_30fps                   /home/leon/git/swp-report/iMX6_Platform_SDK/output/mx6dq/lib/libsdk.a(camera_profile.o)
g_ov3640_sensor_detection                         /home/leon/git/swp-report/iMX6_Platform_SDK/output/mx6dq/lib/libsdk.a(camera_profile.o)
g_ov5640_mode_vga_640_480_30fps                   /home/leon/git/swp-report/iMX6_Platform_SDK/output/mx6dq/lib/libsdk.a(camera_profile.o)
g_ov5640_sensor_detection                         /home/leon/git/swp-report/iMX6_Platform_SDK/output/mx6dq/lib/libsdk.a(camera_profile.o)
g_ov5642_af_firmware                              /home/leon/git/swp-report/iMX6_Platform_SDK/output/mx6dq/lib/libsdk.a(camera_profile.o)
g_ov5642_af_ready                                 /home/leon/git/swp-report/iMX6_Platform_SDK/output/mx6dq/lib/libsdk.a(camera_profile.o)
g_ov5642_af_trigger                               /home/leon/git/swp-report/iMX6_Platform_SDK/output/mx6dq/lib/libsdk.a(camera_profile.o)
g_ov5642_mode_vga_640_480_30fps                   /home/leon/git/swp-report/iMX6_Platform_SDK/output/mx6dq/lib/libsdk.a(camera_profile.o)
g_ov5642_sensor_detection                         /home/leon/git/swp-report/iMX6_Platform_SDK/output/mx6dq/lib/libsdk.a(camera_profile.o)
g_p1003_tsc_i2c_device                            /home/leon/git/swp-report/iMX6_Platform_SDK/output/mx6dq/lib/libboard_smart_device_rev_c.a(board_i2c.o)
g_pmic_da9053_i2c_device                          /home/leon/git/swp-report/iMX6_Platform_SDK/output/mx6dq/lib/libboard_smart_device_rev_c.a(board_i2c.o)
g_pmic_ltc3589_i2c_device                         /home/leon/git/swp-report/iMX6_Platform_SDK/output/mx6dq/lib/libboard_smart_device_rev_c.a(board_i2c.o)
g_pmic_max17135_i2c_device                        /home/leon/git/swp-report/iMX6_Platform_SDK/output/mx6dq/lib/libboard_smart_device_rev_c.a(board_i2c.o)
g_pmic_pf0100_i2c_device                          /home/leon/git/swp-report/iMX6_Platform_SDK/output/mx6dq/lib/libboard_smart_device_rev_c.a(board_i2c.o)
g_pwm_test_end                                    /home/leon/git/swp-report/iMX6_Platform_SDK/output/mx6dq/sdk_unit_test/smart_device_rev_c/libsdk_unit_test.a(pwm_output.o)
                                                  /home/leon/git/swp-report/iMX6_Platform_SDK/output/mx6dq/lib/libsdk.a(pwm.o)
g_sata_test_name                                  /home/leon/git/swp-report/iMX6_Platform_SDK/output/mx6dq/sdk_unit_test/smart_device_rev_c/libsdk_unit_test.a(sata_test.o)
g_sgtl5000_i2c_device                             /home/leon/git/swp-report/iMX6_Platform_SDK/output/mx6dq/lib/libboard_smart_device_rev_c.a(board_i2c.o)
g_si476x_i2c_device                               /home/leon/git/swp-report/iMX6_Platform_SDK/output/mx6dq/lib/libboard_smart_device_rev_c.a(board_i2c.o)
g_system_timer_port                               /home/leon/git/swp-report/iMX6_Platform_SDK/output/mx6dq/lib/libboard_smart_device_rev_c.a(hardware_modules.o)
                                                  /home/leon/git/swp-report/iMX6_Platform_SDK/output/mx6dq/lib/libsdk.a(timer.o)
g_uart_test_name                                  /home/leon/git/swp-report/iMX6_Platform_SDK/output/mx6dq/sdk_unit_test/smart_device_rev_c/libsdk_unit_test.a(uart_test.o)
g_vectNum                                         /home/leon/git/swp-report/iMX6_Platform_SDK/output/mx6dq/lib/libsdk.a(interrupt.o)
g_wm8958_i2c_device                               /home/leon/git/swp-report/iMX6_Platform_SDK/output/mx6dq/lib/libboard_smart_device_rev_c.a(board_i2c.o)
g_wm8962_i2c_device                               /home/leon/git/swp-report/iMX6_Platform_SDK/output/mx6dq/lib/libboard_smart_device_rev_c.a(board_i2c.o)
get_arm_private_peripheral_base                   /home/leon/git/swp-report/iMX6_Platform_SDK/output/mx6dq/lib/libsdk.a(cortexA9.o)
                                                  /home/leon/git/swp-report/iMX6_Platform_SDK/output/mx6dq/lib/libsdk.a(gic.o)
get_board_id                                      /home/leon/git/swp-report/iMX6_Platform_SDK/output/mx6dq/lib/libsdk.a(board_id.o)
                                                  /home/leon/git/swp-report/iMX6_Platform_SDK/output/mx6dq/sdk_unit_test/smart_device_rev_c/obj/apps/common/print_version.o
get_color_supported                               /home/leon/git/swp-report/iMX6_Platform_SDK/output/mx6dq/lib/libsdk.a(text_color.o)
get_input_hex                                     /home/leon/git/swp-report/iMX6_Platform_SDK/output/mx6dq/lib/libsdk.a(system_util.o)
                                                  /home/leon/git/swp-report/iMX6_Platform_SDK/output/mx6dq/sdk_unit_test/smart_device_rev_c/libsdk_unit_test.a(ocotp_test.o)
get_main_clock                                    /home/leon/git/swp-report/iMX6_Platform_SDK/output/mx6dq/lib/libsdk.a(ccm_pll.o)
                                                  /home/leon/git/swp-report/iMX6_Platform_SDK/output/mx6dq/lib/libsdk.a(pwm.o)
                                                  /home/leon/git/swp-report/iMX6_Platform_SDK/output/mx6dq/lib/libsdk.a(imx_i2c.o)
                                                  /home/leon/git/swp-report/iMX6_Platform_SDK/output/mx6dq/lib/libsdk.a(enet_drv.o)
                                                  /home/leon/git/swp-report/iMX6_Platform_SDK/output/mx6dq/sdk_unit_test/smart_device_rev_c/libsdk_unit_test.a(mem_2_mem.o)
                                                  /home/leon/git/swp-report/iMX6_Platform_SDK/output/mx6dq/sdk_unit_test/smart_device_rev_c/libsdk_unit_test.a(gpt_test.o)
                                                  /home/leon/git/swp-report/iMX6_Platform_SDK/output/mx6dq/sdk_unit_test/smart_device_rev_c/libsdk_unit_test.a(epit_test.o)
                                                  /home/leon/git/swp-report/iMX6_Platform_SDK/output/mx6dq/sdk_unit_test/smart_device_rev_c/libsdk_unit_test.a(cpu_wp_test.o)
                                                  /home/leon/git/swp-report/iMX6_Platform_SDK/output/mx6dq/lib/libsdk.a(timer.o)
                                                  /home/leon/git/swp-report/iMX6_Platform_SDK/output/mx6dq/sdk_unit_test/smart_device_rev_c/obj/apps/common/print_clock_info.o
get_menu_item                                     /home/leon/git/swp-report/iMX6_Platform_SDK/output/mx6dq/lib/libsdk.a(usb_common.o)
                                                  /home/leon/git/swp-report/iMX6_Platform_SDK/output/mx6dq/sdk_unit_test/smart_device_rev_c/libsdk_unit_test.a(usb0_host_testmodes_test.o)
                                                  /home/leon/git/swp-report/iMX6_Platform_SDK/output/mx6dq/sdk_unit_test/smart_device_rev_c/libsdk_unit_test.a(usb_test.o)
get_panel_by_id                                   /home/leon/git/swp-report/iMX6_Platform_SDK/output/mx6dq/lib/libsdk.a(ips_disp_panel.o)
get_peri_clock                                    /home/leon/git/swp-report/iMX6_Platform_SDK/output/mx6dq/lib/libsdk.a(ccm_pll.o)
                                                  /home/leon/git/swp-report/iMX6_Platform_SDK/output/mx6dq/lib/libsdk.a(imx_uart.o)
                                                  /home/leon/git/swp-report/iMX6_Platform_SDK/output/mx6dq/sdk_unit_test/smart_device_rev_c/obj/apps/common/print_clock_info.o
gicTestDone                                       /home/leon/git/swp-report/iMX6_Platform_SDK/output/mx6dq/sdk_unit_test/smart_device_rev_c/libsdk_unit_test.a(gic_test.o)
gic_cpu_enable                                    /home/leon/git/swp-report/iMX6_Platform_SDK/output/mx6dq/lib/libsdk.a(gic.o)
gic_enable                                        /home/leon/git/swp-report/iMX6_Platform_SDK/output/mx6dq/lib/libsdk.a(gic.o)
gic_enable_irq                                    /home/leon/git/swp-report/iMX6_Platform_SDK/output/mx6dq/lib/libsdk.a(gic.o)
                                                  /home/leon/git/swp-report/iMX6_Platform_SDK/output/mx6dq/lib/libsdk.a(interrupt.o)
gic_init                                          /home/leon/git/swp-report/iMX6_Platform_SDK/output/mx6dq/lib/libsdk.a(gic.o)
                                                  /home/leon/git/swp-report/iMX6_Platform_SDK/output/mx6dq/sdk_unit_test/smart_device_rev_c/obj/apps/common/platform_init.o
gic_init_cpu                                      /home/leon/git/swp-report/iMX6_Platform_SDK/output/mx6dq/lib/libsdk.a(gic.o)
                                                  /home/leon/git/swp-report/iMX6_Platform_SDK/output/mx6dq/sdk_unit_test/smart_device_rev_c/libsdk_unit_test.a(multicore_test.o)
gic_read_irq_ack                                  /home/leon/git/swp-report/iMX6_Platform_SDK/output/mx6dq/lib/libsdk.a(gic.o)
                                                  /home/leon/git/swp-report/iMX6_Platform_SDK/output/mx6dq/lib/libsdk.a(interrupt.o)
gic_send_sgi                                      /home/leon/git/swp-report/iMX6_Platform_SDK/output/mx6dq/lib/libsdk.a(gic.o)
                                                  /home/leon/git/swp-report/iMX6_Platform_SDK/output/mx6dq/sdk_unit_test/smart_device_rev_c/libsdk_unit_test.a(multicore_test.o)
                                                  /home/leon/git/swp-report/iMX6_Platform_SDK/output/mx6dq/sdk_unit_test/smart_device_rev_c/libsdk_unit_test.a(gic_test.o)
gic_set_cpu_priority_mask                         /home/leon/git/swp-report/iMX6_Platform_SDK/output/mx6dq/lib/libsdk.a(gic.o)
gic_set_cpu_target                                /home/leon/git/swp-report/iMX6_Platform_SDK/output/mx6dq/lib/libsdk.a(gic.o)
                                                  /home/leon/git/swp-report/iMX6_Platform_SDK/output/mx6dq/lib/libsdk.a(interrupt.o)
gic_set_irq_priority                              /home/leon/git/swp-report/iMX6_Platform_SDK/output/mx6dq/lib/libsdk.a(gic.o)
                                                  /home/leon/git/swp-report/iMX6_Platform_SDK/output/mx6dq/lib/libsdk.a(interrupt.o)
gic_set_irq_security                              /home/leon/git/swp-report/iMX6_Platform_SDK/output/mx6dq/lib/libsdk.a(gic.o)
                                                  /home/leon/git/swp-report/iMX6_Platform_SDK/output/mx6dq/lib/libsdk.a(interrupt.o)
gic_sgi_test_handler                              /home/leon/git/swp-report/iMX6_Platform_SDK/output/mx6dq/sdk_unit_test/smart_device_rev_c/libsdk_unit_test.a(gic_test.o)
gic_test                                          /home/leon/git/swp-report/iMX6_Platform_SDK/output/mx6dq/sdk_unit_test/smart_device_rev_c/libsdk_unit_test.a(gic_test.o)
                                                  /home/leon/git/swp-report/iMX6_Platform_SDK/output/mx6dq/sdk_unit_test/smart_device_rev_c/obj/apps/sdk_unit_test/src/all_test.o
gic_write_end_of_irq                              /home/leon/git/swp-report/iMX6_Platform_SDK/output/mx6dq/lib/libsdk.a(gic.o)
                                                  /home/leon/git/swp-report/iMX6_Platform_SDK/output/mx6dq/lib/libsdk.a(interrupt.o)
gpio1_iomux_config                                /home/leon/git/swp-report/iMX6_Platform_SDK/output/mx6dq/lib/libboard_smart_device_rev_c.a(gpio1_iomux_config.o)
                                                  /home/leon/git/swp-report/iMX6_Platform_SDK/output/mx6dq/lib/libboard_smart_device_rev_c.a(iomux_config.o)
gpio2_iomux_config                                /home/leon/git/swp-report/iMX6_Platform_SDK/output/mx6dq/lib/libboard_smart_device_rev_c.a(gpio2_iomux_config.o)
                                                  /home/leon/git/swp-report/iMX6_Platform_SDK/output/mx6dq/lib/libboard_smart_device_rev_c.a(iomux_config.o)
gpio3_iomux_config                                /home/leon/git/swp-report/iMX6_Platform_SDK/output/mx6dq/lib/libboard_smart_device_rev_c.a(gpio3_iomux_config.o)
                                                  /home/leon/git/swp-report/iMX6_Platform_SDK/output/mx6dq/lib/libboard_smart_device_rev_c.a(iomux_config.o)
gpio4_iomux_config                                /home/leon/git/swp-report/iMX6_Platform_SDK/output/mx6dq/lib/libboard_smart_device_rev_c.a(gpio4_iomux_config.o)
                                                  /home/leon/git/swp-report/iMX6_Platform_SDK/output/mx6dq/lib/libboard_smart_device_rev_c.a(iomux_config.o)
gpio5_iomux_config                                /home/leon/git/swp-report/iMX6_Platform_SDK/output/mx6dq/lib/libboard_smart_device_rev_c.a(gpio5_iomux_config.o)
                                                  /home/leon/git/swp-report/iMX6_Platform_SDK/output/mx6dq/lib/libboard_smart_device_rev_c.a(iomux_config.o)
gpio6_iomux_config                                /home/leon/git/swp-report/iMX6_Platform_SDK/output/mx6dq/lib/libboard_smart_device_rev_c.a(gpio6_iomux_config.o)
                                                  /home/leon/git/swp-report/iMX6_Platform_SDK/output/mx6dq/lib/libboard_smart_device_rev_c.a(iomux_config.o)
gpio7_iomux_config                                /home/leon/git/swp-report/iMX6_Platform_SDK/output/mx6dq/lib/libboard_smart_device_rev_c.a(gpio7_iomux_config.o)
                                                  /home/leon/git/swp-report/iMX6_Platform_SDK/output/mx6dq/lib/libboard_smart_device_rev_c.a(iomux_config.o)
gpio_clear_interrupt                              /home/leon/git/swp-report/iMX6_Platform_SDK/output/mx6dq/lib/libsdk.a(gpio.o)
gpio_get_direction                                /home/leon/git/swp-report/iMX6_Platform_SDK/output/mx6dq/lib/libsdk.a(gpio.o)
gpio_get_interrupt_status                         /home/leon/git/swp-report/iMX6_Platform_SDK/output/mx6dq/lib/libsdk.a(gpio.o)
gpio_get_level                                    /home/leon/git/swp-report/iMX6_Platform_SDK/output/mx6dq/lib/libsdk.a(gpio.o)
                                                  /home/leon/git/swp-report/iMX6_Platform_SDK/output/mx6dq/lib/libboard_smart_device_rev_c.a(board_usdhc.o)
gpio_get_port_count                               /home/leon/git/swp-report/iMX6_Platform_SDK/output/mx6dq/lib/libsdk.a(gpio.o)
gpio_set_direction                                /home/leon/git/swp-report/iMX6_Platform_SDK/output/mx6dq/lib/libsdk.a(gpio.o)
                                                  /home/leon/git/swp-report/iMX6_Platform_SDK/output/mx6dq/lib/libboard_smart_device_rev_c.a(board_usb.o)
                                                  /home/leon/git/swp-report/iMX6_Platform_SDK/output/mx6dq/lib/libboard_smart_device_rev_c.a(board_sata.o)
                                                  /home/leon/git/swp-report/iMX6_Platform_SDK/output/mx6dq/lib/libboard_smart_device_rev_c.a(board_pcie.o)
                                                  /home/leon/git/swp-report/iMX6_Platform_SDK/output/mx6dq/lib/libboard_smart_device_rev_c.a(board_network.o)
                                                  /home/leon/git/swp-report/iMX6_Platform_SDK/output/mx6dq/lib/libboard_smart_device_rev_c.a(board_mipi.o)
                                                  /home/leon/git/swp-report/iMX6_Platform_SDK/output/mx6dq/lib/libboard_smart_device_rev_c.a(board_display.o)
                                                  /home/leon/git/swp-report/iMX6_Platform_SDK/output/mx6dq/lib/libboard_smart_device_rev_c.a(board_camera.o)
                                                  /home/leon/git/swp-report/iMX6_Platform_SDK/output/mx6dq/lib/libboard_smart_device_rev_c.a(board_audio.o)
                                                  /home/leon/git/swp-report/iMX6_Platform_SDK/output/mx6dq/sdk_unit_test/smart_device_rev_c/libsdk_unit_test.a(accelerometer_test.o)
gpio_set_gpio                                     /home/leon/git/swp-report/iMX6_Platform_SDK/output/mx6dq/lib/libsdk.a(gpio.o)
                                                  /home/leon/git/swp-report/iMX6_Platform_SDK/output/mx6dq/lib/libboard_smart_device_rev_c.a(board_usb.o)
                                                  /home/leon/git/swp-report/iMX6_Platform_SDK/output/mx6dq/lib/libboard_smart_device_rev_c.a(board_sata.o)
                                                  /home/leon/git/swp-report/iMX6_Platform_SDK/output/mx6dq/lib/libboard_smart_device_rev_c.a(board_pcie.o)
                                                  /home/leon/git/swp-report/iMX6_Platform_SDK/output/mx6dq/lib/libboard_smart_device_rev_c.a(board_mipi.o)
                                                  /home/leon/git/swp-report/iMX6_Platform_SDK/output/mx6dq/lib/libboard_smart_device_rev_c.a(board_display.o)
                                                  /home/leon/git/swp-report/iMX6_Platform_SDK/output/mx6dq/lib/libboard_smart_device_rev_c.a(board_audio.o)
                                                  /home/leon/git/swp-report/iMX6_Platform_SDK/output/mx6dq/sdk_unit_test/smart_device_rev_c/libsdk_unit_test.a(accelerometer_test.o)
gpio_set_interrupt_config                         /home/leon/git/swp-report/iMX6_Platform_SDK/output/mx6dq/lib/libsdk.a(gpio.o)
gpio_set_interrupt_mask                           /home/leon/git/swp-report/iMX6_Platform_SDK/output/mx6dq/lib/libsdk.a(gpio.o)
gpio_set_level                                    /home/leon/git/swp-report/iMX6_Platform_SDK/output/mx6dq/lib/libsdk.a(gpio.o)
                                                  /home/leon/git/swp-report/iMX6_Platform_SDK/output/mx6dq/lib/libboard_smart_device_rev_c.a(board_usb.o)
                                                  /home/leon/git/swp-report/iMX6_Platform_SDK/output/mx6dq/lib/libboard_smart_device_rev_c.a(board_sata.o)
                                                  /home/leon/git/swp-report/iMX6_Platform_SDK/output/mx6dq/lib/libboard_smart_device_rev_c.a(board_pcie.o)
                                                  /home/leon/git/swp-report/iMX6_Platform_SDK/output/mx6dq/lib/libboard_smart_device_rev_c.a(board_network.o)
                                                  /home/leon/git/swp-report/iMX6_Platform_SDK/output/mx6dq/lib/libboard_smart_device_rev_c.a(board_mipi.o)
                                                  /home/leon/git/swp-report/iMX6_Platform_SDK/output/mx6dq/lib/libboard_smart_device_rev_c.a(board_display.o)
                                                  /home/leon/git/swp-report/iMX6_Platform_SDK/output/mx6dq/lib/libboard_smart_device_rev_c.a(board_camera.o)
                                                  /home/leon/git/swp-report/iMX6_Platform_SDK/output/mx6dq/lib/libboard_smart_device_rev_c.a(board_audio.o)
                                                  /home/leon/git/swp-report/iMX6_Platform_SDK/output/mx6dq/sdk_unit_test/smart_device_rev_c/libsdk_unit_test.a(accelerometer_test.o)
gpmi_iomux_config                                 /home/leon/git/swp-report/iMX6_Platform_SDK/output/mx6dq/lib/libboard_smart_device_rev_c.a(iomux_config.o)
gps_iomux_config                                  /home/leon/git/swp-report/iMX6_Platform_SDK/output/mx6dq/lib/libboard_smart_device_rev_c.a(gps_iomux_config.o)
                                                  /home/leon/git/swp-report/iMX6_Platform_SDK/output/mx6dq/lib/libboard_smart_device_rev_c.a(iomux_config.o)
gpt_counter_disable                               /home/leon/git/swp-report/iMX6_Platform_SDK/output/mx6dq/lib/libsdk.a(gpt.o)
                                                  /home/leon/git/swp-report/iMX6_Platform_SDK/output/mx6dq/sdk_unit_test/smart_device_rev_c/libsdk_unit_test.a(gpt_test.o)
gpt_counter_enable                                /home/leon/git/swp-report/iMX6_Platform_SDK/output/mx6dq/lib/libsdk.a(gpt.o)
                                                  /home/leon/git/swp-report/iMX6_Platform_SDK/output/mx6dq/sdk_unit_test/smart_device_rev_c/libsdk_unit_test.a(gpt_test.o)
gpt_get_capture_event                             /home/leon/git/swp-report/iMX6_Platform_SDK/output/mx6dq/lib/libsdk.a(gpt.o)
                                                  /home/leon/git/swp-report/iMX6_Platform_SDK/output/mx6dq/sdk_unit_test/smart_device_rev_c/libsdk_unit_test.a(gpt_test.o)
gpt_get_compare_event                             /home/leon/git/swp-report/iMX6_Platform_SDK/output/mx6dq/lib/libsdk.a(gpt.o)
                                                  /home/leon/git/swp-report/iMX6_Platform_SDK/output/mx6dq/sdk_unit_test/smart_device_rev_c/libsdk_unit_test.a(gpt_test.o)
gpt_get_rollover_event                            /home/leon/git/swp-report/iMX6_Platform_SDK/output/mx6dq/lib/libsdk.a(gpt.o)
                                                  /home/leon/git/swp-report/iMX6_Platform_SDK/output/mx6dq/sdk_unit_test/smart_device_rev_c/libsdk_unit_test.a(gpt_test.o)
gpt_in_capture_test                               /home/leon/git/swp-report/iMX6_Platform_SDK/output/mx6dq/sdk_unit_test/smart_device_rev_c/libsdk_unit_test.a(gpt_test.o)
gpt_init                                          /home/leon/git/swp-report/iMX6_Platform_SDK/output/mx6dq/lib/libsdk.a(gpt.o)
                                                  /home/leon/git/swp-report/iMX6_Platform_SDK/output/mx6dq/sdk_unit_test/smart_device_rev_c/libsdk_unit_test.a(gpt_test.o)
gpt_interrupt_routine                             /home/leon/git/swp-report/iMX6_Platform_SDK/output/mx6dq/sdk_unit_test/smart_device_rev_c/libsdk_unit_test.a(gpt_test.o)
gpt_iomux_config                                  /home/leon/git/swp-report/iMX6_Platform_SDK/output/mx6dq/lib/libboard_smart_device_rev_c.a(iomux_config.o)
gpt_out_compare_test                              /home/leon/git/swp-report/iMX6_Platform_SDK/output/mx6dq/sdk_unit_test/smart_device_rev_c/libsdk_unit_test.a(gpt_test.o)
gpt_set_capture_event                             /home/leon/git/swp-report/iMX6_Platform_SDK/output/mx6dq/lib/libsdk.a(gpt.o)
                                                  /home/leon/git/swp-report/iMX6_Platform_SDK/output/mx6dq/sdk_unit_test/smart_device_rev_c/libsdk_unit_test.a(gpt_test.o)
gpt_set_compare_event                             /home/leon/git/swp-report/iMX6_Platform_SDK/output/mx6dq/lib/libsdk.a(gpt.o)
                                                  /home/leon/git/swp-report/iMX6_Platform_SDK/output/mx6dq/sdk_unit_test/smart_device_rev_c/libsdk_unit_test.a(gpt_test.o)
gpt_setup_interrupt                               /home/leon/git/swp-report/iMX6_Platform_SDK/output/mx6dq/lib/libsdk.a(gpt.o)
                                                  /home/leon/git/swp-report/iMX6_Platform_SDK/output/mx6dq/sdk_unit_test/smart_device_rev_c/libsdk_unit_test.a(gpt_test.o)
gpt_test                                          /home/leon/git/swp-report/iMX6_Platform_SDK/output/mx6dq/sdk_unit_test/smart_device_rev_c/libsdk_unit_test.a(gpt_test.o)
                                                  /home/leon/git/swp-report/iMX6_Platform_SDK/output/mx6dq/sdk_unit_test/smart_device_rev_c/obj/apps/sdk_unit_test/src/all_test.o
gpu_clock_config                                  /home/leon/git/swp-report/iMX6_Platform_SDK/output/mx6dq/lib/libsdk.a(ccm_pll.o)
hal_delay_us                                      /home/leon/git/swp-report/iMX6_Platform_SDK/output/mx6dq/lib/libsdk.a(timer.o)
                                                  /home/leon/git/swp-report/iMX6_Platform_SDK/output/mx6dq/lib/libboard_smart_device_rev_c.a(board_sata.o)
                                                  /home/leon/git/swp-report/iMX6_Platform_SDK/output/mx6dq/lib/libboard_smart_device_rev_c.a(board_pcie.o)
                                                  /home/leon/git/swp-report/iMX6_Platform_SDK/output/mx6dq/lib/libboard_smart_device_rev_c.a(board_network.o)
                                                  /home/leon/git/swp-report/iMX6_Platform_SDK/output/mx6dq/lib/libboard_smart_device_rev_c.a(board_mipi.o)
                                                  /home/leon/git/swp-report/iMX6_Platform_SDK/output/mx6dq/lib/libboard_smart_device_rev_c.a(board_display.o)
                                                  /home/leon/git/swp-report/iMX6_Platform_SDK/output/mx6dq/lib/libboard_smart_device_rev_c.a(board_camera.o)
                                                  /home/leon/git/swp-report/iMX6_Platform_SDK/output/mx6dq/lib/libsdk.a(usdhc_sd.o)
                                                  /home/leon/git/swp-report/iMX6_Platform_SDK/output/mx6dq/lib/libsdk.a(usdhc_mmc.o)
                                                  /home/leon/git/swp-report/iMX6_Platform_SDK/output/mx6dq/lib/libsdk.a(usdhc_host.o)
                                                  /home/leon/git/swp-report/iMX6_Platform_SDK/output/mx6dq/lib/libsdk.a(ecspi.o)
                                                  /home/leon/git/swp-report/iMX6_Platform_SDK/output/mx6dq/lib/libsdk.a(sata.o)
                                                  /home/leon/git/swp-report/iMX6_Platform_SDK/output/mx6dq/lib/libsdk.a(pcie.o)
                                                  /home/leon/git/swp-report/iMX6_Platform_SDK/output/mx6dq/lib/libsdk.a(keypad_port.o)
                                                  /home/leon/git/swp-report/iMX6_Platform_SDK/output/mx6dq/lib/libsdk.a(ipu_common.o)
                                                  /home/leon/git/swp-report/iMX6_Platform_SDK/output/mx6dq/lib/libsdk.a(hdmi_tx_phy.o)
                                                  /home/leon/git/swp-report/iMX6_Platform_SDK/output/mx6dq/lib/libsdk.a(enet_drv.o)
                                                  /home/leon/git/swp-report/iMX6_Platform_SDK/output/mx6dq/lib/libsdk.a(smd_sensor.o)
                                                  /home/leon/git/swp-report/iMX6_Platform_SDK/output/mx6dq/sdk_unit_test/smart_device_rev_c/libsdk_unit_test.a(spi_nor_numonyx.o)
                                                  /home/leon/git/swp-report/iMX6_Platform_SDK/output/mx6dq/sdk_unit_test/smart_device_rev_c/libsdk_unit_test.a(at24cxx.o)
                                                  /home/leon/git/swp-report/iMX6_Platform_SDK/output/mx6dq/sdk_unit_test/smart_device_rev_c/libsdk_unit_test.a(accelerometer_test.o)
                                                  /home/leon/git/swp-report/iMX6_Platform_SDK/output/mx6dq/sdk_unit_test/smart_device_rev_c/libsdk_unit_test.a(enet_test.o)
                                                  /home/leon/git/swp-report/iMX6_Platform_SDK/output/mx6dq/sdk_unit_test/smart_device_rev_c/libsdk_unit_test.a(keypad_test.o)
                                                  /home/leon/git/swp-report/iMX6_Platform_SDK/output/mx6dq/sdk_unit_test/smart_device_rev_c/libsdk_unit_test.a(csi_test_mode.o)
                                                  /home/leon/git/swp-report/iMX6_Platform_SDK/output/mx6dq/sdk_unit_test/smart_device_rev_c/libsdk_unit_test.a(hdmi_test.o)
                                                  /home/leon/git/swp-report/iMX6_Platform_SDK/output/mx6dq/sdk_unit_test/smart_device_rev_c/libsdk_unit_test.a(timer_test.o)
                                                  /home/leon/git/swp-report/iMX6_Platform_SDK/output/mx6dq/sdk_unit_test/smart_device_rev_c/libsdk_unit_test.a(gpt_test.o)
                                                  /home/leon/git/swp-report/iMX6_Platform_SDK/output/mx6dq/sdk_unit_test/smart_device_rev_c/libsdk_unit_test.a(epit_test.o)
                                                  /home/leon/git/swp-report/iMX6_Platform_SDK/output/mx6dq/sdk_unit_test/smart_device_rev_c/libsdk_unit_test.a(cpu_wp_test.o)
hdd_ident                                         /home/leon/git/swp-report/iMX6_Platform_SDK/output/mx6dq/lib/libsdk.a(sata.o)
hdmi_1080P60_video_output                         /home/leon/git/swp-report/iMX6_Platform_SDK/output/mx6dq/sdk_unit_test/smart_device_rev_c/libsdk_unit_test.a(hdmi_test.o)
hdmi_720P60_video_output                          /home/leon/git/swp-report/iMX6_Platform_SDK/output/mx6dq/sdk_unit_test/smart_device_rev_c/libsdk_unit_test.a(hdmi_test.o)
hdmi_audio_mute                                   /home/leon/git/swp-report/iMX6_Platform_SDK/output/mx6dq/lib/libsdk.a(hdmi_tx_audio.o)
                                                  /home/leon/git/swp-report/iMX6_Platform_SDK/output/mx6dq/sdk_unit_test/smart_device_rev_c/libsdk_unit_test.a(hdmi_test.o)
hdmi_av_frame_composer                            /home/leon/git/swp-report/iMX6_Platform_SDK/output/mx6dq/lib/libsdk.a(hdmi_tx.o)
                                                  /home/leon/git/swp-report/iMX6_Platform_SDK/output/mx6dq/sdk_unit_test/smart_device_rev_c/libsdk_unit_test.a(hdmi_test.o)
hdmi_clock_set                                    /home/leon/git/swp-report/iMX6_Platform_SDK/output/mx6dq/lib/libboard_smart_device_rev_c.a(board_hdmi.o)
                                                  /home/leon/git/swp-report/iMX6_Platform_SDK/output/mx6dq/lib/libsdk.a(ips_disp_panel.o)
hdmi_config_force_video                           /home/leon/git/swp-report/iMX6_Platform_SDK/output/mx6dq/lib/libsdk.a(hdmi_tx.o)
hdmi_config_forced_pixels                         /home/leon/git/swp-report/iMX6_Platform_SDK/output/mx6dq/lib/libsdk.a(hdmi_tx.o)
hdmi_config_input_source                          /home/leon/git/swp-report/iMX6_Platform_SDK/output/mx6dq/lib/libsdk.a(hdmi_tx.o)
                                                  /home/leon/git/swp-report/iMX6_Platform_SDK/output/mx6dq/sdk_unit_test/smart_device_rev_c/libsdk_unit_test.a(hdmi_test.o)
hdmi_iomux_config                                 /home/leon/git/swp-report/iMX6_Platform_SDK/output/mx6dq/lib/libboard_smart_device_rev_c.a(iomux_config.o)
hdmi_pgm_iomux                                    /home/leon/git/swp-report/iMX6_Platform_SDK/output/mx6dq/lib/libboard_smart_device_rev_c.a(board_hdmi.o)
                                                  /home/leon/git/swp-report/iMX6_Platform_SDK/output/mx6dq/lib/libsdk.a(ips_disp_panel.o)
hdmi_phy_init                                     /home/leon/git/swp-report/iMX6_Platform_SDK/output/mx6dq/lib/libsdk.a(hdmi_tx_phy.o)
                                                  /home/leon/git/swp-report/iMX6_Platform_SDK/output/mx6dq/sdk_unit_test/smart_device_rev_c/libsdk_unit_test.a(hdmi_test.o)
hdmi_phy_int_mask                                 /home/leon/git/swp-report/iMX6_Platform_SDK/output/mx6dq/lib/libsdk.a(hdmi_tx_phy.o)
hdmi_set_video_mode                               /home/leon/git/swp-report/iMX6_Platform_SDK/output/mx6dq/lib/libsdk.a(hdmi_common.o)
                                                  /home/leon/git/swp-report/iMX6_Platform_SDK/output/mx6dq/lib/libsdk.a(hdmi_tx.o)
hdmi_test                                         /home/leon/git/swp-report/iMX6_Platform_SDK/output/mx6dq/sdk_unit_test/smart_device_rev_c/libsdk_unit_test.a(hdmi_test.o)
                                                  /home/leon/git/swp-report/iMX6_Platform_SDK/output/mx6dq/sdk_unit_test/smart_device_rev_c/obj/apps/sdk_unit_test/src/all_test.o
hdmi_tx_ISR                                       /home/leon/git/swp-report/iMX6_Platform_SDK/output/mx6dq/sdk_unit_test/smart_device_rev_c/libsdk_unit_test.a(hdmi_test.o)
hdmi_tx_cec_pgm_iomux                             /home/leon/git/swp-report/iMX6_Platform_SDK/output/mx6dq/lib/libboard_smart_device_rev_c.a(board_hdmi.o)
hdmi_tx_ddc_pgm_iomux                             /home/leon/git/swp-report/iMX6_Platform_SDK/output/mx6dq/lib/libboard_smart_device_rev_c.a(board_hdmi.o)
hdmi_tx_hdcp_config                               /home/leon/git/swp-report/iMX6_Platform_SDK/output/mx6dq/lib/libsdk.a(hdmi_tx.o)
                                                  /home/leon/git/swp-report/iMX6_Platform_SDK/output/mx6dq/sdk_unit_test/smart_device_rev_c/libsdk_unit_test.a(hdmi_test.o)
hdmi_tx_phydtb_pgm_iomux                          /home/leon/git/swp-report/iMX6_Platform_SDK/output/mx6dq/lib/libboard_smart_device_rev_c.a(board_hdmi.o)
hdmi_video_csc                                    /home/leon/git/swp-report/iMX6_Platform_SDK/output/mx6dq/lib/libsdk.a(hdmi_tx.o)
                                                  /home/leon/git/swp-report/iMX6_Platform_SDK/output/mx6dq/sdk_unit_test/smart_device_rev_c/libsdk_unit_test.a(hdmi_test.o)
hdmi_video_packetize                              /home/leon/git/swp-report/iMX6_Platform_SDK/output/mx6dq/lib/libsdk.a(hdmi_tx.o)
                                                  /home/leon/git/swp-report/iMX6_Platform_SDK/output/mx6dq/sdk_unit_test/smart_device_rev_c/libsdk_unit_test.a(hdmi_test.o)
hdmi_video_sample                                 /home/leon/git/swp-report/iMX6_Platform_SDK/output/mx6dq/lib/libsdk.a(hdmi_tx.o)
                                                  /home/leon/git/swp-report/iMX6_Platform_SDK/output/mx6dq/sdk_unit_test/smart_device_rev_c/libsdk_unit_test.a(hdmi_test.o)
hid_device_enum                                   /home/leon/git/swp-report/iMX6_Platform_SDK/output/mx6dq/sdk_unit_test/smart_device_rev_c/libsdk_unit_test.a(usb0_device_mouse_test.o)
host_cfg_block                                    /home/leon/git/swp-report/iMX6_Platform_SDK/output/mx6dq/lib/libsdk.a(usdhc_host.o)
                                                  /home/leon/git/swp-report/iMX6_Platform_SDK/output/mx6dq/lib/libsdk.a(usdhc_mmc.o)
                                                  /home/leon/git/swp-report/iMX6_Platform_SDK/output/mx6dq/lib/libsdk.a(usdhc.o)
host_cfg_clock                                    /home/leon/git/swp-report/iMX6_Platform_SDK/output/mx6dq/lib/libsdk.a(usdhc_host.o)
                                                  /home/leon/git/swp-report/iMX6_Platform_SDK/output/mx6dq/lib/libsdk.a(usdhc_sd.o)
                                                  /home/leon/git/swp-report/iMX6_Platform_SDK/output/mx6dq/lib/libsdk.a(usdhc_mmc.o)
                                                  /home/leon/git/swp-report/iMX6_Platform_SDK/output/mx6dq/lib/libsdk.a(usdhc.o)
host_clear_fifo                                   /home/leon/git/swp-report/iMX6_Platform_SDK/output/mx6dq/lib/libsdk.a(usdhc_host.o)
                                                  /home/leon/git/swp-report/iMX6_Platform_SDK/output/mx6dq/lib/libsdk.a(usdhc.o)
host_data_read                                    /home/leon/git/swp-report/iMX6_Platform_SDK/output/mx6dq/lib/libsdk.a(usdhc_host.o)
                                                  /home/leon/git/swp-report/iMX6_Platform_SDK/output/mx6dq/lib/libsdk.a(usdhc_mmc.o)
                                                  /home/leon/git/swp-report/iMX6_Platform_SDK/output/mx6dq/lib/libsdk.a(usdhc.o)
host_data_write                                   /home/leon/git/swp-report/iMX6_Platform_SDK/output/mx6dq/lib/libsdk.a(usdhc_host.o)
                                                  /home/leon/git/swp-report/iMX6_Platform_SDK/output/mx6dq/lib/libsdk.a(usdhc.o)
host_init                                         /home/leon/git/swp-report/iMX6_Platform_SDK/output/mx6dq/lib/libsdk.a(usdhc_host.o)
                                                  /home/leon/git/swp-report/iMX6_Platform_SDK/output/mx6dq/lib/libsdk.a(usdhc.o)
host_init_active                                  /home/leon/git/swp-report/iMX6_Platform_SDK/output/mx6dq/lib/libsdk.a(usdhc_host.o)
                                                  /home/leon/git/swp-report/iMX6_Platform_SDK/output/mx6dq/lib/libsdk.a(usdhc.o)
host_read_response                                /home/leon/git/swp-report/iMX6_Platform_SDK/output/mx6dq/lib/libsdk.a(usdhc_host.o)
                                                  /home/leon/git/swp-report/iMX6_Platform_SDK/output/mx6dq/lib/libsdk.a(usdhc_sd.o)
                                                  /home/leon/git/swp-report/iMX6_Platform_SDK/output/mx6dq/lib/libsdk.a(usdhc_mmc.o)
                                                  /home/leon/git/swp-report/iMX6_Platform_SDK/output/mx6dq/lib/libsdk.a(usdhc.o)
host_reset                                        /home/leon/git/swp-report/iMX6_Platform_SDK/output/mx6dq/lib/libsdk.a(usdhc_host.o)
                                                  /home/leon/git/swp-report/iMX6_Platform_SDK/output/mx6dq/lib/libsdk.a(usdhc.o)
host_send_cmd                                     /home/leon/git/swp-report/iMX6_Platform_SDK/output/mx6dq/lib/libsdk.a(usdhc_host.o)
                                                  /home/leon/git/swp-report/iMX6_Platform_SDK/output/mx6dq/lib/libsdk.a(usdhc_sd.o)
                                                  /home/leon/git/swp-report/iMX6_Platform_SDK/output/mx6dq/lib/libsdk.a(usdhc_mmc.o)
                                                  /home/leon/git/swp-report/iMX6_Platform_SDK/output/mx6dq/lib/libsdk.a(usdhc.o)
host_set_bus_width                                /home/leon/git/swp-report/iMX6_Platform_SDK/output/mx6dq/lib/libsdk.a(usdhc_host.o)
                                                  /home/leon/git/swp-report/iMX6_Platform_SDK/output/mx6dq/lib/libsdk.a(usdhc_sd.o)
                                                  /home/leon/git/swp-report/iMX6_Platform_SDK/output/mx6dq/lib/libsdk.a(usdhc_mmc.o)
host_setup_adma                                   /home/leon/git/swp-report/iMX6_Platform_SDK/output/mx6dq/lib/libsdk.a(usdhc_host.o)
                                                  /home/leon/git/swp-report/iMX6_Platform_SDK/output/mx6dq/lib/libsdk.a(usdhc.o)
i2c1_iomux_config                                 /home/leon/git/swp-report/iMX6_Platform_SDK/output/mx6dq/lib/libboard_smart_device_rev_c.a(i2c1_iomux_config.o)
                                                  /home/leon/git/swp-report/iMX6_Platform_SDK/output/mx6dq/lib/libboard_smart_device_rev_c.a(i2c_iomux_config.o)
                                                  /home/leon/git/swp-report/iMX6_Platform_SDK/output/mx6dq/lib/libboard_smart_device_rev_c.a(iomux_config.o)
i2c2_iomux_config                                 /home/leon/git/swp-report/iMX6_Platform_SDK/output/mx6dq/lib/libboard_smart_device_rev_c.a(i2c2_iomux_config.o)
                                                  /home/leon/git/swp-report/iMX6_Platform_SDK/output/mx6dq/lib/libboard_smart_device_rev_c.a(i2c_iomux_config.o)
                                                  /home/leon/git/swp-report/iMX6_Platform_SDK/output/mx6dq/lib/libboard_smart_device_rev_c.a(iomux_config.o)
i2c3_iomux_config                                 /home/leon/git/swp-report/iMX6_Platform_SDK/output/mx6dq/lib/libboard_smart_device_rev_c.a(i2c3_iomux_config.o)
                                                  /home/leon/git/swp-report/iMX6_Platform_SDK/output/mx6dq/lib/libboard_smart_device_rev_c.a(i2c_iomux_config.o)
                                                  /home/leon/git/swp-report/iMX6_Platform_SDK/output/mx6dq/lib/libboard_smart_device_rev_c.a(iomux_config.o)
i2c_eeprom_at24cxx_test                           /home/leon/git/swp-report/iMX6_Platform_SDK/output/mx6dq/sdk_unit_test/smart_device_rev_c/libsdk_unit_test.a(at24cxx.o)
                                                  /home/leon/git/swp-report/iMX6_Platform_SDK/output/mx6dq/sdk_unit_test/smart_device_rev_c/libsdk_unit_test.a(i2c_test.o)
i2c_get_request_instance                          /home/leon/git/swp-report/iMX6_Platform_SDK/output/mx6dq/lib/libsdk.a(imx_i2c.o)
                                                  /home/leon/git/swp-report/iMX6_Platform_SDK/output/mx6dq/lib/libsdk.a(imx_i2c_slave.o)
i2c_imx6_slave_test                               /home/leon/git/swp-report/iMX6_Platform_SDK/output/mx6dq/sdk_unit_test/smart_device_rev_c/libsdk_unit_test.a(imx6_i2c_device.o)
                                                  /home/leon/git/swp-report/iMX6_Platform_SDK/output/mx6dq/sdk_unit_test/smart_device_rev_c/libsdk_unit_test.a(i2c_test.o)
i2c_init                                          /home/leon/git/swp-report/iMX6_Platform_SDK/output/mx6dq/lib/libsdk.a(imx_i2c.o)
                                                  /home/leon/git/swp-report/iMX6_Platform_SDK/output/mx6dq/lib/libsdk.a(max7310.o)
                                                  /home/leon/git/swp-report/iMX6_Platform_SDK/output/mx6dq/lib/libsdk.a(smd_sensor.o)
                                                  /home/leon/git/swp-report/iMX6_Platform_SDK/output/mx6dq/lib/libsdk.a(mma8451.o)
                                                  /home/leon/git/swp-report/iMX6_Platform_SDK/output/mx6dq/sdk_unit_test/smart_device_rev_c/libsdk_unit_test.a(at24cxx.o)
                                                  /home/leon/git/swp-report/iMX6_Platform_SDK/output/mx6dq/sdk_unit_test/smart_device_rev_c/libsdk_unit_test.a(imx6_i2c_device.o)
i2c_iomux_config                                  /home/leon/git/swp-report/iMX6_Platform_SDK/output/mx6dq/lib/libboard_smart_device_rev_c.a(i2c_iomux_config.o)
                                                  /home/leon/git/swp-report/iMX6_Platform_SDK/output/mx6dq/lib/libsdk.a(imx_i2c.o)
i2c_read                                          /home/leon/git/swp-report/iMX6_Platform_SDK/output/mx6dq/lib/libsdk.a(imx_i2c.o)
                                                  /home/leon/git/swp-report/iMX6_Platform_SDK/output/mx6dq/lib/libsdk.a(max7310.o)
                                                  /home/leon/git/swp-report/iMX6_Platform_SDK/output/mx6dq/lib/libsdk.a(mma8451.o)
                                                  /home/leon/git/swp-report/iMX6_Platform_SDK/output/mx6dq/sdk_unit_test/smart_device_rev_c/libsdk_unit_test.a(at24cxx.o)
i2c_setup_interrupt                               /home/leon/git/swp-report/iMX6_Platform_SDK/output/mx6dq/lib/libsdk.a(imx_i2c.o)
                                                  /home/leon/git/swp-report/iMX6_Platform_SDK/output/mx6dq/lib/libsdk.a(imx_i2c_slave.o)
i2c_slave_handler                                 /home/leon/git/swp-report/iMX6_Platform_SDK/output/mx6dq/lib/libsdk.a(imx_i2c_slave.o)
i2c_slave_interrupt_routine                       /home/leon/git/swp-report/iMX6_Platform_SDK/output/mx6dq/lib/libsdk.a(imx_i2c_slave.o)
i2c_slave_xfer                                    /home/leon/git/swp-report/iMX6_Platform_SDK/output/mx6dq/lib/libsdk.a(imx_i2c_slave.o)
                                                  /home/leon/git/swp-report/iMX6_Platform_SDK/output/mx6dq/sdk_unit_test/smart_device_rev_c/libsdk_unit_test.a(imx6_i2c_device.o)
i2c_test                                          /home/leon/git/swp-report/iMX6_Platform_SDK/output/mx6dq/sdk_unit_test/smart_device_rev_c/libsdk_unit_test.a(i2c_test.o)
                                                  /home/leon/git/swp-report/iMX6_Platform_SDK/output/mx6dq/sdk_unit_test/smart_device_rev_c/obj/apps/sdk_unit_test/src/all_test.o
i2c_write                                         /home/leon/git/swp-report/iMX6_Platform_SDK/output/mx6dq/lib/libsdk.a(imx_i2c.o)
                                                  /home/leon/git/swp-report/iMX6_Platform_SDK/output/mx6dq/lib/libsdk.a(max7310.o)
                                                  /home/leon/git/swp-report/iMX6_Platform_SDK/output/mx6dq/lib/libsdk.a(mma8451.o)
                                                  /home/leon/git/swp-report/iMX6_Platform_SDK/output/mx6dq/sdk_unit_test/smart_device_rev_c/libsdk_unit_test.a(at24cxx.o)
i2c_xfer                                          /home/leon/git/swp-report/iMX6_Platform_SDK/output/mx6dq/lib/libsdk.a(imx_i2c.o)
                                                  /home/leon/git/swp-report/iMX6_Platform_SDK/output/mx6dq/lib/libsdk.a(smd_sensor.o)
ident                                             /home/leon/git/swp-report/iMX6_Platform_SDK/output/mx6dq/lib/libsdk.a(sata.o)
imx6_slave_receive                                /home/leon/git/swp-report/iMX6_Platform_SDK/output/mx6dq/sdk_unit_test/smart_device_rev_c/libsdk_unit_test.a(imx6_i2c_device.o)
imx6_slave_transmit                               /home/leon/git/swp-report/iMX6_Platform_SDK/output/mx6dq/sdk_unit_test/smart_device_rev_c/libsdk_unit_test.a(imx6_i2c_device.o)
imx_KSZ9021RN_reset                               /home/leon/git/swp-report/iMX6_Platform_SDK/output/mx6dq/lib/libboard_smart_device_rev_c.a(board_network.o)
imx_ar8031_iomux                                  /home/leon/git/swp-report/iMX6_Platform_SDK/output/mx6dq/lib/libboard_smart_device_rev_c.a(board_network.o)
imx_ar8031_reset                                  /home/leon/git/swp-report/iMX6_Platform_SDK/output/mx6dq/lib/libboard_smart_device_rev_c.a(board_network.o)
imx_enet_get_phy_status                           /home/leon/git/swp-report/iMX6_Platform_SDK/output/mx6dq/lib/libsdk.a(enet_drv.o)
imx_enet_init                                     /home/leon/git/swp-report/iMX6_Platform_SDK/output/mx6dq/lib/libsdk.a(enet_drv.o)
                                                  /home/leon/git/swp-report/iMX6_Platform_SDK/output/mx6dq/sdk_unit_test/smart_device_rev_c/libsdk_unit_test.a(enet_test.o)
imx_enet_iomux                                    /home/leon/git/swp-report/iMX6_Platform_SDK/output/mx6dq/lib/libboard_smart_device_rev_c.a(board_network.o)
                                                  /home/leon/git/swp-report/iMX6_Platform_SDK/output/mx6dq/sdk_unit_test/smart_device_rev_c/libsdk_unit_test.a(enet_test.o)
imx_enet_isolate_phy                              /home/leon/git/swp-report/iMX6_Platform_SDK/output/mx6dq/lib/libsdk.a(enet_drv.o)
imx_enet_mii_read                                 /home/leon/git/swp-report/iMX6_Platform_SDK/output/mx6dq/lib/libsdk.a(enet_drv.o)
imx_enet_mii_type                                 /home/leon/git/swp-report/iMX6_Platform_SDK/output/mx6dq/lib/libsdk.a(enet_drv.o)
                                                  /home/leon/git/swp-report/iMX6_Platform_SDK/output/mx6dq/sdk_unit_test/smart_device_rev_c/libsdk_unit_test.a(enet_test.o)
imx_enet_mii_write                                /home/leon/git/swp-report/iMX6_Platform_SDK/output/mx6dq/lib/libsdk.a(enet_drv.o)
imx_enet_phy_enable_external_loopback             /home/leon/git/swp-report/iMX6_Platform_SDK/output/mx6dq/lib/libsdk.a(enet_drv.o)
                                                  /home/leon/git/swp-report/iMX6_Platform_SDK/output/mx6dq/sdk_unit_test/smart_device_rev_c/libsdk_unit_test.a(enet_test.o)
imx_enet_phy_init                                 /home/leon/git/swp-report/iMX6_Platform_SDK/output/mx6dq/lib/libsdk.a(enet_drv.o)
                                                  /home/leon/git/swp-report/iMX6_Platform_SDK/output/mx6dq/sdk_unit_test/smart_device_rev_c/libsdk_unit_test.a(enet_test.o)
imx_enet_phy_reset                                /home/leon/git/swp-report/iMX6_Platform_SDK/output/mx6dq/lib/libboard_smart_device_rev_c.a(board_network.o)
                                                  /home/leon/git/swp-report/iMX6_Platform_SDK/output/mx6dq/sdk_unit_test/smart_device_rev_c/libsdk_unit_test.a(enet_test.o)
imx_enet_poll                                     /home/leon/git/swp-report/iMX6_Platform_SDK/output/mx6dq/lib/libsdk.a(enet_drv.o)
                                                  /home/leon/git/swp-report/iMX6_Platform_SDK/output/mx6dq/sdk_unit_test/smart_device_rev_c/libsdk_unit_test.a(enet_test.o)
imx_enet_recv                                     /home/leon/git/swp-report/iMX6_Platform_SDK/output/mx6dq/lib/libsdk.a(enet_drv.o)
                                                  /home/leon/git/swp-report/iMX6_Platform_SDK/output/mx6dq/sdk_unit_test/smart_device_rev_c/libsdk_unit_test.a(enet_test.o)
imx_enet_send                                     /home/leon/git/swp-report/iMX6_Platform_SDK/output/mx6dq/lib/libsdk.a(enet_drv.o)
                                                  /home/leon/git/swp-report/iMX6_Platform_SDK/output/mx6dq/sdk_unit_test/smart_device_rev_c/libsdk_unit_test.a(enet_test.o)
imx_enet_start                                    /home/leon/git/swp-report/iMX6_Platform_SDK/output/mx6dq/lib/libsdk.a(enet_drv.o)
                                                  /home/leon/git/swp-report/iMX6_Platform_SDK/output/mx6dq/sdk_unit_test/smart_device_rev_c/libsdk_unit_test.a(enet_test.o)
imx_enet_stop                                     /home/leon/git/swp-report/iMX6_Platform_SDK/output/mx6dq/lib/libsdk.a(enet_drv.o)
                                                  /home/leon/git/swp-report/iMX6_Platform_SDK/output/mx6dq/sdk_unit_test/smart_device_rev_c/libsdk_unit_test.a(enet_test.o)
imx_enet_unisolate_phy                            /home/leon/git/swp-report/iMX6_Platform_SDK/output/mx6dq/lib/libsdk.a(enet_drv.o)
init_dma_data                                     /home/leon/git/swp-report/iMX6_Platform_SDK/output/mx6dq/sdk_unit_test/smart_device_rev_c/libsdk_unit_test.a(init_dma_data.o)
                                                  /home/leon/git/swp-report/iMX6_Platform_SDK/output/mx6dq/sdk_unit_test/smart_device_rev_c/libsdk_unit_test.a(hdmi_test.o)
init_hdmi_interrupt                               /home/leon/git/swp-report/iMX6_Platform_SDK/output/mx6dq/sdk_unit_test/smart_device_rev_c/libsdk_unit_test.a(hdmi_test.o)
input_dcd                                         /home/leon/git/swp-report/iMX6_Platform_SDK/output/mx6dq/lib/libboard_smart_device_rev_c.a(dcd.o)
input_dcd_hdr                                     /home/leon/git/swp-report/iMX6_Platform_SDK/output/mx6dq/lib/libboard_smart_device_rev_c.a(dcd.o)
                                                  /home/leon/git/swp-report/iMX6_Platform_SDK/output/mx6dq/sdk_unit_test/smart_device_rev_c/obj/apps/common/ivt.o
input_dcd_wrt_cmd                                 /home/leon/git/swp-report/iMX6_Platform_SDK/output/mx6dq/lib/libboard_smart_device_rev_c.a(dcd.o)
input_ivt                                         /home/leon/git/swp-report/iMX6_Platform_SDK/output/mx6dq/sdk_unit_test/smart_device_rev_c/obj/apps/common/ivt.o
iomux_config                                      /home/leon/git/swp-report/iMX6_Platform_SDK/output/mx6dq/lib/libboard_smart_device_rev_c.a(iomux_config.o)
ips_combiner_test                                 /home/leon/git/swp-report/iMX6_Platform_SDK/output/mx6dq/sdk_unit_test/smart_device_rev_c/libsdk_unit_test.a(ips_combiner.o)
                                                  /home/leon/git/swp-report/iMX6_Platform_SDK/output/mx6dq/sdk_unit_test/smart_device_rev_c/libsdk_unit_test.a(ips_test.o)
ips_csc_test                                      /home/leon/git/swp-report/iMX6_Platform_SDK/output/mx6dq/sdk_unit_test/smart_device_rev_c/libsdk_unit_test.a(ips_csc.o)
                                                  /home/leon/git/swp-report/iMX6_Platform_SDK/output/mx6dq/sdk_unit_test/smart_device_rev_c/libsdk_unit_test.a(ips_test.o)
ips_deinterlace_proc                              /home/leon/git/swp-report/iMX6_Platform_SDK/output/mx6dq/lib/libsdk.a(ipu_vdi.o)
                                                  /home/leon/git/swp-report/iMX6_Platform_SDK/output/mx6dq/lib/libsdk.a(ipu_common.o)
ips_display_test                                  /home/leon/git/swp-report/iMX6_Platform_SDK/output/mx6dq/sdk_unit_test/smart_device_rev_c/libsdk_unit_test.a(ips_display.o)
                                                  /home/leon/git/swp-report/iMX6_Platform_SDK/output/mx6dq/sdk_unit_test/smart_device_rev_c/libsdk_unit_test.a(ips_test.o)
ips_ext_hdmi_transmitter_1080P60_stream           /home/leon/git/swp-report/iMX6_Platform_SDK/output/mx6dq/sdk_unit_test/smart_device_rev_c/libsdk_unit_test.a(ips_display.o)
ips_hannstar_xga_yuv_stream                       /home/leon/git/swp-report/iMX6_Platform_SDK/output/mx6dq/sdk_unit_test/smart_device_rev_c/libsdk_unit_test.a(ips_display.o)
ips_hdmi_1080P60_stream                           /home/leon/git/swp-report/iMX6_Platform_SDK/output/mx6dq/sdk_unit_test/smart_device_rev_c/libsdk_unit_test.a(ips_display.o)
                                                  /home/leon/git/swp-report/iMX6_Platform_SDK/output/mx6dq/sdk_unit_test/smart_device_rev_c/libsdk_unit_test.a(hdmi_test.o)
ips_hdmi_720P60_stream                            /home/leon/git/swp-report/iMX6_Platform_SDK/output/mx6dq/sdk_unit_test/smart_device_rev_c/libsdk_unit_test.a(ips_display.o)
                                                  /home/leon/git/swp-report/iMX6_Platform_SDK/output/mx6dq/sdk_unit_test/smart_device_rev_c/libsdk_unit_test.a(hdmi_test.o)
ips_hdmi_stream                                   /home/leon/git/swp-report/iMX6_Platform_SDK/output/mx6dq/sdk_unit_test/smart_device_rev_c/libsdk_unit_test.a(ips_display.o)
                                                  /home/leon/git/swp-report/iMX6_Platform_SDK/output/mx6dq/sdk_unit_test/smart_device_rev_c/libsdk_unit_test.a(hdmi_test.o)
ips_mipi_wvga_rgb_stream                          /home/leon/git/swp-report/iMX6_Platform_SDK/output/mx6dq/sdk_unit_test/smart_device_rev_c/libsdk_unit_test.a(ips_display.o)
ips_resize_test                                   /home/leon/git/swp-report/iMX6_Platform_SDK/output/mx6dq/sdk_unit_test/smart_device_rev_c/libsdk_unit_test.a(ips_resize.o)
                                                  /home/leon/git/swp-report/iMX6_Platform_SDK/output/mx6dq/sdk_unit_test/smart_device_rev_c/libsdk_unit_test.a(ips_test.o)
ips_rotate_test                                   /home/leon/git/swp-report/iMX6_Platform_SDK/output/mx6dq/sdk_unit_test/smart_device_rev_c/libsdk_unit_test.a(ips_rotate.o)
                                                  /home/leon/git/swp-report/iMX6_Platform_SDK/output/mx6dq/sdk_unit_test/smart_device_rev_c/libsdk_unit_test.a(ips_test.o)
ipu1_ch0_eobnd_isr                                /home/leon/git/swp-report/iMX6_Platform_SDK/output/mx6dq/lib/libsdk.a(ipu_common.o)
ipu1_iomux_config                                 /home/leon/git/swp-report/iMX6_Platform_SDK/output/mx6dq/lib/libboard_smart_device_rev_c.a(ipu1_iomux_config.o)
                                                  /home/leon/git/swp-report/iMX6_Platform_SDK/output/mx6dq/lib/libboard_smart_device_rev_c.a(board_hdmi.o)
                                                  /home/leon/git/swp-report/iMX6_Platform_SDK/output/mx6dq/lib/libsdk.a(ips_disp_panel.o)
                                                  /home/leon/git/swp-report/iMX6_Platform_SDK/output/mx6dq/sdk_unit_test/smart_device_rev_c/libsdk_unit_test.a(sensor_capture.o)
                                                  /home/leon/git/swp-report/iMX6_Platform_SDK/output/mx6dq/sdk_unit_test/smart_device_rev_c/libsdk_unit_test.a(csi_test_mode.o)
                                                  /home/leon/git/swp-report/iMX6_Platform_SDK/output/mx6dq/sdk_unit_test/smart_device_rev_c/libsdk_unit_test.a(ips_test.o)
                                                  /home/leon/git/swp-report/iMX6_Platform_SDK/output/mx6dq/lib/libboard_smart_device_rev_c.a(iomux_config.o)
ipu2_iomux_config                                 /home/leon/git/swp-report/iMX6_Platform_SDK/output/mx6dq/lib/libboard_smart_device_rev_c.a(iomux_config.o)
ipu_capture_disp_link                             /home/leon/git/swp-report/iMX6_Platform_SDK/output/mx6dq/lib/libsdk.a(ipu_csi.o)
                                                  /home/leon/git/swp-report/iMX6_Platform_SDK/output/mx6dq/lib/libsdk.a(ipu_common.o)
ipu_capture_setup                                 /home/leon/git/swp-report/iMX6_Platform_SDK/output/mx6dq/lib/libsdk.a(ipu_common.o)
                                                  /home/leon/git/swp-report/iMX6_Platform_SDK/output/mx6dq/sdk_unit_test/smart_device_rev_c/libsdk_unit_test.a(sensor_capture.o)
                                                  /home/leon/git/swp-report/iMX6_Platform_SDK/output/mx6dq/sdk_unit_test/smart_device_rev_c/libsdk_unit_test.a(csi_test_mode.o)
ipu_capture_streamoff                             /home/leon/git/swp-report/iMX6_Platform_SDK/output/mx6dq/lib/libsdk.a(ipu_common.o)
                                                  /home/leon/git/swp-report/iMX6_Platform_SDK/output/mx6dq/sdk_unit_test/smart_device_rev_c/libsdk_unit_test.a(sensor_capture.o)
                                                  /home/leon/git/swp-report/iMX6_Platform_SDK/output/mx6dq/sdk_unit_test/smart_device_rev_c/libsdk_unit_test.a(csi_test_mode.o)
ipu_ch0_eobnd_interrupt_register                  /home/leon/git/swp-report/iMX6_Platform_SDK/output/mx6dq/lib/libsdk.a(ipu_common.o)
ipu_channel_buf_not_ready                         /home/leon/git/swp-report/iMX6_Platform_SDK/output/mx6dq/lib/libsdk.a(ipu_idmac.o)
ipu_channel_buf_ready                             /home/leon/git/swp-report/iMX6_Platform_SDK/output/mx6dq/lib/libsdk.a(ipu_idmac.o)
                                                  /home/leon/git/swp-report/iMX6_Platform_SDK/output/mx6dq/lib/libsdk.a(ipu_vdi.o)
                                                  /home/leon/git/swp-report/iMX6_Platform_SDK/output/mx6dq/lib/libsdk.a(ipu_common.o)
                                                  /home/leon/git/swp-report/iMX6_Platform_SDK/output/mx6dq/sdk_unit_test/smart_device_rev_c/libsdk_unit_test.a(ips_rotate.o)
                                                  /home/leon/git/swp-report/iMX6_Platform_SDK/output/mx6dq/sdk_unit_test/smart_device_rev_c/libsdk_unit_test.a(ips_resize.o)
                                                  /home/leon/git/swp-report/iMX6_Platform_SDK/output/mx6dq/sdk_unit_test/smart_device_rev_c/libsdk_unit_test.a(ips_csc.o)
ipu_cpmem_mod_field                               /home/leon/git/swp-report/iMX6_Platform_SDK/output/mx6dq/lib/libsdk.a(ipu_idmac.o)
                                                  /home/leon/git/swp-report/iMX6_Platform_SDK/output/mx6dq/sdk_unit_test/smart_device_rev_c/libsdk_unit_test.a(ips_display.o)
ipu_cpmem_read_field                              /home/leon/git/swp-report/iMX6_Platform_SDK/output/mx6dq/lib/libsdk.a(ipu_idmac.o)
ipu_cpmem_set_field                               /home/leon/git/swp-report/iMX6_Platform_SDK/output/mx6dq/lib/libsdk.a(ipu_idmac.o)
                                                  /home/leon/git/swp-report/iMX6_Platform_SDK/output/mx6dq/lib/libsdk.a(ipu_common.o)
ipu_csi_config                                    /home/leon/git/swp-report/iMX6_Platform_SDK/output/mx6dq/lib/libsdk.a(ipu_csi.o)
                                                  /home/leon/git/swp-report/iMX6_Platform_SDK/output/mx6dq/lib/libsdk.a(ipu_common.o)
ipu_csi_test_mode_color                           /home/leon/git/swp-report/iMX6_Platform_SDK/output/mx6dq/lib/libsdk.a(ipu_csi.o)
                                                  /home/leon/git/swp-report/iMX6_Platform_SDK/output/mx6dq/sdk_unit_test/smart_device_rev_c/libsdk_unit_test.a(csi_test_mode.o)
ipu_dc_config                                     /home/leon/git/swp-report/iMX6_Platform_SDK/output/mx6dq/lib/libsdk.a(ipu_dc.o)
                                                  /home/leon/git/swp-report/iMX6_Platform_SDK/output/mx6dq/lib/libsdk.a(ipu_common.o)
ipu_dc_display_config                             /home/leon/git/swp-report/iMX6_Platform_SDK/output/mx6dq/lib/libsdk.a(ipu_dc.o)
ipu_dc_map                                        /home/leon/git/swp-report/iMX6_Platform_SDK/output/mx6dq/lib/libsdk.a(ipu_dc.o)
ipu_dc_microcode_config                           /home/leon/git/swp-report/iMX6_Platform_SDK/output/mx6dq/lib/libsdk.a(ipu_dc.o)
ipu_dc_microcode_event                            /home/leon/git/swp-report/iMX6_Platform_SDK/output/mx6dq/lib/libsdk.a(ipu_dc.o)
ipu_dc_write_channel_config                       /home/leon/git/swp-report/iMX6_Platform_SDK/output/mx6dq/lib/libsdk.a(ipu_dc.o)
ipu_deinterlace_3_fields                          /home/leon/git/swp-report/iMX6_Platform_SDK/output/mx6dq/lib/libsdk.a(ipu_vdi.o)
ipu_deinterlace_idmac_config                      /home/leon/git/swp-report/iMX6_Platform_SDK/output/mx6dq/lib/libsdk.a(ipu_idmac.o)
                                                  /home/leon/git/swp-report/iMX6_Platform_SDK/output/mx6dq/lib/libsdk.a(ipu_vdi.o)
ipu_di_bsclk_gen                                  /home/leon/git/swp-report/iMX6_Platform_SDK/output/mx6dq/lib/libsdk.a(ipu_di.o)
ipu_di_config                                     /home/leon/git/swp-report/iMX6_Platform_SDK/output/mx6dq/lib/libsdk.a(ipu_di.o)
                                                  /home/leon/git/swp-report/iMX6_Platform_SDK/output/mx6dq/lib/libsdk.a(ipu_common.o)
ipu_di_interface_set                              /home/leon/git/swp-report/iMX6_Platform_SDK/output/mx6dq/lib/libsdk.a(ipu_di.o)
ipu_di_pointer_config                             /home/leon/git/swp-report/iMX6_Platform_SDK/output/mx6dq/lib/libsdk.a(ipu_di.o)
ipu_di_screen_set                                 /home/leon/git/swp-report/iMX6_Platform_SDK/output/mx6dq/lib/libsdk.a(ipu_di.o)
ipu_di_sync_config                                /home/leon/git/swp-report/iMX6_Platform_SDK/output/mx6dq/lib/libsdk.a(ipu_di.o)
ipu_di_waveform_config                            /home/leon/git/swp-report/iMX6_Platform_SDK/output/mx6dq/lib/libsdk.a(ipu_di.o)
ipu_disable_csi                                   /home/leon/git/swp-report/iMX6_Platform_SDK/output/mx6dq/lib/libsdk.a(ipu_csi.o)
                                                  /home/leon/git/swp-report/iMX6_Platform_SDK/output/mx6dq/lib/libsdk.a(ipu_common.o)
ipu_disable_display                               /home/leon/git/swp-report/iMX6_Platform_SDK/output/mx6dq/lib/libsdk.a(ipu_common.o)
ipu_disable_smfc                                  /home/leon/git/swp-report/iMX6_Platform_SDK/output/mx6dq/lib/libsdk.a(ipu_csi.o)
                                                  /home/leon/git/swp-report/iMX6_Platform_SDK/output/mx6dq/lib/libsdk.a(ipu_common.o)
ipu_disp_bg_idmac_config                          /home/leon/git/swp-report/iMX6_Platform_SDK/output/mx6dq/lib/libsdk.a(ipu_idmac.o)
                                                  /home/leon/git/swp-report/iMX6_Platform_SDK/output/mx6dq/lib/libsdk.a(ipu_common.o)
ipu_disp_fg_idmac_config                          /home/leon/git/swp-report/iMX6_Platform_SDK/output/mx6dq/lib/libsdk.a(ipu_idmac.o)
                                                  /home/leon/git/swp-report/iMX6_Platform_SDK/output/mx6dq/lib/libsdk.a(ipu_common.o)
ipu_display_setup                                 /home/leon/git/swp-report/iMX6_Platform_SDK/output/mx6dq/lib/libsdk.a(ipu_common.o)
                                                  /home/leon/git/swp-report/iMX6_Platform_SDK/output/mx6dq/sdk_unit_test/smart_device_rev_c/libsdk_unit_test.a(ips_rotate.o)
                                                  /home/leon/git/swp-report/iMX6_Platform_SDK/output/mx6dq/sdk_unit_test/smart_device_rev_c/libsdk_unit_test.a(ips_resize.o)
                                                  /home/leon/git/swp-report/iMX6_Platform_SDK/output/mx6dq/sdk_unit_test/smart_device_rev_c/libsdk_unit_test.a(ips_csc.o)
                                                  /home/leon/git/swp-report/iMX6_Platform_SDK/output/mx6dq/sdk_unit_test/smart_device_rev_c/libsdk_unit_test.a(ips_display.o)
ipu_dma_update_buffer                             /home/leon/git/swp-report/iMX6_Platform_SDK/output/mx6dq/lib/libsdk.a(ipu_idmac.o)
ipu_dmfc_alloc                                    /home/leon/git/swp-report/iMX6_Platform_SDK/output/mx6dq/lib/libsdk.a(ipu_dmfc.o)
                                                  /home/leon/git/swp-report/iMX6_Platform_SDK/output/mx6dq/sdk_unit_test/smart_device_rev_c/libsdk_unit_test.a(ips_display.o)
ipu_dmfc_config                                   /home/leon/git/swp-report/iMX6_Platform_SDK/output/mx6dq/lib/libsdk.a(ipu_dmfc.o)
                                                  /home/leon/git/swp-report/iMX6_Platform_SDK/output/mx6dq/lib/libsdk.a(ipu_common.o)
ipu_dp_config                                     /home/leon/git/swp-report/iMX6_Platform_SDK/output/mx6dq/lib/libsdk.a(ipu_dp.o)
                                                  /home/leon/git/swp-report/iMX6_Platform_SDK/output/mx6dq/lib/libsdk.a(ipu_common.o)
                                                  /home/leon/git/swp-report/iMX6_Platform_SDK/output/mx6dq/sdk_unit_test/smart_device_rev_c/libsdk_unit_test.a(ips_combiner.o)
ipu_dp_csc_config                                 /home/leon/git/swp-report/iMX6_Platform_SDK/output/mx6dq/lib/libsdk.a(ipu_dp.o)
ipu_dp_fg_config                                  /home/leon/git/swp-report/iMX6_Platform_SDK/output/mx6dq/lib/libsdk.a(ipu_dp.o)
ipu_dual_display_setup                            /home/leon/git/swp-report/iMX6_Platform_SDK/output/mx6dq/lib/libsdk.a(ipu_common.o)
                                                  /home/leon/git/swp-report/iMX6_Platform_SDK/output/mx6dq/sdk_unit_test/smart_device_rev_c/libsdk_unit_test.a(ips_combiner.o)
ipu_enable_display                                /home/leon/git/swp-report/iMX6_Platform_SDK/output/mx6dq/lib/libsdk.a(ipu_common.o)
                                                  /home/leon/git/swp-report/iMX6_Platform_SDK/output/mx6dq/sdk_unit_test/smart_device_rev_c/libsdk_unit_test.a(ips_rotate.o)
                                                  /home/leon/git/swp-report/iMX6_Platform_SDK/output/mx6dq/sdk_unit_test/smart_device_rev_c/libsdk_unit_test.a(ips_resize.o)
                                                  /home/leon/git/swp-report/iMX6_Platform_SDK/output/mx6dq/sdk_unit_test/smart_device_rev_c/libsdk_unit_test.a(ips_csc.o)
                                                  /home/leon/git/swp-report/iMX6_Platform_SDK/output/mx6dq/sdk_unit_test/smart_device_rev_c/libsdk_unit_test.a(ips_combiner.o)
                                                  /home/leon/git/swp-report/iMX6_Platform_SDK/output/mx6dq/sdk_unit_test/smart_device_rev_c/libsdk_unit_test.a(sensor_capture.o)
                                                  /home/leon/git/swp-report/iMX6_Platform_SDK/output/mx6dq/sdk_unit_test/smart_device_rev_c/libsdk_unit_test.a(csi_test_mode.o)
                                                  /home/leon/git/swp-report/iMX6_Platform_SDK/output/mx6dq/sdk_unit_test/smart_device_rev_c/libsdk_unit_test.a(ips_display.o)
ipu_general_idmac_config                          /home/leon/git/swp-report/iMX6_Platform_SDK/output/mx6dq/lib/libsdk.a(ipu_idmac.o)
                                                  /home/leon/git/swp-report/iMX6_Platform_SDK/output/mx6dq/lib/libsdk.a(ipu_common.o)
ipu_hsp_clk_config                                /home/leon/git/swp-report/iMX6_Platform_SDK/output/mx6dq/lib/libsdk.a(ccm_pll.o)
ipu_ic_calc_resize_coeffs                         /home/leon/git/swp-report/iMX6_Platform_SDK/output/mx6dq/lib/libsdk.a(ipu_ic.o)
ipu_ic_combine_config                             /home/leon/git/swp-report/iMX6_Platform_SDK/output/mx6dq/lib/libsdk.a(ipu_ic.o)
ipu_ic_config_resize_rate                         /home/leon/git/swp-report/iMX6_Platform_SDK/output/mx6dq/lib/libsdk.a(ipu_ic.o)
ipu_ic_csc_config                                 /home/leon/git/swp-report/iMX6_Platform_SDK/output/mx6dq/lib/libsdk.a(ipu_ic.o)
                                                  /home/leon/git/swp-report/iMX6_Platform_SDK/output/mx6dq/sdk_unit_test/smart_device_rev_c/libsdk_unit_test.a(ips_csc.o)
ipu_ic_deinterlace_config                         /home/leon/git/swp-report/iMX6_Platform_SDK/output/mx6dq/lib/libsdk.a(ipu_ic.o)
                                                  /home/leon/git/swp-report/iMX6_Platform_SDK/output/mx6dq/lib/libsdk.a(ipu_vdi.o)
ipu_ic_enable                                     /home/leon/git/swp-report/iMX6_Platform_SDK/output/mx6dq/lib/libsdk.a(ipu_ic.o)
                                                  /home/leon/git/swp-report/iMX6_Platform_SDK/output/mx6dq/lib/libsdk.a(ipu_vdi.o)
                                                  /home/leon/git/swp-report/iMX6_Platform_SDK/output/mx6dq/sdk_unit_test/smart_device_rev_c/libsdk_unit_test.a(ips_rotate.o)
                                                  /home/leon/git/swp-report/iMX6_Platform_SDK/output/mx6dq/sdk_unit_test/smart_device_rev_c/libsdk_unit_test.a(ips_resize.o)
                                                  /home/leon/git/swp-report/iMX6_Platform_SDK/output/mx6dq/sdk_unit_test/smart_device_rev_c/libsdk_unit_test.a(ips_csc.o)
ipu_ic_resize_config                              /home/leon/git/swp-report/iMX6_Platform_SDK/output/mx6dq/lib/libsdk.a(ipu_ic.o)
                                                  /home/leon/git/swp-report/iMX6_Platform_SDK/output/mx6dq/sdk_unit_test/smart_device_rev_c/libsdk_unit_test.a(ips_resize.o)
                                                  /home/leon/git/swp-report/iMX6_Platform_SDK/output/mx6dq/sdk_unit_test/smart_device_rev_c/libsdk_unit_test.a(ips_csc.o)
ipu_ic_rotation_config                            /home/leon/git/swp-report/iMX6_Platform_SDK/output/mx6dq/lib/libsdk.a(ipu_ic.o)
                                                  /home/leon/git/swp-report/iMX6_Platform_SDK/output/mx6dq/sdk_unit_test/smart_device_rev_c/libsdk_unit_test.a(ips_rotate.o)
                                                  /home/leon/git/swp-report/iMX6_Platform_SDK/output/mx6dq/sdk_unit_test/smart_device_rev_c/libsdk_unit_test.a(ips_resize.o)
ipu_ic_task_enable                                /home/leon/git/swp-report/iMX6_Platform_SDK/output/mx6dq/lib/libsdk.a(ipu_ic.o)
                                                  /home/leon/git/swp-report/iMX6_Platform_SDK/output/mx6dq/lib/libsdk.a(ipu_vdi.o)
                                                  /home/leon/git/swp-report/iMX6_Platform_SDK/output/mx6dq/sdk_unit_test/smart_device_rev_c/libsdk_unit_test.a(ips_rotate.o)
                                                  /home/leon/git/swp-report/iMX6_Platform_SDK/output/mx6dq/sdk_unit_test/smart_device_rev_c/libsdk_unit_test.a(ips_resize.o)
                                                  /home/leon/git/swp-report/iMX6_Platform_SDK/output/mx6dq/sdk_unit_test/smart_device_rev_c/libsdk_unit_test.a(ips_csc.o)
ipu_idma_pixel_format_config                      /home/leon/git/swp-report/iMX6_Platform_SDK/output/mx6dq/lib/libsdk.a(ipu_idmac.o)
ipu_idmac_chan_cur_buff                           /home/leon/git/swp-report/iMX6_Platform_SDK/output/mx6dq/lib/libsdk.a(ipu_idmac.o)
ipu_idmac_channel_busy                            /home/leon/git/swp-report/iMX6_Platform_SDK/output/mx6dq/lib/libsdk.a(ipu_idmac.o)
                                                  /home/leon/git/swp-report/iMX6_Platform_SDK/output/mx6dq/lib/libsdk.a(ipu_vdi.o)
                                                  /home/leon/git/swp-report/iMX6_Platform_SDK/output/mx6dq/sdk_unit_test/smart_device_rev_c/libsdk_unit_test.a(ips_rotate.o)
                                                  /home/leon/git/swp-report/iMX6_Platform_SDK/output/mx6dq/sdk_unit_test/smart_device_rev_c/libsdk_unit_test.a(ips_resize.o)
                                                  /home/leon/git/swp-report/iMX6_Platform_SDK/output/mx6dq/sdk_unit_test/smart_device_rev_c/libsdk_unit_test.a(ips_csc.o)
ipu_idmac_channel_enable                          /home/leon/git/swp-report/iMX6_Platform_SDK/output/mx6dq/lib/libsdk.a(ipu_idmac.o)
                                                  /home/leon/git/swp-report/iMX6_Platform_SDK/output/mx6dq/lib/libsdk.a(ipu_common.o)
                                                  /home/leon/git/swp-report/iMX6_Platform_SDK/output/mx6dq/sdk_unit_test/smart_device_rev_c/libsdk_unit_test.a(ips_csc.o)
ipu_idmac_channel_mode_sel                        /home/leon/git/swp-report/iMX6_Platform_SDK/output/mx6dq/lib/libsdk.a(ipu_idmac.o)
ipu_mipi_csi2_setup                               /home/leon/git/swp-report/iMX6_Platform_SDK/output/mx6dq/lib/libsdk.a(ipu_common.o)
ipu_read                                          /home/leon/git/swp-report/iMX6_Platform_SDK/output/mx6dq/lib/libsdk.a(ipu_common.o)
                                                  /home/leon/git/swp-report/iMX6_Platform_SDK/output/mx6dq/lib/libsdk.a(ipu_vdi.o)
ipu_resize_idmac_config                           /home/leon/git/swp-report/iMX6_Platform_SDK/output/mx6dq/lib/libsdk.a(ipu_idmac.o)
                                                  /home/leon/git/swp-report/iMX6_Platform_SDK/output/mx6dq/sdk_unit_test/smart_device_rev_c/libsdk_unit_test.a(ips_resize.o)
                                                  /home/leon/git/swp-report/iMX6_Platform_SDK/output/mx6dq/sdk_unit_test/smart_device_rev_c/libsdk_unit_test.a(ips_csc.o)
ipu_rotate_idmac_config                           /home/leon/git/swp-report/iMX6_Platform_SDK/output/mx6dq/lib/libsdk.a(ipu_idmac.o)
                                                  /home/leon/git/swp-report/iMX6_Platform_SDK/output/mx6dq/sdk_unit_test/smart_device_rev_c/libsdk_unit_test.a(ips_rotate.o)
                                                  /home/leon/git/swp-report/iMX6_Platform_SDK/output/mx6dq/sdk_unit_test/smart_device_rev_c/libsdk_unit_test.a(ips_resize.o)
ipu_smfc_fifo_allocate                            /home/leon/git/swp-report/iMX6_Platform_SDK/output/mx6dq/lib/libsdk.a(ipu_csi.o)
                                                  /home/leon/git/swp-report/iMX6_Platform_SDK/output/mx6dq/lib/libsdk.a(ipu_common.o)
ipu_sw_reset                                      /home/leon/git/swp-report/iMX6_Platform_SDK/output/mx6dq/lib/libsdk.a(ipu_common.o)
                                                  /home/leon/git/swp-report/iMX6_Platform_SDK/output/mx6dq/sdk_unit_test/smart_device_rev_c/libsdk_unit_test.a(ips_resize.o)
                                                  /home/leon/git/swp-report/iMX6_Platform_SDK/output/mx6dq/sdk_unit_test/smart_device_rev_c/libsdk_unit_test.a(ips_csc.o)
                                                  /home/leon/git/swp-report/iMX6_Platform_SDK/output/mx6dq/sdk_unit_test/smart_device_rev_c/libsdk_unit_test.a(ips_combiner.o)
                                                  /home/leon/git/swp-report/iMX6_Platform_SDK/output/mx6dq/sdk_unit_test/smart_device_rev_c/libsdk_unit_test.a(sensor_capture.o)
                                                  /home/leon/git/swp-report/iMX6_Platform_SDK/output/mx6dq/sdk_unit_test/smart_device_rev_c/libsdk_unit_test.a(csi_test_mode.o)
                                                  /home/leon/git/swp-report/iMX6_Platform_SDK/output/mx6dq/sdk_unit_test/smart_device_rev_c/libsdk_unit_test.a(ips_display.o)
ipu_test                                          /home/leon/git/swp-report/iMX6_Platform_SDK/output/mx6dq/sdk_unit_test/smart_device_rev_c/libsdk_unit_test.a(ips_test.o)
                                                  /home/leon/git/swp-report/iMX6_Platform_SDK/output/mx6dq/sdk_unit_test/smart_device_rev_c/obj/apps/sdk_unit_test/src/all_test.o
ipu_vdi_init                                      /home/leon/git/swp-report/iMX6_Platform_SDK/output/mx6dq/lib/libsdk.a(ipu_vdi.o)
ipu_vdi_set_motion                                /home/leon/git/swp-report/iMX6_Platform_SDK/output/mx6dq/lib/libsdk.a(ipu_vdi.o)
ipu_vdi_set_top_field_man                         /home/leon/git/swp-report/iMX6_Platform_SDK/output/mx6dq/lib/libsdk.a(ipu_vdi.o)
ipu_vdi_uninit                                    /home/leon/git/swp-report/iMX6_Platform_SDK/output/mx6dq/lib/libsdk.a(ipu_vdi.o)
ipu_write                                         /home/leon/git/swp-report/iMX6_Platform_SDK/output/mx6dq/lib/libsdk.a(ipu_common.o)
                                                  /home/leon/git/swp-report/iMX6_Platform_SDK/output/mx6dq/lib/libsdk.a(ipu_vdi.o)
ipu_write_field                                   /home/leon/git/swp-report/iMX6_Platform_SDK/output/mx6dq/lib/libsdk.a(ipu_common.o)
                                                  /home/leon/git/swp-report/iMX6_Platform_SDK/output/mx6dq/lib/libsdk.a(ipu_vdi.o)
                                                  /home/leon/git/swp-report/iMX6_Platform_SDK/output/mx6dq/lib/libsdk.a(ipu_idmac.o)
                                                  /home/leon/git/swp-report/iMX6_Platform_SDK/output/mx6dq/lib/libsdk.a(ipu_ic.o)
                                                  /home/leon/git/swp-report/iMX6_Platform_SDK/output/mx6dq/lib/libsdk.a(ipu_dp.o)
                                                  /home/leon/git/swp-report/iMX6_Platform_SDK/output/mx6dq/lib/libsdk.a(ipu_dmfc.o)
                                                  /home/leon/git/swp-report/iMX6_Platform_SDK/output/mx6dq/lib/libsdk.a(ipu_di.o)
                                                  /home/leon/git/swp-report/iMX6_Platform_SDK/output/mx6dq/lib/libsdk.a(ipu_dc.o)
                                                  /home/leon/git/swp-report/iMX6_Platform_SDK/output/mx6dq/lib/libsdk.a(ipu_csi.o)
isColorSpaceConversion                            /home/leon/git/swp-report/iMX6_Platform_SDK/output/mx6dq/lib/libsdk.a(hdmi_common.o)
                                                  /home/leon/git/swp-report/iMX6_Platform_SDK/output/mx6dq/lib/libsdk.a(hdmi_tx.o)
isColorSpaceDecimation                            /home/leon/git/swp-report/iMX6_Platform_SDK/output/mx6dq/lib/libsdk.a(hdmi_common.o)
                                                  /home/leon/git/swp-report/iMX6_Platform_SDK/output/mx6dq/lib/libsdk.a(hdmi_tx.o)
isColorSpaceInterpolation                         /home/leon/git/swp-report/iMX6_Platform_SDK/output/mx6dq/lib/libsdk.a(hdmi_common.o)
                                                  /home/leon/git/swp-report/iMX6_Platform_SDK/output/mx6dq/lib/libsdk.a(hdmi_tx.o)
isPixelRepetition                                 /home/leon/git/swp-report/iMX6_Platform_SDK/output/mx6dq/lib/libsdk.a(hdmi_common.o)
isTestDone                                        /home/leon/git/swp-report/iMX6_Platform_SDK/output/mx6dq/sdk_unit_test/smart_device_rev_c/libsdk_unit_test.a(multicore_test.o)
is_color_supported                                /home/leon/git/swp-report/iMX6_Platform_SDK/output/mx6dq/lib/libsdk.a(text_color.o)
is_input_char                                     /home/leon/git/swp-report/iMX6_Platform_SDK/output/mx6dq/lib/libsdk.a(system_util.o)
                                                  /home/leon/git/swp-report/iMX6_Platform_SDK/output/mx6dq/sdk_unit_test/smart_device_rev_c/libsdk_unit_test.a(enet_test.o)
                                                  /home/leon/git/swp-report/iMX6_Platform_SDK/output/mx6dq/sdk_unit_test/smart_device_rev_c/libsdk_unit_test.a(sensor_capture.o)
jump_to_sdp                                       /home/leon/git/swp-report/iMX6_Platform_SDK/output/mx6dq/lib/libsdk.a(system_util.o)
k_gpio_mux_registers                              /home/leon/git/swp-report/iMX6_Platform_SDK/output/mx6dq/lib/libsdk.a(imx6dq_gpio_map.o)
                                                  /home/leon/git/swp-report/iMX6_Platform_SDK/output/mx6dq/lib/libsdk.a(gpio.o)
k_mainMenu                                        /home/leon/git/swp-report/iMX6_Platform_SDK/output/mx6dq/sdk_unit_test/smart_device_rev_c/obj/apps/sdk_unit_test/src/all_test.o
k_menuItems                                       /home/leon/git/swp-report/iMX6_Platform_SDK/output/mx6dq/sdk_unit_test/smart_device_rev_c/obj/apps/sdk_unit_test/src/all_test.o
k_sdk_copyright                                   /home/leon/git/swp-report/iMX6_Platform_SDK/output/mx6dq/lib/libsdk.a(sdk_version.o)
                                                  /home/leon/git/swp-report/iMX6_Platform_SDK/output/mx6dq/sdk_unit_test/smart_device_rev_c/obj/apps/common/print_version.o
k_sdk_version                                     /home/leon/git/swp-report/iMX6_Platform_SDK/output/mx6dq/lib/libsdk.a(sdk_version.o)
                                                  /home/leon/git/swp-report/iMX6_Platform_SDK/output/mx6dq/sdk_unit_test/smart_device_rev_c/obj/apps/common/print_version.o
keypad_test                                       /home/leon/git/swp-report/iMX6_Platform_SDK/output/mx6dq/sdk_unit_test/smart_device_rev_c/libsdk_unit_test.a(keypad_test.o)
                                                  /home/leon/git/swp-report/iMX6_Platform_SDK/output/mx6dq/sdk_unit_test/smart_device_rev_c/obj/apps/sdk_unit_test/src/all_test.o
kpp_close                                         /home/leon/git/swp-report/iMX6_Platform_SDK/output/mx6dq/lib/libsdk.a(keypad_port.o)
                                                  /home/leon/git/swp-report/iMX6_Platform_SDK/output/mx6dq/sdk_unit_test/smart_device_rev_c/libsdk_unit_test.a(keypad_test.o)
kpp_get_keypad_state                              /home/leon/git/swp-report/iMX6_Platform_SDK/output/mx6dq/lib/libsdk.a(keypad_port.o)
                                                  /home/leon/git/swp-report/iMX6_Platform_SDK/output/mx6dq/sdk_unit_test/smart_device_rev_c/libsdk_unit_test.a(keypad_test.o)
kpp_interrupt_routine                             /home/leon/git/swp-report/iMX6_Platform_SDK/output/mx6dq/lib/libsdk.a(keypad_port.o)
kpp_iomux_config                                  /home/leon/git/swp-report/iMX6_Platform_SDK/output/mx6dq/lib/libboard_smart_device_rev_c.a(iomux_config.o)
                                                  /home/leon/git/swp-report/iMX6_Platform_SDK/output/mx6dq/lib/libsdk.a(keypad_port.o)
kpp_open                                          /home/leon/git/swp-report/iMX6_Platform_SDK/output/mx6dq/lib/libsdk.a(keypad_port.o)
                                                  /home/leon/git/swp-report/iMX6_Platform_SDK/output/mx6dq/sdk_unit_test/smart_device_rev_c/libsdk_unit_test.a(keypad_test.o)
kpp_scan_matrix                                   /home/leon/git/swp-report/iMX6_Platform_SDK/output/mx6dq/lib/libsdk.a(keypad_port.o)
kpp_setup_interrupt                               /home/leon/git/swp-report/iMX6_Platform_SDK/output/mx6dq/lib/libsdk.a(keypad_port.o)
kpp_wait_for_release_state                        /home/leon/git/swp-report/iMX6_Platform_SDK/output/mx6dq/lib/libsdk.a(keypad_port.o)
                                                  /home/leon/git/swp-report/iMX6_Platform_SDK/output/mx6dq/sdk_unit_test/smart_device_rev_c/libsdk_unit_test.a(keypad_test.o)
ldb_clock_config                                  /home/leon/git/swp-report/iMX6_Platform_SDK/output/mx6dq/lib/libboard_smart_device_rev_c.a(board_display.o)
                                                  /home/leon/git/swp-report/iMX6_Platform_SDK/output/mx6dq/lib/libsdk.a(ips_disp_panel.o)
ldb_config                                        /home/leon/git/swp-report/iMX6_Platform_SDK/output/mx6dq/lib/libsdk.a(ldb.o)
                                                  /home/leon/git/swp-report/iMX6_Platform_SDK/output/mx6dq/lib/libsdk.a(ips_disp_panel.o)
ldb_iomux_config                                  /home/leon/git/swp-report/iMX6_Platform_SDK/output/mx6dq/lib/libboard_smart_device_rev_c.a(iomux_config.o)
                                                  /home/leon/git/swp-report/iMX6_Platform_SDK/output/mx6dq/lib/libsdk.a(ips_disp_panel.o)
ldb_set_vs_polarity                               /home/leon/git/swp-report/iMX6_Platform_SDK/output/mx6dq/lib/libsdk.a(ldb.o)
list_panel                                        /home/leon/git/swp-report/iMX6_Platform_SDK/output/mx6dq/lib/libsdk.a(ips_disp_panel.o)
load_centralized_image                            /home/leon/git/swp-report/iMX6_Platform_SDK/output/mx6dq/sdk_unit_test/smart_device_rev_c/libsdk_unit_test.a(ipu_image.o)
                                                  /home/leon/git/swp-report/iMX6_Platform_SDK/output/mx6dq/sdk_unit_test/smart_device_rev_c/libsdk_unit_test.a(ips_rotate.o)
                                                  /home/leon/git/swp-report/iMX6_Platform_SDK/output/mx6dq/sdk_unit_test/smart_device_rev_c/libsdk_unit_test.a(ips_combiner.o)
                                                  /home/leon/git/swp-report/iMX6_Platform_SDK/output/mx6dq/sdk_unit_test/smart_device_rev_c/libsdk_unit_test.a(ips_display.o)
load_foreground_image                             /home/leon/git/swp-report/iMX6_Platform_SDK/output/mx6dq/sdk_unit_test/smart_device_rev_c/libsdk_unit_test.a(ipu_image.o)
                                                  /home/leon/git/swp-report/iMX6_Platform_SDK/output/mx6dq/sdk_unit_test/smart_device_rev_c/libsdk_unit_test.a(ips_combiner.o)
load_horiz_image                                  /home/leon/git/swp-report/iMX6_Platform_SDK/output/mx6dq/sdk_unit_test/smart_device_rev_c/libsdk_unit_test.a(ipu_image.o)
                                                  /home/leon/git/swp-report/iMX6_Platform_SDK/output/mx6dq/sdk_unit_test/smart_device_rev_c/libsdk_unit_test.a(ips_csc.o)
load_vert_image                                   /home/leon/git/swp-report/iMX6_Platform_SDK/output/mx6dq/sdk_unit_test/smart_device_rev_c/libsdk_unit_test.a(ipu_image.o)
localeconv                                        /home/leon/riotboard/arm-2012.09/bin/../arm-none-eabi/lib//libc.a(lib_a-locale.o)
lvds_power_on                                     /home/leon/git/swp-report/iMX6_Platform_SDK/output/mx6dq/lib/libboard_smart_device_rev_c.a(board_display.o)
                                                  /home/leon/git/swp-report/iMX6_Platform_SDK/output/mx6dq/lib/libsdk.a(ips_disp_panel.o)
main                                              /home/leon/git/swp-report/iMX6_Platform_SDK/output/mx6dq/sdk_unit_test/smart_device_rev_c/obj/apps/sdk_unit_test/src/unit_test_main.o
                                                  /home/leon/git/swp-report/iMX6_Platform_SDK/output/mx6dq/lib/libsdk.a(startup.o)
malloc                                            /home/leon/riotboard/arm-2012.09/bin/../arm-none-eabi/lib//libc.a(lib_a-malloc.o)
                                                  /home/leon/riotboard/arm-2012.09/bin/../arm-none-eabi/lib//libstdc++.a(eh_alloc.o)
                                                  /home/leon/git/swp-report/iMX6_Platform_SDK/output/mx6dq/lib/libsdk.a(usbh_drv.o)
                                                  /home/leon/git/swp-report/iMX6_Platform_SDK/output/mx6dq/lib/libsdk.a(usbd_drv.o)
                                                  /home/leon/git/swp-report/iMX6_Platform_SDK/output/mx6dq/sdk_unit_test/smart_device_rev_c/libsdk_unit_test.a(usb0_host_test.o)
                                                  /home/leon/git/swp-report/iMX6_Platform_SDK/output/mx6dq/sdk_unit_test/smart_device_rev_c/libsdk_unit_test.a(usb0_device_mouse_test.o)
                                                  /home/leon/git/swp-report/iMX6_Platform_SDK/output/mx6dq/sdk_unit_test/smart_device_rev_c/libsdk_unit_test.a(audio_test.o)
                                                  /home/leon/git/swp-report/iMX6_Platform_SDK/output/mx6dq/lib/libsdk.a(system_util.o)
max7310_i2c_req_array                             /home/leon/git/swp-report/iMX6_Platform_SDK/output/mx6dq/lib/libboard_smart_device_rev_c.a(board_io_expanders.o)
                                                  /home/leon/git/swp-report/iMX6_Platform_SDK/output/mx6dq/lib/libsdk.a(max7310.o)
max7310_init                                      /home/leon/git/swp-report/iMX6_Platform_SDK/output/mx6dq/lib/libsdk.a(max7310.o)
max7310_reg_read                                  /home/leon/git/swp-report/iMX6_Platform_SDK/output/mx6dq/lib/libsdk.a(max7310.o)
max7310_reg_write                                 /home/leon/git/swp-report/iMX6_Platform_SDK/output/mx6dq/lib/libsdk.a(max7310.o)
max7310_set_gpio_output                           /home/leon/git/swp-report/iMX6_Platform_SDK/output/mx6dq/lib/libsdk.a(max7310.o)
                                                  /home/leon/git/swp-report/iMX6_Platform_SDK/output/mx6dq/lib/libboard_smart_device_rev_c.a(board_sata.o)
mem_2_mem_test                                    /home/leon/git/swp-report/iMX6_Platform_SDK/output/mx6dq/sdk_unit_test/smart_device_rev_c/libsdk_unit_test.a(mem_2_mem.o)
                                                  /home/leon/git/swp-report/iMX6_Platform_SDK/output/mx6dq/sdk_unit_test/smart_device_rev_c/libsdk_unit_test.a(sdma_test.o)
memchr                                            /home/leon/riotboard/arm-2012.09/bin/../arm-none-eabi/lib//libc.a(lib_a-memchr.o)
                                                  /home/leon/riotboard/arm-2012.09/bin/../arm-none-eabi/lib//libc.a(lib_a-svfiprintf.o)
                                                  /home/leon/riotboard/arm-2012.09/bin/../arm-none-eabi/lib//libc.a(lib_a-vfprintf.o)
                                                  /home/leon/riotboard/arm-2012.09/bin/../arm-none-eabi/lib//libc.a(lib_a-vfiprintf.o)
                                                  /home/leon/riotboard/arm-2012.09/bin/../arm-none-eabi/lib//libc.a(lib_a-svfprintf.o)
                                                  /home/leon/riotboard/arm-2012.09/bin/../arm-none-eabi/lib//libc.a(lib_a-fvwrite.o)
memcmp                                            /home/leon/riotboard/arm-2012.09/bin/../arm-none-eabi/lib//libc.a(lib_a-memcmp.o)
                                                  /home/leon/riotboard/arm-2012.09/bin/../arm-none-eabi/lib//libstdc++.a(cp-demangle.o)
memcpy                                            /home/leon/riotboard/arm-2012.09/bin/../arm-none-eabi/lib//libc.a(lib_a-memcpy.o)
                                                  /home/leon/riotboard/arm-2012.09/bin/../lib/gcc/arm-none-eabi/4.7.2//libgcc.a(unwind-arm.o)
                                                  /home/leon/riotboard/arm-2012.09/bin/../arm-none-eabi/lib//libstdc++.a(cp-demangle.o)
                                                  /home/leon/git/swp-report/iMX6_Platform_SDK/output/mx6dq/lib/libsdk.a(usbd_drv.o)
                                                  /home/leon/git/swp-report/iMX6_Platform_SDK/output/mx6dq/lib/libsdk.a(sata.o)
                                                  /home/leon/git/swp-report/iMX6_Platform_SDK/output/mx6dq/lib/libsdk.a(keypad_port.o)
                                                  /home/leon/git/swp-report/iMX6_Platform_SDK/output/mx6dq/lib/libsdk.a(ipu_common.o)
                                                  /home/leon/git/swp-report/iMX6_Platform_SDK/output/mx6dq/lib/libsdk.a(enet_drv.o)
                                                  /home/leon/riotboard/arm-2012.09/bin/../arm-none-eabi/lib//libc.a(lib_a-svfiprintf.o)
                                                  /home/leon/riotboard/arm-2012.09/bin/../arm-none-eabi/lib//libc.a(lib_a-mprec.o)
                                                  /home/leon/riotboard/arm-2012.09/bin/../arm-none-eabi/lib//libc.a(lib_a-dtoa.o)
                                                  /home/leon/riotboard/arm-2012.09/bin/../arm-none-eabi/lib//libc.a(lib_a-fvwrite.o)
                                                  /home/leon/git/swp-report/iMX6_Platform_SDK/output/mx6dq/sdk_unit_test/smart_device_rev_c/libsdk_unit_test.a(usb0_device_mouse_test.o)
                                                  /home/leon/git/swp-report/iMX6_Platform_SDK/output/mx6dq/sdk_unit_test/smart_device_rev_c/libsdk_unit_test.a(ips_rotate.o)
                                                  /home/leon/git/swp-report/iMX6_Platform_SDK/output/mx6dq/sdk_unit_test/smart_device_rev_c/libsdk_unit_test.a(ips_resize.o)
                                                  /home/leon/git/swp-report/iMX6_Platform_SDK/output/mx6dq/sdk_unit_test/smart_device_rev_c/libsdk_unit_test.a(ips_csc.o)
                                                  /home/leon/git/swp-report/iMX6_Platform_SDK/output/mx6dq/sdk_unit_test/smart_device_rev_c/libsdk_unit_test.a(pwm_output.o)
                                                  /home/leon/git/swp-report/iMX6_Platform_SDK/output/mx6dq/sdk_unit_test/smart_device_rev_c/libsdk_unit_test.a(enet_test.o)
                                                  /home/leon/git/swp-report/iMX6_Platform_SDK/output/mx6dq/sdk_unit_test/smart_device_rev_c/libsdk_unit_test.a(ipu_image.o)
                                                  /home/leon/git/swp-report/iMX6_Platform_SDK/output/mx6dq/lib/libsdk.a(menu.o)
memcpy_perf_record                                /home/leon/git/swp-report/iMX6_Platform_SDK/output/mx6dq/sdk_unit_test/smart_device_rev_c/libsdk_unit_test.a(cpu_wp_test.o)
memmove                                           /home/leon/riotboard/arm-2012.09/bin/../arm-none-eabi/lib//libc.a(lib_a-memmove.o)
                                                  /home/leon/riotboard/arm-2012.09/bin/../arm-none-eabi/lib//libc.a(lib_a-svfiprintf.o)
                                                  /home/leon/riotboard/arm-2012.09/bin/../arm-none-eabi/lib//libc.a(lib_a-reallocr.o)
                                                  /home/leon/riotboard/arm-2012.09/bin/../arm-none-eabi/lib//libc.a(lib_a-fvwrite.o)
memset                                            /home/leon/riotboard/arm-2012.09/bin/../arm-none-eabi/lib//libc.a(lib_a-memset.o)
                                                  /home/leon/riotboard/arm-2012.09/bin/../arm-none-eabi/lib//libstdc++.a(eh_alloc.o)
                                                  /home/leon/git/swp-report/iMX6_Platform_SDK/output/mx6dq/lib/libsdk.a(sata.o)
                                                  /home/leon/git/swp-report/iMX6_Platform_SDK/output/mx6dq/lib/libsdk.a(pmu_driver.o)
                                                  /home/leon/git/swp-report/iMX6_Platform_SDK/output/mx6dq/lib/libsdk.a(keypad_port.o)
                                                  /home/leon/git/swp-report/iMX6_Platform_SDK/output/mx6dq/lib/libsdk.a(ipu_vdi.o)
                                                  /home/leon/git/swp-report/iMX6_Platform_SDK/output/mx6dq/lib/libsdk.a(ipu_idmac.o)
                                                  /home/leon/git/swp-report/iMX6_Platform_SDK/output/mx6dq/lib/libsdk.a(ipu_di.o)
                                                  /home/leon/git/swp-report/iMX6_Platform_SDK/output/mx6dq/lib/libsdk.a(ipu_common.o)
                                                  /home/leon/git/swp-report/iMX6_Platform_SDK/output/mx6dq/lib/libsdk.a(mma8451.o)
                                                  /home/leon/riotboard/arm-2012.09/bin/../arm-none-eabi/lib//libc.a(lib_a-callocr.o)
                                                  /home/leon/riotboard/arm-2012.09/bin/../arm-none-eabi/lib//libc.a(lib_a-findfp.o)
                                                  /home/leon/git/swp-report/iMX6_Platform_SDK/output/mx6dq/sdk_unit_test/smart_device_rev_c/libsdk_unit_test.a(spi_nor_numonyx.o)
                                                  /home/leon/git/swp-report/iMX6_Platform_SDK/output/mx6dq/sdk_unit_test/smart_device_rev_c/libsdk_unit_test.a(ips_rotate.o)
                                                  /home/leon/git/swp-report/iMX6_Platform_SDK/output/mx6dq/sdk_unit_test/smart_device_rev_c/libsdk_unit_test.a(ips_resize.o)
                                                  /home/leon/git/swp-report/iMX6_Platform_SDK/output/mx6dq/sdk_unit_test/smart_device_rev_c/libsdk_unit_test.a(ips_csc.o)
                                                  /home/leon/git/swp-report/iMX6_Platform_SDK/output/mx6dq/sdk_unit_test/smart_device_rev_c/libsdk_unit_test.a(mem_2_mem.o)
                                                  /home/leon/git/swp-report/iMX6_Platform_SDK/output/mx6dq/sdk_unit_test/smart_device_rev_c/libsdk_unit_test.a(sata_test.o)
                                                  /home/leon/git/swp-report/iMX6_Platform_SDK/output/mx6dq/sdk_unit_test/smart_device_rev_c/libsdk_unit_test.a(accelerometer_test.o)
                                                  /home/leon/git/swp-report/iMX6_Platform_SDK/output/mx6dq/sdk_unit_test/smart_device_rev_c/libsdk_unit_test.a(spi_test.o)
                                                  /home/leon/git/swp-report/iMX6_Platform_SDK/output/mx6dq/sdk_unit_test/smart_device_rev_c/libsdk_unit_test.a(enet_test.o)
                                                  /home/leon/git/swp-report/iMX6_Platform_SDK/output/mx6dq/sdk_unit_test/smart_device_rev_c/libsdk_unit_test.a(ipu_image.o)
                                                  /home/leon/git/swp-report/iMX6_Platform_SDK/output/mx6dq/sdk_unit_test/smart_device_rev_c/libsdk_unit_test.a(ips_display.o)
                                                  /home/leon/git/swp-report/iMX6_Platform_SDK/output/mx6dq/sdk_unit_test/smart_device_rev_c/libsdk_unit_test.a(hdmi_test.o)
                                                  /home/leon/git/swp-report/iMX6_Platform_SDK/output/mx6dq/sdk_unit_test/smart_device_rev_c/libsdk_unit_test.a(usdhc_test.o)
                                                  /home/leon/git/swp-report/iMX6_Platform_SDK/output/mx6dq/sdk_unit_test/smart_device_rev_c/libsdk_unit_test.a(uart_loopback.o)
                                                  /home/leon/git/swp-report/iMX6_Platform_SDK/output/mx6dq/sdk_unit_test/smart_device_rev_c/libsdk_unit_test.a(spi_lpb.o)
                                                  /home/leon/git/swp-report/iMX6_Platform_SDK/output/mx6dq/sdk_unit_test/smart_device_rev_c/libsdk_unit_test.a(imx6_i2c_device.o)
                                                  /home/leon/git/swp-report/iMX6_Platform_SDK/output/mx6dq/lib/libsdk.a(board_id.o)
                                                  /home/leon/git/swp-report/iMX6_Platform_SDK/output/mx6dq/lib/libsdk.a(menu.o)
                                                  /home/leon/git/swp-report/iMX6_Platform_SDK/output/mx6dq/sdk_unit_test/smart_device_rev_c/obj/apps/common/print_version.o
menu_append_menuitems                             /home/leon/git/swp-report/iMX6_Platform_SDK/output/mx6dq/lib/libsdk.a(menu.o)
menu_get_indent                                   /home/leon/git/swp-report/iMX6_Platform_SDK/output/mx6dq/lib/libsdk.a(menu.o)
                                                  /home/leon/git/swp-report/iMX6_Platform_SDK/output/mx6dq/lib/libsdk.a(usdhc.o)
                                                  /home/leon/git/swp-report/iMX6_Platform_SDK/output/mx6dq/sdk_unit_test/smart_device_rev_c/libsdk_unit_test.a(usdhc_test.o)
                                                  /home/leon/git/swp-report/iMX6_Platform_SDK/output/mx6dq/sdk_unit_test/smart_device_rev_c/libsdk_unit_test.a(uart_test.o)
menu_present                                      /home/leon/git/swp-report/iMX6_Platform_SDK/output/mx6dq/lib/libsdk.a(menu.o)
                                                  /home/leon/git/swp-report/iMX6_Platform_SDK/output/mx6dq/sdk_unit_test/smart_device_rev_c/obj/apps/sdk_unit_test/src/all_test.o
menu_print_menuitem                               /home/leon/git/swp-report/iMX6_Platform_SDK/output/mx6dq/lib/libsdk.a(menu.o)
menuitem_cmd_exitmenu                             /home/leon/git/swp-report/iMX6_Platform_SDK/output/mx6dq/lib/libsdk.a(menu.o)
                                                  /home/leon/git/swp-report/iMX6_Platform_SDK/output/mx6dq/sdk_unit_test/smart_device_rev_c/obj/apps/sdk_unit_test/src/all_test.o
menuitem_cmd_showmenu                             /home/leon/git/swp-report/iMX6_Platform_SDK/output/mx6dq/lib/libsdk.a(menu.o)
microseconds_test                                 /home/leon/git/swp-report/iMX6_Platform_SDK/output/mx6dq/sdk_unit_test/smart_device_rev_c/libsdk_unit_test.a(timer_test.o)
                                                  /home/leon/git/swp-report/iMX6_Platform_SDK/output/mx6dq/sdk_unit_test/smart_device_rev_c/obj/apps/sdk_unit_test/src/all_test.o
mipi_backlight_en                                 /home/leon/git/swp-report/iMX6_Platform_SDK/output/mx6dq/lib/libboard_smart_device_rev_c.a(board_mipi.o)
                                                  /home/leon/git/swp-report/iMX6_Platform_SDK/output/mx6dq/lib/libsdk.a(ips_disp_panel.o)
mipi_cam_power_on                                 /home/leon/git/swp-report/iMX6_Platform_SDK/output/mx6dq/lib/libboard_smart_device_rev_c.a(board_mipi.o)
mipi_clock_set                                    /home/leon/git/swp-report/iMX6_Platform_SDK/output/mx6dq/lib/libboard_smart_device_rev_c.a(board_mipi.o)
                                                  /home/leon/git/swp-report/iMX6_Platform_SDK/output/mx6dq/lib/libsdk.a(ips_disp_panel.o)
mipi_csi2_clock_set                               /home/leon/git/swp-report/iMX6_Platform_SDK/output/mx6dq/lib/libboard_smart_device_rev_c.a(board_mipi.o)
mipi_csi_iomux_config                             /home/leon/git/swp-report/iMX6_Platform_SDK/output/mx6dq/lib/libboard_smart_device_rev_c.a(iomux_config.o)
mipi_display_reset                                /home/leon/git/swp-report/iMX6_Platform_SDK/output/mx6dq/lib/libboard_smart_device_rev_c.a(board_mipi.o)
                                                  /home/leon/git/swp-report/iMX6_Platform_SDK/output/mx6dq/lib/libsdk.a(ips_disp_panel.o)
mipi_dsi_iomux_config                             /home/leon/git/swp-report/iMX6_Platform_SDK/output/mx6dq/lib/libboard_smart_device_rev_c.a(iomux_config.o)
mipi_hsi_iomux_config                             /home/leon/git/swp-report/iMX6_Platform_SDK/output/mx6dq/lib/libboard_smart_device_rev_c.a(iomux_config.o)
mlb_iomux_config                                  /home/leon/git/swp-report/iMX6_Platform_SDK/output/mx6dq/lib/libboard_smart_device_rev_c.a(iomux_config.o)
mma8451_get_acceleration                          /home/leon/git/swp-report/iMX6_Platform_SDK/output/mx6dq/lib/libsdk.a(mma8451.o)
                                                  /home/leon/git/swp-report/iMX6_Platform_SDK/output/mx6dq/sdk_unit_test/smart_device_rev_c/libsdk_unit_test.a(accelerometer_test.o)
mma8451_init                                      /home/leon/git/swp-report/iMX6_Platform_SDK/output/mx6dq/lib/libsdk.a(mma8451.o)
                                                  /home/leon/git/swp-report/iMX6_Platform_SDK/output/mx6dq/sdk_unit_test/smart_device_rev_c/libsdk_unit_test.a(accelerometer_test.o)
mma8451_read_register                             /home/leon/git/swp-report/iMX6_Platform_SDK/output/mx6dq/lib/libsdk.a(mma8451.o)
mma8451_write_register                            /home/leon/git/swp-report/iMX6_Platform_SDK/output/mx6dq/lib/libsdk.a(mma8451.o)
mmc_init                                          /home/leon/git/swp-report/iMX6_Platform_SDK/output/mx6dq/lib/libsdk.a(usdhc_mmc.o)
                                                  /home/leon/git/swp-report/iMX6_Platform_SDK/output/mx6dq/lib/libsdk.a(usdhc.o)
mmc_sd_test                                       /home/leon/git/swp-report/iMX6_Platform_SDK/output/mx6dq/sdk_unit_test/smart_device_rev_c/libsdk_unit_test.a(usdhc_test.o)
mmc_set_boot_ack                                  /home/leon/git/swp-report/iMX6_Platform_SDK/output/mx6dq/lib/libsdk.a(usdhc_mmc.o)
                                                  /home/leon/git/swp-report/iMX6_Platform_SDK/output/mx6dq/sdk_unit_test/smart_device_rev_c/libsdk_unit_test.a(usdhc_test.o)
mmc_set_boot_bus_width                            /home/leon/git/swp-report/iMX6_Platform_SDK/output/mx6dq/lib/libsdk.a(usdhc_mmc.o)
                                                  /home/leon/git/swp-report/iMX6_Platform_SDK/output/mx6dq/sdk_unit_test/smart_device_rev_c/libsdk_unit_test.a(usdhc_test.o)
mmc_set_boot_partition                            /home/leon/git/swp-report/iMX6_Platform_SDK/output/mx6dq/lib/libsdk.a(usdhc_mmc.o)
                                                  /home/leon/git/swp-report/iMX6_Platform_SDK/output/mx6dq/sdk_unit_test/smart_device_rev_c/libsdk_unit_test.a(usdhc_test.o)
mmc_voltage_validation                            /home/leon/git/swp-report/iMX6_Platform_SDK/output/mx6dq/lib/libsdk.a(usdhc_mmc.o)
                                                  /home/leon/git/swp-report/iMX6_Platform_SDK/output/mx6dq/lib/libsdk.a(usdhc.o)
mmdc_iomux_config                                 /home/leon/git/swp-report/iMX6_Platform_SDK/output/mx6dq/lib/libboard_smart_device_rev_c.a(mmdc_iomux_config.o)
                                                  /home/leon/git/swp-report/iMX6_Platform_SDK/output/mx6dq/lib/libboard_smart_device_rev_c.a(iomux_config.o)
mmu_disable                                       /home/leon/git/swp-report/iMX6_Platform_SDK/output/mx6dq/lib/libsdk.a(mmu.o)
                                                  /home/leon/git/swp-report/iMX6_Platform_SDK/output/mx6dq/sdk_unit_test/smart_device_rev_c/libsdk_unit_test.a(cpu_wp_test.o)
mmu_enable                                        /home/leon/git/swp-report/iMX6_Platform_SDK/output/mx6dq/lib/libsdk.a(mmu.o)
mmu_init                                          /home/leon/git/swp-report/iMX6_Platform_SDK/output/mx6dq/lib/libsdk.a(mmu.o)
                                                  /home/leon/git/swp-report/iMX6_Platform_SDK/output/mx6dq/sdk_unit_test/smart_device_rev_c/obj/apps/common/platform_init.o
mmu_map_l1_range                                  /home/leon/git/swp-report/iMX6_Platform_SDK/output/mx6dq/lib/libsdk.a(mmu.o)
                                                  /home/leon/git/swp-report/iMX6_Platform_SDK/output/mx6dq/sdk_unit_test/smart_device_rev_c/obj/apps/common/platform_init.o
mmu_virtual_to_physical                           /home/leon/git/swp-report/iMX6_Platform_SDK/output/mx6dq/lib/libsdk.a(mmu.o)
modff                                             /home/leon/riotboard/arm-2012.09/bin/../arm-none-eabi/lib//libm.a(lib_a-sf_modf.o)
                                                  /home/leon/git/swp-report/iMX6_Platform_SDK/output/mx6dq/sdk_unit_test/smart_device_rev_c/libsdk_unit_test.a(accelerometer_test.o)
multicore_entry                                   /home/leon/git/swp-report/iMX6_Platform_SDK/output/mx6dq/sdk_unit_test/smart_device_rev_c/libsdk_unit_test.a(multicore_test.o)
multicore_test                                    /home/leon/git/swp-report/iMX6_Platform_SDK/output/mx6dq/sdk_unit_test/smart_device_rev_c/libsdk_unit_test.a(multicore_test.o)
                                                  /home/leon/git/swp-report/iMX6_Platform_SDK/output/mx6dq/sdk_unit_test/smart_device_rev_c/obj/apps/sdk_unit_test/src/all_test.o
multiple_key_press_test                           /home/leon/git/swp-report/iMX6_Platform_SDK/output/mx6dq/sdk_unit_test/smart_device_rev_c/libsdk_unit_test.a(keypad_test.o)
my_memcpy                                         /home/leon/git/swp-report/iMX6_Platform_SDK/output/mx6dq/sdk_unit_test/smart_device_rev_c/libsdk_unit_test.a(cpu_wp_test.o)
mybkpt                                            /home/leon/git/swp-report/iMX6_Platform_SDK/output/mx6dq/lib/libsdk.a(system_util.o)
need_csc                                          /home/leon/git/swp-report/iMX6_Platform_SDK/output/mx6dq/lib/libsdk.a(ipu_common.o)
num_of_panels                                     /home/leon/git/swp-report/iMX6_Platform_SDK/output/mx6dq/lib/libsdk.a(ips_disp_panel.o)
ocotp_fuse_blow_row                               /home/leon/git/swp-report/iMX6_Platform_SDK/output/mx6dq/lib/libsdk.a(ocotp.o)
                                                  /home/leon/git/swp-report/iMX6_Platform_SDK/output/mx6dq/sdk_unit_test/smart_device_rev_c/libsdk_unit_test.a(ocotp_test.o)
ocotp_reload_otp_shadow_registers                 /home/leon/git/swp-report/iMX6_Platform_SDK/output/mx6dq/lib/libsdk.a(ocotp.o)
ocotp_sense_fuse                                  /home/leon/git/swp-report/iMX6_Platform_SDK/output/mx6dq/lib/libsdk.a(ocotp.o)
                                                  /home/leon/git/swp-report/iMX6_Platform_SDK/output/mx6dq/sdk_unit_test/smart_device_rev_c/libsdk_unit_test.a(ocotp_test.o)
ocotp_test                                        /home/leon/git/swp-report/iMX6_Platform_SDK/output/mx6dq/sdk_unit_test/smart_device_rev_c/libsdk_unit_test.a(ocotp_test.o)
                                                  /home/leon/git/swp-report/iMX6_Platform_SDK/output/mx6dq/sdk_unit_test/smart_device_rev_c/obj/apps/sdk_unit_test/src/all_test.o
one_time_tick_callback                            /home/leon/git/swp-report/iMX6_Platform_SDK/output/mx6dq/sdk_unit_test/smart_device_rev_c/libsdk_unit_test.a(snvs_rtc_test.o)
one_time_timer_test                               /home/leon/git/swp-report/iMX6_Platform_SDK/output/mx6dq/sdk_unit_test/smart_device_rev_c/libsdk_unit_test.a(snvs_rtc_test.o)
operator delete(void*)                            /home/leon/riotboard/arm-2012.09/bin/../arm-none-eabi/lib//libstdc++.a(del_op.o)
                                                  /home/leon/riotboard/arm-2012.09/bin/../arm-none-eabi/lib//libstdc++.a(tinfo.o)
                                                  /home/leon/riotboard/arm-2012.09/bin/../arm-none-eabi/lib//libstdc++.a(class_type_info.o)
                                                  /home/leon/riotboard/arm-2012.09/bin/../arm-none-eabi/lib//libstdc++.a(si_class_type_info.o)
                                                  /home/leon/riotboard/arm-2012.09/bin/../arm-none-eabi/lib//libstdc++.a(eh_exception.o)
operator new(unsigned int, void*)                 /home/leon/git/swp-report/iMX6_Platform_SDK/output/mx6dq/lib/libsdk.a(pmu_driver.o)
ov5642_strobe_on                                  /home/leon/git/swp-report/iMX6_Platform_SDK/output/mx6dq/lib/libsdk.a(smd_sensor.o)
over_temp_callback                                /home/leon/git/swp-report/iMX6_Platform_SDK/output/mx6dq/sdk_unit_test/smart_device_rev_c/libsdk_unit_test.a(tempmon_test.o)
pcie_card_pwr_setup                               /home/leon/git/swp-report/iMX6_Platform_SDK/output/mx6dq/lib/libboard_smart_device_rev_c.a(board_pcie.o)
                                                  /home/leon/git/swp-report/iMX6_Platform_SDK/output/mx6dq/sdk_unit_test/smart_device_rev_c/libsdk_unit_test.a(pcie_test_rc.o)
pcie_card_rst                                     /home/leon/git/swp-report/iMX6_Platform_SDK/output/mx6dq/lib/libboard_smart_device_rev_c.a(board_pcie.o)
                                                  /home/leon/git/swp-report/iMX6_Platform_SDK/output/mx6dq/sdk_unit_test/smart_device_rev_c/libsdk_unit_test.a(pcie_test_rc.o)
pcie_cfg_ep_bar                                   /home/leon/git/swp-report/iMX6_Platform_SDK/output/mx6dq/lib/libsdk.a(pcie_prot.o)
                                                  /home/leon/git/swp-report/iMX6_Platform_SDK/output/mx6dq/sdk_unit_test/smart_device_rev_c/libsdk_unit_test.a(pcie_test_rc.o)
pcie_clk_setup                                    /home/leon/git/swp-report/iMX6_Platform_SDK/output/mx6dq/lib/libboard_smart_device_rev_c.a(board_pcie.o)
                                                  /home/leon/git/swp-report/iMX6_Platform_SDK/output/mx6dq/sdk_unit_test/smart_device_rev_c/libsdk_unit_test.a(pcie_test_rc.o)
pcie_dump_cfg_header                              /home/leon/git/swp-report/iMX6_Platform_SDK/output/mx6dq/lib/libsdk.a(pcie_prot.o)
                                                  /home/leon/git/swp-report/iMX6_Platform_SDK/output/mx6dq/sdk_unit_test/smart_device_rev_c/libsdk_unit_test.a(pcie_test_rc.o)
pcie_enable_extrn_100mhz_clk                      /home/leon/git/swp-report/iMX6_Platform_SDK/output/mx6dq/lib/libboard_smart_device_rev_c.a(board_pcie.o)
                                                  /home/leon/git/swp-report/iMX6_Platform_SDK/output/mx6dq/sdk_unit_test/smart_device_rev_c/libsdk_unit_test.a(pcie_test_rc.o)
pcie_enable_extrn_125mhz_clk                      /home/leon/git/swp-report/iMX6_Platform_SDK/output/mx6dq/lib/libboard_smart_device_rev_c.a(board_pcie.o)
pcie_enum_resources                               /home/leon/git/swp-report/iMX6_Platform_SDK/output/mx6dq/lib/libsdk.a(pcie_prot.o)
                                                  /home/leon/git/swp-report/iMX6_Platform_SDK/output/mx6dq/sdk_unit_test/smart_device_rev_c/libsdk_unit_test.a(pcie_test_rc.o)
pcie_func_card_pwr_setup                          /home/leon/git/swp-report/iMX6_Platform_SDK/output/mx6dq/lib/libsdk.a(pcie.o)
                                                  /home/leon/git/swp-report/iMX6_Platform_SDK/output/mx6dq/sdk_unit_test/smart_device_rev_c/libsdk_unit_test.a(pcie_test_rc.o)
pcie_func_card_ref_clk_setup                      /home/leon/git/swp-report/iMX6_Platform_SDK/output/mx6dq/lib/libsdk.a(pcie.o)
                                                  /home/leon/git/swp-report/iMX6_Platform_SDK/output/mx6dq/sdk_unit_test/smart_device_rev_c/libsdk_unit_test.a(pcie_test_rc.o)
pcie_func_card_rst                                /home/leon/git/swp-report/iMX6_Platform_SDK/output/mx6dq/lib/libsdk.a(pcie.o)
                                                  /home/leon/git/swp-report/iMX6_Platform_SDK/output/mx6dq/sdk_unit_test/smart_device_rev_c/libsdk_unit_test.a(pcie_test_rc.o)
pcie_func_clk_setup                               /home/leon/git/swp-report/iMX6_Platform_SDK/output/mx6dq/lib/libsdk.a(pcie.o)
                                                  /home/leon/git/swp-report/iMX6_Platform_SDK/output/mx6dq/sdk_unit_test/smart_device_rev_c/libsdk_unit_test.a(pcie_test_rc.o)
pcie_func_pwr_setup                               /home/leon/git/swp-report/iMX6_Platform_SDK/output/mx6dq/lib/libsdk.a(pcie.o)
pcie_init                                         /home/leon/git/swp-report/iMX6_Platform_SDK/output/mx6dq/lib/libsdk.a(pcie.o)
                                                  /home/leon/git/swp-report/iMX6_Platform_SDK/output/mx6dq/sdk_unit_test/smart_device_rev_c/libsdk_unit_test.a(pcie_test_rc.o)
pcie_iomux_config                                 /home/leon/git/swp-report/iMX6_Platform_SDK/output/mx6dq/lib/libboard_smart_device_rev_c.a(iomux_config.o)
pcie_map_space                                    /home/leon/git/swp-report/iMX6_Platform_SDK/output/mx6dq/lib/libsdk.a(pcie.o)
                                                  /home/leon/git/swp-report/iMX6_Platform_SDK/output/mx6dq/sdk_unit_test/smart_device_rev_c/libsdk_unit_test.a(pcie_test_rc.o)
pcie_phy_cr_read                                  /home/leon/git/swp-report/iMX6_Platform_SDK/output/mx6dq/lib/libsdk.a(pcie_phy.o)
                                                  /home/leon/git/swp-report/iMX6_Platform_SDK/output/mx6dq/lib/libsdk.a(pcie.o)
pcie_phy_cr_write                                 /home/leon/git/swp-report/iMX6_Platform_SDK/output/mx6dq/lib/libsdk.a(pcie_phy.o)
                                                  /home/leon/git/swp-report/iMX6_Platform_SDK/output/mx6dq/lib/libsdk.a(pcie.o)
pcie_test                                         /home/leon/git/swp-report/iMX6_Platform_SDK/output/mx6dq/sdk_unit_test/smart_device_rev_c/libsdk_unit_test.a(pcie_test_rc.o)
                                                  /home/leon/git/swp-report/iMX6_Platform_SDK/output/mx6dq/sdk_unit_test/smart_device_rev_c/obj/apps/sdk_unit_test/src/all_test.o
pcm_music                                         /home/leon/git/swp-report/iMX6_Platform_SDK/output/mx6dq/sdk_unit_test/smart_device_rev_c/libsdk_unit_test.a(audio_test.o)
pcm_para                                          /home/leon/git/swp-report/iMX6_Platform_SDK/output/mx6dq/sdk_unit_test/smart_device_rev_c/libsdk_unit_test.a(audio_test.o)
periodic_tick_callback                            /home/leon/git/swp-report/iMX6_Platform_SDK/output/mx6dq/sdk_unit_test/smart_device_rev_c/libsdk_unit_test.a(snvs_rtc_test.o)
periodic_timer_test                               /home/leon/git/swp-report/iMX6_Platform_SDK/output/mx6dq/sdk_unit_test/smart_device_rev_c/libsdk_unit_test.a(snvs_rtc_test.o)
platform_init                                     /home/leon/git/swp-report/iMX6_Platform_SDK/output/mx6dq/sdk_unit_test/smart_device_rev_c/obj/apps/common/platform_init.o
                                                  /home/leon/git/swp-report/iMX6_Platform_SDK/output/mx6dq/sdk_unit_test/smart_device_rev_c/obj/apps/sdk_unit_test/src/unit_test_main.o
pmu::AnalogRegulator::AnalogRegulator(_hw_pmu_reg_1p1 volatile&) /home/leon/git/swp-report/iMX6_Platform_SDK/output/mx6dq/lib/libsdk.a(pmu_driver.o)
pmu::AnalogRegulator::AnalogRegulator(_hw_pmu_reg_1p1 volatile&) /home/leon/git/swp-report/iMX6_Platform_SDK/output/mx6dq/lib/libsdk.a(pmu_driver.o)
pmu::AnalogRegulator::AnalogRegulator<_hw_pmu_reg_2p5>(_hw_pmu_reg_2p5 volatile&) /home/leon/git/swp-report/iMX6_Platform_SDK/output/mx6dq/lib/libsdk.a(pmu_driver.o)
pmu::AnalogRegulator::AnalogRegulator<_hw_pmu_reg_2p5>(_hw_pmu_reg_2p5 volatile&) /home/leon/git/swp-report/iMX6_Platform_SDK/output/mx6dq/lib/libsdk.a(pmu_driver.o)
pmu::AnalogRegulator::AnalogRegulator<_hw_pmu_reg_3p0>(_hw_pmu_reg_3p0 volatile&) /home/leon/git/swp-report/iMX6_Platform_SDK/output/mx6dq/lib/libsdk.a(pmu_driver.o)
pmu::AnalogRegulator::AnalogRegulator<_hw_pmu_reg_3p0>(_hw_pmu_reg_3p0 volatile&) /home/leon/git/swp-report/iMX6_Platform_SDK/output/mx6dq/lib/libsdk.a(pmu_driver.o)
pmu::AnalogRegulator::getBrownoutMillivolts() const /home/leon/git/swp-report/iMX6_Platform_SDK/output/mx6dq/lib/libsdk.a(pmu_driver.o)
pmu::AnalogRegulator::getOutputMillivolts() const /home/leon/git/swp-report/iMX6_Platform_SDK/output/mx6dq/lib/libsdk.a(pmu_driver.o)
pmu::AnalogRegulator::getProperty(_pmu_regulator_properties, void*) /home/leon/git/swp-report/iMX6_Platform_SDK/output/mx6dq/lib/libsdk.a(pmu_driver.o)
pmu::AnalogRegulator::isBrownoutDetectEnabled() const /home/leon/git/swp-report/iMX6_Platform_SDK/output/mx6dq/lib/libsdk.a(pmu_driver.o)
pmu::AnalogRegulator::isEnabled() const           /home/leon/git/swp-report/iMX6_Platform_SDK/output/mx6dq/lib/libsdk.a(pmu_driver.o)
pmu::AnalogRegulator::setBrownoutDetectIsEnabled(bool) /home/leon/git/swp-report/iMX6_Platform_SDK/output/mx6dq/lib/libsdk.a(pmu_driver.o)
pmu::AnalogRegulator::setBrownoutMillivolts(unsigned long) /home/leon/git/swp-report/iMX6_Platform_SDK/output/mx6dq/lib/libsdk.a(pmu_driver.o)
pmu::AnalogRegulator::setIsEnabled(bool)          /home/leon/git/swp-report/iMX6_Platform_SDK/output/mx6dq/lib/libsdk.a(pmu_driver.o)
pmu::AnalogRegulator::setOutputMillivolts(unsigned long) /home/leon/git/swp-report/iMX6_Platform_SDK/output/mx6dq/lib/libsdk.a(pmu_driver.o)
pmu::AnalogRegulator::setProperty(_pmu_regulator_properties, void const*) /home/leon/git/swp-report/iMX6_Platform_SDK/output/mx6dq/lib/libsdk.a(pmu_driver.o)
pmu::DigitalRegulator::DigitalRegulator()         /home/leon/git/swp-report/iMX6_Platform_SDK/output/mx6dq/lib/libsdk.a(pmu_driver.o)
pmu::DigitalRegulator::DigitalRegulator()         /home/leon/git/swp-report/iMX6_Platform_SDK/output/mx6dq/lib/libsdk.a(pmu_driver.o)
pmu::DigitalRegulator::getBrownoutMillivolts() const /home/leon/git/swp-report/iMX6_Platform_SDK/output/mx6dq/lib/libsdk.a(pmu_driver.o)
pmu::DigitalRegulator::getOutputMillivolts() const /home/leon/git/swp-report/iMX6_Platform_SDK/output/mx6dq/lib/libsdk.a(pmu_driver.o)
pmu::DigitalRegulator::getProperty(_pmu_regulator_properties, void*) /home/leon/git/swp-report/iMX6_Platform_SDK/output/mx6dq/lib/libsdk.a(pmu_driver.o)
pmu::DigitalRegulator::isBypassed() const         /home/leon/git/swp-report/iMX6_Platform_SDK/output/mx6dq/lib/libsdk.a(pmu_driver.o)
pmu::DigitalRegulator::isEnabled() const          /home/leon/git/swp-report/iMX6_Platform_SDK/output/mx6dq/lib/libsdk.a(pmu_driver.o)
pmu::DigitalRegulator::setBrownoutMillivolts(unsigned long) /home/leon/git/swp-report/iMX6_Platform_SDK/output/mx6dq/lib/libsdk.a(pmu_driver.o)
pmu::DigitalRegulator::setIsBypassed(bool)        /home/leon/git/swp-report/iMX6_Platform_SDK/output/mx6dq/lib/libsdk.a(pmu_driver.o)
pmu::DigitalRegulator::setIsEnabled(bool)         /home/leon/git/swp-report/iMX6_Platform_SDK/output/mx6dq/lib/libsdk.a(pmu_driver.o)
pmu::DigitalRegulator::setOutputMillivolts(unsigned long) /home/leon/git/swp-report/iMX6_Platform_SDK/output/mx6dq/lib/libsdk.a(pmu_driver.o)
pmu::DigitalRegulator::setProperty(_pmu_regulator_properties, void const*) /home/leon/git/swp-report/iMX6_Platform_SDK/output/mx6dq/lib/libsdk.a(pmu_driver.o)
pmu::LDO1p1Regulator::LDO1p1Regulator()           /home/leon/git/swp-report/iMX6_Platform_SDK/output/mx6dq/lib/libsdk.a(pmu_driver.o)
pmu::LDO1p1Regulator::LDO1p1Regulator()           /home/leon/git/swp-report/iMX6_Platform_SDK/output/mx6dq/lib/libsdk.a(pmu_driver.o)
pmu::LDO1p1Regulator::getOutputMillivolts() const /home/leon/git/swp-report/iMX6_Platform_SDK/output/mx6dq/lib/libsdk.a(pmu_driver.o)
pmu::LDO1p1Regulator::getProperty(_pmu_regulator_properties, void*) /home/leon/git/swp-report/iMX6_Platform_SDK/output/mx6dq/lib/libsdk.a(pmu_driver.o)
pmu::LDO1p1Regulator::isInBrownout() const        /home/leon/git/swp-report/iMX6_Platform_SDK/output/mx6dq/lib/libsdk.a(pmu_driver.o)
pmu::LDO1p1Regulator::isOK() const                /home/leon/git/swp-report/iMX6_Platform_SDK/output/mx6dq/lib/libsdk.a(pmu_driver.o)
pmu::LDO1p1Regulator::setOutputMillivolts(unsigned long) /home/leon/git/swp-report/iMX6_Platform_SDK/output/mx6dq/lib/libsdk.a(pmu_driver.o)
pmu::LDO2p5Regulator::LDO2p5Regulator()           /home/leon/git/swp-report/iMX6_Platform_SDK/output/mx6dq/lib/libsdk.a(pmu_driver.o)
pmu::LDO2p5Regulator::LDO2p5Regulator()           /home/leon/git/swp-report/iMX6_Platform_SDK/output/mx6dq/lib/libsdk.a(pmu_driver.o)
pmu::LDO2p5Regulator::isInBrownout() const        /home/leon/git/swp-report/iMX6_Platform_SDK/output/mx6dq/lib/libsdk.a(pmu_driver.o)
pmu::LDO2p5Regulator::isOK() const                /home/leon/git/swp-report/iMX6_Platform_SDK/output/mx6dq/lib/libsdk.a(pmu_driver.o)
pmu::LDO3p0Regulator::LDO3p0Regulator()           /home/leon/git/swp-report/iMX6_Platform_SDK/output/mx6dq/lib/libsdk.a(pmu_driver.o)
pmu::LDO3p0Regulator::LDO3p0Regulator()           /home/leon/git/swp-report/iMX6_Platform_SDK/output/mx6dq/lib/libsdk.a(pmu_driver.o)
pmu::LDO3p0Regulator::getProperty(_pmu_regulator_properties, void*) /home/leon/git/swp-report/iMX6_Platform_SDK/output/mx6dq/lib/libsdk.a(pmu_driver.o)
pmu::LDO3p0Regulator::isInBrownout() const        /home/leon/git/swp-report/iMX6_Platform_SDK/output/mx6dq/lib/libsdk.a(pmu_driver.o)
pmu::LDO3p0Regulator::isOK() const                /home/leon/git/swp-report/iMX6_Platform_SDK/output/mx6dq/lib/libsdk.a(pmu_driver.o)
pmu::LDO3p0Regulator::setProperty(_pmu_regulator_properties, void const*) /home/leon/git/swp-report/iMX6_Platform_SDK/output/mx6dq/lib/libsdk.a(pmu_driver.o)
pmu::LDOARMRegulator::LDOARMRegulator()           /home/leon/git/swp-report/iMX6_Platform_SDK/output/mx6dq/lib/libsdk.a(pmu_driver.o)
pmu::LDOARMRegulator::LDOARMRegulator()           /home/leon/git/swp-report/iMX6_Platform_SDK/output/mx6dq/lib/libsdk.a(pmu_driver.o)
pmu::LDOARMRegulator::getBrownout() const         /home/leon/git/swp-report/iMX6_Platform_SDK/output/mx6dq/lib/libsdk.a(pmu_driver.o)
pmu::LDOARMRegulator::getRampRate() const         /home/leon/git/swp-report/iMX6_Platform_SDK/output/mx6dq/lib/libsdk.a(pmu_driver.o)
pmu::LDOARMRegulator::getTrigger() const          /home/leon/git/swp-report/iMX6_Platform_SDK/output/mx6dq/lib/libsdk.a(pmu_driver.o)
pmu::LDOARMRegulator::isBrownoutDetectEnabled() const /home/leon/git/swp-report/iMX6_Platform_SDK/output/mx6dq/lib/libsdk.a(pmu_driver.o)
pmu::LDOARMRegulator::isInBrownout() const        /home/leon/git/swp-report/iMX6_Platform_SDK/output/mx6dq/lib/libsdk.a(pmu_driver.o)
pmu::LDOARMRegulator::isOK() const                /home/leon/git/swp-report/iMX6_Platform_SDK/output/mx6dq/lib/libsdk.a(pmu_driver.o)
pmu::LDOARMRegulator::setBrownout(unsigned long)  /home/leon/git/swp-report/iMX6_Platform_SDK/output/mx6dq/lib/libsdk.a(pmu_driver.o)
pmu::LDOARMRegulator::setBrownoutDetectIsEnabled(bool) /home/leon/git/swp-report/iMX6_Platform_SDK/output/mx6dq/lib/libsdk.a(pmu_driver.o)
pmu::LDOARMRegulator::setRampRate(unsigned long)  /home/leon/git/swp-report/iMX6_Platform_SDK/output/mx6dq/lib/libsdk.a(pmu_driver.o)
pmu::LDOARMRegulator::setTrigger(unsigned long)   /home/leon/git/swp-report/iMX6_Platform_SDK/output/mx6dq/lib/libsdk.a(pmu_driver.o)
pmu::LDOGraphicsRegulator::LDOGraphicsRegulator() /home/leon/git/swp-report/iMX6_Platform_SDK/output/mx6dq/lib/libsdk.a(pmu_driver.o)
pmu::LDOGraphicsRegulator::LDOGraphicsRegulator() /home/leon/git/swp-report/iMX6_Platform_SDK/output/mx6dq/lib/libsdk.a(pmu_driver.o)
pmu::LDOGraphicsRegulator::getBrownout() const    /home/leon/git/swp-report/iMX6_Platform_SDK/output/mx6dq/lib/libsdk.a(pmu_driver.o)
pmu::LDOGraphicsRegulator::getRampRate() const    /home/leon/git/swp-report/iMX6_Platform_SDK/output/mx6dq/lib/libsdk.a(pmu_driver.o)
pmu::LDOGraphicsRegulator::getTrigger() const     /home/leon/git/swp-report/iMX6_Platform_SDK/output/mx6dq/lib/libsdk.a(pmu_driver.o)
pmu::LDOGraphicsRegulator::isBrownoutDetectEnabled() const /home/leon/git/swp-report/iMX6_Platform_SDK/output/mx6dq/lib/libsdk.a(pmu_driver.o)
pmu::LDOGraphicsRegulator::isInBrownout() const   /home/leon/git/swp-report/iMX6_Platform_SDK/output/mx6dq/lib/libsdk.a(pmu_driver.o)
pmu::LDOGraphicsRegulator::isOK() const           /home/leon/git/swp-report/iMX6_Platform_SDK/output/mx6dq/lib/libsdk.a(pmu_driver.o)
pmu::LDOGraphicsRegulator::setBrownout(unsigned long) /home/leon/git/swp-report/iMX6_Platform_SDK/output/mx6dq/lib/libsdk.a(pmu_driver.o)
pmu::LDOGraphicsRegulator::setBrownoutDetectIsEnabled(bool) /home/leon/git/swp-report/iMX6_Platform_SDK/output/mx6dq/lib/libsdk.a(pmu_driver.o)
pmu::LDOGraphicsRegulator::setRampRate(unsigned long) /home/leon/git/swp-report/iMX6_Platform_SDK/output/mx6dq/lib/libsdk.a(pmu_driver.o)
pmu::LDOGraphicsRegulator::setTrigger(unsigned long) /home/leon/git/swp-report/iMX6_Platform_SDK/output/mx6dq/lib/libsdk.a(pmu_driver.o)
pmu::LDOSoCRegulator::LDOSoCRegulator()           /home/leon/git/swp-report/iMX6_Platform_SDK/output/mx6dq/lib/libsdk.a(pmu_driver.o)
pmu::LDOSoCRegulator::LDOSoCRegulator()           /home/leon/git/swp-report/iMX6_Platform_SDK/output/mx6dq/lib/libsdk.a(pmu_driver.o)
pmu::LDOSoCRegulator::getBrownout() const         /home/leon/git/swp-report/iMX6_Platform_SDK/output/mx6dq/lib/libsdk.a(pmu_driver.o)
pmu::LDOSoCRegulator::getRampRate() const         /home/leon/git/swp-report/iMX6_Platform_SDK/output/mx6dq/lib/libsdk.a(pmu_driver.o)
pmu::LDOSoCRegulator::getTrigger() const          /home/leon/git/swp-report/iMX6_Platform_SDK/output/mx6dq/lib/libsdk.a(pmu_driver.o)
pmu::LDOSoCRegulator::isBrownoutDetectEnabled() const /home/leon/git/swp-report/iMX6_Platform_SDK/output/mx6dq/lib/libsdk.a(pmu_driver.o)
pmu::LDOSoCRegulator::isInBrownout() const        /home/leon/git/swp-report/iMX6_Platform_SDK/output/mx6dq/lib/libsdk.a(pmu_driver.o)
pmu::LDOSoCRegulator::isOK() const                /home/leon/git/swp-report/iMX6_Platform_SDK/output/mx6dq/lib/libsdk.a(pmu_driver.o)
pmu::LDOSoCRegulator::setBrownout(unsigned long)  /home/leon/git/swp-report/iMX6_Platform_SDK/output/mx6dq/lib/libsdk.a(pmu_driver.o)
pmu::LDOSoCRegulator::setBrownoutDetectIsEnabled(bool) /home/leon/git/swp-report/iMX6_Platform_SDK/output/mx6dq/lib/libsdk.a(pmu_driver.o)
pmu::LDOSoCRegulator::setRampRate(unsigned long)  /home/leon/git/swp-report/iMX6_Platform_SDK/output/mx6dq/lib/libsdk.a(pmu_driver.o)
pmu::LDOSoCRegulator::setTrigger(unsigned long)   /home/leon/git/swp-report/iMX6_Platform_SDK/output/mx6dq/lib/libsdk.a(pmu_driver.o)
pmu::Regulator::Regulator()                       /home/leon/git/swp-report/iMX6_Platform_SDK/output/mx6dq/lib/libsdk.a(pmu_driver.o)
pmu::Regulator::Regulator()                       /home/leon/git/swp-report/iMX6_Platform_SDK/output/mx6dq/lib/libsdk.a(pmu_driver.o)
pmu::Regulator::getBrownoutHandler()              /home/leon/git/swp-report/iMX6_Platform_SDK/output/mx6dq/lib/libsdk.a(pmu_driver.o)
pmu::Regulator::getProperty(_pmu_regulator_properties, void*) /home/leon/git/swp-report/iMX6_Platform_SDK/output/mx6dq/lib/libsdk.a(pmu_driver.o)
pmu::Regulator::setBrownoutHandler(void (*)(_pmu_regs)) /home/leon/git/swp-report/iMX6_Platform_SDK/output/mx6dq/lib/libsdk.a(pmu_driver.o)
pmu::Regulator::setProperty(_pmu_regulator_properties, void const*) /home/leon/git/swp-report/iMX6_Platform_SDK/output/mx6dq/lib/libsdk.a(pmu_driver.o)
pmu::Regulator::setVoltageRange(unsigned long, unsigned long, unsigned long) /home/leon/git/swp-report/iMX6_Platform_SDK/output/mx6dq/lib/libsdk.a(pmu_driver.o)
pmu::_pmu_info::_pmu_info()                       /home/leon/git/swp-report/iMX6_Platform_SDK/output/mx6dq/lib/libsdk.a(pmu_driver.o)
pmu::_pmu_info::_pmu_info()                       /home/leon/git/swp-report/iMX6_Platform_SDK/output/mx6dq/lib/libsdk.a(pmu_driver.o)
pmu_get_property                                  /home/leon/git/swp-report/iMX6_Platform_SDK/output/mx6dq/lib/libsdk.a(pmu_driver.o)
pmu_init                                          /home/leon/git/swp-report/iMX6_Platform_SDK/output/mx6dq/lib/libsdk.a(pmu_driver.o)
                                                  /home/leon/git/swp-report/iMX6_Platform_SDK/output/mx6dq/lib/libsdk.a(cpu_workpoint.o)
pmu_iomux_config                                  /home/leon/git/swp-report/iMX6_Platform_SDK/output/mx6dq/lib/libboard_smart_device_rev_c.a(iomux_config.o)
pmu_set_property                                  /home/leon/git/swp-report/iMX6_Platform_SDK/output/mx6dq/lib/libsdk.a(pmu_driver.o)
                                                  /home/leon/git/swp-report/iMX6_Platform_SDK/output/mx6dq/lib/libsdk.a(cpu_workpoint.o)
preamble_filter_set                               /home/leon/git/swp-report/iMX6_Platform_SDK/output/mx6dq/lib/libsdk.a(hdmi_tx.o)
prefetch_abort_handler                            /home/leon/git/swp-report/iMX6_Platform_SDK/output/mx6dq/lib/libsdk.a(arm_abort.o)
                                                  /home/leon/git/swp-report/iMX6_Platform_SDK/output/mx6dq/lib/libsdk.a(vectors.o)
print_current_temp                                /home/leon/git/swp-report/iMX6_Platform_SDK/output/mx6dq/sdk_unit_test/smart_device_rev_c/libsdk_unit_test.a(tempmon_test.o)
print_identify_data                               /home/leon/git/swp-report/iMX6_Platform_SDK/output/mx6dq/lib/libsdk.a(sata.o)
print_version                                     /home/leon/git/swp-report/iMX6_Platform_SDK/output/mx6dq/sdk_unit_test/smart_device_rev_c/obj/apps/common/print_version.o
                                                  /home/leon/git/swp-report/iMX6_Platform_SDK/output/mx6dq/sdk_unit_test/smart_device_rev_c/obj/apps/sdk_unit_test/src/unit_test_main.o
printf                                            /home/leon/riotboard/arm-2012.09/bin/../arm-none-eabi/lib//libc.a(lib_a-printf.o)
                                                  /home/leon/git/swp-report/iMX6_Platform_SDK/output/mx6dq/lib/libboard_smart_device_rev_c.a(board_hdmi.o)
                                                  /home/leon/git/swp-report/iMX6_Platform_SDK/output/mx6dq/lib/libboard_smart_device_rev_c.a(board_display.o)
                                                  /home/leon/git/swp-report/iMX6_Platform_SDK/output/mx6dq/lib/libsdk.a(hdmi_common.o)
                                                  /home/leon/git/swp-report/iMX6_Platform_SDK/output/mx6dq/lib/libsdk.a(usdhc_sd.o)
                                                  /home/leon/git/swp-report/iMX6_Platform_SDK/output/mx6dq/lib/libsdk.a(usdhc_mmc.o)
                                                  /home/leon/git/swp-report/iMX6_Platform_SDK/output/mx6dq/lib/libsdk.a(usdhc_host.o)
                                                  /home/leon/git/swp-report/iMX6_Platform_SDK/output/mx6dq/lib/libsdk.a(usdhc.o)
                                                  /home/leon/git/swp-report/iMX6_Platform_SDK/output/mx6dq/lib/libsdk.a(usbh_drv.o)
                                                  /home/leon/git/swp-report/iMX6_Platform_SDK/output/mx6dq/lib/libsdk.a(usbd_drv.o)
                                                  /home/leon/git/swp-report/iMX6_Platform_SDK/output/mx6dq/lib/libsdk.a(usb_common.o)
                                                  /home/leon/git/swp-report/iMX6_Platform_SDK/output/mx6dq/lib/libsdk.a(ecspi.o)
                                                  /home/leon/git/swp-report/iMX6_Platform_SDK/output/mx6dq/lib/libsdk.a(sdma.o)
                                                  /home/leon/git/swp-report/iMX6_Platform_SDK/output/mx6dq/lib/libsdk.a(sata.o)
                                                  /home/leon/git/swp-report/iMX6_Platform_SDK/output/mx6dq/lib/libsdk.a(pwm.o)
                                                  /home/leon/git/swp-report/iMX6_Platform_SDK/output/mx6dq/lib/libsdk.a(pcie_prot.o)
                                                  /home/leon/git/swp-report/iMX6_Platform_SDK/output/mx6dq/lib/libsdk.a(pcie.o)
                                                  /home/leon/git/swp-report/iMX6_Platform_SDK/output/mx6dq/lib/libsdk.a(ldb.o)
                                                  /home/leon/git/swp-report/iMX6_Platform_SDK/output/mx6dq/lib/libsdk.a(ipu_idmac.o)
                                                  /home/leon/git/swp-report/iMX6_Platform_SDK/output/mx6dq/lib/libsdk.a(ipu_ic.o)
                                                  /home/leon/git/swp-report/iMX6_Platform_SDK/output/mx6dq/lib/libsdk.a(ipu_di.o)
                                                  /home/leon/git/swp-report/iMX6_Platform_SDK/output/mx6dq/lib/libsdk.a(ipu_dc.o)
                                                  /home/leon/git/swp-report/iMX6_Platform_SDK/output/mx6dq/lib/libsdk.a(ipu_csi.o)
                                                  /home/leon/git/swp-report/iMX6_Platform_SDK/output/mx6dq/lib/libsdk.a(ipu_common.o)
                                                  /home/leon/git/swp-report/iMX6_Platform_SDK/output/mx6dq/lib/libsdk.a(ips_disp_panel.o)
                                                  /home/leon/git/swp-report/iMX6_Platform_SDK/output/mx6dq/lib/libsdk.a(imx_i2c_slave.o)
                                                  /home/leon/git/swp-report/iMX6_Platform_SDK/output/mx6dq/lib/libsdk.a(hdmi_tx_phy.o)
                                                  /home/leon/git/swp-report/iMX6_Platform_SDK/output/mx6dq/lib/libsdk.a(hdmi_tx_audio.o)
                                                  /home/leon/git/swp-report/iMX6_Platform_SDK/output/mx6dq/lib/libsdk.a(hdmi_tx.o)
                                                  /home/leon/git/swp-report/iMX6_Platform_SDK/output/mx6dq/lib/libsdk.a(gpio.o)
                                                  /home/leon/git/swp-report/iMX6_Platform_SDK/output/mx6dq/lib/libsdk.a(enet_drv.o)
                                                  /home/leon/git/swp-report/iMX6_Platform_SDK/output/mx6dq/lib/libsdk.a(cpu_workpoint.o)
                                                  /home/leon/git/swp-report/iMX6_Platform_SDK/output/mx6dq/lib/libsdk.a(smd_sensor.o)
                                                  /home/leon/git/swp-report/iMX6_Platform_SDK/output/mx6dq/lib/libsdk.a(mma8451.o)
                                                  /home/leon/git/swp-report/iMX6_Platform_SDK/output/mx6dq/sdk_unit_test/smart_device_rev_c/libsdk_unit_test.a(spi_nor_numonyx.o)
                                                  /home/leon/git/swp-report/iMX6_Platform_SDK/output/mx6dq/sdk_unit_test/smart_device_rev_c/libsdk_unit_test.a(usb0_host_testmodes_test.o)
                                                  /home/leon/git/swp-report/iMX6_Platform_SDK/output/mx6dq/sdk_unit_test/smart_device_rev_c/libsdk_unit_test.a(usb0_host_test.o)
                                                  /home/leon/git/swp-report/iMX6_Platform_SDK/output/mx6dq/sdk_unit_test/smart_device_rev_c/libsdk_unit_test.a(usb0_device_mouse_test.o)
                                                  /home/leon/git/swp-report/iMX6_Platform_SDK/output/mx6dq/sdk_unit_test/smart_device_rev_c/libsdk_unit_test.a(ips_rotate.o)
                                                  /home/leon/git/swp-report/iMX6_Platform_SDK/output/mx6dq/sdk_unit_test/smart_device_rev_c/libsdk_unit_test.a(ips_resize.o)
                                                  /home/leon/git/swp-report/iMX6_Platform_SDK/output/mx6dq/sdk_unit_test/smart_device_rev_c/libsdk_unit_test.a(ips_csc.o)
                                                  /home/leon/git/swp-report/iMX6_Platform_SDK/output/mx6dq/sdk_unit_test/smart_device_rev_c/libsdk_unit_test.a(ips_combiner.o)
                                                  /home/leon/git/swp-report/iMX6_Platform_SDK/output/mx6dq/sdk_unit_test/smart_device_rev_c/libsdk_unit_test.a(pwm_output.o)
                                                  /home/leon/git/swp-report/iMX6_Platform_SDK/output/mx6dq/sdk_unit_test/smart_device_rev_c/libsdk_unit_test.a(mem_2_mem.o)
                                                  /home/leon/git/swp-report/iMX6_Platform_SDK/output/mx6dq/sdk_unit_test/smart_device_rev_c/libsdk_unit_test.a(at24cxx.o)
                                                  /home/leon/git/swp-report/iMX6_Platform_SDK/output/mx6dq/sdk_unit_test/smart_device_rev_c/libsdk_unit_test.a(sata_test.o)
                                                  /home/leon/git/swp-report/iMX6_Platform_SDK/output/mx6dq/sdk_unit_test/smart_device_rev_c/libsdk_unit_test.a(accelerometer_test.o)
                                                  /home/leon/git/swp-report/iMX6_Platform_SDK/output/mx6dq/sdk_unit_test/smart_device_rev_c/libsdk_unit_test.a(spi_test.o)
                                                  /home/leon/git/swp-report/iMX6_Platform_SDK/output/mx6dq/sdk_unit_test/smart_device_rev_c/libsdk_unit_test.a(enet_test.o)
                                                  /home/leon/git/swp-report/iMX6_Platform_SDK/output/mx6dq/sdk_unit_test/smart_device_rev_c/libsdk_unit_test.a(usb_test.o)
                                                  /home/leon/git/swp-report/iMX6_Platform_SDK/output/mx6dq/sdk_unit_test/smart_device_rev_c/libsdk_unit_test.a(pcie_test_rc.o)
                                                  /home/leon/git/swp-report/iMX6_Platform_SDK/output/mx6dq/sdk_unit_test/smart_device_rev_c/libsdk_unit_test.a(keypad_test.o)
                                                  /home/leon/git/swp-report/iMX6_Platform_SDK/output/mx6dq/sdk_unit_test/smart_device_rev_c/libsdk_unit_test.a(sensor_capture.o)
                                                  /home/leon/git/swp-report/iMX6_Platform_SDK/output/mx6dq/sdk_unit_test/smart_device_rev_c/libsdk_unit_test.a(csi_test_mode.o)
                                                  /home/leon/git/swp-report/iMX6_Platform_SDK/output/mx6dq/sdk_unit_test/smart_device_rev_c/libsdk_unit_test.a(camera_test.o)
                                                  /home/leon/git/swp-report/iMX6_Platform_SDK/output/mx6dq/sdk_unit_test/smart_device_rev_c/libsdk_unit_test.a(ips_test.o)
                                                  /home/leon/git/swp-report/iMX6_Platform_SDK/output/mx6dq/sdk_unit_test/smart_device_rev_c/libsdk_unit_test.a(ips_display.o)
                                                  /home/leon/git/swp-report/iMX6_Platform_SDK/output/mx6dq/sdk_unit_test/smart_device_rev_c/libsdk_unit_test.a(init_dma_data.o)
                                                  /home/leon/git/swp-report/iMX6_Platform_SDK/output/mx6dq/sdk_unit_test/smart_device_rev_c/libsdk_unit_test.a(hdmi_test.o)
                                                  /home/leon/git/swp-report/iMX6_Platform_SDK/output/mx6dq/sdk_unit_test/smart_device_rev_c/libsdk_unit_test.a(watchdog_test.o)
                                                  /home/leon/git/swp-report/iMX6_Platform_SDK/output/mx6dq/sdk_unit_test/smart_device_rev_c/libsdk_unit_test.a(pwm_test.o)
                                                  /home/leon/git/swp-report/iMX6_Platform_SDK/output/mx6dq/sdk_unit_test/smart_device_rev_c/libsdk_unit_test.a(usdhc_test.o)
                                                  /home/leon/git/swp-report/iMX6_Platform_SDK/output/mx6dq/sdk_unit_test/smart_device_rev_c/libsdk_unit_test.a(timer_test.o)
                                                  /home/leon/git/swp-report/iMX6_Platform_SDK/output/mx6dq/sdk_unit_test/smart_device_rev_c/libsdk_unit_test.a(gpt_test.o)
                                                  /home/leon/git/swp-report/iMX6_Platform_SDK/output/mx6dq/sdk_unit_test/smart_device_rev_c/libsdk_unit_test.a(epit_test.o)
                                                  /home/leon/git/swp-report/iMX6_Platform_SDK/output/mx6dq/sdk_unit_test/smart_device_rev_c/libsdk_unit_test.a(uart_test.o)
                                                  /home/leon/git/swp-report/iMX6_Platform_SDK/output/mx6dq/sdk_unit_test/smart_device_rev_c/libsdk_unit_test.a(uart_loopback.o)
                                                  /home/leon/git/swp-report/iMX6_Platform_SDK/output/mx6dq/sdk_unit_test/smart_device_rev_c/libsdk_unit_test.a(spi_lpb.o)
                                                  /home/leon/git/swp-report/iMX6_Platform_SDK/output/mx6dq/sdk_unit_test/smart_device_rev_c/libsdk_unit_test.a(sdma_test.o)
                                                  /home/leon/git/swp-report/iMX6_Platform_SDK/output/mx6dq/sdk_unit_test/smart_device_rev_c/libsdk_unit_test.a(tempmon_test.o)
                                                  /home/leon/git/swp-report/iMX6_Platform_SDK/output/mx6dq/sdk_unit_test/smart_device_rev_c/libsdk_unit_test.a(imx6_i2c_device.o)
                                                  /home/leon/git/swp-report/iMX6_Platform_SDK/output/mx6dq/sdk_unit_test/smart_device_rev_c/libsdk_unit_test.a(i2c_test.o)
                                                  /home/leon/git/swp-report/iMX6_Platform_SDK/output/mx6dq/sdk_unit_test/smart_device_rev_c/libsdk_unit_test.a(snvs_srtc_test.o)
                                                  /home/leon/git/swp-report/iMX6_Platform_SDK/output/mx6dq/sdk_unit_test/smart_device_rev_c/libsdk_unit_test.a(snvs_rtc_test.o)
                                                  /home/leon/git/swp-report/iMX6_Platform_SDK/output/mx6dq/sdk_unit_test/smart_device_rev_c/libsdk_unit_test.a(ocotp_test.o)
                                                  /home/leon/git/swp-report/iMX6_Platform_SDK/output/mx6dq/sdk_unit_test/smart_device_rev_c/libsdk_unit_test.a(multicore_test.o)
                                                  /home/leon/git/swp-report/iMX6_Platform_SDK/output/mx6dq/sdk_unit_test/smart_device_rev_c/libsdk_unit_test.a(cpu_wp_test.o)
                                                  /home/leon/git/swp-report/iMX6_Platform_SDK/output/mx6dq/sdk_unit_test/smart_device_rev_c/libsdk_unit_test.a(gic_test.o)
                                                  /home/leon/git/swp-report/iMX6_Platform_SDK/output/mx6dq/sdk_unit_test/smart_device_rev_c/libsdk_unit_test.a(audio_test.o)
                                                  /home/leon/git/swp-report/iMX6_Platform_SDK/output/mx6dq/lib/libsdk.a(abort_handler.o)
                                                  /home/leon/git/swp-report/iMX6_Platform_SDK/output/mx6dq/lib/libsdk.a(interrupt.o)
                                                  /home/leon/git/swp-report/iMX6_Platform_SDK/output/mx6dq/lib/libsdk.a(board_id.o)
                                                  /home/leon/git/swp-report/iMX6_Platform_SDK/output/mx6dq/lib/libsdk.a(text_color.o)
                                                  /home/leon/git/swp-report/iMX6_Platform_SDK/output/mx6dq/lib/libsdk.a(system_util.o)
                                                  /home/leon/git/swp-report/iMX6_Platform_SDK/output/mx6dq/lib/libsdk.a(menu.o)
                                                  /home/leon/git/swp-report/iMX6_Platform_SDK/output/mx6dq/sdk_unit_test/smart_device_rev_c/obj/apps/common/print_version.o
                                                  /home/leon/git/swp-report/iMX6_Platform_SDK/output/mx6dq/sdk_unit_test/smart_device_rev_c/obj/apps/common/print_clock_info.o
printf_buffer                                     /home/leon/git/swp-report/iMX6_Platform_SDK/output/mx6dq/lib/libsdk.a(sata.o)
printf_color                                      /home/leon/git/swp-report/iMX6_Platform_SDK/output/mx6dq/lib/libsdk.a(text_color.o)
                                                  /home/leon/git/swp-report/iMX6_Platform_SDK/output/mx6dq/lib/libsdk.a(system_util.o)
                                                  /home/leon/git/swp-report/iMX6_Platform_SDK/output/mx6dq/lib/libsdk.a(menu.o)
putc                                              /home/leon/riotboard/arm-2012.09/bin/../arm-none-eabi/lib//libc.a(lib_a-putc.o)
pwm1_iomux_config                                 /home/leon/git/swp-report/iMX6_Platform_SDK/output/mx6dq/lib/libboard_smart_device_rev_c.a(pwm1_iomux_config.o)
                                                  /home/leon/git/swp-report/iMX6_Platform_SDK/output/mx6dq/lib/libboard_smart_device_rev_c.a(pwm_iomux_config.o)
                                                  /home/leon/git/swp-report/iMX6_Platform_SDK/output/mx6dq/lib/libboard_smart_device_rev_c.a(iomux_config.o)
pwm2_iomux_config                                 /home/leon/git/swp-report/iMX6_Platform_SDK/output/mx6dq/lib/libboard_smart_device_rev_c.a(iomux_config.o)
                                                  /home/leon/git/swp-report/iMX6_Platform_SDK/output/mx6dq/lib/libboard_smart_device_rev_c.a(pwm_iomux_config.o)
pwm3_iomux_config                                 /home/leon/git/swp-report/iMX6_Platform_SDK/output/mx6dq/lib/libboard_smart_device_rev_c.a(iomux_config.o)
                                                  /home/leon/git/swp-report/iMX6_Platform_SDK/output/mx6dq/lib/libboard_smart_device_rev_c.a(pwm_iomux_config.o)
pwm4_iomux_config                                 /home/leon/git/swp-report/iMX6_Platform_SDK/output/mx6dq/lib/libboard_smart_device_rev_c.a(iomux_config.o)
                                                  /home/leon/git/swp-report/iMX6_Platform_SDK/output/mx6dq/lib/libboard_smart_device_rev_c.a(pwm_iomux_config.o)
pwm_clear_int_status                              /home/leon/git/swp-report/iMX6_Platform_SDK/output/mx6dq/lib/libsdk.a(pwm.o)
pwm_disable                                       /home/leon/git/swp-report/iMX6_Platform_SDK/output/mx6dq/lib/libsdk.a(pwm.o)
                                                  /home/leon/git/swp-report/iMX6_Platform_SDK/output/mx6dq/sdk_unit_test/smart_device_rev_c/libsdk_unit_test.a(pwm_output.o)
pwm_enable                                        /home/leon/git/swp-report/iMX6_Platform_SDK/output/mx6dq/lib/libsdk.a(pwm.o)
                                                  /home/leon/git/swp-report/iMX6_Platform_SDK/output/mx6dq/sdk_unit_test/smart_device_rev_c/libsdk_unit_test.a(pwm_output.o)
pwm_free_interrupt                                /home/leon/git/swp-report/iMX6_Platform_SDK/output/mx6dq/lib/libsdk.a(pwm.o)
pwm_get_clock_freq                                /home/leon/git/swp-report/iMX6_Platform_SDK/output/mx6dq/lib/libsdk.a(pwm.o)
                                                  /home/leon/git/swp-report/iMX6_Platform_SDK/output/mx6dq/sdk_unit_test/smart_device_rev_c/libsdk_unit_test.a(pwm_output.o)
pwm_init                                          /home/leon/git/swp-report/iMX6_Platform_SDK/output/mx6dq/lib/libsdk.a(pwm.o)
                                                  /home/leon/git/swp-report/iMX6_Platform_SDK/output/mx6dq/sdk_unit_test/smart_device_rev_c/libsdk_unit_test.a(pwm_output.o)
pwm_int_test_end                                  /home/leon/git/swp-report/iMX6_Platform_SDK/output/mx6dq/lib/libsdk.a(pwm.o)
pwm_iomux_config                                  /home/leon/git/swp-report/iMX6_Platform_SDK/output/mx6dq/lib/libboard_smart_device_rev_c.a(pwm_iomux_config.o)
                                                  /home/leon/git/swp-report/iMX6_Platform_SDK/output/mx6dq/sdk_unit_test/smart_device_rev_c/libsdk_unit_test.a(pwm_output.o)
pwm_isr_test_end                                  /home/leon/git/swp-report/iMX6_Platform_SDK/output/mx6dq/lib/libsdk.a(pwm.o)
pwm_output_test                                   /home/leon/git/swp-report/iMX6_Platform_SDK/output/mx6dq/sdk_unit_test/smart_device_rev_c/libsdk_unit_test.a(pwm_output.o)
                                                  /home/leon/git/swp-report/iMX6_Platform_SDK/output/mx6dq/sdk_unit_test/smart_device_rev_c/libsdk_unit_test.a(pwm_test.o)
pwm_setup_interrupt                               /home/leon/git/swp-report/iMX6_Platform_SDK/output/mx6dq/lib/libsdk.a(pwm.o)
pwm_test                                          /home/leon/git/swp-report/iMX6_Platform_SDK/output/mx6dq/sdk_unit_test/smart_device_rev_c/libsdk_unit_test.a(pwm_test.o)
                                                  /home/leon/git/swp-report/iMX6_Platform_SDK/output/mx6dq/sdk_unit_test/smart_device_rev_c/obj/apps/sdk_unit_test/src/all_test.o
qf_Descriptor                                     /home/leon/git/swp-report/iMX6_Platform_SDK/output/mx6dq/sdk_unit_test/smart_device_rev_c/libsdk_unit_test.a(usb0_device_mouse_test.o)
raise                                             /home/leon/riotboard/arm-2012.09/bin/../arm-none-eabi/lib//libc.a(lib_a-signal.o)
                                                  /home/leon/riotboard/arm-2012.09/bin/../arm-none-eabi/lib//libc.a(lib_a-abort.o)
read_input_string                                 /home/leon/git/swp-report/iMX6_Platform_SDK/output/mx6dq/lib/libsdk.a(system_util.o)
read_int                                          /home/leon/git/swp-report/iMX6_Platform_SDK/output/mx6dq/lib/libsdk.a(system_util.o)
                                                  /home/leon/git/swp-report/iMX6_Platform_SDK/output/mx6dq/sdk_unit_test/smart_device_rev_c/libsdk_unit_test.a(pwm_output.o)
                                                  /home/leon/git/swp-report/iMX6_Platform_SDK/output/mx6dq/sdk_unit_test/smart_device_rev_c/libsdk_unit_test.a(tempmon_test.o)
read_usdhc_adma_mode                              /home/leon/git/swp-report/iMX6_Platform_SDK/output/mx6dq/lib/libsdk.a(usdhc.o)
                                                  /home/leon/git/swp-report/iMX6_Platform_SDK/output/mx6dq/lib/libsdk.a(usdhc_host.o)
read_usdhc_intr_mode                              /home/leon/git/swp-report/iMX6_Platform_SDK/output/mx6dq/lib/libsdk.a(usdhc.o)
                                                  /home/leon/git/swp-report/iMX6_Platform_SDK/output/mx6dq/lib/libsdk.a(usdhc_host.o)
                                                  /home/leon/git/swp-report/iMX6_Platform_SDK/output/mx6dq/sdk_unit_test/smart_device_rev_c/libsdk_unit_test.a(usdhc_test.o)
realloc                                           /home/leon/riotboard/arm-2012.09/bin/../arm-none-eabi/lib//libc.a(lib_a-realloc.o)
                                                  /home/leon/riotboard/arm-2012.09/bin/../arm-none-eabi/lib//libstdc++.a(cp-demangle.o)
                                                  /home/leon/git/swp-report/iMX6_Platform_SDK/output/mx6dq/lib/libsdk.a(system_util.o)
register_interrupt_routine                        /home/leon/git/swp-report/iMX6_Platform_SDK/output/mx6dq/lib/libsdk.a(interrupt.o)
                                                  /home/leon/git/swp-report/iMX6_Platform_SDK/output/mx6dq/lib/libsdk.a(usdhc.o)
                                                  /home/leon/git/swp-report/iMX6_Platform_SDK/output/mx6dq/lib/libsdk.a(gpt.o)
                                                  /home/leon/git/swp-report/iMX6_Platform_SDK/output/mx6dq/lib/libsdk.a(tempmon.o)
                                                  /home/leon/git/swp-report/iMX6_Platform_SDK/output/mx6dq/lib/libsdk.a(sdma.o)
                                                  /home/leon/git/swp-report/iMX6_Platform_SDK/output/mx6dq/lib/libsdk.a(srtc.o)
                                                  /home/leon/git/swp-report/iMX6_Platform_SDK/output/mx6dq/lib/libsdk.a(rtc.o)
                                                  /home/leon/git/swp-report/iMX6_Platform_SDK/output/mx6dq/lib/libsdk.a(pwm.o)
                                                  /home/leon/git/swp-report/iMX6_Platform_SDK/output/mx6dq/lib/libsdk.a(pmu_driver.o)
                                                  /home/leon/git/swp-report/iMX6_Platform_SDK/output/mx6dq/lib/libsdk.a(keypad_port.o)
                                                  /home/leon/git/swp-report/iMX6_Platform_SDK/output/mx6dq/lib/libsdk.a(ipu_common.o)
                                                  /home/leon/git/swp-report/iMX6_Platform_SDK/output/mx6dq/lib/libsdk.a(imx_i2c.o)
                                                  /home/leon/git/swp-report/iMX6_Platform_SDK/output/mx6dq/sdk_unit_test/smart_device_rev_c/libsdk_unit_test.a(hdmi_test.o)
                                                  /home/leon/git/swp-report/iMX6_Platform_SDK/output/mx6dq/sdk_unit_test/smart_device_rev_c/libsdk_unit_test.a(multicore_test.o)
                                                  /home/leon/git/swp-report/iMX6_Platform_SDK/output/mx6dq/sdk_unit_test/smart_device_rev_c/libsdk_unit_test.a(gic_test.o)
                                                  /home/leon/git/swp-report/iMX6_Platform_SDK/output/mx6dq/lib/libsdk.a(epit.o)
                                                  /home/leon/git/swp-report/iMX6_Platform_SDK/output/mx6dq/lib/libsdk.a(imx_uart.o)
res_num                                           /home/leon/git/swp-report/iMX6_Platform_SDK/output/mx6dq/sdk_unit_test/smart_device_rev_c/libsdk_unit_test.a(pcie_test_rc.o)
reset_usb_hub                                     /home/leon/git/swp-report/iMX6_Platform_SDK/output/mx6dq/lib/libboard_smart_device_rev_c.a(board_usb.o)
restore_core_regs                                 /home/leon/riotboard/arm-2012.09/bin/../lib/gcc/arm-none-eabi/4.7.2//libgcc.a(libunwind.o)
                                                  /home/leon/riotboard/arm-2012.09/bin/../lib/gcc/arm-none-eabi/4.7.2//libgcc.a(unwind-arm.o)
rtc_deinit                                        /home/leon/git/swp-report/iMX6_Platform_SDK/output/mx6dq/lib/libsdk.a(rtc.o)
                                                  /home/leon/git/swp-report/iMX6_Platform_SDK/output/mx6dq/sdk_unit_test/smart_device_rev_c/libsdk_unit_test.a(snvs_rtc_test.o)
rtc_disable_periodic_timer                        /home/leon/git/swp-report/iMX6_Platform_SDK/output/mx6dq/lib/libsdk.a(rtc.o)
rtc_init                                          /home/leon/git/swp-report/iMX6_Platform_SDK/output/mx6dq/lib/libsdk.a(rtc.o)
                                                  /home/leon/git/swp-report/iMX6_Platform_SDK/output/mx6dq/sdk_unit_test/smart_device_rev_c/libsdk_unit_test.a(snvs_rtc_test.o)
rtc_setup_onetime_timer                           /home/leon/git/swp-report/iMX6_Platform_SDK/output/mx6dq/lib/libsdk.a(rtc.o)
                                                  /home/leon/git/swp-report/iMX6_Platform_SDK/output/mx6dq/sdk_unit_test/smart_device_rev_c/libsdk_unit_test.a(snvs_rtc_test.o)
rtc_setup_periodic_timer                          /home/leon/git/swp-report/iMX6_Platform_SDK/output/mx6dq/lib/libsdk.a(rtc.o)
                                                  /home/leon/git/swp-report/iMX6_Platform_SDK/output/mx6dq/sdk_unit_test/smart_device_rev_c/libsdk_unit_test.a(snvs_rtc_test.o)
run_test                                          /home/leon/git/swp-report/iMX6_Platform_SDK/output/mx6dq/sdk_unit_test/smart_device_rev_c/obj/apps/sdk_unit_test/src/all_test.o
sata_clock_disable                                /home/leon/git/swp-report/iMX6_Platform_SDK/output/mx6dq/lib/libboard_smart_device_rev_c.a(board_sata.o)
                                                  /home/leon/git/swp-report/iMX6_Platform_SDK/output/mx6dq/sdk_unit_test/smart_device_rev_c/libsdk_unit_test.a(sata_test.o)
sata_clock_enable                                 /home/leon/git/swp-report/iMX6_Platform_SDK/output/mx6dq/lib/libboard_smart_device_rev_c.a(board_sata.o)
                                                  /home/leon/git/swp-report/iMX6_Platform_SDK/output/mx6dq/lib/libsdk.a(sata.o)
sata_deinit                                       /home/leon/git/swp-report/iMX6_Platform_SDK/output/mx6dq/lib/libsdk.a(sata.o)
sata_disk_read_sector                             /home/leon/git/swp-report/iMX6_Platform_SDK/output/mx6dq/lib/libsdk.a(sata.o)
                                                  /home/leon/git/swp-report/iMX6_Platform_SDK/output/mx6dq/sdk_unit_test/smart_device_rev_c/libsdk_unit_test.a(sata_test.o)
sata_disk_write_sector                            /home/leon/git/swp-report/iMX6_Platform_SDK/output/mx6dq/lib/libsdk.a(sata.o)
                                                  /home/leon/git/swp-report/iMX6_Platform_SDK/output/mx6dq/sdk_unit_test/smart_device_rev_c/libsdk_unit_test.a(sata_test.o)
sata_dma_read_sector                              /home/leon/git/swp-report/iMX6_Platform_SDK/output/mx6dq/lib/libsdk.a(sata.o)
sata_dma_write_sector                             /home/leon/git/swp-report/iMX6_Platform_SDK/output/mx6dq/lib/libsdk.a(sata.o)
sata_get_phy_src_clk                              /home/leon/git/swp-report/iMX6_Platform_SDK/output/mx6dq/lib/libboard_smart_device_rev_c.a(board_sata.o)
                                                  /home/leon/git/swp-report/iMX6_Platform_SDK/output/mx6dq/lib/libsdk.a(sata.o)
sata_identify                                     /home/leon/git/swp-report/iMX6_Platform_SDK/output/mx6dq/lib/libsdk.a(sata.o)
                                                  /home/leon/git/swp-report/iMX6_Platform_SDK/output/mx6dq/sdk_unit_test/smart_device_rev_c/libsdk_unit_test.a(sata_test.o)
sata_init                                         /home/leon/git/swp-report/iMX6_Platform_SDK/output/mx6dq/lib/libsdk.a(sata.o)
                                                  /home/leon/git/swp-report/iMX6_Platform_SDK/output/mx6dq/sdk_unit_test/smart_device_rev_c/libsdk_unit_test.a(sata_test.o)
sata_phy_iomux_config                             /home/leon/git/swp-report/iMX6_Platform_SDK/output/mx6dq/lib/libboard_smart_device_rev_c.a(iomux_config.o)
sata_pio_read_sector                              /home/leon/git/swp-report/iMX6_Platform_SDK/output/mx6dq/lib/libsdk.a(sata.o)
sata_pio_write_sector                             /home/leon/git/swp-report/iMX6_Platform_SDK/output/mx6dq/lib/libsdk.a(sata.o)
sata_power_off                                    /home/leon/git/swp-report/iMX6_Platform_SDK/output/mx6dq/lib/libboard_smart_device_rev_c.a(board_sata.o)
                                                  /home/leon/git/swp-report/iMX6_Platform_SDK/output/mx6dq/sdk_unit_test/smart_device_rev_c/libsdk_unit_test.a(sata_test.o)
sata_power_on                                     /home/leon/git/swp-report/iMX6_Platform_SDK/output/mx6dq/lib/libboard_smart_device_rev_c.a(board_sata.o)
                                                  /home/leon/git/swp-report/iMX6_Platform_SDK/output/mx6dq/lib/libsdk.a(sata.o)
sata_test                                         /home/leon/git/swp-report/iMX6_Platform_SDK/output/mx6dq/sdk_unit_test/smart_device_rev_c/libsdk_unit_test.a(sata_test.o)
                                                  /home/leon/git/swp-report/iMX6_Platform_SDK/output/mx6dq/sdk_unit_test/smart_device_rev_c/obj/apps/sdk_unit_test/src/all_test.o
scalbnf                                           /home/leon/riotboard/arm-2012.09/bin/../arm-none-eabi/lib//libm.a(lib_a-sf_scalbn.o)
                                                  /home/leon/riotboard/arm-2012.09/bin/../arm-none-eabi/lib//libm.a(lib_a-kf_rem_pio2.o)
script_info                                       /home/leon/git/swp-report/iMX6_Platform_SDK/output/mx6dq/lib/libsdk.a(sdma_script_info.o)
                                                  /home/leon/git/swp-report/iMX6_Platform_SDK/output/mx6dq/lib/libsdk.a(sdma.o)
scu_disable_maintenance_broadcast                 /home/leon/git/swp-report/iMX6_Platform_SDK/output/mx6dq/lib/libsdk.a(cortexA9.o)
scu_enable                                        /home/leon/git/swp-report/iMX6_Platform_SDK/output/mx6dq/lib/libsdk.a(cortexA9.o)
scu_enable_maintenance_broadcast                  /home/leon/git/swp-report/iMX6_Platform_SDK/output/mx6dq/lib/libsdk.a(cortexA9.o)
scu_get_cpus_in_smp                               /home/leon/git/swp-report/iMX6_Platform_SDK/output/mx6dq/lib/libsdk.a(cortexA9.o)
scu_join_smp                                      /home/leon/git/swp-report/iMX6_Platform_SDK/output/mx6dq/lib/libsdk.a(cortexA9.o)
scu_leave_smp                                     /home/leon/git/swp-report/iMX6_Platform_SDK/output/mx6dq/lib/libsdk.a(cortexA9.o)
scu_secure_invalidate                             /home/leon/git/swp-report/iMX6_Platform_SDK/output/mx6dq/lib/libsdk.a(cortexA9.o)
sd_if_cmd_arg                                     /home/leon/git/swp-report/iMX6_Platform_SDK/output/mx6dq/lib/libsdk.a(usdhc_sd.o)
sd_init                                           /home/leon/git/swp-report/iMX6_Platform_SDK/output/mx6dq/lib/libsdk.a(usdhc_sd.o)
                                                  /home/leon/git/swp-report/iMX6_Platform_SDK/output/mx6dq/lib/libsdk.a(usdhc.o)
sd_ocr_value                                      /home/leon/git/swp-report/iMX6_Platform_SDK/output/mx6dq/lib/libsdk.a(usdhc_sd.o)
sd_voltage_validation                             /home/leon/git/swp-report/iMX6_Platform_SDK/output/mx6dq/lib/libsdk.a(usdhc_sd.o)
                                                  /home/leon/git/swp-report/iMX6_Platform_SDK/output/mx6dq/lib/libsdk.a(usdhc.o)
sdma_channel_isr_attach                           /home/leon/git/swp-report/iMX6_Platform_SDK/output/mx6dq/lib/libsdk.a(sdma.o)
                                                  /home/leon/git/swp-report/iMX6_Platform_SDK/output/mx6dq/sdk_unit_test/smart_device_rev_c/libsdk_unit_test.a(uart_loopback.o)
sdma_channel_release                              /home/leon/git/swp-report/iMX6_Platform_SDK/output/mx6dq/lib/libsdk.a(sdma.o)
                                                  /home/leon/git/swp-report/iMX6_Platform_SDK/output/mx6dq/sdk_unit_test/smart_device_rev_c/libsdk_unit_test.a(mem_2_mem.o)
                                                  /home/leon/git/swp-report/iMX6_Platform_SDK/output/mx6dq/sdk_unit_test/smart_device_rev_c/libsdk_unit_test.a(uart_loopback.o)
                                                  /home/leon/git/swp-report/iMX6_Platform_SDK/output/mx6dq/sdk_unit_test/smart_device_rev_c/libsdk_unit_test.a(spi_lpb.o)
sdma_channel_request                              /home/leon/git/swp-report/iMX6_Platform_SDK/output/mx6dq/lib/libsdk.a(sdma.o)
                                                  /home/leon/git/swp-report/iMX6_Platform_SDK/output/mx6dq/sdk_unit_test/smart_device_rev_c/libsdk_unit_test.a(mem_2_mem.o)
                                                  /home/leon/git/swp-report/iMX6_Platform_SDK/output/mx6dq/sdk_unit_test/smart_device_rev_c/libsdk_unit_test.a(uart_loopback.o)
                                                  /home/leon/git/swp-report/iMX6_Platform_SDK/output/mx6dq/sdk_unit_test/smart_device_rev_c/libsdk_unit_test.a(spi_lpb.o)
sdma_channel_start                                /home/leon/git/swp-report/iMX6_Platform_SDK/output/mx6dq/lib/libsdk.a(sdma.o)
                                                  /home/leon/git/swp-report/iMX6_Platform_SDK/output/mx6dq/sdk_unit_test/smart_device_rev_c/libsdk_unit_test.a(mem_2_mem.o)
                                                  /home/leon/git/swp-report/iMX6_Platform_SDK/output/mx6dq/sdk_unit_test/smart_device_rev_c/libsdk_unit_test.a(uart_loopback.o)
                                                  /home/leon/git/swp-report/iMX6_Platform_SDK/output/mx6dq/sdk_unit_test/smart_device_rev_c/libsdk_unit_test.a(spi_lpb.o)
sdma_channel_status                               /home/leon/git/swp-report/iMX6_Platform_SDK/output/mx6dq/lib/libsdk.a(sdma.o)
                                                  /home/leon/git/swp-report/iMX6_Platform_SDK/output/mx6dq/sdk_unit_test/smart_device_rev_c/libsdk_unit_test.a(mem_2_mem.o)
                                                  /home/leon/git/swp-report/iMX6_Platform_SDK/output/mx6dq/sdk_unit_test/smart_device_rev_c/libsdk_unit_test.a(uart_loopback.o)
                                                  /home/leon/git/swp-report/iMX6_Platform_SDK/output/mx6dq/sdk_unit_test/smart_device_rev_c/libsdk_unit_test.a(spi_lpb.o)
sdma_channel_stop                                 /home/leon/git/swp-report/iMX6_Platform_SDK/output/mx6dq/lib/libsdk.a(sdma.o)
                                                  /home/leon/git/swp-report/iMX6_Platform_SDK/output/mx6dq/sdk_unit_test/smart_device_rev_c/libsdk_unit_test.a(mem_2_mem.o)
                                                  /home/leon/git/swp-report/iMX6_Platform_SDK/output/mx6dq/sdk_unit_test/smart_device_rev_c/libsdk_unit_test.a(uart_loopback.o)
                                                  /home/leon/git/swp-report/iMX6_Platform_SDK/output/mx6dq/sdk_unit_test/smart_device_rev_c/libsdk_unit_test.a(spi_lpb.o)
sdma_deinit                                       /home/leon/git/swp-report/iMX6_Platform_SDK/output/mx6dq/lib/libsdk.a(sdma.o)
                                                  /home/leon/git/swp-report/iMX6_Platform_SDK/output/mx6dq/sdk_unit_test/smart_device_rev_c/libsdk_unit_test.a(mem_2_mem.o)
                                                  /home/leon/git/swp-report/iMX6_Platform_SDK/output/mx6dq/sdk_unit_test/smart_device_rev_c/libsdk_unit_test.a(uart_loopback.o)
                                                  /home/leon/git/swp-report/iMX6_Platform_SDK/output/mx6dq/sdk_unit_test/smart_device_rev_c/libsdk_unit_test.a(spi_lpb.o)
sdma_init                                         /home/leon/git/swp-report/iMX6_Platform_SDK/output/mx6dq/lib/libsdk.a(sdma.o)
                                                  /home/leon/git/swp-report/iMX6_Platform_SDK/output/mx6dq/sdk_unit_test/smart_device_rev_c/libsdk_unit_test.a(mem_2_mem.o)
                                                  /home/leon/git/swp-report/iMX6_Platform_SDK/output/mx6dq/sdk_unit_test/smart_device_rev_c/libsdk_unit_test.a(uart_loopback.o)
                                                  /home/leon/git/swp-report/iMX6_Platform_SDK/output/mx6dq/sdk_unit_test/smart_device_rev_c/libsdk_unit_test.a(spi_lpb.o)
sdma_iomux_config                                 /home/leon/git/swp-report/iMX6_Platform_SDK/output/mx6dq/lib/libboard_smart_device_rev_c.a(iomux_config.o)
sdma_lookup_script                                /home/leon/git/swp-report/iMX6_Platform_SDK/output/mx6dq/lib/libsdk.a(sdma.o)
                                                  /home/leon/git/swp-report/iMX6_Platform_SDK/output/mx6dq/sdk_unit_test/smart_device_rev_c/libsdk_unit_test.a(mem_2_mem.o)
                                                  /home/leon/git/swp-report/iMX6_Platform_SDK/output/mx6dq/sdk_unit_test/smart_device_rev_c/libsdk_unit_test.a(uart_loopback.o)
                                                  /home/leon/git/swp-report/iMX6_Platform_SDK/output/mx6dq/sdk_unit_test/smart_device_rev_c/libsdk_unit_test.a(spi_lpb.o)
sdma_setup_interrupt                              /home/leon/git/swp-report/iMX6_Platform_SDK/output/mx6dq/lib/libsdk.a(sdma.o)
                                                  /home/leon/git/swp-report/iMX6_Platform_SDK/output/mx6dq/sdk_unit_test/smart_device_rev_c/libsdk_unit_test.a(uart_loopback.o)
sdma_test                                         /home/leon/git/swp-report/iMX6_Platform_SDK/output/mx6dq/sdk_unit_test/smart_device_rev_c/libsdk_unit_test.a(sdma_test.o)
                                                  /home/leon/git/swp-report/iMX6_Platform_SDK/output/mx6dq/sdk_unit_test/smart_device_rev_c/obj/apps/sdk_unit_test/src/all_test.o
search_panel                                      /home/leon/git/swp-report/iMX6_Platform_SDK/output/mx6dq/lib/libsdk.a(ips_disp_panel.o)
                                                  /home/leon/git/swp-report/iMX6_Platform_SDK/output/mx6dq/sdk_unit_test/smart_device_rev_c/libsdk_unit_test.a(sensor_capture.o)
                                                  /home/leon/git/swp-report/iMX6_Platform_SDK/output/mx6dq/sdk_unit_test/smart_device_rev_c/libsdk_unit_test.a(csi_test_mode.o)
                                                  /home/leon/git/swp-report/iMX6_Platform_SDK/output/mx6dq/sdk_unit_test/smart_device_rev_c/libsdk_unit_test.a(ips_test.o)
                                                  /home/leon/git/swp-report/iMX6_Platform_SDK/output/mx6dq/sdk_unit_test/smart_device_rev_c/libsdk_unit_test.a(ips_display.o)
sensor_af_trigger                                 /home/leon/git/swp-report/iMX6_Platform_SDK/output/mx6dq/lib/libsdk.a(smd_sensor.o)
                                                  /home/leon/git/swp-report/iMX6_Platform_SDK/output/mx6dq/sdk_unit_test/smart_device_rev_c/libsdk_unit_test.a(sensor_capture.o)
sensor_autofocus_init                             /home/leon/git/swp-report/iMX6_Platform_SDK/output/mx6dq/lib/libsdk.a(smd_sensor.o)
                                                  /home/leon/git/swp-report/iMX6_Platform_SDK/output/mx6dq/sdk_unit_test/smart_device_rev_c/libsdk_unit_test.a(sensor_capture.o)
sensor_capture                                    /home/leon/git/swp-report/iMX6_Platform_SDK/output/mx6dq/sdk_unit_test/smart_device_rev_c/libsdk_unit_test.a(sensor_capture.o)
                                                  /home/leon/git/swp-report/iMX6_Platform_SDK/output/mx6dq/sdk_unit_test/smart_device_rev_c/libsdk_unit_test.a(camera_test.o)
sensor_clock_setting                              /home/leon/git/swp-report/iMX6_Platform_SDK/output/mx6dq/lib/libboard_smart_device_rev_c.a(board_camera.o)
                                                  /home/leon/git/swp-report/iMX6_Platform_SDK/output/mx6dq/lib/libsdk.a(smd_sensor.o)
sensor_config                                     /home/leon/git/swp-report/iMX6_Platform_SDK/output/mx6dq/lib/libsdk.a(smd_sensor.o)
                                                  /home/leon/git/swp-report/iMX6_Platform_SDK/output/mx6dq/sdk_unit_test/smart_device_rev_c/libsdk_unit_test.a(sensor_capture.o)
sensor_init                                       /home/leon/git/swp-report/iMX6_Platform_SDK/output/mx6dq/lib/libsdk.a(smd_sensor.o)
sensor_reset                                      /home/leon/git/swp-report/iMX6_Platform_SDK/output/mx6dq/lib/libboard_smart_device_rev_c.a(board_camera.o)
                                                  /home/leon/git/swp-report/iMX6_Platform_SDK/output/mx6dq/lib/libsdk.a(smd_sensor.o)
sensor_search                                     /home/leon/git/swp-report/iMX6_Platform_SDK/output/mx6dq/lib/libsdk.a(smd_sensor.o)
                                                  /home/leon/git/swp-report/iMX6_Platform_SDK/output/mx6dq/sdk_unit_test/smart_device_rev_c/libsdk_unit_test.a(sensor_capture.o)
sensor_standby                                    /home/leon/git/swp-report/iMX6_Platform_SDK/output/mx6dq/lib/libboard_smart_device_rev_c.a(board_camera.o)
                                                  /home/leon/git/swp-report/iMX6_Platform_SDK/output/mx6dq/sdk_unit_test/smart_device_rev_c/libsdk_unit_test.a(sensor_capture.o)
set_background_margin                             /home/leon/git/swp-report/iMX6_Platform_SDK/output/mx6dq/sdk_unit_test/smart_device_rev_c/libsdk_unit_test.a(ipu_image.o)
                                                  /home/leon/git/swp-report/iMX6_Platform_SDK/output/mx6dq/sdk_unit_test/smart_device_rev_c/libsdk_unit_test.a(ips_resize.o)
set_card_access_mode                              /home/leon/git/swp-report/iMX6_Platform_SDK/output/mx6dq/lib/libsdk.a(usdhc.o)
                                                  /home/leon/git/swp-report/iMX6_Platform_SDK/output/mx6dq/sdk_unit_test/smart_device_rev_c/libsdk_unit_test.a(usdhc_test.o)
setlocale                                         /home/leon/riotboard/arm-2012.09/bin/../arm-none-eabi/lib//libc.a(lib_a-locale.o)
show_board_id                                     /home/leon/git/swp-report/iMX6_Platform_SDK/output/mx6dq/lib/libsdk.a(board_id.o)
show_ddr_config                                   /home/leon/git/swp-report/iMX6_Platform_SDK/output/mx6dq/sdk_unit_test/smart_device_rev_c/obj/apps/common/print_clock_info.o
                                                  /home/leon/git/swp-report/iMX6_Platform_SDK/output/mx6dq/sdk_unit_test/smart_device_rev_c/obj/apps/sdk_unit_test/src/unit_test_main.o
show_freq                                         /home/leon/git/swp-report/iMX6_Platform_SDK/output/mx6dq/sdk_unit_test/smart_device_rev_c/obj/apps/common/print_clock_info.o
                                                  /home/leon/git/swp-report/iMX6_Platform_SDK/output/mx6dq/sdk_unit_test/smart_device_rev_c/obj/apps/sdk_unit_test/src/unit_test_main.o
signal                                            /home/leon/riotboard/arm-2012.09/bin/../arm-none-eabi/lib//libc.a(lib_a-signal.o)
sinf                                              /home/leon/riotboard/arm-2012.09/bin/../arm-none-eabi/lib//libm.a(lib_a-sf_sin.o)
                                                  /home/leon/git/swp-report/iMX6_Platform_SDK/output/mx6dq/sdk_unit_test/smart_device_rev_c/libsdk_unit_test.a(usb0_device_mouse_test.o)
sjc_iomux_config                                  /home/leon/git/swp-report/iMX6_Platform_SDK/output/mx6dq/lib/libboard_smart_device_rev_c.a(sjc_iomux_config.o)
                                                  /home/leon/git/swp-report/iMX6_Platform_SDK/output/mx6dq/lib/libboard_smart_device_rev_c.a(iomux_config.o)
snvs_deinit                                       /home/leon/git/swp-report/iMX6_Platform_SDK/output/mx6dq/lib/libsdk.a(snvs.o)
                                                  /home/leon/git/swp-report/iMX6_Platform_SDK/output/mx6dq/lib/libsdk.a(srtc.o)
                                                  /home/leon/git/swp-report/iMX6_Platform_SDK/output/mx6dq/lib/libsdk.a(rtc.o)
snvs_init                                         /home/leon/git/swp-report/iMX6_Platform_SDK/output/mx6dq/lib/libsdk.a(snvs.o)
                                                  /home/leon/git/swp-report/iMX6_Platform_SDK/output/mx6dq/lib/libsdk.a(srtc.o)
                                                  /home/leon/git/swp-report/iMX6_Platform_SDK/output/mx6dq/lib/libsdk.a(rtc.o)
snvs_iomux_config                                 /home/leon/git/swp-report/iMX6_Platform_SDK/output/mx6dq/lib/libboard_smart_device_rev_c.a(iomux_config.o)
snvs_rtc_alarm                                    /home/leon/git/swp-report/iMX6_Platform_SDK/output/mx6dq/lib/libsdk.a(snvs.o)
                                                  /home/leon/git/swp-report/iMX6_Platform_SDK/output/mx6dq/lib/libsdk.a(rtc.o)
snvs_rtc_counter                                  /home/leon/git/swp-report/iMX6_Platform_SDK/output/mx6dq/lib/libsdk.a(snvs.o)
                                                  /home/leon/git/swp-report/iMX6_Platform_SDK/output/mx6dq/lib/libsdk.a(rtc.o)
snvs_rtc_interrupt_handler                        /home/leon/git/swp-report/iMX6_Platform_SDK/output/mx6dq/lib/libsdk.a(rtc.o)
snvs_rtc_periodic_interrupt                       /home/leon/git/swp-report/iMX6_Platform_SDK/output/mx6dq/lib/libsdk.a(snvs.o)
                                                  /home/leon/git/swp-report/iMX6_Platform_SDK/output/mx6dq/lib/libsdk.a(rtc.o)
snvs_rtc_set_alarm_timeout                        /home/leon/git/swp-report/iMX6_Platform_SDK/output/mx6dq/lib/libsdk.a(snvs.o)
                                                  /home/leon/git/swp-report/iMX6_Platform_SDK/output/mx6dq/lib/libsdk.a(rtc.o)
snvs_rtc_set_counter                              /home/leon/git/swp-report/iMX6_Platform_SDK/output/mx6dq/lib/libsdk.a(snvs.o)
                                                  /home/leon/git/swp-report/iMX6_Platform_SDK/output/mx6dq/lib/libsdk.a(rtc.o)
snvs_rtc_setup_interrupt                          /home/leon/git/swp-report/iMX6_Platform_SDK/output/mx6dq/lib/libsdk.a(rtc.o)
snvs_rtc_test                                     /home/leon/git/swp-report/iMX6_Platform_SDK/output/mx6dq/sdk_unit_test/smart_device_rev_c/libsdk_unit_test.a(snvs_rtc_test.o)
                                                  /home/leon/git/swp-report/iMX6_Platform_SDK/output/mx6dq/sdk_unit_test/smart_device_rev_c/obj/apps/sdk_unit_test/src/all_test.o
snvs_srtc_alarm                                   /home/leon/git/swp-report/iMX6_Platform_SDK/output/mx6dq/lib/libsdk.a(snvs.o)
                                                  /home/leon/git/swp-report/iMX6_Platform_SDK/output/mx6dq/lib/libsdk.a(srtc.o)
snvs_srtc_counter                                 /home/leon/git/swp-report/iMX6_Platform_SDK/output/mx6dq/lib/libsdk.a(snvs.o)
                                                  /home/leon/git/swp-report/iMX6_Platform_SDK/output/mx6dq/lib/libsdk.a(srtc.o)
snvs_srtc_interrupt_handler                       /home/leon/git/swp-report/iMX6_Platform_SDK/output/mx6dq/lib/libsdk.a(srtc.o)
snvs_srtc_set_alarm_timeout                       /home/leon/git/swp-report/iMX6_Platform_SDK/output/mx6dq/lib/libsdk.a(snvs.o)
                                                  /home/leon/git/swp-report/iMX6_Platform_SDK/output/mx6dq/lib/libsdk.a(srtc.o)
snvs_srtc_set_counter                             /home/leon/git/swp-report/iMX6_Platform_SDK/output/mx6dq/lib/libsdk.a(snvs.o)
                                                  /home/leon/git/swp-report/iMX6_Platform_SDK/output/mx6dq/lib/libsdk.a(srtc.o)
snvs_srtc_setup_interrupt                         /home/leon/git/swp-report/iMX6_Platform_SDK/output/mx6dq/lib/libsdk.a(srtc.o)
snvs_srtc_test                                    /home/leon/git/swp-report/iMX6_Platform_SDK/output/mx6dq/sdk_unit_test/smart_device_rev_c/libsdk_unit_test.a(snvs_srtc_test.o)
                                                  /home/leon/git/swp-report/iMX6_Platform_SDK/output/mx6dq/sdk_unit_test/smart_device_rev_c/obj/apps/sdk_unit_test/src/all_test.o
spdif_clk_cfg                                     /home/leon/git/swp-report/iMX6_Platform_SDK/output/mx6dq/lib/libboard_smart_device_rev_c.a(board_audio.o)
spdif_get_tx_clk_freq                             /home/leon/git/swp-report/iMX6_Platform_SDK/output/mx6dq/lib/libboard_smart_device_rev_c.a(board_audio.o)
spdif_iomux_config                                /home/leon/git/swp-report/iMX6_Platform_SDK/output/mx6dq/lib/libboard_smart_device_rev_c.a(iomux_config.o)
spi_nor_erase_numonyx                             /home/leon/git/swp-report/iMX6_Platform_SDK/output/mx6dq/sdk_unit_test/smart_device_rev_c/libsdk_unit_test.a(spi_nor_numonyx.o)
                                                  /home/leon/git/swp-report/iMX6_Platform_SDK/output/mx6dq/sdk_unit_test/smart_device_rev_c/libsdk_unit_test.a(spi_test.o)
spi_nor_query_numonyx                             /home/leon/git/swp-report/iMX6_Platform_SDK/output/mx6dq/sdk_unit_test/smart_device_rev_c/libsdk_unit_test.a(spi_nor_numonyx.o)
                                                  /home/leon/git/swp-report/iMX6_Platform_SDK/output/mx6dq/sdk_unit_test/smart_device_rev_c/libsdk_unit_test.a(spi_test.o)
spi_nor_read_numonyx                              /home/leon/git/swp-report/iMX6_Platform_SDK/output/mx6dq/sdk_unit_test/smart_device_rev_c/libsdk_unit_test.a(spi_nor_numonyx.o)
                                                  /home/leon/git/swp-report/iMX6_Platform_SDK/output/mx6dq/sdk_unit_test/smart_device_rev_c/libsdk_unit_test.a(spi_test.o)
spi_nor_write_numonyx                             /home/leon/git/swp-report/iMX6_Platform_SDK/output/mx6dq/sdk_unit_test/smart_device_rev_c/libsdk_unit_test.a(spi_nor_numonyx.o)
                                                  /home/leon/git/swp-report/iMX6_Platform_SDK/output/mx6dq/sdk_unit_test/smart_device_rev_c/libsdk_unit_test.a(spi_test.o)
spi_test                                          /home/leon/git/swp-report/iMX6_Platform_SDK/output/mx6dq/sdk_unit_test/smart_device_rev_c/libsdk_unit_test.a(spi_test.o)
                                                  /home/leon/git/swp-report/iMX6_Platform_SDK/output/mx6dq/sdk_unit_test/smart_device_rev_c/obj/apps/sdk_unit_test/src/all_test.o
spinlock_init                                     /home/leon/git/swp-report/iMX6_Platform_SDK/output/mx6dq/lib/libsdk.a(spinlock.o)
                                                  /home/leon/git/swp-report/iMX6_Platform_SDK/output/mx6dq/lib/libsdk.a(keypad_port.o)
spinlock_is_locked                                /home/leon/git/swp-report/iMX6_Platform_SDK/output/mx6dq/lib/libsdk.a(spinlock.o)
spinlock_lock                                     /home/leon/git/swp-report/iMX6_Platform_SDK/output/mx6dq/lib/libsdk.a(spinlock_lock_unlock.o)
                                                  /home/leon/git/swp-report/iMX6_Platform_SDK/output/mx6dq/lib/libsdk.a(keypad_port.o)
spinlock_unlock                                   /home/leon/git/swp-report/iMX6_Platform_SDK/output/mx6dq/lib/libsdk.a(spinlock_lock_unlock.o)
                                                  /home/leon/git/swp-report/iMX6_Platform_SDK/output/mx6dq/lib/libsdk.a(keypad_port.o)
sprintf                                           /home/leon/riotboard/arm-2012.09/bin/../arm-none-eabi/lib//libc.a(lib_a-sprintf.o)
                                                  /home/leon/riotboard/arm-2012.09/bin/../arm-none-eabi/lib//libstdc++.a(cp-demangle.o)
                                                  /home/leon/git/swp-report/iMX6_Platform_SDK/output/mx6dq/sdk_unit_test/smart_device_rev_c/libsdk_unit_test.a(accelerometer_test.o)
                                                  /home/leon/git/swp-report/iMX6_Platform_SDK/output/mx6dq/lib/libsdk.a(board_id.o)
src_iomux_config                                  /home/leon/git/swp-report/iMX6_Platform_SDK/output/mx6dq/lib/libboard_smart_device_rev_c.a(iomux_config.o)
srtc_deinit                                       /home/leon/git/swp-report/iMX6_Platform_SDK/output/mx6dq/lib/libsdk.a(srtc.o)
                                                  /home/leon/git/swp-report/iMX6_Platform_SDK/output/mx6dq/sdk_unit_test/smart_device_rev_c/libsdk_unit_test.a(snvs_srtc_test.o)
srtc_init                                         /home/leon/git/swp-report/iMX6_Platform_SDK/output/mx6dq/lib/libsdk.a(srtc.o)
                                                  /home/leon/git/swp-report/iMX6_Platform_SDK/output/mx6dq/sdk_unit_test/smart_device_rev_c/libsdk_unit_test.a(snvs_srtc_test.o)
srtc_one_time_tick_callback                       /home/leon/git/swp-report/iMX6_Platform_SDK/output/mx6dq/sdk_unit_test/smart_device_rev_c/libsdk_unit_test.a(snvs_srtc_test.o)
srtc_one_time_timer_test                          /home/leon/git/swp-report/iMX6_Platform_SDK/output/mx6dq/sdk_unit_test/smart_device_rev_c/libsdk_unit_test.a(snvs_srtc_test.o)
srtc_setup_onetime_timer                          /home/leon/git/swp-report/iMX6_Platform_SDK/output/mx6dq/lib/libsdk.a(srtc.o)
                                                  /home/leon/git/swp-report/iMX6_Platform_SDK/output/mx6dq/sdk_unit_test/smart_device_rev_c/libsdk_unit_test.a(snvs_srtc_test.o)
std::bad_exception::what() const                  /home/leon/riotboard/arm-2012.09/bin/../arm-none-eabi/lib//libstdc++.a(eh_exception.o)
std::bad_exception::~bad_exception()              /home/leon/riotboard/arm-2012.09/bin/../arm-none-eabi/lib//libstdc++.a(eh_exception.o)
std::bad_exception::~bad_exception()              /home/leon/riotboard/arm-2012.09/bin/../arm-none-eabi/lib//libstdc++.a(eh_exception.o)
                                                  /home/leon/riotboard/arm-2012.09/bin/../arm-none-eabi/lib//libstdc++.a(eh_call.o)
std::bad_exception::~bad_exception()              /home/leon/riotboard/arm-2012.09/bin/../arm-none-eabi/lib//libstdc++.a(eh_exception.o)
std::exception::what() const                      /home/leon/riotboard/arm-2012.09/bin/../arm-none-eabi/lib//libstdc++.a(eh_exception.o)
std::exception::~exception()                      /home/leon/riotboard/arm-2012.09/bin/../arm-none-eabi/lib//libstdc++.a(eh_exception.o)
std::exception::~exception()                      /home/leon/riotboard/arm-2012.09/bin/../arm-none-eabi/lib//libstdc++.a(eh_exception.o)
std::exception::~exception()                      /home/leon/riotboard/arm-2012.09/bin/../arm-none-eabi/lib//libstdc++.a(eh_exception.o)
std::set_terminate(void (*)())                    /home/leon/riotboard/arm-2012.09/bin/../arm-none-eabi/lib//libstdc++.a(eh_terminate.o)
std::set_unexpected(void (*)())                   /home/leon/riotboard/arm-2012.09/bin/../arm-none-eabi/lib//libstdc++.a(eh_terminate.o)
std::terminate()                                  /home/leon/riotboard/arm-2012.09/bin/../arm-none-eabi/lib//libstdc++.a(eh_terminate.o)
                                                  /home/leon/riotboard/arm-2012.09/bin/../arm-none-eabi/lib//libstdc++.a(eh_catch.o)
                                                  /home/leon/riotboard/arm-2012.09/bin/../arm-none-eabi/lib//libstdc++.a(eh_personality.o)
                                                  /home/leon/riotboard/arm-2012.09/bin/../arm-none-eabi/lib//libstdc++.a(eh_alloc.o)
                                                  /home/leon/riotboard/arm-2012.09/bin/../arm-none-eabi/lib//libstdc++.a(eh_arm.o)
                                                  /home/leon/riotboard/arm-2012.09/bin/../arm-none-eabi/lib//libstdc++.a(eh_throw.o)
                                                  /home/leon/riotboard/arm-2012.09/bin/../arm-none-eabi/lib//libstdc++.a(eh_call.o)
                                                  /home/leon/riotboard/arm-2012.09/bin/../arm-none-eabi/lib//libstdc++.a(eh_unex_handler.o)
                                                  /home/leon/riotboard/arm-2012.09/bin/../arm-none-eabi/lib//libstdc++.a(pure.o)
std::type_info::__do_catch(std::type_info const*, void**, unsigned int) const /home/leon/riotboard/arm-2012.09/bin/../arm-none-eabi/lib//libstdc++.a(tinfo.o)
std::type_info::__do_upcast(__cxxabiv1::__class_type_info const*, void**) const /home/leon/riotboard/arm-2012.09/bin/../arm-none-eabi/lib//libstdc++.a(tinfo.o)
std::type_info::__is_function_p() const           /home/leon/riotboard/arm-2012.09/bin/../arm-none-eabi/lib//libstdc++.a(tinfo.o)
                                                  /home/leon/riotboard/arm-2012.09/bin/../arm-none-eabi/lib//libstdc++.a(class_type_info.o)
                                                  /home/leon/riotboard/arm-2012.09/bin/../arm-none-eabi/lib//libstdc++.a(si_class_type_info.o)
std::type_info::__is_pointer_p() const            /home/leon/riotboard/arm-2012.09/bin/../arm-none-eabi/lib//libstdc++.a(tinfo.o)
                                                  /home/leon/riotboard/arm-2012.09/bin/../arm-none-eabi/lib//libstdc++.a(class_type_info.o)
                                                  /home/leon/riotboard/arm-2012.09/bin/../arm-none-eabi/lib//libstdc++.a(si_class_type_info.o)
std::type_info::operator==(std::type_info const&) const /home/leon/riotboard/arm-2012.09/bin/../arm-none-eabi/lib//libstdc++.a(tinfo.o)
                                                  /home/leon/riotboard/arm-2012.09/bin/../arm-none-eabi/lib//libstdc++.a(class_type_info.o)
                                                  /home/leon/riotboard/arm-2012.09/bin/../arm-none-eabi/lib//libstdc++.a(si_class_type_info.o)
std::type_info::~type_info()                      /home/leon/riotboard/arm-2012.09/bin/../arm-none-eabi/lib//libstdc++.a(tinfo.o)
std::type_info::~type_info()                      /home/leon/riotboard/arm-2012.09/bin/../arm-none-eabi/lib//libstdc++.a(tinfo.o)
std::type_info::~type_info()                      /home/leon/riotboard/arm-2012.09/bin/../arm-none-eabi/lib//libstdc++.a(tinfo.o)
                                                  /home/leon/riotboard/arm-2012.09/bin/../arm-none-eabi/lib//libstdc++.a(class_type_info.o)
std::uncaught_exception()                         /home/leon/riotboard/arm-2012.09/bin/../arm-none-eabi/lib//libstdc++.a(eh_catch.o)
std::unexpected()                                 /home/leon/riotboard/arm-2012.09/bin/../arm-none-eabi/lib//libstdc++.a(eh_terminate.o)
                                                  /home/leon/riotboard/arm-2012.09/bin/../arm-none-eabi/lib//libstdc++.a(eh_personality.o)
                                                  /home/leon/riotboard/arm-2012.09/bin/../arm-none-eabi/lib//libstdc++.a(eh_call.o)
strcmp                                            /home/leon/riotboard/arm-2012.09/bin/../arm-none-eabi/lib//libc.a(lib_a-strcmp.o)
                                                  /home/leon/riotboard/arm-2012.09/bin/../arm-none-eabi/lib//libstdc++.a(tinfo.o)
                                                  /home/leon/riotboard/arm-2012.09/bin/../arm-none-eabi/lib//libstdc++.a(cp-demangle.o)
                                                  /home/leon/git/swp-report/iMX6_Platform_SDK/output/mx6dq/lib/libboard_smart_device_rev_c.a(board_display.o)
                                                  /home/leon/git/swp-report/iMX6_Platform_SDK/output/mx6dq/lib/libsdk.a(ipu_ic.o)
                                                  /home/leon/git/swp-report/iMX6_Platform_SDK/output/mx6dq/lib/libsdk.a(ips_disp_panel.o)
                                                  /home/leon/riotboard/arm-2012.09/bin/../arm-none-eabi/lib//libc.a(lib_a-locale.o)
strlen                                            /home/leon/riotboard/arm-2012.09/bin/../arm-none-eabi/lib//libc.a(lib_a-strlen.o)
                                                  /home/leon/riotboard/arm-2012.09/bin/../arm-none-eabi/lib//libstdc++.a(cp-demangle.o)
                                                  /home/leon/git/swp-report/iMX6_Platform_SDK/output/mx6dq/lib/libsdk.a(runtime_support.o)
                                                  /home/leon/riotboard/arm-2012.09/bin/../arm-none-eabi/lib//libc.a(lib_a-svfiprintf.o)
                                                  /home/leon/riotboard/arm-2012.09/bin/../arm-none-eabi/lib//libc.a(lib_a-vfprintf.o)
                                                  /home/leon/riotboard/arm-2012.09/bin/../arm-none-eabi/lib//libc.a(lib_a-vfiprintf.o)
                                                  /home/leon/riotboard/arm-2012.09/bin/../arm-none-eabi/lib//libc.a(lib_a-svfprintf.o)
                                                  /home/leon/riotboard/arm-2012.09/bin/../arm-none-eabi/lib//libc.a(lib_a-fputs.o)
                                                  /home/leon/git/swp-report/iMX6_Platform_SDK/output/mx6dq/sdk_unit_test/smart_device_rev_c/libsdk_unit_test.a(accelerometer_test.o)
                                                  /home/leon/git/swp-report/iMX6_Platform_SDK/output/mx6dq/lib/libsdk.a(menu.o)
strncasecmp                                       /home/leon/riotboard/arm-2012.09/bin/../arm-none-eabi/lib//libc.a(lib_a-strncasecmp.o)
                                                  /home/leon/git/swp-report/iMX6_Platform_SDK/output/mx6dq/lib/libsdk.a(menu.o)
strncmp                                           /home/leon/riotboard/arm-2012.09/bin/../arm-none-eabi/lib//libc.a(lib_a-strncmp.o)
                                                  /home/leon/riotboard/arm-2012.09/bin/../arm-none-eabi/lib//libstdc++.a(cp-demangle.o)
swap32                                            /home/leon/git/swp-report/iMX6_Platform_SDK/output/mx6dq/lib/libsdk.a(usb_common.o)
system_time_init                                  /home/leon/git/swp-report/iMX6_Platform_SDK/output/mx6dq/lib/libsdk.a(timer.o)
                                                  /home/leon/git/swp-report/iMX6_Platform_SDK/output/mx6dq/sdk_unit_test/smart_device_rev_c/obj/apps/common/platform_init.o
tempmon_disable_alarm                             /home/leon/git/swp-report/iMX6_Platform_SDK/output/mx6dq/lib/libsdk.a(tempmon.o)
                                                  /home/leon/git/swp-report/iMX6_Platform_SDK/output/mx6dq/sdk_unit_test/smart_device_rev_c/libsdk_unit_test.a(tempmon_test.o)
tempmon_get_temp                                  /home/leon/git/swp-report/iMX6_Platform_SDK/output/mx6dq/lib/libsdk.a(tempmon.o)
                                                  /home/leon/git/swp-report/iMX6_Platform_SDK/output/mx6dq/sdk_unit_test/smart_device_rev_c/libsdk_unit_test.a(tempmon_test.o)
tempmon_init                                      /home/leon/git/swp-report/iMX6_Platform_SDK/output/mx6dq/lib/libsdk.a(tempmon.o)
                                                  /home/leon/git/swp-report/iMX6_Platform_SDK/output/mx6dq/sdk_unit_test/smart_device_rev_c/libsdk_unit_test.a(tempmon_test.o)
tempmon_set_alarm                                 /home/leon/git/swp-report/iMX6_Platform_SDK/output/mx6dq/lib/libsdk.a(tempmon.o)
                                                  /home/leon/git/swp-report/iMX6_Platform_SDK/output/mx6dq/sdk_unit_test/smart_device_rev_c/libsdk_unit_test.a(tempmon_test.o)
tempmon_test                                      /home/leon/git/swp-report/iMX6_Platform_SDK/output/mx6dq/sdk_unit_test/smart_device_rev_c/libsdk_unit_test.a(tempmon_test.o)
                                                  /home/leon/git/swp-report/iMX6_Platform_SDK/output/mx6dq/sdk_unit_test/smart_device_rev_c/obj/apps/sdk_unit_test/src/all_test.o
tftlcd_backlight_en                               /home/leon/git/swp-report/iMX6_Platform_SDK/output/mx6dq/lib/libboard_smart_device_rev_c.a(board_display.o)
                                                  /home/leon/git/swp-report/iMX6_Platform_SDK/output/mx6dq/lib/libsdk.a(ips_disp_panel.o)
tftlcd_reset                                      /home/leon/git/swp-report/iMX6_Platform_SDK/output/mx6dq/lib/libboard_smart_device_rev_c.a(board_display.o)
                                                  /home/leon/git/swp-report/iMX6_Platform_SDK/output/mx6dq/lib/libsdk.a(ips_disp_panel.o)
time_get_microseconds                             /home/leon/git/swp-report/iMX6_Platform_SDK/output/mx6dq/lib/libsdk.a(timer.o)
                                                  /home/leon/git/swp-report/iMX6_Platform_SDK/output/mx6dq/lib/libsdk.a(runtime_support.o)
                                                  /home/leon/git/swp-report/iMX6_Platform_SDK/output/mx6dq/sdk_unit_test/smart_device_rev_c/libsdk_unit_test.a(timer_test.o)
top_of_stacks                                     /home/leon/git/swp-report/iMX6_Platform_SDK/output/mx6dq/lib/libsdk.a(startup.o)
trans_done                                        /home/leon/git/swp-report/iMX6_Platform_SDK/output/mx6dq/sdk_unit_test/smart_device_rev_c/libsdk_unit_test.a(uart_loopback.o)
typeinfo for __cxxabiv1::__class_type_info        /home/leon/riotboard/arm-2012.09/bin/../arm-none-eabi/lib//libstdc++.a(class_type_info.o)
                                                  /home/leon/riotboard/arm-2012.09/bin/../arm-none-eabi/lib//libstdc++.a(si_class_type_info.o)
typeinfo for __cxxabiv1::__forced_unwind          /home/leon/riotboard/arm-2012.09/bin/../arm-none-eabi/lib//libstdc++.a(eh_exception.o)
                                                  /home/leon/riotboard/arm-2012.09/bin/../arm-none-eabi/lib//libstdc++.a(eh_arm.o)
typeinfo for __cxxabiv1::__foreign_exception      /home/leon/riotboard/arm-2012.09/bin/../arm-none-eabi/lib//libstdc++.a(eh_exception.o)
                                                  /home/leon/riotboard/arm-2012.09/bin/../arm-none-eabi/lib//libstdc++.a(eh_arm.o)
typeinfo for __cxxabiv1::__si_class_type_info     /home/leon/riotboard/arm-2012.09/bin/../arm-none-eabi/lib//libstdc++.a(si_class_type_info.o)
typeinfo for std::bad_exception                   /home/leon/riotboard/arm-2012.09/bin/../arm-none-eabi/lib//libstdc++.a(eh_exception.o)
                                                  /home/leon/riotboard/arm-2012.09/bin/../arm-none-eabi/lib//libstdc++.a(eh_call.o)
typeinfo for std::exception                       /home/leon/riotboard/arm-2012.09/bin/../arm-none-eabi/lib//libstdc++.a(eh_exception.o)
                                                  /home/leon/riotboard/arm-2012.09/bin/../arm-none-eabi/lib//libstdc++.a(vterminate.o)
typeinfo for std::type_info                       /home/leon/riotboard/arm-2012.09/bin/../arm-none-eabi/lib//libstdc++.a(tinfo.o)
                                                  /home/leon/riotboard/arm-2012.09/bin/../arm-none-eabi/lib//libstdc++.a(class_type_info.o)
typeinfo name for __cxxabiv1::__class_type_info   /home/leon/riotboard/arm-2012.09/bin/../arm-none-eabi/lib//libstdc++.a(class_type_info.o)
typeinfo name for __cxxabiv1::__forced_unwind     /home/leon/riotboard/arm-2012.09/bin/../arm-none-eabi/lib//libstdc++.a(eh_exception.o)
typeinfo name for __cxxabiv1::__foreign_exception /home/leon/riotboard/arm-2012.09/bin/../arm-none-eabi/lib//libstdc++.a(eh_exception.o)
typeinfo name for __cxxabiv1::__si_class_type_info /home/leon/riotboard/arm-2012.09/bin/../arm-none-eabi/lib//libstdc++.a(si_class_type_info.o)
typeinfo name for std::bad_exception              /home/leon/riotboard/arm-2012.09/bin/../arm-none-eabi/lib//libstdc++.a(eh_exception.o)
typeinfo name for std::exception                  /home/leon/riotboard/arm-2012.09/bin/../arm-none-eabi/lib//libstdc++.a(eh_exception.o)
typeinfo name for std::type_info                  /home/leon/riotboard/arm-2012.09/bin/../arm-none-eabi/lib//libstdc++.a(tinfo.o)
uart1_iomux_config                                /home/leon/git/swp-report/iMX6_Platform_SDK/output/mx6dq/lib/libboard_smart_device_rev_c.a(uart1_iomux_config.o)
                                                  /home/leon/git/swp-report/iMX6_Platform_SDK/output/mx6dq/lib/libboard_smart_device_rev_c.a(iomux_config.o)
                                                  /home/leon/git/swp-report/iMX6_Platform_SDK/output/mx6dq/lib/libboard_smart_device_rev_c.a(uart_iomux_config.o)
uart2_iomux_config                                /home/leon/git/swp-report/iMX6_Platform_SDK/output/mx6dq/lib/libboard_smart_device_rev_c.a(iomux_config.o)
                                                  /home/leon/git/swp-report/iMX6_Platform_SDK/output/mx6dq/lib/libboard_smart_device_rev_c.a(uart_iomux_config.o)
uart3_iomux_config                                /home/leon/git/swp-report/iMX6_Platform_SDK/output/mx6dq/lib/libboard_smart_device_rev_c.a(iomux_config.o)
                                                  /home/leon/git/swp-report/iMX6_Platform_SDK/output/mx6dq/lib/libboard_smart_device_rev_c.a(uart_iomux_config.o)
uart4_iomux_config                                /home/leon/git/swp-report/iMX6_Platform_SDK/output/mx6dq/lib/libboard_smart_device_rev_c.a(iomux_config.o)
                                                  /home/leon/git/swp-report/iMX6_Platform_SDK/output/mx6dq/lib/libboard_smart_device_rev_c.a(uart_iomux_config.o)
uart5_iomux_config                                /home/leon/git/swp-report/iMX6_Platform_SDK/output/mx6dq/lib/libboard_smart_device_rev_c.a(iomux_config.o)
                                                  /home/leon/git/swp-report/iMX6_Platform_SDK/output/mx6dq/lib/libboard_smart_device_rev_c.a(uart_iomux_config.o)
uart5_trans_isr                                   /home/leon/git/swp-report/iMX6_Platform_SDK/output/mx6dq/sdk_unit_test/smart_device_rev_c/libsdk_unit_test.a(uart_loopback.o)
uart_app_interrupt_test                           /home/leon/git/swp-report/iMX6_Platform_SDK/output/mx6dq/sdk_unit_test/smart_device_rev_c/libsdk_unit_test.a(uart_loopback.o)
                                                  /home/leon/git/swp-report/iMX6_Platform_SDK/output/mx6dq/sdk_unit_test/smart_device_rev_c/libsdk_unit_test.a(sdma_test.o)
uart_app_test                                     /home/leon/git/swp-report/iMX6_Platform_SDK/output/mx6dq/sdk_unit_test/smart_device_rev_c/libsdk_unit_test.a(uart_loopback.o)
                                                  /home/leon/git/swp-report/iMX6_Platform_SDK/output/mx6dq/sdk_unit_test/smart_device_rev_c/libsdk_unit_test.a(sdma_test.o)
uart_get_reffreq                                  /home/leon/git/swp-report/iMX6_Platform_SDK/output/mx6dq/lib/libsdk.a(imx_uart.o)
uart_getchar                                      /home/leon/git/swp-report/iMX6_Platform_SDK/output/mx6dq/lib/libsdk.a(imx_uart.o)
                                                  /home/leon/git/swp-report/iMX6_Platform_SDK/output/mx6dq/lib/libsdk.a(runtime_support.o)
                                                  /home/leon/git/swp-report/iMX6_Platform_SDK/output/mx6dq/sdk_unit_test/smart_device_rev_c/libsdk_unit_test.a(csi_test_mode.o)
                                                  /home/leon/git/swp-report/iMX6_Platform_SDK/output/mx6dq/sdk_unit_test/smart_device_rev_c/libsdk_unit_test.a(uart_test.o)
                                                  /home/leon/git/swp-report/iMX6_Platform_SDK/output/mx6dq/lib/libsdk.a(system_util.o)
                                                  /home/leon/git/swp-report/iMX6_Platform_SDK/output/mx6dq/sdk_unit_test/smart_device_rev_c/obj/apps/common/platform_init.o
uart_init                                         /home/leon/git/swp-report/iMX6_Platform_SDK/output/mx6dq/lib/libsdk.a(imx_uart.o)
                                                  /home/leon/git/swp-report/iMX6_Platform_SDK/output/mx6dq/sdk_unit_test/smart_device_rev_c/libsdk_unit_test.a(uart_test.o)
                                                  /home/leon/git/swp-report/iMX6_Platform_SDK/output/mx6dq/sdk_unit_test/smart_device_rev_c/libsdk_unit_test.a(uart_loopback.o)
                                                  /home/leon/git/swp-report/iMX6_Platform_SDK/output/mx6dq/sdk_unit_test/smart_device_rev_c/obj/apps/common/platform_init.o
uart_interrupt_handler                            /home/leon/git/swp-report/iMX6_Platform_SDK/output/mx6dq/sdk_unit_test/smart_device_rev_c/libsdk_unit_test.a(uart_test.o)
uart_iomux_config                                 /home/leon/git/swp-report/iMX6_Platform_SDK/output/mx6dq/lib/libboard_smart_device_rev_c.a(uart_iomux_config.o)
                                                  /home/leon/git/swp-report/iMX6_Platform_SDK/output/mx6dq/lib/libsdk.a(imx_uart.o)
uart_putchar                                      /home/leon/git/swp-report/iMX6_Platform_SDK/output/mx6dq/lib/libsdk.a(imx_uart.o)
                                                  /home/leon/git/swp-report/iMX6_Platform_SDK/output/mx6dq/lib/libsdk.a(runtime_support.o)
                                                  /home/leon/git/swp-report/iMX6_Platform_SDK/output/mx6dq/sdk_unit_test/smart_device_rev_c/libsdk_unit_test.a(uart_test.o)
uart_set_FIFO_mode                                /home/leon/git/swp-report/iMX6_Platform_SDK/output/mx6dq/lib/libsdk.a(imx_uart.o)
                                                  /home/leon/git/swp-report/iMX6_Platform_SDK/output/mx6dq/sdk_unit_test/smart_device_rev_c/libsdk_unit_test.a(uart_test.o)
                                                  /home/leon/git/swp-report/iMX6_Platform_SDK/output/mx6dq/sdk_unit_test/smart_device_rev_c/libsdk_unit_test.a(uart_loopback.o)
uart_set_loopback_mode                            /home/leon/git/swp-report/iMX6_Platform_SDK/output/mx6dq/lib/libsdk.a(imx_uart.o)
                                                  /home/leon/git/swp-report/iMX6_Platform_SDK/output/mx6dq/sdk_unit_test/smart_device_rev_c/libsdk_unit_test.a(uart_test.o)
                                                  /home/leon/git/swp-report/iMX6_Platform_SDK/output/mx6dq/sdk_unit_test/smart_device_rev_c/libsdk_unit_test.a(uart_loopback.o)
uart_setup_interrupt                              /home/leon/git/swp-report/iMX6_Platform_SDK/output/mx6dq/lib/libsdk.a(imx_uart.o)
                                                  /home/leon/git/swp-report/iMX6_Platform_SDK/output/mx6dq/sdk_unit_test/smart_device_rev_c/libsdk_unit_test.a(uart_test.o)
uart_shp_test                                     /home/leon/git/swp-report/iMX6_Platform_SDK/output/mx6dq/sdk_unit_test/smart_device_rev_c/libsdk_unit_test.a(uart_loopback.o)
uart_test                                         /home/leon/git/swp-report/iMX6_Platform_SDK/output/mx6dq/sdk_unit_test/smart_device_rev_c/libsdk_unit_test.a(uart_test.o)
                                                  /home/leon/git/swp-report/iMX6_Platform_SDK/output/mx6dq/sdk_unit_test/smart_device_rev_c/obj/apps/sdk_unit_test/src/all_test.o
update_csc_coeffs                                 /home/leon/git/swp-report/iMX6_Platform_SDK/output/mx6dq/lib/libsdk.a(hdmi_tx.o)
usb0_device_mouse_test                            /home/leon/git/swp-report/iMX6_Platform_SDK/output/mx6dq/sdk_unit_test/smart_device_rev_c/libsdk_unit_test.a(usb0_device_mouse_test.o)
                                                  /home/leon/git/swp-report/iMX6_Platform_SDK/output/mx6dq/sdk_unit_test/smart_device_rev_c/libsdk_unit_test.a(usb_test.o)
usb0_host_test                                    /home/leon/git/swp-report/iMX6_Platform_SDK/output/mx6dq/sdk_unit_test/smart_device_rev_c/libsdk_unit_test.a(usb0_host_test.o)
                                                  /home/leon/git/swp-report/iMX6_Platform_SDK/output/mx6dq/sdk_unit_test/smart_device_rev_c/libsdk_unit_test.a(usb_test.o)
usb0_host_testmodes_test                          /home/leon/git/swp-report/iMX6_Platform_SDK/output/mx6dq/sdk_unit_test/smart_device_rev_c/libsdk_unit_test.a(usb0_host_testmodes_test.o)
                                                  /home/leon/git/swp-report/iMX6_Platform_SDK/output/mx6dq/sdk_unit_test/smart_device_rev_c/libsdk_unit_test.a(usb_test.o)
usbDisableVbus                                    /home/leon/git/swp-report/iMX6_Platform_SDK/output/mx6dq/lib/libboard_smart_device_rev_c.a(board_usb.o)
                                                  /home/leon/git/swp-report/iMX6_Platform_SDK/output/mx6dq/lib/libsdk.a(usbd_drv.o)
usbEnableClocks                                   /home/leon/git/swp-report/iMX6_Platform_SDK/output/mx6dq/lib/libsdk.a(mx6x_usb.o)
                                                  /home/leon/git/swp-report/iMX6_Platform_SDK/output/mx6dq/lib/libsdk.a(usbh_drv.o)
                                                  /home/leon/git/swp-report/iMX6_Platform_SDK/output/mx6dq/lib/libsdk.a(usbd_drv.o)
usbEnableTransceiver                              /home/leon/git/swp-report/iMX6_Platform_SDK/output/mx6dq/lib/libsdk.a(mx6x_usb.o)
                                                  /home/leon/git/swp-report/iMX6_Platform_SDK/output/mx6dq/lib/libsdk.a(usbh_drv.o)
                                                  /home/leon/git/swp-report/iMX6_Platform_SDK/output/mx6dq/lib/libsdk.a(usbd_drv.o)
usbEnableVbus                                     /home/leon/git/swp-report/iMX6_Platform_SDK/output/mx6dq/lib/libboard_smart_device_rev_c.a(board_usb.o)
                                                  /home/leon/git/swp-report/iMX6_Platform_SDK/output/mx6dq/lib/libsdk.a(usbh_drv.o)
usb_get_port_speed                                /home/leon/git/swp-report/iMX6_Platform_SDK/output/mx6dq/lib/libsdk.a(usb_common.o)
                                                  /home/leon/git/swp-report/iMX6_Platform_SDK/output/mx6dq/lib/libsdk.a(usbd_drv.o)
                                                  /home/leon/git/swp-report/iMX6_Platform_SDK/output/mx6dq/sdk_unit_test/smart_device_rev_c/libsdk_unit_test.a(usb0_host_test.o)
                                                  /home/leon/git/swp-report/iMX6_Platform_SDK/output/mx6dq/sdk_unit_test/smart_device_rev_c/libsdk_unit_test.a(usb0_device_mouse_test.o)
usb_iomux_config                                  /home/leon/git/swp-report/iMX6_Platform_SDK/output/mx6dq/lib/libboard_smart_device_rev_c.a(usb_iomux_config.o)
                                                  /home/leon/git/swp-report/iMX6_Platform_SDK/output/mx6dq/lib/libboard_smart_device_rev_c.a(iomux_config.o)
usb_test                                          /home/leon/git/swp-report/iMX6_Platform_SDK/output/mx6dq/sdk_unit_test/smart_device_rev_c/libsdk_unit_test.a(usb_test.o)
                                                  /home/leon/git/swp-report/iMX6_Platform_SDK/output/mx6dq/sdk_unit_test/smart_device_rev_c/obj/apps/sdk_unit_test/src/all_test.o
usbd_add_dtd                                      /home/leon/git/swp-report/iMX6_Platform_SDK/output/mx6dq/lib/libsdk.a(usbd_drv.o)
                                                  /home/leon/git/swp-report/iMX6_Platform_SDK/output/mx6dq/sdk_unit_test/smart_device_rev_c/libsdk_unit_test.a(usb0_device_mouse_test.o)
usbd_bus_reset                                    /home/leon/git/swp-report/iMX6_Platform_SDK/output/mx6dq/lib/libsdk.a(usbd_drv.o)
                                                  /home/leon/git/swp-report/iMX6_Platform_SDK/output/mx6dq/sdk_unit_test/smart_device_rev_c/libsdk_unit_test.a(usb0_device_mouse_test.o)
usbd_device_init                                  /home/leon/git/swp-report/iMX6_Platform_SDK/output/mx6dq/lib/libsdk.a(usbd_drv.o)
                                                  /home/leon/git/swp-report/iMX6_Platform_SDK/output/mx6dq/sdk_unit_test/smart_device_rev_c/libsdk_unit_test.a(usb0_device_mouse_test.o)
usbd_device_send_control_packet                   /home/leon/git/swp-report/iMX6_Platform_SDK/output/mx6dq/lib/libsdk.a(usbd_drv.o)
                                                  /home/leon/git/swp-report/iMX6_Platform_SDK/output/mx6dq/sdk_unit_test/smart_device_rev_c/libsdk_unit_test.a(usb0_device_mouse_test.o)
usbd_device_send_zero_len_packet                  /home/leon/git/swp-report/iMX6_Platform_SDK/output/mx6dq/lib/libsdk.a(usbd_drv.o)
                                                  /home/leon/git/swp-report/iMX6_Platform_SDK/output/mx6dq/sdk_unit_test/smart_device_rev_c/libsdk_unit_test.a(usb0_device_mouse_test.o)
usbd_dtd_init                                     /home/leon/git/swp-report/iMX6_Platform_SDK/output/mx6dq/lib/libsdk.a(usbd_drv.o)
                                                  /home/leon/git/swp-report/iMX6_Platform_SDK/output/mx6dq/sdk_unit_test/smart_device_rev_c/libsdk_unit_test.a(usb0_device_mouse_test.o)
usbd_endpoint_qh_init                             /home/leon/git/swp-report/iMX6_Platform_SDK/output/mx6dq/lib/libsdk.a(usbd_drv.o)
                                                  /home/leon/git/swp-report/iMX6_Platform_SDK/output/mx6dq/sdk_unit_test/smart_device_rev_c/libsdk_unit_test.a(usb0_device_mouse_test.o)
usbd_get_setup_packet                             /home/leon/git/swp-report/iMX6_Platform_SDK/output/mx6dq/lib/libsdk.a(usbd_drv.o)
                                                  /home/leon/git/swp-report/iMX6_Platform_SDK/output/mx6dq/sdk_unit_test/smart_device_rev_c/libsdk_unit_test.a(usb0_device_mouse_test.o)
usbd_reclaim_dtd                                  /home/leon/git/swp-report/iMX6_Platform_SDK/output/mx6dq/lib/libsdk.a(usbd_drv.o)
                                                  /home/leon/git/swp-report/iMX6_Platform_SDK/output/mx6dq/sdk_unit_test/smart_device_rev_c/libsdk_unit_test.a(usb0_device_mouse_test.o)
usbh_bus_reset                                    /home/leon/git/swp-report/iMX6_Platform_SDK/output/mx6dq/lib/libsdk.a(usbh_drv.o)
                                                  /home/leon/git/swp-report/iMX6_Platform_SDK/output/mx6dq/sdk_unit_test/smart_device_rev_c/libsdk_unit_test.a(usb0_host_test.o)
usbh_disable_Periodic_list                        /home/leon/git/swp-report/iMX6_Platform_SDK/output/mx6dq/lib/libsdk.a(usbh_drv.o)
usbh_disable_asynchronous_schedule                /home/leon/git/swp-report/iMX6_Platform_SDK/output/mx6dq/lib/libsdk.a(usbh_drv.o)
                                                  /home/leon/git/swp-report/iMX6_Platform_SDK/output/mx6dq/sdk_unit_test/smart_device_rev_c/libsdk_unit_test.a(usb0_host_test.o)
usbh_enable_asynchronous_schedule                 /home/leon/git/swp-report/iMX6_Platform_SDK/output/mx6dq/lib/libsdk.a(usbh_drv.o)
                                                  /home/leon/git/swp-report/iMX6_Platform_SDK/output/mx6dq/sdk_unit_test/smart_device_rev_c/libsdk_unit_test.a(usb0_host_test.o)
usbh_get_config_desc                              /home/leon/git/swp-report/iMX6_Platform_SDK/output/mx6dq/sdk_unit_test/smart_device_rev_c/libsdk_unit_test.a(usb0_host_test.o)
usbh_get_dev_desc                                 /home/leon/git/swp-report/iMX6_Platform_SDK/output/mx6dq/sdk_unit_test/smart_device_rev_c/libsdk_unit_test.a(usb0_host_test.o)
usbh_get_interface_desc                           /home/leon/git/swp-report/iMX6_Platform_SDK/output/mx6dq/sdk_unit_test/smart_device_rev_c/libsdk_unit_test.a(usb0_host_test.o)
usbh_get_report_desc                              /home/leon/git/swp-report/iMX6_Platform_SDK/output/mx6dq/sdk_unit_test/smart_device_rev_c/libsdk_unit_test.a(usb0_host_test.o)
usbh_init                                         /home/leon/git/swp-report/iMX6_Platform_SDK/output/mx6dq/lib/libsdk.a(usbh_drv.o)
                                                  /home/leon/git/swp-report/iMX6_Platform_SDK/output/mx6dq/sdk_unit_test/smart_device_rev_c/libsdk_unit_test.a(usb0_host_testmodes_test.o)
                                                  /home/leon/git/swp-report/iMX6_Platform_SDK/output/mx6dq/sdk_unit_test/smart_device_rev_c/libsdk_unit_test.a(usb0_host_test.o)
usbh_periodic_schedule_init                       /home/leon/git/swp-report/iMX6_Platform_SDK/output/mx6dq/lib/libsdk.a(usbh_drv.o)
                                                  /home/leon/git/swp-report/iMX6_Platform_SDK/output/mx6dq/sdk_unit_test/smart_device_rev_c/libsdk_unit_test.a(usb0_host_test.o)
usbh_qh_init                                      /home/leon/git/swp-report/iMX6_Platform_SDK/output/mx6dq/lib/libsdk.a(usbh_drv.o)
                                                  /home/leon/git/swp-report/iMX6_Platform_SDK/output/mx6dq/sdk_unit_test/smart_device_rev_c/libsdk_unit_test.a(usb0_host_test.o)
usbh_qtd_init                                     /home/leon/git/swp-report/iMX6_Platform_SDK/output/mx6dq/lib/libsdk.a(usbh_drv.o)
                                                  /home/leon/git/swp-report/iMX6_Platform_SDK/output/mx6dq/sdk_unit_test/smart_device_rev_c/libsdk_unit_test.a(usb0_host_test.o)
usbh_set_configuration                            /home/leon/git/swp-report/iMX6_Platform_SDK/output/mx6dq/sdk_unit_test/smart_device_rev_c/libsdk_unit_test.a(usb0_host_test.o)
usbh_set_device_address                           /home/leon/git/swp-report/iMX6_Platform_SDK/output/mx6dq/sdk_unit_test/smart_device_rev_c/libsdk_unit_test.a(usb0_host_test.o)
usdhc1_iomux_config                               /home/leon/git/swp-report/iMX6_Platform_SDK/output/mx6dq/lib/libboard_smart_device_rev_c.a(iomux_config.o)
                                                  /home/leon/git/swp-report/iMX6_Platform_SDK/output/mx6dq/lib/libboard_smart_device_rev_c.a(usdhc_iomux_config.o)
usdhc1_isr                                        /home/leon/git/swp-report/iMX6_Platform_SDK/output/mx6dq/lib/libsdk.a(usdhc_host.o)
                                                  /home/leon/git/swp-report/iMX6_Platform_SDK/output/mx6dq/lib/libsdk.a(usdhc.o)
usdhc2_iomux_config                               /home/leon/git/swp-report/iMX6_Platform_SDK/output/mx6dq/lib/libboard_smart_device_rev_c.a(usdhc2_iomux_config.o)
                                                  /home/leon/git/swp-report/iMX6_Platform_SDK/output/mx6dq/lib/libboard_smart_device_rev_c.a(usdhc_iomux_config.o)
                                                  /home/leon/git/swp-report/iMX6_Platform_SDK/output/mx6dq/lib/libboard_smart_device_rev_c.a(iomux_config.o)
usdhc2_isr                                        /home/leon/git/swp-report/iMX6_Platform_SDK/output/mx6dq/lib/libsdk.a(usdhc_host.o)
                                                  /home/leon/git/swp-report/iMX6_Platform_SDK/output/mx6dq/lib/libsdk.a(usdhc.o)
usdhc3_iomux_config                               /home/leon/git/swp-report/iMX6_Platform_SDK/output/mx6dq/lib/libboard_smart_device_rev_c.a(usdhc3_iomux_config.o)
                                                  /home/leon/git/swp-report/iMX6_Platform_SDK/output/mx6dq/lib/libboard_smart_device_rev_c.a(usdhc_iomux_config.o)
                                                  /home/leon/git/swp-report/iMX6_Platform_SDK/output/mx6dq/lib/libboard_smart_device_rev_c.a(iomux_config.o)
usdhc3_isr                                        /home/leon/git/swp-report/iMX6_Platform_SDK/output/mx6dq/lib/libsdk.a(usdhc_host.o)
                                                  /home/leon/git/swp-report/iMX6_Platform_SDK/output/mx6dq/lib/libsdk.a(usdhc.o)
usdhc4_iomux_config                               /home/leon/git/swp-report/iMX6_Platform_SDK/output/mx6dq/lib/libboard_smart_device_rev_c.a(usdhc4_iomux_config.o)
                                                  /home/leon/git/swp-report/iMX6_Platform_SDK/output/mx6dq/lib/libboard_smart_device_rev_c.a(usdhc_iomux_config.o)
                                                  /home/leon/git/swp-report/iMX6_Platform_SDK/output/mx6dq/lib/libboard_smart_device_rev_c.a(iomux_config.o)
usdhc4_isr                                        /home/leon/git/swp-report/iMX6_Platform_SDK/output/mx6dq/lib/libsdk.a(usdhc_host.o)
                                                  /home/leon/git/swp-report/iMX6_Platform_SDK/output/mx6dq/lib/libsdk.a(usdhc.o)
usdhc_card_detected                               /home/leon/git/swp-report/iMX6_Platform_SDK/output/mx6dq/lib/libboard_smart_device_rev_c.a(board_usdhc.o)
                                                  /home/leon/git/swp-report/iMX6_Platform_SDK/output/mx6dq/lib/libsdk.a(usdhc.o)
usdhc_device                                      /home/leon/git/swp-report/iMX6_Platform_SDK/output/mx6dq/lib/libsdk.a(usdhc.o)
                                                  /home/leon/git/swp-report/iMX6_Platform_SDK/output/mx6dq/lib/libsdk.a(usdhc_sd.o)
                                                  /home/leon/git/swp-report/iMX6_Platform_SDK/output/mx6dq/lib/libsdk.a(usdhc_mmc.o)
                                                  /home/leon/git/swp-report/iMX6_Platform_SDK/output/mx6dq/lib/libsdk.a(usdhc_host.o)
usdhc_gpio_config                                 /home/leon/git/swp-report/iMX6_Platform_SDK/output/mx6dq/lib/libboard_smart_device_rev_c.a(board_usdhc.o)
                                                  /home/leon/git/swp-report/iMX6_Platform_SDK/output/mx6dq/lib/libsdk.a(usdhc_host.o)
usdhc_iomux_config                                /home/leon/git/swp-report/iMX6_Platform_SDK/output/mx6dq/lib/libboard_smart_device_rev_c.a(usdhc_iomux_config.o)
                                                  /home/leon/git/swp-report/iMX6_Platform_SDK/output/mx6dq/lib/libsdk.a(usdhc_host.o)
usdhc_test                                        /home/leon/git/swp-report/iMX6_Platform_SDK/output/mx6dq/sdk_unit_test/smart_device_rev_c/libsdk_unit_test.a(usdhc_test.o)
                                                  /home/leon/git/swp-report/iMX6_Platform_SDK/output/mx6dq/sdk_unit_test/smart_device_rev_c/obj/apps/sdk_unit_test/src/all_test.o
usdhc_write_protected                             /home/leon/git/swp-report/iMX6_Platform_SDK/output/mx6dq/lib/libboard_smart_device_rev_c.a(board_usdhc.o)
                                                  /home/leon/git/swp-report/iMX6_Platform_SDK/output/mx6dq/lib/libsdk.a(usdhc.o)
vectors                                           /home/leon/git/swp-report/iMX6_Platform_SDK/output/mx6dq/lib/libsdk.a(vectors.o)
                                                  /home/leon/git/swp-report/iMX6_Platform_SDK/output/mx6dq/lib/libsdk.a(startup.o)
vfiprintf                                         /home/leon/riotboard/arm-2012.09/bin/../arm-none-eabi/lib//libc.a(lib_a-vfiprintf.o)
vfprintf                                          /home/leon/riotboard/arm-2012.09/bin/../arm-none-eabi/lib//libc.a(lib_a-vfprintf.o)
vprintf                                           /home/leon/riotboard/arm-2012.09/bin/../arm-none-eabi/lib//libc.a(lib_a-vprintf.o)
                                                  /home/leon/git/swp-report/iMX6_Platform_SDK/output/mx6dq/lib/libsdk.a(imx_i2c.o)
                                                  /home/leon/git/swp-report/iMX6_Platform_SDK/output/mx6dq/lib/libsdk.a(gpio.o)
                                                  /home/leon/git/swp-report/iMX6_Platform_SDK/output/mx6dq/lib/libsdk.a(text_color.o)
vtable for __cxxabiv1::__class_type_info          /home/leon/riotboard/arm-2012.09/bin/../arm-none-eabi/lib//libstdc++.a(class_type_info.o)
                                                  /home/leon/riotboard/arm-2012.09/bin/../arm-none-eabi/lib//libstdc++.a(tinfo.o)
                                                  /home/leon/riotboard/arm-2012.09/bin/../arm-none-eabi/lib//libstdc++.a(eh_exception.o)
vtable for __cxxabiv1::__forced_unwind            /home/leon/riotboard/arm-2012.09/bin/../arm-none-eabi/lib//libstdc++.a(eh_exception.o)
vtable for __cxxabiv1::__foreign_exception        /home/leon/riotboard/arm-2012.09/bin/../arm-none-eabi/lib//libstdc++.a(eh_exception.o)
vtable for __cxxabiv1::__si_class_type_info       /home/leon/riotboard/arm-2012.09/bin/../arm-none-eabi/lib//libstdc++.a(si_class_type_info.o)
                                                  /home/leon/riotboard/arm-2012.09/bin/../arm-none-eabi/lib//libstdc++.a(class_type_info.o)
                                                  /home/leon/riotboard/arm-2012.09/bin/../arm-none-eabi/lib//libstdc++.a(eh_exception.o)
vtable for pmu::AnalogRegulator                   /home/leon/git/swp-report/iMX6_Platform_SDK/output/mx6dq/lib/libsdk.a(pmu_driver.o)
vtable for pmu::DigitalRegulator                  /home/leon/git/swp-report/iMX6_Platform_SDK/output/mx6dq/lib/libsdk.a(pmu_driver.o)
vtable for pmu::LDO1p1Regulator                   /home/leon/git/swp-report/iMX6_Platform_SDK/output/mx6dq/lib/libsdk.a(pmu_driver.o)
vtable for pmu::LDO2p5Regulator                   /home/leon/git/swp-report/iMX6_Platform_SDK/output/mx6dq/lib/libsdk.a(pmu_driver.o)
vtable for pmu::LDO3p0Regulator                   /home/leon/git/swp-report/iMX6_Platform_SDK/output/mx6dq/lib/libsdk.a(pmu_driver.o)
vtable for pmu::LDOARMRegulator                   /home/leon/git/swp-report/iMX6_Platform_SDK/output/mx6dq/lib/libsdk.a(pmu_driver.o)
vtable for pmu::LDOGraphicsRegulator              /home/leon/git/swp-report/iMX6_Platform_SDK/output/mx6dq/lib/libsdk.a(pmu_driver.o)
vtable for pmu::LDOSoCRegulator                   /home/leon/git/swp-report/iMX6_Platform_SDK/output/mx6dq/lib/libsdk.a(pmu_driver.o)
vtable for pmu::Regulator                         /home/leon/git/swp-report/iMX6_Platform_SDK/output/mx6dq/lib/libsdk.a(pmu_driver.o)
vtable for std::bad_exception                     /home/leon/riotboard/arm-2012.09/bin/../arm-none-eabi/lib//libstdc++.a(eh_exception.o)
                                                  /home/leon/riotboard/arm-2012.09/bin/../arm-none-eabi/lib//libstdc++.a(eh_call.o)
vtable for std::exception                         /home/leon/riotboard/arm-2012.09/bin/../arm-none-eabi/lib//libstdc++.a(eh_exception.o)
vtable for std::type_info                         /home/leon/riotboard/arm-2012.09/bin/../arm-none-eabi/lib//libstdc++.a(tinfo.o)
wavefile_end                                      /home/leon/git/swp-report/iMX6_Platform_SDK/output/mx6dq/sdk_unit_test/smart_device_rev_c/libsdk_unit_test.a(wav_file.o)
                                                  /home/leon/git/swp-report/iMX6_Platform_SDK/output/mx6dq/sdk_unit_test/smart_device_rev_c/libsdk_unit_test.a(audio_test.o)
wavefile_start                                    /home/leon/git/swp-report/iMX6_Platform_SDK/output/mx6dq/sdk_unit_test/smart_device_rev_c/libsdk_unit_test.a(wav_file.o)
                                                  /home/leon/git/swp-report/iMX6_Platform_SDK/output/mx6dq/sdk_unit_test/smart_device_rev_c/libsdk_unit_test.a(audio_test.o)
wcrtomb                                           /home/leon/riotboard/arm-2012.09/bin/../arm-none-eabi/lib//libc.a(lib_a-wcrtomb.o)
wdog1_iomux_config                                /home/leon/git/swp-report/iMX6_Platform_SDK/output/mx6dq/lib/libboard_smart_device_rev_c.a(iomux_config.o)
wdog2_iomux_config                                /home/leon/git/swp-report/iMX6_Platform_SDK/output/mx6dq/lib/libboard_smart_device_rev_c.a(iomux_config.o)
wdog_test                                         /home/leon/git/swp-report/iMX6_Platform_SDK/output/mx6dq/sdk_unit_test/smart_device_rev_c/libsdk_unit_test.a(watchdog_test.o)
                                                  /home/leon/git/swp-report/iMX6_Platform_SDK/output/mx6dq/sdk_unit_test/smart_device_rev_c/obj/apps/sdk_unit_test/src/all_test.o
write                                             /home/leon/riotboard/arm-2012.09/bin/../arm-none-eabi/lib//libc.a(lib_a-syswrite.o)
                                                  /home/leon/riotboard/arm-2012.09/bin/../arm-none-eabi/lib//libstdc++.a(pure.o)
write_protect_test_en                             /home/leon/git/swp-report/iMX6_Platform_SDK/output/mx6dq/lib/libsdk.a(usdhc.o)
xtalosc_iomux_config                              /home/leon/git/swp-report/iMX6_Platform_SDK/output/mx6dq/lib/libboard_smart_device_rev_c.a(iomux_config.o)
