Archive member included because of file (symbol)

/home/leon/git/swp-report/iMX6_Platform_SDK/output/mx6sdl/lib/libsdk.a(ccm_pll.o)
                              /home/leon/git/swp-report/iMX6_Platform_SDK/output/mx6sdl/stream/sabre_ai_rev_c/obj/apps/common/platform_init.o (ccm_init)
/home/leon/git/swp-report/iMX6_Platform_SDK/output/mx6sdl/lib/libsdk.a(cortexA9.o)
                              /home/leon/git/swp-report/iMX6_Platform_SDK/output/mx6sdl/stream/sabre_ai_rev_c/obj/apps/common/platform_init.o (arm_set_interrupt_state)
/home/leon/git/swp-report/iMX6_Platform_SDK/output/mx6sdl/lib/libsdk.a(gic.o)
                              /home/leon/git/swp-report/iMX6_Platform_SDK/output/mx6sdl/stream/sabre_ai_rev_c/obj/apps/common/platform_init.o (gic_init)
/home/leon/git/swp-report/iMX6_Platform_SDK/output/mx6sdl/lib/libsdk.a(mmu.o)
                              /home/leon/git/swp-report/iMX6_Platform_SDK/output/mx6sdl/stream/sabre_ai_rev_c/obj/apps/common/platform_init.o (mmu_init)
/home/leon/git/swp-report/iMX6_Platform_SDK/output/mx6sdl/lib/libsdk.a(startup.o)
                              (_start)
/home/leon/git/swp-report/iMX6_Platform_SDK/output/mx6sdl/lib/libsdk.a(vectors.o)
                              /home/leon/git/swp-report/iMX6_Platform_SDK/output/mx6sdl/lib/libsdk.a(startup.o) (vectors)
/home/leon/git/swp-report/iMX6_Platform_SDK/output/mx6sdl/lib/libsdk.a(sdk_version.o)
                              /home/leon/git/swp-report/iMX6_Platform_SDK/output/mx6sdl/stream/sabre_ai_rev_c/obj/apps/common/print_version.o (k_sdk_version)
/home/leon/git/swp-report/iMX6_Platform_SDK/output/mx6sdl/lib/libsdk.a(system_util.o)
                              /home/leon/git/swp-report/iMX6_Platform_SDK/output/mx6sdl/lib/libsdk.a(startup.o) (_sys_exit)
/home/leon/git/swp-report/iMX6_Platform_SDK/output/mx6sdl/lib/libsdk.a(text_color.o)
                              /home/leon/git/swp-report/iMX6_Platform_SDK/output/mx6sdl/lib/libsdk.a(system_util.o) (g_TextAttributeBold)
/home/leon/git/swp-report/iMX6_Platform_SDK/output/mx6sdl/lib/libsdk.a(board_id.o)
                              /home/leon/git/swp-report/iMX6_Platform_SDK/output/mx6sdl/stream/sabre_ai_rev_c/obj/apps/common/print_version.o (chip_name)
/home/leon/git/swp-report/iMX6_Platform_SDK/output/mx6sdl/lib/libsdk.a(cpu_workpoint.o)
                              /home/leon/git/swp-report/iMX6_Platform_SDK/output/mx6sdl/stream/sabre_ai_rev_c/obj/apps/stream/src/main.o (cpu_workpoint_set)
/home/leon/git/swp-report/iMX6_Platform_SDK/output/mx6sdl/lib/libsdk.a(pmu_driver.o)
                              /home/leon/git/swp-report/iMX6_Platform_SDK/output/mx6sdl/lib/libsdk.a(cpu_workpoint.o) (pmu_init)
/home/leon/git/swp-report/iMX6_Platform_SDK/output/mx6sdl/lib/libsdk.a(epit.o)
                              /home/leon/git/swp-report/iMX6_Platform_SDK/output/mx6sdl/stream/sabre_ai_rev_c/obj/apps/stream/src/main.o (epit_get_counter_value)
/home/leon/git/swp-report/iMX6_Platform_SDK/output/mx6sdl/lib/libsdk.a(timer.o)
                              /home/leon/git/swp-report/iMX6_Platform_SDK/output/mx6sdl/stream/sabre_ai_rev_c/obj/apps/common/platform_init.o (system_time_init)
/home/leon/git/swp-report/iMX6_Platform_SDK/output/mx6sdl/lib/libsdk.a(imx_uart.o)
                              /home/leon/git/swp-report/iMX6_Platform_SDK/output/mx6sdl/stream/sabre_ai_rev_c/obj/apps/common/platform_init.o (uart_getchar)
/home/leon/git/swp-report/iMX6_Platform_SDK/output/mx6sdl/lib/libsdk.a(arm_abort.o)
                              /home/leon/git/swp-report/iMX6_Platform_SDK/output/mx6sdl/lib/libsdk.a(vectors.o) (data_abort_handler)
/home/leon/git/swp-report/iMX6_Platform_SDK/output/mx6sdl/lib/libsdk.a(interrupt.o)
                              /home/leon/git/swp-report/iMX6_Platform_SDK/output/mx6sdl/lib/libsdk.a(vectors.o) (IRQ_HDLR)
/home/leon/git/swp-report/iMX6_Platform_SDK/output/mx6sdl/lib/libsdk.a(abort_handler.o)
                              /home/leon/git/swp-report/iMX6_Platform_SDK/output/mx6sdl/lib/libsdk.a(arm_abort.o) (dump_regs)
/home/leon/git/swp-report/iMX6_Platform_SDK/output/mx6sdl/lib/libboard_sabre_ai_rev_c.a(board_io_expanders.o)
                              /home/leon/git/swp-report/iMX6_Platform_SDK/output/mx6sdl/stream/sabre_ai_rev_c/obj/apps/common/platform_init.o (board_ioexpander_init)
/home/leon/git/swp-report/iMX6_Platform_SDK/output/mx6sdl/lib/libboard_sabre_ai_rev_c.a(hardware_modules.o)
                              /home/leon/git/swp-report/iMX6_Platform_SDK/output/mx6sdl/stream/sabre_ai_rev_c/obj/apps/common/platform_init.o (g_debug_uart_port)
/home/leon/git/swp-report/iMX6_Platform_SDK/output/mx6sdl/lib/libboard_sabre_ai_rev_c.a(dcd.o)
                              /home/leon/git/swp-report/iMX6_Platform_SDK/output/mx6sdl/stream/sabre_ai_rev_c/obj/apps/common/ivt.o (input_dcd_hdr)
/home/leon/git/swp-report/iMX6_Platform_SDK/output/mx6sdl/lib/libboard_sabre_ai_rev_c.a(i2c3_iomux_config.o)
                              /home/leon/git/swp-report/iMX6_Platform_SDK/output/mx6sdl/lib/libboard_sabre_ai_rev_c.a(board_io_expanders.o) (i2c3_iomux_config)
/home/leon/git/swp-report/iMX6_Platform_SDK/output/mx6sdl/lib/libboard_sabre_ai_rev_c.a(uart_iomux_config.o)
                              /home/leon/git/swp-report/iMX6_Platform_SDK/output/mx6sdl/lib/libsdk.a(imx_uart.o) (uart_iomux_config)
/home/leon/git/swp-report/iMX6_Platform_SDK/output/mx6sdl/lib/libboard_sabre_ai_rev_c.a(iomux_config.o)
                              /home/leon/git/swp-report/iMX6_Platform_SDK/output/mx6sdl/lib/libboard_sabre_ai_rev_c.a(uart_iomux_config.o) (uart1_iomux_config)
/home/leon/git/swp-report/iMX6_Platform_SDK/output/mx6sdl/lib/libboard_sabre_ai_rev_c.a(ipu1_iomux_config.o)
                              /home/leon/git/swp-report/iMX6_Platform_SDK/output/mx6sdl/lib/libboard_sabre_ai_rev_c.a(iomux_config.o) (ipu1_iomux_config)
/home/leon/git/swp-report/iMX6_Platform_SDK/output/mx6sdl/lib/libboard_sabre_ai_rev_c.a(mlb_iomux_config.o)
                              /home/leon/git/swp-report/iMX6_Platform_SDK/output/mx6sdl/lib/libboard_sabre_ai_rev_c.a(iomux_config.o) (mlb_iomux_config)
/home/leon/git/swp-report/iMX6_Platform_SDK/output/mx6sdl/lib/libboard_sabre_ai_rev_c.a(mmdc_iomux_config.o)
                              /home/leon/git/swp-report/iMX6_Platform_SDK/output/mx6sdl/lib/libboard_sabre_ai_rev_c.a(iomux_config.o) (mmdc_iomux_config)
/home/leon/git/swp-report/iMX6_Platform_SDK/output/mx6sdl/lib/libboard_sabre_ai_rev_c.a(pwm3_iomux_config.o)
                              /home/leon/git/swp-report/iMX6_Platform_SDK/output/mx6sdl/lib/libboard_sabre_ai_rev_c.a(iomux_config.o) (pwm3_iomux_config)
/home/leon/git/swp-report/iMX6_Platform_SDK/output/mx6sdl/lib/libboard_sabre_ai_rev_c.a(pwm4_iomux_config.o)
                              /home/leon/git/swp-report/iMX6_Platform_SDK/output/mx6sdl/lib/libboard_sabre_ai_rev_c.a(iomux_config.o) (pwm4_iomux_config)
/home/leon/git/swp-report/iMX6_Platform_SDK/output/mx6sdl/lib/libboard_sabre_ai_rev_c.a(sjc_iomux_config.o)
                              /home/leon/git/swp-report/iMX6_Platform_SDK/output/mx6sdl/lib/libboard_sabre_ai_rev_c.a(iomux_config.o) (sjc_iomux_config)
/home/leon/git/swp-report/iMX6_Platform_SDK/output/mx6sdl/lib/libboard_sabre_ai_rev_c.a(spdif_iomux_config.o)
                              /home/leon/git/swp-report/iMX6_Platform_SDK/output/mx6sdl/lib/libboard_sabre_ai_rev_c.a(iomux_config.o) (spdif_iomux_config)
/home/leon/git/swp-report/iMX6_Platform_SDK/output/mx6sdl/lib/libboard_sabre_ai_rev_c.a(uart2_iomux_config.o)
                              /home/leon/git/swp-report/iMX6_Platform_SDK/output/mx6sdl/lib/libboard_sabre_ai_rev_c.a(uart_iomux_config.o) (uart2_iomux_config)
/home/leon/git/swp-report/iMX6_Platform_SDK/output/mx6sdl/lib/libboard_sabre_ai_rev_c.a(uart3_iomux_config.o)
                              /home/leon/git/swp-report/iMX6_Platform_SDK/output/mx6sdl/lib/libboard_sabre_ai_rev_c.a(uart_iomux_config.o) (uart3_iomux_config)
/home/leon/git/swp-report/iMX6_Platform_SDK/output/mx6sdl/lib/libboard_sabre_ai_rev_c.a(uart4_iomux_config.o)
                              /home/leon/git/swp-report/iMX6_Platform_SDK/output/mx6sdl/lib/libboard_sabre_ai_rev_c.a(uart_iomux_config.o) (uart4_iomux_config)
/home/leon/git/swp-report/iMX6_Platform_SDK/output/mx6sdl/lib/libboard_sabre_ai_rev_c.a(usdhc1_iomux_config.o)
                              /home/leon/git/swp-report/iMX6_Platform_SDK/output/mx6sdl/lib/libboard_sabre_ai_rev_c.a(iomux_config.o) (usdhc1_iomux_config)
/home/leon/git/swp-report/iMX6_Platform_SDK/output/mx6sdl/lib/libboard_sabre_ai_rev_c.a(usdhc3_iomux_config.o)
                              /home/leon/git/swp-report/iMX6_Platform_SDK/output/mx6sdl/lib/libboard_sabre_ai_rev_c.a(iomux_config.o) (usdhc3_iomux_config)
/home/leon/git/swp-report/iMX6_Platform_SDK/output/mx6sdl/lib/libboard_sabre_ai_rev_c.a(wdog1_iomux_config.o)
                              /home/leon/git/swp-report/iMX6_Platform_SDK/output/mx6sdl/lib/libboard_sabre_ai_rev_c.a(iomux_config.o) (wdog1_iomux_config)
/home/leon/git/swp-report/iMX6_Platform_SDK/output/mx6sdl/lib/libboard_sabre_ai_rev_c.a(audmux_iomux_config.o)
                              /home/leon/git/swp-report/iMX6_Platform_SDK/output/mx6sdl/lib/libboard_sabre_ai_rev_c.a(iomux_config.o) (audmux_iomux_config)
/home/leon/git/swp-report/iMX6_Platform_SDK/output/mx6sdl/lib/libboard_sabre_ai_rev_c.a(ccm_iomux_config.o)
                              /home/leon/git/swp-report/iMX6_Platform_SDK/output/mx6sdl/lib/libboard_sabre_ai_rev_c.a(iomux_config.o) (ccm_iomux_config)
/home/leon/git/swp-report/iMX6_Platform_SDK/output/mx6sdl/lib/libboard_sabre_ai_rev_c.a(ecspi1_iomux_config.o)
                              /home/leon/git/swp-report/iMX6_Platform_SDK/output/mx6sdl/lib/libboard_sabre_ai_rev_c.a(iomux_config.o) (ecspi1_iomux_config)
/home/leon/git/swp-report/iMX6_Platform_SDK/output/mx6sdl/lib/libboard_sabre_ai_rev_c.a(eim_iomux_config.o)
                              /home/leon/git/swp-report/iMX6_Platform_SDK/output/mx6sdl/lib/libboard_sabre_ai_rev_c.a(iomux_config.o) (eim_iomux_config)
/home/leon/git/swp-report/iMX6_Platform_SDK/output/mx6sdl/lib/libboard_sabre_ai_rev_c.a(enet_iomux_config.o)
                              /home/leon/git/swp-report/iMX6_Platform_SDK/output/mx6sdl/lib/libboard_sabre_ai_rev_c.a(iomux_config.o) (enet_iomux_config)
/home/leon/git/swp-report/iMX6_Platform_SDK/output/mx6sdl/lib/libboard_sabre_ai_rev_c.a(esai_iomux_config.o)
                              /home/leon/git/swp-report/iMX6_Platform_SDK/output/mx6sdl/lib/libboard_sabre_ai_rev_c.a(iomux_config.o) (esai_iomux_config)
/home/leon/git/swp-report/iMX6_Platform_SDK/output/mx6sdl/lib/libboard_sabre_ai_rev_c.a(flexcan1_iomux_config.o)
                              /home/leon/git/swp-report/iMX6_Platform_SDK/output/mx6sdl/lib/libboard_sabre_ai_rev_c.a(iomux_config.o) (flexcan1_iomux_config)
/home/leon/git/swp-report/iMX6_Platform_SDK/output/mx6sdl/lib/libboard_sabre_ai_rev_c.a(flexcan2_iomux_config.o)
                              /home/leon/git/swp-report/iMX6_Platform_SDK/output/mx6sdl/lib/libboard_sabre_ai_rev_c.a(iomux_config.o) (flexcan2_iomux_config)
/home/leon/git/swp-report/iMX6_Platform_SDK/output/mx6sdl/lib/libboard_sabre_ai_rev_c.a(gpio1_iomux_config.o)
                              /home/leon/git/swp-report/iMX6_Platform_SDK/output/mx6sdl/lib/libboard_sabre_ai_rev_c.a(iomux_config.o) (gpio1_iomux_config)
/home/leon/git/swp-report/iMX6_Platform_SDK/output/mx6sdl/lib/libboard_sabre_ai_rev_c.a(gpio2_iomux_config.o)
                              /home/leon/git/swp-report/iMX6_Platform_SDK/output/mx6sdl/lib/libboard_sabre_ai_rev_c.a(iomux_config.o) (gpio2_iomux_config)
/home/leon/git/swp-report/iMX6_Platform_SDK/output/mx6sdl/lib/libboard_sabre_ai_rev_c.a(gpio4_iomux_config.o)
                              /home/leon/git/swp-report/iMX6_Platform_SDK/output/mx6sdl/lib/libboard_sabre_ai_rev_c.a(iomux_config.o) (gpio4_iomux_config)
/home/leon/git/swp-report/iMX6_Platform_SDK/output/mx6sdl/lib/libboard_sabre_ai_rev_c.a(gpio5_iomux_config.o)
                              /home/leon/git/swp-report/iMX6_Platform_SDK/output/mx6sdl/lib/libboard_sabre_ai_rev_c.a(iomux_config.o) (gpio5_iomux_config)
/home/leon/git/swp-report/iMX6_Platform_SDK/output/mx6sdl/lib/libboard_sabre_ai_rev_c.a(gpio6_iomux_config.o)
                              /home/leon/git/swp-report/iMX6_Platform_SDK/output/mx6sdl/lib/libboard_sabre_ai_rev_c.a(iomux_config.o) (gpio6_iomux_config)
/home/leon/git/swp-report/iMX6_Platform_SDK/output/mx6sdl/lib/libboard_sabre_ai_rev_c.a(gpmi_iomux_config.o)
                              /home/leon/git/swp-report/iMX6_Platform_SDK/output/mx6sdl/lib/libboard_sabre_ai_rev_c.a(iomux_config.o) (gpmi_iomux_config)
/home/leon/git/swp-report/iMX6_Platform_SDK/output/mx6sdl/lib/libboard_sabre_ai_rev_c.a(i2c2_iomux_config.o)
                              /home/leon/git/swp-report/iMX6_Platform_SDK/output/mx6sdl/lib/libboard_sabre_ai_rev_c.a(iomux_config.o) (i2c2_iomux_config)
/home/src/arm/target/bin/../arm-none-eabi/lib//libstdc++.a(pure.o)
                              /home/leon/git/swp-report/iMX6_Platform_SDK/output/mx6sdl/lib/libsdk.a(pmu_driver.o) (__cxa_pure_virtual)
/home/src/arm/target/bin/../arm-none-eabi/lib//libstdc++.a(eh_terminate.o)
                              /home/src/arm/target/bin/../arm-none-eabi/lib//libstdc++.a(pure.o) (std::terminate())
/home/src/arm/target/bin/../arm-none-eabi/lib//libstdc++.a(eh_arm.o)
                              /home/src/arm/target/bin/../arm-none-eabi/lib//libstdc++.a(eh_terminate.o) (__cxa_end_cleanup)
/home/src/arm/target/bin/../arm-none-eabi/lib//libstdc++.a(eh_exception.o)
                              /home/src/arm/target/bin/../arm-none-eabi/lib//libstdc++.a(eh_arm.o) (typeinfo for __cxxabiv1::__forced_unwind)
/home/src/arm/target/bin/../arm-none-eabi/lib//libstdc++.a(eh_term_handler.o)
                              /home/src/arm/target/bin/../arm-none-eabi/lib//libstdc++.a(eh_terminate.o) (__cxxabiv1::__terminate_handler)
/home/src/arm/target/bin/../arm-none-eabi/lib//libstdc++.a(eh_globals.o)
                              /home/src/arm/target/bin/../arm-none-eabi/lib//libstdc++.a(eh_arm.o) (__cxa_get_globals)
/home/src/arm/target/bin/../arm-none-eabi/lib//libstdc++.a(eh_call.o)
                              /home/src/arm/target/bin/../arm-none-eabi/lib//libstdc++.a(eh_terminate.o) (__cxa_call_unexpected)
/home/src/arm/target/bin/../arm-none-eabi/lib//libstdc++.a(eh_personality.o)
                              /home/src/arm/target/bin/../arm-none-eabi/lib//libstdc++.a(eh_terminate.o) (__gxx_personality_v0)
/home/src/arm/target/bin/../arm-none-eabi/lib//libstdc++.a(eh_unex_handler.o)
                              /home/src/arm/target/bin/../arm-none-eabi/lib//libstdc++.a(eh_terminate.o) (__cxxabiv1::__unexpected_handler)
/home/src/arm/target/bin/../arm-none-eabi/lib//libstdc++.a(si_class_type_info.o)
                              /home/src/arm/target/bin/../arm-none-eabi/lib//libstdc++.a(eh_exception.o) (vtable for __cxxabiv1::__si_class_type_info)
/home/src/arm/target/bin/../arm-none-eabi/lib//libstdc++.a(eh_throw.o)
                              /home/src/arm/target/bin/../arm-none-eabi/lib//libstdc++.a(eh_call.o) (__cxa_throw)
/home/src/arm/target/bin/../arm-none-eabi/lib//libstdc++.a(vterminate.o)
                              /home/src/arm/target/bin/../arm-none-eabi/lib//libstdc++.a(eh_term_handler.o) (__gnu_cxx::__verbose_terminate_handler())
/home/src/arm/target/bin/../arm-none-eabi/lib//libstdc++.a(eh_catch.o)
                              /home/src/arm/target/bin/../arm-none-eabi/lib//libstdc++.a(eh_terminate.o) (__cxa_begin_catch)
/home/src/arm/target/bin/../arm-none-eabi/lib//libstdc++.a(tinfo.o)
                              /home/src/arm/target/bin/../arm-none-eabi/lib//libstdc++.a(si_class_type_info.o) (std::type_info::__is_pointer_p() const)
/home/src/arm/target/bin/../arm-none-eabi/lib//libstdc++.a(del_op.o)
                              /home/src/arm/target/bin/../arm-none-eabi/lib//libstdc++.a(eh_exception.o) (operator delete(void*))
/home/src/arm/target/bin/../arm-none-eabi/lib//libstdc++.a(cp-demangle.o)
                              /home/src/arm/target/bin/../arm-none-eabi/lib//libstdc++.a(vterminate.o) (__cxa_demangle)
/home/src/arm/target/bin/../arm-none-eabi/lib//libstdc++.a(class_type_info.o)
                              /home/src/arm/target/bin/../arm-none-eabi/lib//libstdc++.a(si_class_type_info.o) (__cxxabiv1::__class_type_info::__do_upcast(__cxxabiv1::__class_type_info const*, void**) const)
/home/src/arm/target/bin/../arm-none-eabi/lib//libstdc++.a(eh_alloc.o)
                              /home/src/arm/target/bin/../arm-none-eabi/lib//libstdc++.a(eh_call.o) (__cxa_allocate_exception)
/home/src/arm/target/bin/../arm-none-eabi/lib//libstdc++.a(eh_type.o)
                              /home/src/arm/target/bin/../arm-none-eabi/lib//libstdc++.a(vterminate.o) (__cxa_current_exception_type)
/home/src/arm/target/bin/../arm-none-eabi/lib//libc.a(lib_a-abort.o)
                              /home/src/arm/target/bin/../arm-none-eabi/lib//libstdc++.a(eh_terminate.o) (abort)
/home/src/arm/target/bin/../arm-none-eabi/lib//libc.a(lib_a-assert.o)
                              /home/leon/git/swp-report/iMX6_Platform_SDK/output/mx6sdl/lib/libsdk.a(gic.o) (__assert_func)
/home/src/arm/target/bin/../arm-none-eabi/lib//libc.a(lib_a-bzero.o)
                              /home/leon/git/swp-report/iMX6_Platform_SDK/output/mx6sdl/lib/libsdk.a(mmu.o) (bzero)
/home/src/arm/target/bin/../arm-none-eabi/lib//libc.a(lib_a-fiprintf.o)
                              /home/src/arm/target/bin/../arm-none-eabi/lib//libc.a(lib_a-assert.o) (fiprintf)
/home/src/arm/target/bin/../arm-none-eabi/lib//libc.a(lib_a-fputc.o)
                              /home/leon/git/swp-report/iMX6_Platform_SDK/output/mx6sdl/lib/libsdk.a(system_util.o) (fputc)
/home/src/arm/target/bin/../arm-none-eabi/lib//libc.a(lib_a-fputs.o)
                              /home/src/arm/target/bin/../arm-none-eabi/lib//libstdc++.a(vterminate.o) (fputs)
/home/src/arm/target/bin/../arm-none-eabi/lib//libc.a(lib_a-fvwrite.o)
                              /home/src/arm/target/bin/../arm-none-eabi/lib//libc.a(lib_a-fputs.o) (__sfvwrite_r)
/home/src/arm/target/bin/../arm-none-eabi/lib//libc.a(lib_a-fwrite.o)
                              /home/src/arm/target/bin/../arm-none-eabi/lib//libstdc++.a(vterminate.o) (fwrite)
/home/src/arm/target/bin/../arm-none-eabi/lib//libc.a(lib_a-impure.o)
                              /home/leon/git/swp-report/iMX6_Platform_SDK/output/mx6sdl/lib/libsdk.a(system_util.o) (_impure_ptr)
/home/src/arm/target/bin/../arm-none-eabi/lib//libc.a(lib_a-init.o)
                              /home/leon/git/swp-report/iMX6_Platform_SDK/output/mx6sdl/lib/libsdk.a(startup.o) (__libc_init_array)
/home/src/arm/target/bin/../arm-none-eabi/lib//libc.a(lib_a-malloc.o)
                              /home/leon/git/swp-report/iMX6_Platform_SDK/output/mx6sdl/lib/libsdk.a(system_util.o) (malloc)
/home/src/arm/target/bin/../arm-none-eabi/lib//libc.a(lib_a-mallocr.o)
                              /home/src/arm/target/bin/../arm-none-eabi/lib//libc.a(lib_a-fvwrite.o) (_malloc_r)
/home/src/arm/target/bin/../arm-none-eabi/lib//libc.a(lib_a-memchr-stub.o)
                              /home/src/arm/target/bin/../arm-none-eabi/lib//libc.a(lib_a-fvwrite.o) (memchr)
/home/src/arm/target/bin/../arm-none-eabi/lib//libc.a(lib_a-memcmp.o)
                              /home/src/arm/target/bin/../arm-none-eabi/lib//libstdc++.a(cp-demangle.o) (memcmp)
/home/src/arm/target/bin/../arm-none-eabi/lib//libc.a(lib_a-memcpy-stub.o)
                              /home/src/arm/target/bin/../arm-none-eabi/lib//libstdc++.a(cp-demangle.o) (memcpy)
/home/src/arm/target/bin/../arm-none-eabi/lib//libc.a(lib_a-memmove.o)
                              /home/src/arm/target/bin/../arm-none-eabi/lib//libc.a(lib_a-fvwrite.o) (memmove)
/home/src/arm/target/bin/../arm-none-eabi/lib//libc.a(lib_a-memset.o)
                              /home/leon/git/swp-report/iMX6_Platform_SDK/output/mx6sdl/stream/sabre_ai_rev_c/obj/apps/common/print_version.o (memset)
/home/src/arm/target/bin/../arm-none-eabi/lib//libc.a(lib_a-mlock.o)
                              /home/src/arm/target/bin/../arm-none-eabi/lib//libc.a(lib_a-mallocr.o) (__malloc_lock)
/home/src/arm/target/bin/../arm-none-eabi/lib//libc.a(lib_a-printf.o)
                              /home/leon/git/swp-report/iMX6_Platform_SDK/output/mx6sdl/stream/sabre_ai_rev_c/obj/apps/common/print_version.o (printf)
/home/src/arm/target/bin/../arm-none-eabi/lib//libc.a(lib_a-putc.o)
                              /home/src/arm/target/bin/../arm-none-eabi/lib//libc.a(lib_a-fputc.o) (_putc_r)
/home/src/arm/target/bin/../arm-none-eabi/lib//libc.a(lib_a-realloc.o)
                              /home/leon/git/swp-report/iMX6_Platform_SDK/output/mx6sdl/lib/libsdk.a(system_util.o) (realloc)
/home/src/arm/target/bin/../arm-none-eabi/lib//libc.a(lib_a-reallocr.o)
                              /home/src/arm/target/bin/../arm-none-eabi/lib//libc.a(lib_a-fvwrite.o) (_realloc_r)
/home/src/arm/target/bin/../arm-none-eabi/lib//libc.a(lib_a-rget.o)
                              /home/leon/git/swp-report/iMX6_Platform_SDK/output/mx6sdl/lib/libsdk.a(system_util.o) (__srget_r)
/home/src/arm/target/bin/../arm-none-eabi/lib//libc.a(lib_a-sbrkr.o)
                              /home/src/arm/target/bin/../arm-none-eabi/lib//libc.a(lib_a-mallocr.o) (_sbrk_r)
/home/src/arm/target/bin/../arm-none-eabi/lib//libc.a(lib_a-signal.o)
                              /home/src/arm/target/bin/../arm-none-eabi/lib//libc.a(lib_a-abort.o) (raise)
/home/src/arm/target/bin/../arm-none-eabi/lib//libc.a(lib_a-signalr.o)
                              /home/src/arm/target/bin/../arm-none-eabi/lib//libc.a(lib_a-signal.o) (_kill_r)
/home/src/arm/target/bin/../arm-none-eabi/lib//libc.a(lib_a-sprintf.o)
                              /home/leon/git/swp-report/iMX6_Platform_SDK/output/mx6sdl/lib/libsdk.a(board_id.o) (sprintf)
/home/src/arm/target/bin/../arm-none-eabi/lib//libc.a(lib_a-strcmp.o)
                              /home/src/arm/target/bin/../arm-none-eabi/lib//libstdc++.a(tinfo.o) (strcmp)
/home/src/arm/target/bin/../arm-none-eabi/lib//libc.a(lib_a-strlen.o)
                              /home/src/arm/target/bin/../arm-none-eabi/lib//libstdc++.a(cp-demangle.o) (strlen)
/home/src/arm/target/bin/../arm-none-eabi/lib//libc.a(lib_a-strncmp.o)
                              /home/src/arm/target/bin/../arm-none-eabi/lib//libstdc++.a(cp-demangle.o) (strncmp)
/home/src/arm/target/bin/../arm-none-eabi/lib//libc.a(lib_a-svfprintf.o)
                              /home/src/arm/target/bin/../arm-none-eabi/lib//libc.a(lib_a-sprintf.o) (_svfprintf_r)
/home/src/arm/target/bin/../arm-none-eabi/lib//libc.a(lib_a-syscalls.o)
                              /home/src/arm/target/bin/../arm-none-eabi/lib//libc.a(lib_a-signalr.o) (_kill)
/home/src/arm/target/bin/../arm-none-eabi/lib//libc.a(lib_a-syswrite.o)
                              /home/src/arm/target/bin/../arm-none-eabi/lib//libstdc++.a(pure.o) (write)
/home/src/arm/target/bin/../arm-none-eabi/lib//libc.a(lib_a-vfiprintf.o)
                              /home/src/arm/target/bin/../arm-none-eabi/lib//libc.a(lib_a-fiprintf.o) (_vfiprintf_r)
/home/src/arm/target/bin/../arm-none-eabi/lib//libc.a(lib_a-vfprintf.o)
                              /home/src/arm/target/bin/../arm-none-eabi/lib//libc.a(lib_a-printf.o) (_vfprintf_r)
/home/src/arm/target/bin/../arm-none-eabi/lib//libc.a(lib_a-vprintf.o)
                              /home/leon/git/swp-report/iMX6_Platform_SDK/output/mx6sdl/lib/libsdk.a(text_color.o) (vprintf)
/home/src/arm/target/bin/../arm-none-eabi/lib//libc.a(lib_a-wbuf.o)
                              /home/src/arm/target/bin/../arm-none-eabi/lib//libc.a(lib_a-putc.o) (__swbuf_r)
/home/src/arm/target/bin/../arm-none-eabi/lib//libc.a(lib_a-writer.o)
                              /home/src/arm/target/bin/../arm-none-eabi/lib//libc.a(lib_a-syswrite.o) (_write_r)
/home/src/arm/target/bin/../arm-none-eabi/lib//libc.a(lib_a-wsetup.o)
                              /home/src/arm/target/bin/../arm-none-eabi/lib//libc.a(lib_a-fvwrite.o) (__swsetup_r)
/home/src/arm/target/bin/../arm-none-eabi/lib//libc.a(lib_a-dtoa.o)
                              /home/src/arm/target/bin/../arm-none-eabi/lib//libc.a(lib_a-svfprintf.o) (_dtoa_r)
/home/src/arm/target/bin/../arm-none-eabi/lib//libc.a(lib_a-errno.o)
                              /home/src/arm/target/bin/../arm-none-eabi/lib//libc.a(lib_a-syscalls.o) (__errno)
/home/src/arm/target/bin/../arm-none-eabi/lib//libc.a(lib_a-fflush.o)
                              /home/src/arm/target/bin/../arm-none-eabi/lib//libc.a(lib_a-fvwrite.o) (_fflush_r)
/home/src/arm/target/bin/../arm-none-eabi/lib//libc.a(lib_a-findfp.o)
                              /home/src/arm/target/bin/../arm-none-eabi/lib//libc.a(lib_a-fputc.o) (__sinit)
/home/src/arm/target/bin/../arm-none-eabi/lib//libc.a(lib_a-fputwc.o)
                              /home/src/arm/target/bin/../arm-none-eabi/lib//libc.a(lib_a-vfiprintf.o) (_fputwc_r)
/home/src/arm/target/bin/../arm-none-eabi/lib//libc.a(lib_a-freer.o)
                              /home/src/arm/target/bin/../arm-none-eabi/lib//libc.a(lib_a-fvwrite.o) (_free_r)
/home/src/arm/target/bin/../arm-none-eabi/lib//libc.a(lib_a-fwalk.o)
                              /home/src/arm/target/bin/../arm-none-eabi/lib//libc.a(lib_a-findfp.o) (_fwalk)
/home/src/arm/target/bin/../arm-none-eabi/lib//libc.a(lib_a-locale.o)
                              /home/src/arm/target/bin/../arm-none-eabi/lib//libc.a(lib_a-fputwc.o) (__locale_mb_cur_max)
/home/src/arm/target/bin/../arm-none-eabi/lib//libc.a(lib_a-makebuf.o)
                              /home/src/arm/target/bin/../arm-none-eabi/lib//libc.a(lib_a-wsetup.o) (__smakebuf_r)
/home/src/arm/target/bin/../arm-none-eabi/lib//libc.a(lib_a-mprec.o)
                              /home/src/arm/target/bin/../arm-none-eabi/lib//libc.a(lib_a-dtoa.o) (_Balloc)
/home/src/arm/target/bin/../arm-none-eabi/lib//libc.a(lib_a-reent.o)
                              /home/src/arm/target/bin/../arm-none-eabi/lib//libc.a(lib_a-sbrkr.o) (errno)
/home/src/arm/target/bin/../arm-none-eabi/lib//libc.a(lib_a-refill.o)
                              /home/src/arm/target/bin/../arm-none-eabi/lib//libc.a(lib_a-rget.o) (__srefill_r)
/home/src/arm/target/bin/../arm-none-eabi/lib//libc.a(lib_a-s_fpclassify.o)
                              /home/src/arm/target/bin/../arm-none-eabi/lib//libc.a(lib_a-svfprintf.o) (__fpclassifyd)
/home/src/arm/target/bin/../arm-none-eabi/lib//libc.a(lib_a-stdio.o)
                              /home/src/arm/target/bin/../arm-none-eabi/lib//libc.a(lib_a-findfp.o) (__sread)
/home/src/arm/target/bin/../arm-none-eabi/lib//libc.a(lib_a-svfiprintf.o)
                              /home/src/arm/target/bin/../arm-none-eabi/lib//libc.a(lib_a-svfprintf.o) (__ssprint_r)
/home/src/arm/target/bin/../arm-none-eabi/lib//libc.a(lib_a-wcrtomb.o)
                              /home/src/arm/target/bin/../arm-none-eabi/lib//libc.a(lib_a-fputwc.o) (_wcrtomb_r)
/home/src/arm/target/bin/../arm-none-eabi/lib//libc.a(lib_a-wctomb_r.o)
                              /home/src/arm/target/bin/../arm-none-eabi/lib//libc.a(lib_a-wcrtomb.o) (__wctomb)
/home/src/arm/target/bin/../arm-none-eabi/lib//libc.a(lib_a-callocr.o)
                              /home/src/arm/target/bin/../arm-none-eabi/lib//libc.a(lib_a-mprec.o) (_calloc_r)
/home/src/arm/target/bin/../arm-none-eabi/lib//libc.a(lib_a-closer.o)
                              /home/src/arm/target/bin/../arm-none-eabi/lib//libc.a(lib_a-stdio.o) (_close_r)
/home/src/arm/target/bin/../arm-none-eabi/lib//libc.a(lib_a-fclose.o)
                              /home/src/arm/target/bin/../arm-none-eabi/lib//libc.a(lib_a-findfp.o) (fclose)
/home/src/arm/target/bin/../arm-none-eabi/lib//libc.a(lib_a-fstatr.o)
                              /home/src/arm/target/bin/../arm-none-eabi/lib//libc.a(lib_a-makebuf.o) (_fstat_r)
/home/src/arm/target/bin/../arm-none-eabi/lib//libc.a(lib_a-isattyr.o)
                              /home/src/arm/target/bin/../arm-none-eabi/lib//libc.a(lib_a-makebuf.o) (_isatty_r)
/home/src/arm/target/bin/../arm-none-eabi/lib//libc.a(lib_a-lseekr.o)
                              /home/src/arm/target/bin/../arm-none-eabi/lib//libc.a(lib_a-stdio.o) (_lseek_r)
/home/src/arm/target/bin/../arm-none-eabi/lib//libc.a(lib_a-readr.o)
                              /home/src/arm/target/bin/../arm-none-eabi/lib//libc.a(lib_a-stdio.o) (_read_r)
/home/src/arm/target/bin/../lib/gcc/arm-none-eabi/4.8.2//libgcc.a(_udivsi3.o)
                              /home/leon/git/swp-report/iMX6_Platform_SDK/output/mx6sdl/stream/sabre_ai_rev_c/obj/apps/stream/src/main.o (__aeabi_uidiv)
/home/src/arm/target/bin/../lib/gcc/arm-none-eabi/4.8.2//libgcc.a(_divsi3.o)
                              /home/src/arm/target/bin/../arm-none-eabi/lib//libc.a(lib_a-fvwrite.o) (__aeabi_idiv)
/home/src/arm/target/bin/../lib/gcc/arm-none-eabi/4.8.2//libgcc.a(_dvmd_tls.o)
                              /home/src/arm/target/bin/../lib/gcc/arm-none-eabi/4.8.2//libgcc.a(_udivsi3.o) (__aeabi_idiv0)
/home/src/arm/target/bin/../lib/gcc/arm-none-eabi/4.8.2//libgcc.a(_arm_addsubdf3.o)
                              /home/src/arm/target/bin/../arm-none-eabi/lib//libc.a(lib_a-dtoa.o) (__aeabi_dsub)
/home/src/arm/target/bin/../lib/gcc/arm-none-eabi/4.8.2//libgcc.a(_arm_muldivdf3.o)
                              /home/src/arm/target/bin/../arm-none-eabi/lib//libc.a(lib_a-dtoa.o) (__aeabi_dmul)
/home/src/arm/target/bin/../lib/gcc/arm-none-eabi/4.8.2//libgcc.a(_arm_cmpdf2.o)
                              /home/src/arm/target/bin/../arm-none-eabi/lib//libc.a(lib_a-svfprintf.o) (__aeabi_dcmpeq)
/home/src/arm/target/bin/../lib/gcc/arm-none-eabi/4.8.2//libgcc.a(_arm_fixdfsi.o)
                              /home/src/arm/target/bin/../arm-none-eabi/lib//libc.a(lib_a-dtoa.o) (__aeabi_d2iz)
/home/src/arm/target/bin/../lib/gcc/arm-none-eabi/4.8.2//libgcc.a(_aeabi_uldivmod.o)
                              /home/leon/git/swp-report/iMX6_Platform_SDK/output/mx6sdl/lib/libsdk.a(timer.o) (__aeabi_uldivmod)
/home/src/arm/target/bin/../lib/gcc/arm-none-eabi/4.8.2//libgcc.a(bpabi.o)
                              /home/src/arm/target/bin/../lib/gcc/arm-none-eabi/4.8.2//libgcc.a(_aeabi_uldivmod.o) (__gnu_uldivmod_helper)
/home/src/arm/target/bin/../lib/gcc/arm-none-eabi/4.8.2//libgcc.a(unwind-arm.o)
                              /home/src/arm/target/bin/../arm-none-eabi/lib//libstdc++.a(eh_arm.o) (__aeabi_unwind_cpp_pr0)
/home/src/arm/target/bin/../lib/gcc/arm-none-eabi/4.8.2//libgcc.a(libunwind.o)
                              /home/src/arm/target/bin/../lib/gcc/arm-none-eabi/4.8.2//libgcc.a(unwind-arm.o) (restore_core_regs)
/home/src/arm/target/bin/../lib/gcc/arm-none-eabi/4.8.2//libgcc.a(pr-support.o)
                              /home/src/arm/target/bin/../lib/gcc/arm-none-eabi/4.8.2//libgcc.a(unwind-arm.o) (__gnu_unwind_execute)
/home/src/arm/target/bin/../lib/gcc/arm-none-eabi/4.8.2//libgcc.a(_divdi3.o)
                              /home/src/arm/target/bin/../lib/gcc/arm-none-eabi/4.8.2//libgcc.a(bpabi.o) (__divdi3)
/home/src/arm/target/bin/../lib/gcc/arm-none-eabi/4.8.2//libgcc.a(_udivdi3.o)
                              /home/src/arm/target/bin/../lib/gcc/arm-none-eabi/4.8.2//libgcc.a(bpabi.o) (__udivdi3)
/home/src/arm/target/bin/../lib/gcc/arm-none-eabi/4.8.2//libgcc.a(_clzsi2.o)
                              /home/src/arm/target/bin/../lib/gcc/arm-none-eabi/4.8.2//libgcc.a(_divdi3.o) (__clzsi2)
/home/leon/git/swp-report/iMX6_Platform_SDK/output/mx6sdl/lib/libsdk.a(max7310.o)
                              /home/leon/git/swp-report/iMX6_Platform_SDK/output/mx6sdl/lib/libboard_sabre_ai_rev_c.a(board_io_expanders.o) (max7310_init)
/home/leon/git/swp-report/iMX6_Platform_SDK/output/mx6sdl/lib/libsdk.a(gpio.o)
                              /home/leon/git/swp-report/iMX6_Platform_SDK/output/mx6sdl/lib/libboard_sabre_ai_rev_c.a(board_io_expanders.o) (gpio_set_gpio)
/home/leon/git/swp-report/iMX6_Platform_SDK/output/mx6sdl/lib/libsdk.a(imx6sdl_gpio_map.o)
                              /home/leon/git/swp-report/iMX6_Platform_SDK/output/mx6sdl/lib/libsdk.a(gpio.o) (k_gpio_mux_registers)
/home/leon/git/swp-report/iMX6_Platform_SDK/output/mx6sdl/lib/libsdk.a(imx_i2c.o)
                              /home/leon/git/swp-report/iMX6_Platform_SDK/output/mx6sdl/lib/libsdk.a(max7310.o) (i2c_read)
/home/leon/git/swp-report/iMX6_Platform_SDK/output/mx6sdl/lib/libboard_sabre_ai_rev_c.a(i2c_iomux_config.o)
                              /home/leon/git/swp-report/iMX6_Platform_SDK/output/mx6sdl/lib/libsdk.a(imx_i2c.o) (i2c_iomux_config)

Allocating common symbols
Common symbol       size              file

errno               0x4               /home/src/arm/target/bin/../arm-none-eabi/lib//libc.a(lib_a-reent.o)

Discarded input sections

 .group         0x0000000000000000        0x8 /home/leon/git/swp-report/iMX6_Platform_SDK/output/mx6sdl/lib/libsdk.a(pmu_driver.o)
 .group         0x0000000000000000        0x8 /home/leon/git/swp-report/iMX6_Platform_SDK/output/mx6sdl/lib/libsdk.a(pmu_driver.o)
 .group         0x0000000000000000        0x8 /home/leon/git/swp-report/iMX6_Platform_SDK/output/mx6sdl/lib/libsdk.a(pmu_driver.o)
 .group         0x0000000000000000        0x8 /home/leon/git/swp-report/iMX6_Platform_SDK/output/mx6sdl/lib/libsdk.a(pmu_driver.o)
 .group         0x0000000000000000        0x8 /home/leon/git/swp-report/iMX6_Platform_SDK/output/mx6sdl/lib/libsdk.a(pmu_driver.o)
 .group         0x0000000000000000        0x8 /home/leon/git/swp-report/iMX6_Platform_SDK/output/mx6sdl/lib/libsdk.a(pmu_driver.o)
 .group         0x0000000000000000        0x8 /home/leon/git/swp-report/iMX6_Platform_SDK/output/mx6sdl/lib/libsdk.a(pmu_driver.o)
 .group         0x0000000000000000        0x8 /home/leon/git/swp-report/iMX6_Platform_SDK/output/mx6sdl/lib/libsdk.a(pmu_driver.o)
 .group         0x0000000000000000        0x8 /home/leon/git/swp-report/iMX6_Platform_SDK/output/mx6sdl/lib/libsdk.a(pmu_driver.o)
 .group         0x0000000000000000        0x8 /home/leon/git/swp-report/iMX6_Platform_SDK/output/mx6sdl/lib/libsdk.a(pmu_driver.o)
 .group         0x0000000000000000        0x8 /home/leon/git/swp-report/iMX6_Platform_SDK/output/mx6sdl/lib/libsdk.a(pmu_driver.o)
 .group         0x0000000000000000        0x8 /home/leon/git/swp-report/iMX6_Platform_SDK/output/mx6sdl/lib/libsdk.a(pmu_driver.o)
 .group         0x0000000000000000        0x8 /home/leon/git/swp-report/iMX6_Platform_SDK/output/mx6sdl/lib/libsdk.a(pmu_driver.o)
 .group         0x0000000000000000        0x8 /home/leon/git/swp-report/iMX6_Platform_SDK/output/mx6sdl/lib/libsdk.a(pmu_driver.o)
 .group         0x0000000000000000        0x8 /home/leon/git/swp-report/iMX6_Platform_SDK/output/mx6sdl/lib/libsdk.a(pmu_driver.o)
 .group         0x0000000000000000        0x8 /home/leon/git/swp-report/iMX6_Platform_SDK/output/mx6sdl/lib/libsdk.a(pmu_driver.o)
 .group         0x0000000000000000        0x8 /home/leon/git/swp-report/iMX6_Platform_SDK/output/mx6sdl/lib/libsdk.a(pmu_driver.o)
 .group         0x0000000000000000        0x8 /home/leon/git/swp-report/iMX6_Platform_SDK/output/mx6sdl/lib/libsdk.a(pmu_driver.o)
 .group         0x0000000000000000        0x8 /home/leon/git/swp-report/iMX6_Platform_SDK/output/mx6sdl/lib/libsdk.a(pmu_driver.o)
 .group         0x0000000000000000        0x8 /home/leon/git/swp-report/iMX6_Platform_SDK/output/mx6sdl/lib/libsdk.a(pmu_driver.o)
 .group         0x0000000000000000        0x8 /home/leon/git/swp-report/iMX6_Platform_SDK/output/mx6sdl/lib/libsdk.a(pmu_driver.o)
 .group         0x0000000000000000        0x8 /home/leon/git/swp-report/iMX6_Platform_SDK/output/mx6sdl/lib/libsdk.a(pmu_driver.o)
 .group         0x0000000000000000        0x8 /home/leon/git/swp-report/iMX6_Platform_SDK/output/mx6sdl/lib/libsdk.a(pmu_driver.o)
 .group         0x0000000000000000        0x8 /home/leon/git/swp-report/iMX6_Platform_SDK/output/mx6sdl/lib/libsdk.a(pmu_driver.o)
 .group         0x0000000000000000        0x8 /home/leon/git/swp-report/iMX6_Platform_SDK/output/mx6sdl/lib/libsdk.a(pmu_driver.o)
 .group         0x0000000000000000        0x8 /home/leon/git/swp-report/iMX6_Platform_SDK/output/mx6sdl/lib/libsdk.a(pmu_driver.o)
 .group         0x0000000000000000        0x8 /home/leon/git/swp-report/iMX6_Platform_SDK/output/mx6sdl/lib/libsdk.a(pmu_driver.o)
 .group         0x0000000000000000        0x8 /home/leon/git/swp-report/iMX6_Platform_SDK/output/mx6sdl/lib/libsdk.a(pmu_driver.o)
 .group         0x0000000000000000        0x8 /home/leon/git/swp-report/iMX6_Platform_SDK/output/mx6sdl/lib/libsdk.a(pmu_driver.o)
 .group         0x0000000000000000        0x8 /home/leon/git/swp-report/iMX6_Platform_SDK/output/mx6sdl/lib/libsdk.a(pmu_driver.o)
 .group         0x0000000000000000        0x8 /home/leon/git/swp-report/iMX6_Platform_SDK/output/mx6sdl/lib/libsdk.a(pmu_driver.o)
 .group         0x0000000000000000        0x8 /home/leon/git/swp-report/iMX6_Platform_SDK/output/mx6sdl/lib/libsdk.a(pmu_driver.o)
 .group         0x0000000000000000        0x8 /home/leon/git/swp-report/iMX6_Platform_SDK/output/mx6sdl/lib/libsdk.a(pmu_driver.o)
 .group         0x0000000000000000        0x8 /home/leon/git/swp-report/iMX6_Platform_SDK/output/mx6sdl/lib/libsdk.a(pmu_driver.o)
 .group         0x0000000000000000        0x8 /home/leon/git/swp-report/iMX6_Platform_SDK/output/mx6sdl/lib/libsdk.a(pmu_driver.o)
 .group         0x0000000000000000        0x8 /home/leon/git/swp-report/iMX6_Platform_SDK/output/mx6sdl/lib/libsdk.a(pmu_driver.o)
 .group         0x0000000000000000        0x8 /home/leon/git/swp-report/iMX6_Platform_SDK/output/mx6sdl/lib/libsdk.a(pmu_driver.o)
 .group         0x0000000000000000        0x8 /home/leon/git/swp-report/iMX6_Platform_SDK/output/mx6sdl/lib/libsdk.a(pmu_driver.o)
 .group         0x0000000000000000        0x8 /home/leon/git/swp-report/iMX6_Platform_SDK/output/mx6sdl/lib/libsdk.a(pmu_driver.o)

Memory Configuration

Name             Origin             Length             Attributes
OCRAM            0x0000000000900000 0x0000000000020000 xrw
DDR              0x0000000010000000 0x0000000080000000 xrw
*default*        0x0000000000000000 0xffffffffffffffff

Linker script and memory map

LOAD /home/src/arm/target/bin/../lib/gcc/arm-none-eabi/4.8.2//crtbegin.o
LOAD /home/src/arm/target/bin/../lib/gcc/arm-none-eabi/4.8.2//crti.o
LOAD /home/src/arm/target/bin/../lib/gcc/arm-none-eabi/4.8.2//crtend.o
LOAD /home/src/arm/target/bin/../lib/gcc/arm-none-eabi/4.8.2//crtn.o

.l1_page_table  0x0000000000900000     0x4000
                0x0000000000900000                __l1_page_table_start = .
                0x0000000000904000                . = (. + 0x4000)
 *fill*         0x0000000000900000     0x4000 

.heap.ocram     0x0000000000904000    0x1bfb8
                0x0000000000904000                __heap_ocram_start = .
                0x000000000091ffb8                . = (. + 0x1bfb8)
 *fill*         0x0000000000904000    0x1bfb8 
                0x000000000091ffb8                __heap_ocram_end = .

.ram_vectors    0x000000000091ffb8       0x48
                0x000000000091ffb8                __ram_vectors_start = .
                0x0000000000920000                . = (. + 0x48)
 *fill*         0x000000000091ffb8       0x48 
                0x0000000000920000                __ram_vectors_end = .
                0x0000000010000000                _start_image_add = ORIGIN (DDR)

.ivt            0x0000000010000000      0x420
                0x0000000010000400                . = (. + 0x400)
 *fill*         0x0000000010000000      0x400 
 *(.ivt)
 .ivt           0x0000000010000400       0x20 /home/leon/git/swp-report/iMX6_Platform_SDK/output/mx6sdl/stream/sabre_ai_rev_c/obj/apps/common/ivt.o
                0x0000000010000400                input_ivt

.boot_data      0x0000000010000420        0xc
                0x0000000010000420                __start_boot_data = .
 *(.boot_data)
 .boot_data     0x0000000010000420        0xc /home/leon/git/swp-report/iMX6_Platform_SDK/output/mx6sdl/stream/sabre_ai_rev_c/obj/apps/common/ivt.o
                0x0000000010000420                bd

.dcd_hdr        0x0000000010000430        0x4
                0x0000000010000430                __start_dcd = .
 *(.dcd_hdr)
 .dcd_hdr       0x0000000010000430        0x4 /home/leon/git/swp-report/iMX6_Platform_SDK/output/mx6sdl/lib/libboard_sabre_ai_rev_c.a(dcd.o)
                0x0000000010000430                input_dcd_hdr

.dcd_wrt_cmd    0x0000000010000434        0x4
 *(.dcd_wrt_cmd)
 .dcd_wrt_cmd   0x0000000010000434        0x4 /home/leon/git/swp-report/iMX6_Platform_SDK/output/mx6sdl/lib/libboard_sabre_ai_rev_c.a(dcd.o)
                0x0000000010000434                input_dcd_wrt_cmd

.dcd_data       0x0000000010000438      0x298
 *(.dcd_data)
 .dcd_data      0x0000000010000438      0x298 /home/leon/git/swp-report/iMX6_Platform_SDK/output/mx6sdl/lib/libboard_sabre_ai_rev_c.a(dcd.o)
                0x0000000010000438                input_dcd

.text           0x00000000100006d0    0x2b0c4
 CREATE_OBJECT_SYMBOLS
 *(.startup)
 .startup       0x00000000100006d0      0x138 /home/leon/git/swp-report/iMX6_Platform_SDK/output/mx6sdl/lib/libsdk.a(startup.o)
                0x00000000100006d0                _start
 *(.text .text.* .gnu.linkonce.t.*)
 .text          0x0000000010000808      0x128 /home/src/arm/target/bin/../lib/gcc/arm-none-eabi/4.8.2//crtbegin.o
 .text          0x0000000010000930        0x0 /home/src/arm/target/bin/../lib/gcc/arm-none-eabi/4.8.2//crti.o
 .text          0x0000000010000930        0x0 /home/src/arm/target/bin/../lib/gcc/arm-none-eabi/4.8.2//crtend.o
 .text          0x0000000010000930        0x0 /home/src/arm/target/bin/../lib/gcc/arm-none-eabi/4.8.2//crtn.o
 .text          0x0000000010000930        0x0 /home/leon/git/swp-report/iMX6_Platform_SDK/output/mx6sdl/stream/sabre_ai_rev_c/obj/apps/common/ivt.o
 .text          0x0000000010000930       0x78 /home/leon/git/swp-report/iMX6_Platform_SDK/output/mx6sdl/stream/sabre_ai_rev_c/obj/apps/common/platform_init.o
                0x0000000010000930                platform_init
 .text          0x00000000100009a8      0x11c /home/leon/git/swp-report/iMX6_Platform_SDK/output/mx6sdl/stream/sabre_ai_rev_c/obj/apps/common/print_version.o
                0x00000000100009a8                print_version
 *fill*         0x0000000010000ac4        0x4 
 .text          0x0000000010000ac8       0xb0 /home/leon/git/swp-report/iMX6_Platform_SDK/output/mx6sdl/stream/sabre_ai_rev_c/obj/apps/stream/src/main.o
                0x0000000010000ac8                mysecond
 .text.startup  0x0000000010000b78       0x44 /home/leon/git/swp-report/iMX6_Platform_SDK/output/mx6sdl/stream/sabre_ai_rev_c/obj/apps/stream/src/main.o
                0x0000000010000b78                main
 *fill*         0x0000000010000bbc        0x4 
 .text          0x0000000010000bc0      0x7a0 /home/leon/git/swp-report/iMX6_Platform_SDK/output/mx6sdl/stream/sabre_ai_rev_c/obj/apps/stream/src/stream.o
                0x0000000010000bc0                checktick
                0x0000000010000c74                checkSTREAMresults
                0x0000000010000e18                streammain
                0x000000001000122c                tuned_STREAM_Copy
                0x000000001000126c                tuned_STREAM_Scale
                0x00000000100012b4                tuned_STREAM_Add
                0x0000000010001308                tuned_STREAM_Triad
 .text          0x0000000010001360      0xc50 /home/leon/git/swp-report/iMX6_Platform_SDK/output/mx6sdl/lib/libsdk.a(ccm_pll.o)
                0x0000000010001360                ccm_init
                0x0000000010001484                get_main_clock
                0x0000000010001710                get_peri_clock
                0x00000000100018b0                ccm_ccgr_config
                0x0000000010001918                clock_gating_config
                0x0000000010001d50                ccm_set_lpm_wakeup_source
                0x0000000010001e44                ccm_enter_low_power
                0x0000000010001eb4                ipu_hsp_clk_config
                0x0000000010001ed4                gpu_clock_config
 .text          0x0000000010001fb0      0x164 /home/leon/git/swp-report/iMX6_Platform_SDK/output/mx6sdl/lib/libsdk.a(cortexA9.o)
                0x0000000010001fb0                arm_set_interrupt_state
                0x0000000010001fd4                cpu_get_current
                0x0000000010001fe0                enable_neon_fpu
                0x0000000010001ffc                disable_strict_align_check
                0x0000000010002010                disable_L1_cache
                0x0000000010002030                get_arm_private_peripheral_base
                0x0000000010002038                arm_unified_tlb_invalidate
                0x0000000010002048                arm_unified_tlb_invalidate_is
                0x0000000010002058                arm_branch_prediction_enable
                0x0000000010002068                arm_branch_prediction_disable
                0x0000000010002078                arm_branch_target_cache_invalidate
                0x0000000010002084                arm_branch_target_cache_invalidate_is
                0x0000000010002090                scu_enable
                0x00000000100020a4                scu_join_smp
                0x00000000100020b4                scu_leave_smp
                0x00000000100020c4                scu_get_cpus_in_smp
                0x00000000100020d8                scu_enable_maintenance_broadcast
                0x00000000100020e8                scu_disable_maintenance_broadcast
                0x00000000100020f8                scu_secure_invalidate
 .text          0x0000000010002114      0x5e0 /home/leon/git/swp-report/iMX6_Platform_SDK/output/mx6sdl/lib/libsdk.a(gic.o)
                0x00000000100021f8                gic_enable
                0x0000000010002258                gic_set_irq_security
                0x0000000010002300                gic_enable_irq
                0x000000001000237c                gic_set_irq_priority
                0x00000000100023c4                gic_set_cpu_target
                0x00000000100024d0                gic_send_sgi
                0x0000000010002524                gic_cpu_enable
                0x0000000010002584                gic_set_cpu_priority_mask
                0x00000000100025b8                gic_read_irq_ack
                0x00000000100025e4                gic_write_end_of_irq
                0x0000000010002614                gic_init
                0x00000000100026b8                gic_init_cpu
 .text          0x00000000100026f4      0x458 /home/leon/git/swp-report/iMX6_Platform_SDK/output/mx6sdl/lib/libsdk.a(mmu.o)
                0x00000000100026f4                mmu_enable
                0x000000001000272c                mmu_disable
                0x0000000010002760                mmu_init
                0x000000001000287c                mmu_map_l1_range
                0x0000000010002a90                mmu_virtual_to_physical
 .text          0x0000000010002b4c        0x0 /home/leon/git/swp-report/iMX6_Platform_SDK/output/mx6sdl/lib/libsdk.a(startup.o)
 .text          0x0000000010002b4c        0x4 /home/leon/git/swp-report/iMX6_Platform_SDK/output/mx6sdl/lib/libsdk.a(vectors.o)
                0x0000000010002b4c                exception_handler
 .text.vectors  0x0000000010002b50       0x48 /home/leon/git/swp-report/iMX6_Platform_SDK/output/mx6sdl/lib/libsdk.a(vectors.o)
                0x0000000010002b50                vectors
 .text          0x0000000010002b98        0x0 /home/leon/git/swp-report/iMX6_Platform_SDK/output/mx6sdl/lib/libsdk.a(sdk_version.o)
 .text          0x0000000010002b98      0x8fc /home/leon/git/swp-report/iMX6_Platform_SDK/output/mx6sdl/lib/libsdk.a(system_util.o)
                0x0000000010002b98                _sys_exit
                0x0000000010002bb4                mybkpt
                0x0000000010002bbc                is_input_char
                0x0000000010002d3c                read_input_string
                0x000000001000301c                get_input_hex
                0x0000000010003294                read_int
                0x00000000100033f0                jump_to_sdp
 .text          0x0000000010003494       0xdc /home/leon/git/swp-report/iMX6_Platform_SDK/output/mx6sdl/lib/libsdk.a(text_color.o)
                0x0000000010003494                printf_color
                0x000000001000352c                get_color_supported
 .text          0x0000000010003570      0x7c8 /home/leon/git/swp-report/iMX6_Platform_SDK/output/mx6sdl/lib/libsdk.a(board_id.o)
                0x0000000010003570                chip_name
                0x0000000010003688                chip_revision
                0x0000000010003760                board_name
                0x0000000010003868                board_revision
                0x0000000010003930                board_description
                0x0000000010003a50                get_board_id
                0x0000000010003b2c                show_board_id
 .text          0x0000000010003d38      0x1cc /home/leon/git/swp-report/iMX6_Platform_SDK/output/mx6sdl/lib/libsdk.a(cpu_workpoint.o)
                0x0000000010003d38                cpu_workpoint_set
 .text          0x0000000010003f04     0x1ba8 /home/leon/git/swp-report/iMX6_Platform_SDK/output/mx6sdl/lib/libsdk.a(pmu_driver.o)
                0x0000000010004160                pmu_init
                0x00000000100042fc                pmu_get_property
                0x000000001000435c                pmu_set_property
                0x00000000100043c0                pmu::Regulator::getProperty(_pmu_regulator_properties, void*)
                0x000000001000463c                pmu::Regulator::setProperty(_pmu_regulator_properties, void const*)
                0x00000000100047b4                pmu::Regulator::setVoltageRange(unsigned long, unsigned long, unsigned long)
                0x0000000010004800                pmu::AnalogRegulator::getProperty(_pmu_regulator_properties, void*)
                0x00000000100048b4                pmu::AnalogRegulator::setProperty(_pmu_regulator_properties, void const*)
                0x0000000010004974                pmu::AnalogRegulator::getOutputMillivolts() const
                0x00000000100049cc                pmu::AnalogRegulator::setOutputMillivolts(unsigned long)
                0x0000000010004ab4                pmu::AnalogRegulator::getBrownoutMillivolts() const
                0x0000000010004b24                pmu::AnalogRegulator::setBrownoutMillivolts(unsigned long)
                0x0000000010004bbc                pmu::AnalogRegulator::isBrownoutDetectEnabled() const
                0x0000000010004bf0                pmu::AnalogRegulator::setBrownoutDetectIsEnabled(bool)
                0x0000000010004c3c                pmu::AnalogRegulator::isEnabled() const
                0x0000000010004c70                pmu::AnalogRegulator::setIsEnabled(bool)
                0x0000000010004cbc                pmu::DigitalRegulator::DigitalRegulator()
                0x0000000010004cbc                pmu::DigitalRegulator::DigitalRegulator()
                0x0000000010004cfc                pmu::DigitalRegulator::getProperty(_pmu_regulator_properties, void*)
                0x0000000010004dfc                pmu::DigitalRegulator::setProperty(_pmu_regulator_properties, void const*)
                0x0000000010004ec4                pmu::DigitalRegulator::isBypassed() const
                0x0000000010004f10                pmu::DigitalRegulator::setIsBypassed(bool)
                0x0000000010004fc4                pmu::DigitalRegulator::getOutputMillivolts() const
                0x0000000010005060                pmu::DigitalRegulator::setOutputMillivolts(unsigned long)
                0x0000000010005144                pmu::DigitalRegulator::getBrownoutMillivolts() const
                0x00000000100051b8                pmu::DigitalRegulator::setBrownoutMillivolts(unsigned long)
                0x0000000010005250                pmu::DigitalRegulator::isEnabled() const
                0x000000001000529c                pmu::DigitalRegulator::setIsEnabled(bool)
                0x0000000010005358                pmu::LDO1p1Regulator::LDO1p1Regulator()
                0x0000000010005358                pmu::LDO1p1Regulator::LDO1p1Regulator()
                0x00000000100053b8                pmu::LDO1p1Regulator::getProperty(_pmu_regulator_properties, void*)
                0x0000000010005450                pmu::LDO1p1Regulator::getOutputMillivolts() const
                0x00000000100054ac                pmu::LDO1p1Regulator::setOutputMillivolts(unsigned long)
                0x00000000100055a0                pmu::LDO2p5Regulator::LDO2p5Regulator()
                0x00000000100055a0                pmu::LDO2p5Regulator::LDO2p5Regulator()
                0x0000000010005600                pmu::LDO3p0Regulator::LDO3p0Regulator()
                0x0000000010005600                pmu::LDO3p0Regulator::LDO3p0Regulator()
                0x0000000010005660                pmu::LDO3p0Regulator::getProperty(_pmu_regulator_properties, void*)
                0x00000000100056cc                pmu::LDO3p0Regulator::setProperty(_pmu_regulator_properties, void const*)
                0x000000001000573c                pmu::LDOARMRegulator::LDOARMRegulator()
                0x000000001000573c                pmu::LDOARMRegulator::LDOARMRegulator()
                0x0000000010005794                pmu::LDOARMRegulator::setBrownoutDetectIsEnabled(bool)
                0x00000000100057e0                pmu::LDOARMRegulator::setRampRate(unsigned long)
                0x0000000010005840                pmu::LDOGraphicsRegulator::LDOGraphicsRegulator()
                0x0000000010005840                pmu::LDOGraphicsRegulator::LDOGraphicsRegulator()
                0x0000000010005898                pmu::LDOGraphicsRegulator::setBrownoutDetectIsEnabled(bool)
                0x00000000100058e4                pmu::LDOGraphicsRegulator::setRampRate(unsigned long)
                0x0000000010005944                pmu::LDOSoCRegulator::LDOSoCRegulator()
                0x0000000010005944                pmu::LDOSoCRegulator::LDOSoCRegulator()
                0x000000001000599c                pmu::LDOSoCRegulator::setBrownoutDetectIsEnabled(bool)
                0x00000000100059e8                pmu::LDOSoCRegulator::setRampRate(unsigned long)
 .text._ZnwjPv  0x0000000010005aac       0x28 /home/leon/git/swp-report/iMX6_Platform_SDK/output/mx6sdl/lib/libsdk.a(pmu_driver.o)
                0x0000000010005aac                operator new(unsigned int, void*)
 .text._ZN3pmu9RegulatorC2Ev
                0x0000000010005ad4       0x64 /home/leon/git/swp-report/iMX6_Platform_SDK/output/mx6sdl/lib/libsdk.a(pmu_driver.o)
                0x0000000010005ad4                pmu::Regulator::Regulator()
                0x0000000010005ad4                pmu::Regulator::Regulator()
 .text._ZN3pmu9Regulator18setBrownoutHandlerEPFv9_pmu_regsE
                0x0000000010005b38       0x2c /home/leon/git/swp-report/iMX6_Platform_SDK/output/mx6sdl/lib/libsdk.a(pmu_driver.o)
                0x0000000010005b38                pmu::Regulator::setBrownoutHandler(void (*)(_pmu_regs))
 .text._ZN3pmu9Regulator18getBrownoutHandlerEv
                0x0000000010005b64       0x28 /home/leon/git/swp-report/iMX6_Platform_SDK/output/mx6sdl/lib/libsdk.a(pmu_driver.o)
                0x0000000010005b64                pmu::Regulator::getBrownoutHandler()
 .text._ZN3pmu15AnalogRegulatorC2ERV15_hw_pmu_reg_1p1
                0x0000000010005b8c       0x50 /home/leon/git/swp-report/iMX6_Platform_SDK/output/mx6sdl/lib/libsdk.a(pmu_driver.o)
                0x0000000010005b8c                pmu::AnalogRegulator::AnalogRegulator(_hw_pmu_reg_1p1 volatile&)
                0x0000000010005b8c                pmu::AnalogRegulator::AnalogRegulator(_hw_pmu_reg_1p1 volatile&)
 .text._ZNK3pmu15LDO1p1Regulator12isInBrownoutEv
                0x0000000010005bdc       0x70 /home/leon/git/swp-report/iMX6_Platform_SDK/output/mx6sdl/lib/libsdk.a(pmu_driver.o)
                0x0000000010005bdc                pmu::LDO1p1Regulator::isInBrownout() const
 .text._ZNK3pmu15LDO1p1Regulator4isOKEv
                0x0000000010005c4c       0x78 /home/leon/git/swp-report/iMX6_Platform_SDK/output/mx6sdl/lib/libsdk.a(pmu_driver.o)
                0x0000000010005c4c                pmu::LDO1p1Regulator::isOK() const
 .text._ZNK3pmu15LDO2p5Regulator12isInBrownoutEv
                0x0000000010005cc4       0x70 /home/leon/git/swp-report/iMX6_Platform_SDK/output/mx6sdl/lib/libsdk.a(pmu_driver.o)
                0x0000000010005cc4                pmu::LDO2p5Regulator::isInBrownout() const
 .text._ZNK3pmu15LDO2p5Regulator4isOKEv
                0x0000000010005d34       0x78 /home/leon/git/swp-report/iMX6_Platform_SDK/output/mx6sdl/lib/libsdk.a(pmu_driver.o)
                0x0000000010005d34                pmu::LDO2p5Regulator::isOK() const
 .text._ZNK3pmu15LDO3p0Regulator12isInBrownoutEv
                0x0000000010005dac       0x70 /home/leon/git/swp-report/iMX6_Platform_SDK/output/mx6sdl/lib/libsdk.a(pmu_driver.o)
                0x0000000010005dac                pmu::LDO3p0Regulator::isInBrownout() const
 .text._ZNK3pmu15LDO3p0Regulator4isOKEv
                0x0000000010005e1c       0x78 /home/leon/git/swp-report/iMX6_Platform_SDK/output/mx6sdl/lib/libsdk.a(pmu_driver.o)
                0x0000000010005e1c                pmu::LDO3p0Regulator::isOK() const
 .text._ZNK3pmu15LDOARMRegulator23isBrownoutDetectEnabledEv
                0x0000000010005e94       0x34 /home/leon/git/swp-report/iMX6_Platform_SDK/output/mx6sdl/lib/libsdk.a(pmu_driver.o)
                0x0000000010005e94                pmu::LDOARMRegulator::isBrownoutDetectEnabled() const
 .text._ZNK3pmu15LDOARMRegulator12isInBrownoutEv
                0x0000000010005ec8       0x6c /home/leon/git/swp-report/iMX6_Platform_SDK/output/mx6sdl/lib/libsdk.a(pmu_driver.o)
                0x0000000010005ec8                pmu::LDOARMRegulator::isInBrownout() const
 .text._ZNK3pmu15LDOARMRegulator4isOKEv
                0x0000000010005f34       0x24 /home/leon/git/swp-report/iMX6_Platform_SDK/output/mx6sdl/lib/libsdk.a(pmu_driver.o)
                0x0000000010005f34                pmu::LDOARMRegulator::isOK() const
 .text._ZNK3pmu15LDOARMRegulator11getRampRateEv
                0x0000000010005f58       0x34 /home/leon/git/swp-report/iMX6_Platform_SDK/output/mx6sdl/lib/libsdk.a(pmu_driver.o)
                0x0000000010005f58                pmu::LDOARMRegulator::getRampRate() const
 .text._ZNK3pmu15LDOARMRegulator10getTriggerEv
                0x0000000010005f8c       0x34 /home/leon/git/swp-report/iMX6_Platform_SDK/output/mx6sdl/lib/libsdk.a(pmu_driver.o)
                0x0000000010005f8c                pmu::LDOARMRegulator::getTrigger() const
 .text._ZN3pmu15LDOARMRegulator10setTriggerEm
                0x0000000010005fc0       0x44 /home/leon/git/swp-report/iMX6_Platform_SDK/output/mx6sdl/lib/libsdk.a(pmu_driver.o)
                0x0000000010005fc0                pmu::LDOARMRegulator::setTrigger(unsigned long)
 .text._ZNK3pmu15LDOARMRegulator11getBrownoutEv
                0x0000000010006004       0x34 /home/leon/git/swp-report/iMX6_Platform_SDK/output/mx6sdl/lib/libsdk.a(pmu_driver.o)
                0x0000000010006004                pmu::LDOARMRegulator::getBrownout() const
 .text._ZN3pmu15LDOARMRegulator11setBrownoutEm
                0x0000000010006038       0x44 /home/leon/git/swp-report/iMX6_Platform_SDK/output/mx6sdl/lib/libsdk.a(pmu_driver.o)
                0x0000000010006038                pmu::LDOARMRegulator::setBrownout(unsigned long)
 .text._ZNK3pmu20LDOGraphicsRegulator23isBrownoutDetectEnabledEv
                0x000000001000607c       0x34 /home/leon/git/swp-report/iMX6_Platform_SDK/output/mx6sdl/lib/libsdk.a(pmu_driver.o)
                0x000000001000607c                pmu::LDOGraphicsRegulator::isBrownoutDetectEnabled() const
 .text._ZNK3pmu20LDOGraphicsRegulator12isInBrownoutEv
                0x00000000100060b0       0x6c /home/leon/git/swp-report/iMX6_Platform_SDK/output/mx6sdl/lib/libsdk.a(pmu_driver.o)
                0x00000000100060b0                pmu::LDOGraphicsRegulator::isInBrownout() const
 .text._ZNK3pmu20LDOGraphicsRegulator4isOKEv
                0x000000001000611c       0x24 /home/leon/git/swp-report/iMX6_Platform_SDK/output/mx6sdl/lib/libsdk.a(pmu_driver.o)
                0x000000001000611c                pmu::LDOGraphicsRegulator::isOK() const
 .text._ZNK3pmu20LDOGraphicsRegulator11getRampRateEv
                0x0000000010006140       0x34 /home/leon/git/swp-report/iMX6_Platform_SDK/output/mx6sdl/lib/libsdk.a(pmu_driver.o)
                0x0000000010006140                pmu::LDOGraphicsRegulator::getRampRate() const
 .text._ZNK3pmu20LDOGraphicsRegulator10getTriggerEv
                0x0000000010006174       0x34 /home/leon/git/swp-report/iMX6_Platform_SDK/output/mx6sdl/lib/libsdk.a(pmu_driver.o)
                0x0000000010006174                pmu::LDOGraphicsRegulator::getTrigger() const
 .text._ZN3pmu20LDOGraphicsRegulator10setTriggerEm
                0x00000000100061a8       0x44 /home/leon/git/swp-report/iMX6_Platform_SDK/output/mx6sdl/lib/libsdk.a(pmu_driver.o)
                0x00000000100061a8                pmu::LDOGraphicsRegulator::setTrigger(unsigned long)
 .text._ZNK3pmu20LDOGraphicsRegulator11getBrownoutEv
                0x00000000100061ec       0x34 /home/leon/git/swp-report/iMX6_Platform_SDK/output/mx6sdl/lib/libsdk.a(pmu_driver.o)
                0x00000000100061ec                pmu::LDOGraphicsRegulator::getBrownout() const
 .text._ZN3pmu20LDOGraphicsRegulator11setBrownoutEm
                0x0000000010006220       0x44 /home/leon/git/swp-report/iMX6_Platform_SDK/output/mx6sdl/lib/libsdk.a(pmu_driver.o)
                0x0000000010006220                pmu::LDOGraphicsRegulator::setBrownout(unsigned long)
 .text._ZNK3pmu15LDOSoCRegulator23isBrownoutDetectEnabledEv
                0x0000000010006264       0x34 /home/leon/git/swp-report/iMX6_Platform_SDK/output/mx6sdl/lib/libsdk.a(pmu_driver.o)
                0x0000000010006264                pmu::LDOSoCRegulator::isBrownoutDetectEnabled() const
 .text._ZNK3pmu15LDOSoCRegulator12isInBrownoutEv
                0x0000000010006298       0x6c /home/leon/git/swp-report/iMX6_Platform_SDK/output/mx6sdl/lib/libsdk.a(pmu_driver.o)
                0x0000000010006298                pmu::LDOSoCRegulator::isInBrownout() const
 .text._ZNK3pmu15LDOSoCRegulator4isOKEv
                0x0000000010006304       0x74 /home/leon/git/swp-report/iMX6_Platform_SDK/output/mx6sdl/lib/libsdk.a(pmu_driver.o)
                0x0000000010006304                pmu::LDOSoCRegulator::isOK() const
 .text._ZNK3pmu15LDOSoCRegulator11getRampRateEv
                0x0000000010006378       0x34 /home/leon/git/swp-report/iMX6_Platform_SDK/output/mx6sdl/lib/libsdk.a(pmu_driver.o)
                0x0000000010006378                pmu::LDOSoCRegulator::getRampRate() const
 .text._ZNK3pmu15LDOSoCRegulator10getTriggerEv
                0x00000000100063ac       0x34 /home/leon/git/swp-report/iMX6_Platform_SDK/output/mx6sdl/lib/libsdk.a(pmu_driver.o)
                0x00000000100063ac                pmu::LDOSoCRegulator::getTrigger() const
 .text._ZN3pmu15LDOSoCRegulator10setTriggerEm
                0x00000000100063e0       0x44 /home/leon/git/swp-report/iMX6_Platform_SDK/output/mx6sdl/lib/libsdk.a(pmu_driver.o)
                0x00000000100063e0                pmu::LDOSoCRegulator::setTrigger(unsigned long)
 .text._ZNK3pmu15LDOSoCRegulator11getBrownoutEv
                0x0000000010006424       0x34 /home/leon/git/swp-report/iMX6_Platform_SDK/output/mx6sdl/lib/libsdk.a(pmu_driver.o)
                0x0000000010006424                pmu::LDOSoCRegulator::getBrownout() const
 .text._ZN3pmu15LDOSoCRegulator11setBrownoutEm
                0x0000000010006458       0x44 /home/leon/git/swp-report/iMX6_Platform_SDK/output/mx6sdl/lib/libsdk.a(pmu_driver.o)
                0x0000000010006458                pmu::LDOSoCRegulator::setBrownout(unsigned long)
 .text._ZN3pmu9_pmu_infoC2Ev
                0x000000001000649c       0x84 /home/leon/git/swp-report/iMX6_Platform_SDK/output/mx6sdl/lib/libsdk.a(pmu_driver.o)
                0x000000001000649c                pmu::_pmu_info::_pmu_info()
                0x000000001000649c                pmu::_pmu_info::_pmu_info()
 .text._ZN3pmu15AnalogRegulatorC2I15_hw_pmu_reg_2p5EERVT_
                0x0000000010006520       0x50 /home/leon/git/swp-report/iMX6_Platform_SDK/output/mx6sdl/lib/libsdk.a(pmu_driver.o)
                0x0000000010006520                pmu::AnalogRegulator::AnalogRegulator<_hw_pmu_reg_2p5>(_hw_pmu_reg_2p5 volatile&)
                0x0000000010006520                pmu::AnalogRegulator::AnalogRegulator<_hw_pmu_reg_2p5>(_hw_pmu_reg_2p5 volatile&)
 .text._ZN3pmu15AnalogRegulatorC2I15_hw_pmu_reg_3p0EERVT_
                0x0000000010006570       0x50 /home/leon/git/swp-report/iMX6_Platform_SDK/output/mx6sdl/lib/libsdk.a(pmu_driver.o)
                0x0000000010006570                pmu::AnalogRegulator::AnalogRegulator<_hw_pmu_reg_3p0>(_hw_pmu_reg_3p0 volatile&)
                0x0000000010006570                pmu::AnalogRegulator::AnalogRegulator<_hw_pmu_reg_3p0>(_hw_pmu_reg_3p0 volatile&)
 .text          0x00000000100065c0      0x8dc /home/leon/git/swp-report/iMX6_Platform_SDK/output/mx6sdl/lib/libsdk.a(epit.o)
                0x00000000100065c0                epit_reload_counter
                0x0000000010006620                epit_get_counter_value
                0x000000001000667c                epit_set_compare_event
                0x00000000100066dc                epit_get_compare_event
                0x00000000100067d4                epit_counter_disable
                0x0000000010006998                epit_counter_enable
                0x0000000010006bf4                epit_setup_interrupt
                0x0000000010006c84                epit_init
 .text          0x0000000010006e9c      0x27c /home/leon/git/swp-report/iMX6_Platform_SDK/output/mx6sdl/lib/libsdk.a(timer.o)
                0x0000000010006e9c                hal_delay_us
                0x0000000010006f08                system_time_init
                0x0000000010007064                time_get_microseconds
 .text          0x0000000010007118     0x281c /home/leon/git/swp-report/iMX6_Platform_SDK/output/mx6sdl/lib/libsdk.a(imx_uart.o)
                0x0000000010007118                uart_get_reffreq
                0x0000000010007214                uart_putchar
                0x0000000010007364                uart_getchar
                0x00000000100074c4                uart_set_FIFO_mode
                0x0000000010007fec                uart_set_loopback_mode
                0x0000000010008240                uart_setup_interrupt
                0x000000001000830c                uart_init
 .text          0x0000000010009934       0x98 /home/leon/git/swp-report/iMX6_Platform_SDK/output/mx6sdl/lib/libsdk.a(arm_abort.o)
                0x0000000010009934                common_abort_handler
                0x0000000010009994                data_abort_handler
                0x00000000100099ac                prefetch_abort_handler
 .text          0x00000000100099cc      0x1b8 /home/leon/git/swp-report/iMX6_Platform_SDK/output/mx6sdl/lib/libsdk.a(interrupt.o)
                0x00000000100099cc                IRQ_HDLR
                0x0000000010009a90                disable_interrupt
                0x0000000010009acc                enable_interrupt
                0x0000000010009b24                register_interrupt_routine
                0x0000000010009b58                default_interrupt_routine
 .text          0x0000000010009b84      0x4bc /home/leon/git/swp-report/iMX6_Platform_SDK/output/mx6sdl/lib/libsdk.a(abort_handler.o)
                0x0000000010009b84                dump_regs
 .text          0x000000001000a040      0x12c /home/leon/git/swp-report/iMX6_Platform_SDK/output/mx6sdl/lib/libboard_sabre_ai_rev_c.a(board_io_expanders.o)
                0x000000001000a040                board_ioexpander_init
                0x000000001000a138                board_ioexpander_iomux_config
 .text          0x000000001000a16c        0x0 /home/leon/git/swp-report/iMX6_Platform_SDK/output/mx6sdl/lib/libboard_sabre_ai_rev_c.a(hardware_modules.o)
 .text          0x000000001000a16c        0x0 /home/leon/git/swp-report/iMX6_Platform_SDK/output/mx6sdl/lib/libboard_sabre_ai_rev_c.a(dcd.o)
 .text          0x000000001000a16c       0x78 /home/leon/git/swp-report/iMX6_Platform_SDK/output/mx6sdl/lib/libboard_sabre_ai_rev_c.a(i2c3_iomux_config.o)
                0x000000001000a16c                i2c3_iomux_config
 .text          0x000000001000a1e4       0x8c /home/leon/git/swp-report/iMX6_Platform_SDK/output/mx6sdl/lib/libboard_sabre_ai_rev_c.a(uart_iomux_config.o)
                0x000000001000a1e4                uart_iomux_config
 .text          0x000000001000a270      0x2c4 /home/leon/git/swp-report/iMX6_Platform_SDK/output/mx6sdl/lib/libboard_sabre_ai_rev_c.a(iomux_config.o)
                0x000000001000a270                iomux_config
                0x000000001000a2f4                arm_iomux_config
                0x000000001000a304                asrc_iomux_config
                0x000000001000a314                dcic1_iomux_config
                0x000000001000a324                dcic2_iomux_config
                0x000000001000a334                ecspi2_iomux_config
                0x000000001000a344                ecspi3_iomux_config
                0x000000001000a354                ecspi4_iomux_config
                0x000000001000a364                epdc_iomux_config
                0x000000001000a374                epit1_iomux_config
                0x000000001000a384                epit2_iomux_config
                0x000000001000a394                gpio3_iomux_config
                0x000000001000a3a4                gpio7_iomux_config
                0x000000001000a3b4                gpt_iomux_config
                0x000000001000a3c4                hdmi_iomux_config
                0x000000001000a3d4                i2c1_iomux_config
                0x000000001000a3e4                i2c4_iomux_config
                0x000000001000a3f4                kpp_iomux_config
                0x000000001000a404                lcd_iomux_config
                0x000000001000a414                ldb_iomux_config
                0x000000001000a424                mipi_csi_iomux_config
                0x000000001000a434                mipi_dsi_iomux_config
                0x000000001000a444                mipi_hsi_iomux_config
                0x000000001000a454                pcie_iomux_config
                0x000000001000a464                pmu_iomux_config
                0x000000001000a474                pwm1_iomux_config
                0x000000001000a484                pwm2_iomux_config
                0x000000001000a494                sdma_iomux_config
                0x000000001000a4a4                snvs_iomux_config
                0x000000001000a4b4                src_iomux_config
                0x000000001000a4c4                uart1_iomux_config
                0x000000001000a4d4                uart5_iomux_config
                0x000000001000a4e4                usb_iomux_config
                0x000000001000a4f4                usdhc2_iomux_config
                0x000000001000a504                usdhc4_iomux_config
                0x000000001000a514                wdog2_iomux_config
                0x000000001000a524                xtalosc_iomux_config
 .text          0x000000001000a534      0x5f8 /home/leon/git/swp-report/iMX6_Platform_SDK/output/mx6sdl/lib/libboard_sabre_ai_rev_c.a(ipu1_iomux_config.o)
                0x000000001000a534                ipu1_iomux_config
 .text          0x000000001000ab2c       0xac /home/leon/git/swp-report/iMX6_Platform_SDK/output/mx6sdl/lib/libboard_sabre_ai_rev_c.a(mlb_iomux_config.o)
                0x000000001000ab2c                mlb_iomux_config
 .text          0x000000001000abd8     0x2484 /home/leon/git/swp-report/iMX6_Platform_SDK/output/mx6sdl/lib/libboard_sabre_ai_rev_c.a(mmdc_iomux_config.o)
                0x000000001000abd8                mmdc_iomux_config
 .text          0x000000001000d05c       0x34 /home/leon/git/swp-report/iMX6_Platform_SDK/output/mx6sdl/lib/libboard_sabre_ai_rev_c.a(pwm3_iomux_config.o)
                0x000000001000d05c                pwm3_iomux_config
 .text          0x000000001000d090       0x34 /home/leon/git/swp-report/iMX6_Platform_SDK/output/mx6sdl/lib/libboard_sabre_ai_rev_c.a(pwm4_iomux_config.o)
                0x000000001000d090                pwm4_iomux_config
 .text          0x000000001000d0c4       0x70 /home/leon/git/swp-report/iMX6_Platform_SDK/output/mx6sdl/lib/libboard_sabre_ai_rev_c.a(sjc_iomux_config.o)
                0x000000001000d0c4                sjc_iomux_config
 .text          0x000000001000d134       0x40 /home/leon/git/swp-report/iMX6_Platform_SDK/output/mx6sdl/lib/libboard_sabre_ai_rev_c.a(spdif_iomux_config.o)
                0x000000001000d134                spdif_iomux_config
 .text          0x000000001000d174       0xe0 /home/leon/git/swp-report/iMX6_Platform_SDK/output/mx6sdl/lib/libboard_sabre_ai_rev_c.a(uart2_iomux_config.o)
                0x000000001000d174                uart2_iomux_config
 .text          0x000000001000d254       0xe0 /home/leon/git/swp-report/iMX6_Platform_SDK/output/mx6sdl/lib/libboard_sabre_ai_rev_c.a(uart3_iomux_config.o)
                0x000000001000d254                uart3_iomux_config
 .text          0x000000001000d334       0x78 /home/leon/git/swp-report/iMX6_Platform_SDK/output/mx6sdl/lib/libboard_sabre_ai_rev_c.a(uart4_iomux_config.o)
                0x000000001000d334                uart4_iomux_config
 .text          0x000000001000d3ac      0x1ac /home/leon/git/swp-report/iMX6_Platform_SDK/output/mx6sdl/lib/libboard_sabre_ai_rev_c.a(usdhc1_iomux_config.o)
                0x000000001000d3ac                usdhc1_iomux_config
 .text          0x000000001000d558      0x1d0 /home/leon/git/swp-report/iMX6_Platform_SDK/output/mx6sdl/lib/libboard_sabre_ai_rev_c.a(usdhc3_iomux_config.o)
                0x000000001000d558                usdhc3_iomux_config
 .text          0x000000001000d728       0x34 /home/leon/git/swp-report/iMX6_Platform_SDK/output/mx6sdl/lib/libboard_sabre_ai_rev_c.a(wdog1_iomux_config.o)
                0x000000001000d728                wdog1_iomux_config
 .text          0x000000001000d75c      0x13c /home/leon/git/swp-report/iMX6_Platform_SDK/output/mx6sdl/lib/libboard_sabre_ai_rev_c.a(audmux_iomux_config.o)
                0x000000001000d75c                audmux_iomux_config
 .text          0x000000001000d898       0x34 /home/leon/git/swp-report/iMX6_Platform_SDK/output/mx6sdl/lib/libboard_sabre_ai_rev_c.a(ccm_iomux_config.o)
                0x000000001000d898                ccm_iomux_config
 .text          0x000000001000d8cc      0x104 /home/leon/git/swp-report/iMX6_Platform_SDK/output/mx6sdl/lib/libboard_sabre_ai_rev_c.a(ecspi1_iomux_config.o)
                0x000000001000d8cc                ecspi1_iomux_config
 .text          0x000000001000d9d0      0x5d0 /home/leon/git/swp-report/iMX6_Platform_SDK/output/mx6sdl/lib/libboard_sabre_ai_rev_c.a(eim_iomux_config.o)
                0x000000001000d9d0                eim_iomux_config
 .text          0x000000001000dfa0      0x3bc /home/leon/git/swp-report/iMX6_Platform_SDK/output/mx6sdl/lib/libboard_sabre_ai_rev_c.a(enet_iomux_config.o)
                0x000000001000dfa0                enet_iomux_config
 .text          0x000000001000e35c      0x218 /home/leon/git/swp-report/iMX6_Platform_SDK/output/mx6sdl/lib/libboard_sabre_ai_rev_c.a(esai_iomux_config.o)
                0x000000001000e35c                esai_iomux_config
 .text          0x000000001000e574       0x68 /home/leon/git/swp-report/iMX6_Platform_SDK/output/mx6sdl/lib/libboard_sabre_ai_rev_c.a(flexcan1_iomux_config.o)
                0x000000001000e574                flexcan1_iomux_config
 .text          0x000000001000e5dc       0x68 /home/leon/git/swp-report/iMX6_Platform_SDK/output/mx6sdl/lib/libboard_sabre_ai_rev_c.a(flexcan2_iomux_config.o)
                0x000000001000e5dc                flexcan2_iomux_config
 .text          0x000000001000e644      0x130 /home/leon/git/swp-report/iMX6_Platform_SDK/output/mx6sdl/lib/libboard_sabre_ai_rev_c.a(gpio1_iomux_config.o)
                0x000000001000e644                gpio1_iomux_config
 .text          0x000000001000e774       0xfc /home/leon/git/swp-report/iMX6_Platform_SDK/output/mx6sdl/lib/libboard_sabre_ai_rev_c.a(gpio2_iomux_config.o)
                0x000000001000e774                gpio2_iomux_config
 .text          0x000000001000e870       0x58 /home/leon/git/swp-report/iMX6_Platform_SDK/output/mx6sdl/lib/libboard_sabre_ai_rev_c.a(gpio4_iomux_config.o)
                0x000000001000e870                gpio4_iomux_config
 .text          0x000000001000e8c8       0xe4 /home/leon/git/swp-report/iMX6_Platform_SDK/output/mx6sdl/lib/libboard_sabre_ai_rev_c.a(gpio5_iomux_config.o)
                0x000000001000e8c8                gpio5_iomux_config
 .text          0x000000001000e9ac       0x54 /home/leon/git/swp-report/iMX6_Platform_SDK/output/mx6sdl/lib/libboard_sabre_ai_rev_c.a(gpio6_iomux_config.o)
                0x000000001000e9ac                gpio6_iomux_config
 .text          0x000000001000ea00      0x274 /home/leon/git/swp-report/iMX6_Platform_SDK/output/mx6sdl/lib/libboard_sabre_ai_rev_c.a(gpmi_iomux_config.o)
                0x000000001000ea00                gpmi_iomux_config
 .text          0x000000001000ec74       0x78 /home/leon/git/swp-report/iMX6_Platform_SDK/output/mx6sdl/lib/libboard_sabre_ai_rev_c.a(i2c2_iomux_config.o)
                0x000000001000ec74                i2c2_iomux_config
 .text          0x000000001000ecec        0x0 /home/src/arm/target/bin/../arm-none-eabi/lib//libstdc++.a(pure.o)
 .text.__cxa_pure_virtual
                0x000000001000ecec       0x1c /home/src/arm/target/bin/../arm-none-eabi/lib//libstdc++.a(pure.o)
                0x000000001000ecec                __cxa_pure_virtual
 .text.__cxa_deleted_virtual
                0x000000001000ed08       0x1c /home/src/arm/target/bin/../arm-none-eabi/lib//libstdc++.a(pure.o)
                0x000000001000ed08                __cxa_deleted_virtual
 .text          0x000000001000ed24        0x0 /home/src/arm/target/bin/../arm-none-eabi/lib//libstdc++.a(eh_terminate.o)
 .text._ZN10__cxxabiv111__terminateEPFvvE
                0x000000001000ed24       0x34 /home/src/arm/target/bin/../arm-none-eabi/lib//libstdc++.a(eh_terminate.o)
                0x000000001000ed24                __cxxabiv1::__terminate(void (*)())
 .text._ZSt9terminatev
                0x000000001000ed58       0x14 /home/src/arm/target/bin/../arm-none-eabi/lib//libstdc++.a(eh_terminate.o)
                0x000000001000ed58                std::terminate()
 .text._ZN10__cxxabiv112__unexpectedEPFvvE
                0x000000001000ed6c       0x10 /home/src/arm/target/bin/../arm-none-eabi/lib//libstdc++.a(eh_terminate.o)
                0x000000001000ed6c                __cxxabiv1::__unexpected(void (*)())
 .text._ZSt10unexpectedv
                0x000000001000ed7c       0x14 /home/src/arm/target/bin/../arm-none-eabi/lib//libstdc++.a(eh_terminate.o)
                0x000000001000ed7c                std::unexpected()
 .text._ZSt13set_terminatePFvvE
                0x000000001000ed90       0x18 /home/src/arm/target/bin/../arm-none-eabi/lib//libstdc++.a(eh_terminate.o)
                0x000000001000ed90                std::set_terminate(void (*)())
 .text._ZSt14set_unexpectedPFvvE
                0x000000001000eda8       0x18 /home/src/arm/target/bin/../arm-none-eabi/lib//libstdc++.a(eh_terminate.o)
                0x000000001000eda8                std::set_unexpected(void (*)())
 .text          0x000000001000edc0        0x0 /home/src/arm/target/bin/../arm-none-eabi/lib//libstdc++.a(eh_arm.o)
 .text.__cxa_end_cleanup
                0x000000001000edc0       0x10 /home/src/arm/target/bin/../arm-none-eabi/lib//libstdc++.a(eh_arm.o)
                0x000000001000edc0                __cxa_end_cleanup
 .text.__cxa_type_match
                0x000000001000edd0      0x148 /home/src/arm/target/bin/../arm-none-eabi/lib//libstdc++.a(eh_arm.o)
                0x000000001000edd0                __cxa_type_match
 .text.__cxa_begin_cleanup
                0x000000001000ef18       0xbc /home/src/arm/target/bin/../arm-none-eabi/lib//libstdc++.a(eh_arm.o)
                0x000000001000ef18                __cxa_begin_cleanup
 .text.__gnu_end_cleanup
                0x000000001000efd4       0xbc /home/src/arm/target/bin/../arm-none-eabi/lib//libstdc++.a(eh_arm.o)
                0x000000001000efd4                __gnu_end_cleanup
 .text          0x000000001000f090        0x0 /home/src/arm/target/bin/../arm-none-eabi/lib//libstdc++.a(eh_exception.o)
 .text._ZNSt9exceptionD2Ev
                0x000000001000f090       0x10 /home/src/arm/target/bin/../arm-none-eabi/lib//libstdc++.a(eh_exception.o)
                0x000000001000f090                std::exception::~exception()
                0x000000001000f090                std::exception::~exception()
 .text._ZNSt13bad_exceptionD2Ev
                0x000000001000f0a0       0x10 /home/src/arm/target/bin/../arm-none-eabi/lib//libstdc++.a(eh_exception.o)
                0x000000001000f0a0                std::bad_exception::~bad_exception()
                0x000000001000f0a0                std::bad_exception::~bad_exception()
 .text._ZN10__cxxabiv115__forced_unwindD2Ev
                0x000000001000f0b0       0x10 /home/src/arm/target/bin/../arm-none-eabi/lib//libstdc++.a(eh_exception.o)
                0x000000001000f0b0                __cxxabiv1::__forced_unwind::~__forced_unwind()
                0x000000001000f0b0                __cxxabiv1::__forced_unwind::~__forced_unwind()
 .text._ZN10__cxxabiv119__foreign_exceptionD2Ev
                0x000000001000f0c0       0x10 /home/src/arm/target/bin/../arm-none-eabi/lib//libstdc++.a(eh_exception.o)
                0x000000001000f0c0                __cxxabiv1::__foreign_exception::~__foreign_exception()
                0x000000001000f0c0                __cxxabiv1::__foreign_exception::~__foreign_exception()
 .text._ZNKSt9exception4whatEv
                0x000000001000f0d0        0xc /home/src/arm/target/bin/../arm-none-eabi/lib//libstdc++.a(eh_exception.o)
                0x000000001000f0d0                std::exception::what() const
 .text._ZNKSt13bad_exception4whatEv
                0x000000001000f0dc        0xc /home/src/arm/target/bin/../arm-none-eabi/lib//libstdc++.a(eh_exception.o)
                0x000000001000f0dc                std::bad_exception::what() const
 .text._ZNSt9exceptionD0Ev
                0x000000001000f0e8       0x24 /home/src/arm/target/bin/../arm-none-eabi/lib//libstdc++.a(eh_exception.o)
                0x000000001000f0e8                std::exception::~exception()
 .text._ZNSt13bad_exceptionD0Ev
                0x000000001000f10c       0x24 /home/src/arm/target/bin/../arm-none-eabi/lib//libstdc++.a(eh_exception.o)
                0x000000001000f10c                std::bad_exception::~bad_exception()
 .text._ZN10__cxxabiv115__forced_unwindD0Ev
                0x000000001000f130       0x24 /home/src/arm/target/bin/../arm-none-eabi/lib//libstdc++.a(eh_exception.o)
                0x000000001000f130                __cxxabiv1::__forced_unwind::~__forced_unwind()
 .text._ZN10__cxxabiv119__foreign_exceptionD0Ev
                0x000000001000f154       0x24 /home/src/arm/target/bin/../arm-none-eabi/lib//libstdc++.a(eh_exception.o)
                0x000000001000f154                __cxxabiv1::__foreign_exception::~__foreign_exception()
 .text          0x000000001000f178        0x0 /home/src/arm/target/bin/../arm-none-eabi/lib//libstdc++.a(eh_term_handler.o)
 .text          0x000000001000f178        0x0 /home/src/arm/target/bin/../arm-none-eabi/lib//libstdc++.a(eh_globals.o)
 .text.__cxa_get_globals_fast
                0x000000001000f178        0xc /home/src/arm/target/bin/../arm-none-eabi/lib//libstdc++.a(eh_globals.o)
                0x000000001000f178                __cxa_get_globals_fast
 .text.__cxa_get_globals
                0x000000001000f184        0xc /home/src/arm/target/bin/../arm-none-eabi/lib//libstdc++.a(eh_globals.o)
                0x000000001000f184                __cxa_get_globals
 .text          0x000000001000f190        0x0 /home/src/arm/target/bin/../arm-none-eabi/lib//libstdc++.a(eh_call.o)
 .text._ZN10__cxxabiv1L24__is_gxx_exception_classEPc
                0x000000001000f190       0x70 /home/src/arm/target/bin/../arm-none-eabi/lib//libstdc++.a(eh_call.o)
 .text.__cxa_call_terminate
                0x000000001000f200       0x2c /home/src/arm/target/bin/../arm-none-eabi/lib//libstdc++.a(eh_call.o)
                0x000000001000f200                __cxa_call_terminate
 .text.__cxa_call_unexpected
                0x000000001000f22c      0x134 /home/src/arm/target/bin/../arm-none-eabi/lib//libstdc++.a(eh_call.o)
                0x000000001000f22c                __cxa_call_unexpected
 .text          0x000000001000f360        0x0 /home/src/arm/target/bin/../arm-none-eabi/lib//libstdc++.a(eh_personality.o)
 .text._ZL12read_sleb128PKhPl
                0x000000001000f360       0x44 /home/src/arm/target/bin/../arm-none-eabi/lib//libstdc++.a(eh_personality.o)
 .text._ZL28read_encoded_value_with_basehjPKhPj
                0x000000001000f3a4      0x168 /home/src/arm/target/bin/../arm-none-eabi/lib//libstdc++.a(eh_personality.o)
 .text._ZL21base_of_encoded_valuehP15_Unwind_Context
                0x000000001000f50c       0x84 /home/src/arm/target/bin/../arm-none-eabi/lib//libstdc++.a(eh_personality.o)
 .text._ZL17parse_lsda_headerP15_Unwind_ContextPKhP16lsda_header_info
                0x000000001000f590       0xe0 /home/src/arm/target/bin/../arm-none-eabi/lib//libstdc++.a(eh_personality.o)
 .text.__gxx_personality_v0
                0x000000001000f670      0x62c /home/src/arm/target/bin/../arm-none-eabi/lib//libstdc++.a(eh_personality.o)
                0x000000001000f670                __gxx_personality_v0
 .text          0x000000001000fc9c        0x0 /home/src/arm/target/bin/../arm-none-eabi/lib//libstdc++.a(eh_unex_handler.o)
 .text          0x000000001000fc9c        0x0 /home/src/arm/target/bin/../arm-none-eabi/lib//libstdc++.a(si_class_type_info.o)
 .text._ZN10__cxxabiv120__si_class_type_infoD2Ev
                0x000000001000fc9c       0x24 /home/src/arm/target/bin/../arm-none-eabi/lib//libstdc++.a(si_class_type_info.o)
                0x000000001000fc9c                __cxxabiv1::__si_class_type_info::~__si_class_type_info()
                0x000000001000fc9c                __cxxabiv1::__si_class_type_info::~__si_class_type_info()
 .text._ZN10__cxxabiv120__si_class_type_infoD0Ev
                0x000000001000fcc0       0x2c /home/src/arm/target/bin/../arm-none-eabi/lib//libstdc++.a(si_class_type_info.o)
                0x000000001000fcc0                __cxxabiv1::__si_class_type_info::~__si_class_type_info()
 .text._ZNK10__cxxabiv120__si_class_type_info20__do_find_public_srcEiPKvPKNS_17__class_type_infoES2_
                0x000000001000fcec       0x6c /home/src/arm/target/bin/../arm-none-eabi/lib//libstdc++.a(si_class_type_info.o)
                0x000000001000fcec                __cxxabiv1::__si_class_type_info::__do_find_public_src(int, void const*, __cxxabiv1::__class_type_info const*, void const*) const
 .text._ZNK10__cxxabiv120__si_class_type_info12__do_dyncastEiNS_17__class_type_info10__sub_kindEPKS1_PKvS4_S6_RNS1_16__dyncast_resultE
                0x000000001000fd58       0xf0 /home/src/arm/target/bin/../arm-none-eabi/lib//libstdc++.a(si_class_type_info.o)
                0x000000001000fd58                __cxxabiv1::__si_class_type_info::__do_dyncast(int, __cxxabiv1::__class_type_info::__sub_kind, __cxxabiv1::__class_type_info const*, void const*, __cxxabiv1::__class_type_info const*, void const*, __cxxabiv1::__class_type_info::__dyncast_result&) const
 .text._ZNK10__cxxabiv120__si_class_type_info11__do_upcastEPKNS_17__class_type_infoEPKvRNS1_15__upcast_resultE
                0x000000001000fe48       0x48 /home/src/arm/target/bin/../arm-none-eabi/lib//libstdc++.a(si_class_type_info.o)
                0x000000001000fe48                __cxxabiv1::__si_class_type_info::__do_upcast(__cxxabiv1::__class_type_info const*, void const*, __cxxabiv1::__class_type_info::__upcast_result&) const
 .text          0x000000001000fe90        0x0 /home/src/arm/target/bin/../arm-none-eabi/lib//libstdc++.a(eh_throw.o)
 .text._ZL23__gxx_exception_cleanup19_Unwind_Reason_CodeP21_Unwind_Control_Block
                0x000000001000fe90       0x3c /home/src/arm/target/bin/../arm-none-eabi/lib//libstdc++.a(eh_throw.o)
 .text.__cxa_throw
                0x000000001000fecc       0x94 /home/src/arm/target/bin/../arm-none-eabi/lib//libstdc++.a(eh_throw.o)
                0x000000001000fecc                __cxa_throw
 .text.__cxa_rethrow
                0x000000001000ff60       0xb0 /home/src/arm/target/bin/../arm-none-eabi/lib//libstdc++.a(eh_throw.o)
                0x000000001000ff60                __cxa_rethrow
 .text          0x0000000010010010        0x0 /home/src/arm/target/bin/../arm-none-eabi/lib//libstdc++.a(vterminate.o)
 .text._ZN9__gnu_cxx27__verbose_terminate_handlerEv
                0x0000000010010010      0x1a0 /home/src/arm/target/bin/../arm-none-eabi/lib//libstdc++.a(vterminate.o)
                0x0000000010010010                __gnu_cxx::__verbose_terminate_handler()
 .text          0x00000000100101b0        0x0 /home/src/arm/target/bin/../arm-none-eabi/lib//libstdc++.a(eh_catch.o)
 .text.__cxa_get_exception_ptr
                0x00000000100101b0        0x8 /home/src/arm/target/bin/../arm-none-eabi/lib//libstdc++.a(eh_catch.o)
                0x00000000100101b0                __cxa_get_exception_ptr
 .text.__cxa_begin_catch
                0x00000000100101b8       0xe4 /home/src/arm/target/bin/../arm-none-eabi/lib//libstdc++.a(eh_catch.o)
                0x00000000100101b8                __cxa_begin_catch
 .text.__cxa_end_catch
                0x000000001001029c       0xe0 /home/src/arm/target/bin/../arm-none-eabi/lib//libstdc++.a(eh_catch.o)
                0x000000001001029c                __cxa_end_catch
 .text._ZSt18uncaught_exceptionv
                0x000000001001037c       0x1c /home/src/arm/target/bin/../arm-none-eabi/lib//libstdc++.a(eh_catch.o)
                0x000000001001037c                std::uncaught_exception()
 .text          0x0000000010010398        0x0 /home/src/arm/target/bin/../arm-none-eabi/lib//libstdc++.a(tinfo.o)
 .text._ZNSt9type_infoD2Ev
                0x0000000010010398       0x10 /home/src/arm/target/bin/../arm-none-eabi/lib//libstdc++.a(tinfo.o)
                0x0000000010010398                std::type_info::~type_info()
                0x0000000010010398                std::type_info::~type_info()
 .text._ZNKSt9type_info14__is_pointer_pEv
                0x00000000100103a8        0x8 /home/src/arm/target/bin/../arm-none-eabi/lib//libstdc++.a(tinfo.o)
                0x00000000100103a8                std::type_info::__is_pointer_p() const
 .text._ZNKSt9type_info15__is_function_pEv
                0x00000000100103b0        0x8 /home/src/arm/target/bin/../arm-none-eabi/lib//libstdc++.a(tinfo.o)
                0x00000000100103b0                std::type_info::__is_function_p() const
 .text._ZNKSt9type_info11__do_upcastEPKN10__cxxabiv117__class_type_infoEPPv
                0x00000000100103b8        0x8 /home/src/arm/target/bin/../arm-none-eabi/lib//libstdc++.a(tinfo.o)
                0x00000000100103b8                std::type_info::__do_upcast(__cxxabiv1::__class_type_info const*, void**) const
 .text._ZNSt9type_infoD0Ev
                0x00000000100103c0       0x24 /home/src/arm/target/bin/../arm-none-eabi/lib//libstdc++.a(tinfo.o)
                0x00000000100103c0                std::type_info::~type_info()
 .text._ZNKSt9type_infoeqERKS_
                0x00000000100103e4       0x50 /home/src/arm/target/bin/../arm-none-eabi/lib//libstdc++.a(tinfo.o)
                0x00000000100103e4                std::type_info::operator==(std::type_info const&) const
 .text._ZNKSt9type_info10__do_catchEPKS_PPvj
                0x0000000010010434        0x4 /home/src/arm/target/bin/../arm-none-eabi/lib//libstdc++.a(tinfo.o)
                0x0000000010010434                std::type_info::__do_catch(std::type_info const*, void**, unsigned int) const
 .text          0x0000000010010438        0x0 /home/src/arm/target/bin/../arm-none-eabi/lib//libstdc++.a(del_op.o)
 .text._ZdlPv   0x0000000010010438       0x14 /home/src/arm/target/bin/../arm-none-eabi/lib//libstdc++.a(del_op.o)
                0x0000000010010438                operator delete(void*)
 .text          0x000000001001044c     0x8604 /home/src/arm/target/bin/../arm-none-eabi/lib//libstdc++.a(cp-demangle.o)
                0x00000000100188cc                __cxa_demangle
                0x0000000010018a20                __gcclibcxx_demangle_callback
 .text          0x0000000010018a50        0x0 /home/src/arm/target/bin/../arm-none-eabi/lib//libstdc++.a(class_type_info.o)
 .text._ZNK10__cxxabiv117__class_type_info11__do_upcastEPKS0_PPv
                0x0000000010018a50       0x64 /home/src/arm/target/bin/../arm-none-eabi/lib//libstdc++.a(class_type_info.o)
                0x0000000010018a50                __cxxabiv1::__class_type_info::__do_upcast(__cxxabiv1::__class_type_info const*, void**) const
 .text._ZNK10__cxxabiv117__class_type_info20__do_find_public_srcEiPKvPKS0_S2_
                0x0000000010018ab4       0x14 /home/src/arm/target/bin/../arm-none-eabi/lib//libstdc++.a(class_type_info.o)
                0x0000000010018ab4                __cxxabiv1::__class_type_info::__do_find_public_src(int, void const*, __cxxabiv1::__class_type_info const*, void const*) const
 .text._ZN10__cxxabiv117__class_type_infoD2Ev
                0x0000000010018ac8       0x24 /home/src/arm/target/bin/../arm-none-eabi/lib//libstdc++.a(class_type_info.o)
                0x0000000010018ac8                __cxxabiv1::__class_type_info::~__class_type_info()
                0x0000000010018ac8                __cxxabiv1::__class_type_info::~__class_type_info()
 .text._ZN10__cxxabiv117__class_type_infoD0Ev
                0x0000000010018aec       0x2c /home/src/arm/target/bin/../arm-none-eabi/lib//libstdc++.a(class_type_info.o)
                0x0000000010018aec                __cxxabiv1::__class_type_info::~__class_type_info()
 .text._ZNK10__cxxabiv117__class_type_info11__do_upcastEPKS0_PKvRNS0_15__upcast_resultE
                0x0000000010018b18       0x30 /home/src/arm/target/bin/../arm-none-eabi/lib//libstdc++.a(class_type_info.o)
                0x0000000010018b18                __cxxabiv1::__class_type_info::__do_upcast(__cxxabiv1::__class_type_info const*, void const*, __cxxabiv1::__class_type_info::__upcast_result&) const
 .text._ZNK10__cxxabiv117__class_type_info10__do_catchEPKSt9type_infoPPvj
                0x0000000010018b48       0x54 /home/src/arm/target/bin/../arm-none-eabi/lib//libstdc++.a(class_type_info.o)
                0x0000000010018b48                __cxxabiv1::__class_type_info::__do_catch(std::type_info const*, void**, unsigned int) const
 .text._ZNK10__cxxabiv117__class_type_info12__do_dyncastEiNS0_10__sub_kindEPKS0_PKvS3_S5_RNS0_16__dyncast_resultE
                0x0000000010018b9c       0x7c /home/src/arm/target/bin/../arm-none-eabi/lib//libstdc++.a(class_type_info.o)
                0x0000000010018b9c                __cxxabiv1::__class_type_info::__do_dyncast(int, __cxxabiv1::__class_type_info::__sub_kind, __cxxabiv1::__class_type_info const*, void const*, __cxxabiv1::__class_type_info const*, void const*, __cxxabiv1::__class_type_info::__dyncast_result&) const
 .text          0x0000000010018c18        0x0 /home/src/arm/target/bin/../arm-none-eabi/lib//libstdc++.a(eh_alloc.o)
 .text.__cxa_allocate_exception
                0x0000000010018c18       0x98 /home/src/arm/target/bin/../arm-none-eabi/lib//libstdc++.a(eh_alloc.o)
                0x0000000010018c18                __cxa_allocate_exception
 .text.__cxa_free_exception
                0x0000000010018cb0       0x58 /home/src/arm/target/bin/../arm-none-eabi/lib//libstdc++.a(eh_alloc.o)
                0x0000000010018cb0                __cxa_free_exception
 .text.__cxa_allocate_dependent_exception
                0x0000000010018d08       0x90 /home/src/arm/target/bin/../arm-none-eabi/lib//libstdc++.a(eh_alloc.o)
                0x0000000010018d08                __cxa_allocate_dependent_exception
 .text.__cxa_free_dependent_exception
                0x0000000010018d98       0x60 /home/src/arm/target/bin/../arm-none-eabi/lib//libstdc++.a(eh_alloc.o)
                0x0000000010018d98                __cxa_free_dependent_exception
 .text          0x0000000010018df8        0x0 /home/src/arm/target/bin/../arm-none-eabi/lib//libstdc++.a(eh_type.o)
 .text.__cxa_current_exception_type
                0x0000000010018df8       0x30 /home/src/arm/target/bin/../arm-none-eabi/lib//libstdc++.a(eh_type.o)
                0x0000000010018df8                __cxa_current_exception_type
 .text          0x0000000010018e28       0x14 /home/src/arm/target/bin/../arm-none-eabi/lib//libc.a(lib_a-abort.o)
                0x0000000010018e28                abort
 .text          0x0000000010018e3c       0x64 /home/src/arm/target/bin/../arm-none-eabi/lib//libc.a(lib_a-assert.o)
                0x0000000010018e3c                __assert_func
                0x0000000010018e90                __assert
 .text          0x0000000010018ea0       0x20 /home/src/arm/target/bin/../arm-none-eabi/lib//libc.a(lib_a-bzero.o)
                0x0000000010018ea0                bzero
 .text          0x0000000010018ec0       0x70 /home/src/arm/target/bin/../arm-none-eabi/lib//libc.a(lib_a-fiprintf.o)
                0x0000000010018ec0                _fiprintf_r
                0x0000000010018ef0                fiprintf
 .text          0x0000000010018f30       0x8c /home/src/arm/target/bin/../arm-none-eabi/lib//libc.a(lib_a-fputc.o)
                0x0000000010018f30                _fputc_r
                0x0000000010018f74                fputc
 .text          0x0000000010018fbc       0xa4 /home/src/arm/target/bin/../arm-none-eabi/lib//libc.a(lib_a-fputs.o)
                0x0000000010018fbc                _fputs_r
                0x0000000010019048                fputs
 .text          0x0000000010019060      0x4dc /home/src/arm/target/bin/../arm-none-eabi/lib//libc.a(lib_a-fvwrite.o)
                0x0000000010019060                __sfvwrite_r
 .text          0x000000001001953c       0xdc /home/src/arm/target/bin/../arm-none-eabi/lib//libc.a(lib_a-fwrite.o)
                0x000000001001953c                _fwrite_r
                0x00000000100195d8                fwrite
 .text          0x0000000010019618        0x0 /home/src/arm/target/bin/../arm-none-eabi/lib//libc.a(lib_a-impure.o)
 .text          0x0000000010019618       0x88 /home/src/arm/target/bin/../arm-none-eabi/lib//libc.a(lib_a-init.o)
                0x0000000010019618                __libc_init_array
 .text          0x00000000100196a0       0x40 /home/src/arm/target/bin/../arm-none-eabi/lib//libc.a(lib_a-malloc.o)
                0x00000000100196a0                malloc
                0x00000000100196c0                free
 .text          0x00000000100196e0      0x72c /home/src/arm/target/bin/../arm-none-eabi/lib//libc.a(lib_a-mallocr.o)
                0x00000000100196e0                _malloc_r
 .text          0x0000000010019e0c      0x114 /home/src/arm/target/bin/../arm-none-eabi/lib//libc.a(lib_a-memchr-stub.o)
                0x0000000010019e0c                memchr
 .text          0x0000000010019f20       0xb4 /home/src/arm/target/bin/../arm-none-eabi/lib//libc.a(lib_a-memcmp.o)
                0x0000000010019f20                memcmp
 .text          0x0000000010019fd4       0xf0 /home/src/arm/target/bin/../arm-none-eabi/lib//libc.a(lib_a-memcpy-stub.o)
                0x0000000010019fd4                memcpy
 .text          0x000000001001a0c4      0x134 /home/src/arm/target/bin/../arm-none-eabi/lib//libc.a(lib_a-memmove.o)
                0x000000001001a0c4                memmove
 .text          0x000000001001a1f8       0xf4 /home/src/arm/target/bin/../arm-none-eabi/lib//libc.a(lib_a-memset.o)
                0x000000001001a1f8                memset
 .text          0x000000001001a2ec        0x8 /home/src/arm/target/bin/../arm-none-eabi/lib//libc.a(lib_a-mlock.o)
                0x000000001001a2ec                __malloc_lock
                0x000000001001a2f0                __malloc_unlock
 .text          0x000000001001a2f4       0x74 /home/src/arm/target/bin/../arm-none-eabi/lib//libc.a(lib_a-printf.o)
                0x000000001001a2f4                _printf_r
                0x000000001001a328                printf
 .text          0x000000001001a368      0x158 /home/src/arm/target/bin/../arm-none-eabi/lib//libc.a(lib_a-putc.o)
                0x000000001001a368                _putc_r
                0x000000001001a40c                putc
 .text          0x000000001001a4c0       0x24 /home/src/arm/target/bin/../arm-none-eabi/lib//libc.a(lib_a-realloc.o)
                0x000000001001a4c0                realloc
 .text          0x000000001001a4e4      0x56c /home/src/arm/target/bin/../arm-none-eabi/lib//libc.a(lib_a-reallocr.o)
                0x000000001001a4e4                _realloc_r
 .text          0x000000001001aa50       0x70 /home/src/arm/target/bin/../arm-none-eabi/lib//libc.a(lib_a-rget.o)
                0x000000001001aa50                __srget_r
                0x000000001001aaac                __srget
 .text          0x000000001001aac0       0x44 /home/src/arm/target/bin/../arm-none-eabi/lib//libc.a(lib_a-sbrkr.o)
                0x000000001001aac0                _sbrk_r
 .text          0x000000001001ab04      0x254 /home/src/arm/target/bin/../arm-none-eabi/lib//libc.a(lib_a-signal.o)
                0x000000001001ab04                _init_signal_r
                0x000000001001ab68                _signal_r
                0x000000001001abdc                _raise_r
                0x000000001001ac74                __sigtramp_r
                0x000000001001ad08                raise
                0x000000001001ad1c                signal
                0x000000001001ad34                _init_signal
                0x000000001001ad44                __sigtramp
 .text          0x000000001001ad58       0x50 /home/src/arm/target/bin/../arm-none-eabi/lib//libc.a(lib_a-signalr.o)
                0x000000001001ad58                _kill_r
                0x000000001001ad98                _getpid_r
 .text          0x000000001001ada8       0xdc /home/src/arm/target/bin/../arm-none-eabi/lib//libc.a(lib_a-sprintf.o)
                0x000000001001ada8                _sprintf_r
                0x000000001001ae10                sprintf
 .text          0x000000001001ae84      0x230 /home/src/arm/target/bin/../arm-none-eabi/lib//libc.a(lib_a-strcmp.o)
                0x000000001001ae84                strcmp
 .text          0x000000001001b0b4       0x60 /home/src/arm/target/bin/../arm-none-eabi/lib//libc.a(lib_a-strlen.o)
                0x000000001001b0b4                strlen
 .text          0x000000001001b114      0x160 /home/src/arm/target/bin/../arm-none-eabi/lib//libc.a(lib_a-strncmp.o)
                0x000000001001b114                strncmp
 .text          0x000000001001b274     0x1d44 /home/src/arm/target/bin/../arm-none-eabi/lib//libc.a(lib_a-svfprintf.o)
                0x000000001001b274                _svfprintf_r
 .text          0x000000001001cfb8      0x9f4 /home/src/arm/target/bin/../arm-none-eabi/lib//libc.a(lib_a-syscalls.o)
                0x000000001001d06c                initialise_monitor_handles
                0x000000001001d130                _swiread
                0x000000001001d170                _read
                0x000000001001d234                _swilseek
                0x000000001001d340                _lseek
                0x000000001001d360                _swiwrite
                0x000000001001d3a0                _write
                0x000000001001d468                _swiopen
                0x000000001001d568                _open
                0x000000001001d59c                _swiclose
                0x000000001001d614                _close
                0x000000001001d634                _kill
                0x000000001001d66c                _exit
                0x000000001001d694                _getpid
                0x000000001001d69c                _sbrk
                0x000000001001d6f4                _fstat
                0x000000001001d728                _stat
                0x000000001001d77c                _link
                0x000000001001d784                _unlink
                0x000000001001d7d8                _raise
                0x000000001001d7dc                _gettimeofday
                0x000000001001d82c                _times
                0x000000001001d870                _isatty
                0x000000001001d8c0                _system
                0x000000001001d944                _rename
 .text          0x000000001001d9ac       0x2c /home/src/arm/target/bin/../arm-none-eabi/lib//libc.a(lib_a-syswrite.o)
                0x000000001001d9ac                write
 .text          0x000000001001d9d8     0x1238 /home/src/arm/target/bin/../arm-none-eabi/lib//libc.a(lib_a-vfiprintf.o)
                0x000000001001da84                __sprint_r
                0x000000001001da9c                _vfiprintf_r
                0x000000001001eb18                vfiprintf
 .text          0x000000001001ec10     0x1e98 /home/src/arm/target/bin/../arm-none-eabi/lib//libc.a(lib_a-vfprintf.o)
                0x000000001001ec10                _vfprintf_r
                0x00000000100209b0                vfprintf
 .text          0x0000000010020aa8       0x48 /home/src/arm/target/bin/../arm-none-eabi/lib//libc.a(lib_a-vprintf.o)
                0x0000000010020aa8                vprintf
                0x0000000010020ad4                _vprintf_r
 .text          0x0000000010020af0      0x13c /home/src/arm/target/bin/../arm-none-eabi/lib//libc.a(lib_a-wbuf.o)
                0x0000000010020af0                __swbuf_r
                0x0000000010020c14                __swbuf
 .text          0x0000000010020c2c       0x44 /home/src/arm/target/bin/../arm-none-eabi/lib//libc.a(lib_a-writer.o)
                0x0000000010020c2c                _write_r
 .text          0x0000000010020c70      0x15c /home/src/arm/target/bin/../arm-none-eabi/lib//libc.a(lib_a-wsetup.o)
                0x0000000010020c70                __swsetup_r
 *fill*         0x0000000010020dcc        0x4 
 .text          0x0000000010020dd0     0x18d8 /home/src/arm/target/bin/../arm-none-eabi/lib//libc.a(lib_a-dtoa.o)
                0x0000000010020fb0                _dtoa_r
 .text          0x00000000100226a8       0x10 /home/src/arm/target/bin/../arm-none-eabi/lib//libc.a(lib_a-errno.o)
                0x00000000100226a8                __errno
 .text          0x00000000100226b8      0x2d4 /home/src/arm/target/bin/../arm-none-eabi/lib//libc.a(lib_a-fflush.o)
                0x00000000100226b8                __sflush_r
                0x00000000100228fc                _fflush_r
                0x0000000010022950                fflush
 .text          0x000000001002298c      0x354 /home/src/arm/target/bin/../arm-none-eabi/lib//libc.a(lib_a-findfp.o)
                0x000000001002299c                _cleanup_r
                0x00000000100229b4                __sfmoreglue
                0x0000000010022a04                _cleanup
                0x0000000010022a28                __sinit
                0x0000000010022b90                __sfp
                0x0000000010022c88                __sfp_lock_acquire
                0x0000000010022c8c                __sfp_lock_release
                0x0000000010022c90                __sinit_lock_acquire
                0x0000000010022c94                __sinit_lock_release
                0x0000000010022c98                __fp_lock_all
                0x0000000010022cbc                __fp_unlock_all
 .text          0x0000000010022ce0      0x188 /home/src/arm/target/bin/../arm-none-eabi/lib//libc.a(lib_a-fputwc.o)
                0x0000000010022ce0                _fputwc_r
                0x0000000010022e24                fputwc
 .text          0x0000000010022e68      0x36c /home/src/arm/target/bin/../arm-none-eabi/lib//libc.a(lib_a-freer.o)
                0x0000000010022e68                _malloc_trim_r
                0x0000000010022f68                _free_r
 .text          0x00000000100231d4      0x110 /home/src/arm/target/bin/../arm-none-eabi/lib//libc.a(lib_a-fwalk.o)
                0x00000000100231d4                _fwalk
                0x0000000010023258                _fwalk_reent
 .text          0x00000000100232e4       0xd0 /home/src/arm/target/bin/../arm-none-eabi/lib//libc.a(lib_a-locale.o)
                0x00000000100232e4                _setlocale_r
                0x0000000010023354                __locale_charset
                0x0000000010023360                __locale_mb_cur_max
                0x0000000010023370                __locale_msgcharset
                0x000000001002337c                __locale_cjk_lang
                0x0000000010023384                _localeconv_r
                0x0000000010023390                setlocale
                0x00000000100233a8                localeconv
 .text          0x00000000100233b4      0x174 /home/src/arm/target/bin/../arm-none-eabi/lib//libc.a(lib_a-makebuf.o)
                0x00000000100233b4                __smakebuf_r
 .text          0x0000000010023528      0xd30 /home/src/arm/target/bin/../arm-none-eabi/lib//libc.a(lib_a-mprec.o)
                0x0000000010023528                _Balloc
                0x00000000100235b4                _Bfree
                0x00000000100235d0                __multadd
                0x00000000100236ac                __s2b
                0x0000000010023794                __hi0bits
                0x00000000100237f0                __lo0bits
                0x0000000010023884                __i2b
                0x00000000100238a8                __multiply
                0x0000000010023a90                __pow5mult
                0x0000000010023b94                __lshift
                0x0000000010023ca0                __mcmp
                0x0000000010023d00                __mdiff
                0x0000000010023e44                __ulp
                0x0000000010023ea8                __b2d
                0x0000000010023f80                __d2b
                0x000000001002408c                __ratio
                0x0000000010024114                _mprec_log10
                0x000000001002416c                __copybits
                0x00000000100241dc                __any_on
 .text          0x0000000010024258      0x134 /home/src/arm/target/bin/../arm-none-eabi/lib//libc.a(lib_a-reent.o)
                0x0000000010024258                cleanup_glue
                0x0000000010024284                _reclaim_reent
 .text          0x000000001002438c      0x20c /home/src/arm/target/bin/../arm-none-eabi/lib//libc.a(lib_a-refill.o)
                0x00000000100243b8                __srefill_r
 .text          0x0000000010024598       0x6c /home/src/arm/target/bin/../arm-none-eabi/lib//libc.a(lib_a-s_fpclassify.o)
                0x0000000010024598                __fpclassifyd
 .text          0x0000000010024604       0xd8 /home/src/arm/target/bin/../arm-none-eabi/lib//libc.a(lib_a-stdio.o)
                0x0000000010024604                __sread
                0x0000000010024638                __seofread
                0x0000000010024640                __swrite
                0x0000000010024698                __sseek
                0x00000000100246c8                __sclose
 .text          0x00000000100246dc     0x101c /home/src/arm/target/bin/../arm-none-eabi/lib//libc.a(lib_a-svfiprintf.o)
                0x00000000100246dc                __ssprint_r
                0x0000000010024888                _svfiprintf_r
 .text          0x00000000100256f8      0x128 /home/src/arm/target/bin/../arm-none-eabi/lib//libc.a(lib_a-wcrtomb.o)
                0x00000000100256f8                _wcrtomb_r
                0x0000000010025788                wcrtomb
 .text          0x0000000010025820       0x7c /home/src/arm/target/bin/../arm-none-eabi/lib//libc.a(lib_a-wctomb_r.o)
                0x0000000010025820                __ascii_wctomb
                0x000000001002584c                _wctomb_r
 .text          0x000000001002589c       0x9c /home/src/arm/target/bin/../arm-none-eabi/lib//libc.a(lib_a-callocr.o)
                0x000000001002589c                _calloc_r
 .text          0x0000000010025938       0x3c /home/src/arm/target/bin/../arm-none-eabi/lib//libc.a(lib_a-closer.o)
                0x0000000010025938                _close_r
 .text          0x0000000010025974      0x104 /home/src/arm/target/bin/../arm-none-eabi/lib//libc.a(lib_a-fclose.o)
                0x0000000010025974                _fclose_r
                0x0000000010025a64                fclose
 .text          0x0000000010025a78       0x40 /home/src/arm/target/bin/../arm-none-eabi/lib//libc.a(lib_a-fstatr.o)
                0x0000000010025a78                _fstat_r
 .text          0x0000000010025ab8       0x3c /home/src/arm/target/bin/../arm-none-eabi/lib//libc.a(lib_a-isattyr.o)
                0x0000000010025ab8                _isatty_r
 .text          0x0000000010025af4       0x44 /home/src/arm/target/bin/../arm-none-eabi/lib//libc.a(lib_a-lseekr.o)
                0x0000000010025af4                _lseek_r
 .text          0x0000000010025b38       0x44 /home/src/arm/target/bin/../arm-none-eabi/lib//libc.a(lib_a-readr.o)
                0x0000000010025b38                _read_r
 .text          0x0000000010025b7c      0x114 /home/src/arm/target/bin/../lib/gcc/arm-none-eabi/4.8.2//libgcc.a(_udivsi3.o)
                0x0000000010025b7c                __udivsi3
                0x0000000010025b7c                __aeabi_uidiv
                0x0000000010025c70                __aeabi_uidivmod
 .text          0x0000000010025c90      0x148 /home/src/arm/target/bin/../lib/gcc/arm-none-eabi/4.8.2//libgcc.a(_divsi3.o)
                0x0000000010025c90                __aeabi_idiv
                0x0000000010025c90                __divsi3
                0x0000000010025db8                __aeabi_idivmod
 .text          0x0000000010025dd8        0x4 /home/src/arm/target/bin/../lib/gcc/arm-none-eabi/4.8.2//libgcc.a(_dvmd_tls.o)
                0x0000000010025dd8                __aeabi_ldiv0
                0x0000000010025dd8                __aeabi_idiv0
 .text          0x0000000010025ddc      0x41c /home/src/arm/target/bin/../lib/gcc/arm-none-eabi/4.8.2//libgcc.a(_arm_addsubdf3.o)
                0x0000000010025ddc                __aeabi_drsub
                0x0000000010025de4                __aeabi_dsub
                0x0000000010025de4                __subdf3
                0x0000000010025de8                __adddf3
                0x0000000010025de8                __aeabi_dadd
                0x00000000100260f8                __aeabi_ui2d
                0x00000000100260f8                __floatunsidf
                0x000000001002611c                __floatsidf
                0x000000001002611c                __aeabi_i2d
                0x0000000010026144                __extendsfdf2
                0x0000000010026144                __aeabi_f2d
                0x0000000010026184                __aeabi_ul2d
                0x0000000010026184                __floatundidf
                0x0000000010026198                __floatdidf
                0x0000000010026198                __aeabi_l2d
 .text          0x00000000100261f8      0x49c /home/src/arm/target/bin/../lib/gcc/arm-none-eabi/4.8.2//libgcc.a(_arm_muldivdf3.o)
                0x00000000100261f8                __aeabi_dmul
                0x00000000100261f8                __muldf3
                0x0000000010026488                __aeabi_ddiv
                0x0000000010026488                __divdf3
 .text          0x0000000010026694      0x144 /home/src/arm/target/bin/../lib/gcc/arm-none-eabi/4.8.2//libgcc.a(_arm_cmpdf2.o)
                0x0000000010026694                __gtdf2
                0x0000000010026694                __gedf2
                0x000000001002669c                __ltdf2
                0x000000001002669c                __ledf2
                0x00000000100266a4                __cmpdf2
                0x00000000100266a4                __eqdf2
                0x00000000100266a4                __nedf2
                0x000000001002672c                __aeabi_cdrcmple
                0x0000000010026748                __aeabi_cdcmple
                0x0000000010026748                __aeabi_cdcmpeq
                0x0000000010026760                __aeabi_dcmpeq
                0x0000000010026778                __aeabi_dcmplt
                0x0000000010026790                __aeabi_dcmple
                0x00000000100267a8                __aeabi_dcmpge
                0x00000000100267c0                __aeabi_dcmpgt
 .text          0x00000000100267d8       0x5c /home/src/arm/target/bin/../lib/gcc/arm-none-eabi/4.8.2//libgcc.a(_arm_fixdfsi.o)
                0x00000000100267d8                __fixdfsi
                0x00000000100267d8                __aeabi_d2iz
 .text          0x0000000010026834       0x3c /home/src/arm/target/bin/../lib/gcc/arm-none-eabi/4.8.2//libgcc.a(_aeabi_uldivmod.o)
                0x0000000010026834                __aeabi_uldivmod
 .text          0x0000000010026870       0x84 /home/src/arm/target/bin/../lib/gcc/arm-none-eabi/4.8.2//libgcc.a(bpabi.o)
                0x0000000010026870                __gnu_ldivmod_helper
                0x00000000100268b4                __gnu_uldivmod_helper
 .text          0x00000000100268f4     0x1004 /home/src/arm/target/bin/../lib/gcc/arm-none-eabi/4.8.2//libgcc.a(unwind-arm.o)
                0x0000000010026d94                _Unwind_GetCFA
                0x0000000010026d9c                __gnu_Unwind_RaiseException
                0x0000000010026e4c                __gnu_Unwind_ForcedUnwind
                0x0000000010026e70                __gnu_Unwind_Resume
                0x0000000010026ee4                __gnu_Unwind_Resume_or_Rethrow
                0x0000000010026f00                _Unwind_Complete
                0x0000000010026f04                _Unwind_DeleteException
                0x0000000010026f28                _Unwind_VRS_Get
                0x0000000010026fb4                _Unwind_VRS_Set
                0x0000000010027040                __gnu_Unwind_Backtrace
                0x0000000010027544                __aeabi_unwind_cpp_pr0
                0x000000001002754c                __aeabi_unwind_cpp_pr1
                0x0000000010027554                __aeabi_unwind_cpp_pr2
                0x000000001002755c                _Unwind_VRS_Pop
 .text          0x00000000100278f8      0x1b0 /home/src/arm/target/bin/../lib/gcc/arm-none-eabi/4.8.2//libgcc.a(libunwind.o)
                0x00000000100278f8                __restore_core_regs
                0x00000000100278f8                restore_core_regs
                0x0000000010027914                __gnu_Unwind_Restore_VFP
                0x000000001002791c                __gnu_Unwind_Save_VFP
                0x0000000010027924                __gnu_Unwind_Restore_VFP_D
                0x000000001002792c                __gnu_Unwind_Save_VFP_D
                0x0000000010027934                __gnu_Unwind_Restore_VFP_D_16_to_31
                0x000000001002793c                __gnu_Unwind_Save_VFP_D_16_to_31
                0x0000000010027944                __gnu_Unwind_Restore_WMMXD
                0x0000000010027988                __gnu_Unwind_Save_WMMXD
                0x00000000100279cc                __gnu_Unwind_Restore_WMMXC
                0x00000000100279e0                __gnu_Unwind_Save_WMMXC
                0x00000000100279f4                ___Unwind_RaiseException
                0x00000000100279f4                _Unwind_RaiseException
                0x0000000010027a18                ___Unwind_Resume
                0x0000000010027a18                _Unwind_Resume
                0x0000000010027a3c                _Unwind_Resume_or_Rethrow
                0x0000000010027a3c                ___Unwind_Resume_or_Rethrow
                0x0000000010027a60                ___Unwind_ForcedUnwind
                0x0000000010027a60                _Unwind_ForcedUnwind
                0x0000000010027a84                _Unwind_Backtrace
                0x0000000010027a84                ___Unwind_Backtrace
 .text          0x0000000010027aa8      0x4d0 /home/src/arm/target/bin/../lib/gcc/arm-none-eabi/4.8.2//libgcc.a(pr-support.o)
                0x0000000010027b3c                __gnu_unwind_execute
                0x0000000010027eec                __gnu_unwind_frame
                0x0000000010027f34                _Unwind_GetRegionStart
                0x0000000010027f48                _Unwind_GetLanguageSpecificData
                0x0000000010027f68                _Unwind_GetDataRelBase
                0x0000000010027f70                _Unwind_GetTextRelBase
 .text          0x0000000010027f78      0x4d0 /home/src/arm/target/bin/../lib/gcc/arm-none-eabi/4.8.2//libgcc.a(_divdi3.o)
                0x0000000010027f78                __divdi3
 .text          0x0000000010028448      0x470 /home/src/arm/target/bin/../lib/gcc/arm-none-eabi/4.8.2//libgcc.a(_udivdi3.o)
                0x0000000010028448                __udivdi3
 .text          0x00000000100288b8       0x48 /home/src/arm/target/bin/../lib/gcc/arm-none-eabi/4.8.2//libgcc.a(_clzsi2.o)
                0x00000000100288b8                __clzsi2
 .text          0x0000000010028900      0x264 /home/leon/git/swp-report/iMX6_Platform_SDK/output/mx6sdl/lib/libsdk.a(max7310.o)
                0x0000000010028900                max7310_reg_read
                0x0000000010028964                max7310_reg_write
                0x00000000100289d0                max7310_init
                0x0000000010028ab0                max7310_set_gpio_output
 .text          0x0000000010028b64     0x1308 /home/leon/git/swp-report/iMX6_Platform_SDK/output/mx6sdl/lib/libsdk.a(gpio.o)
                0x0000000010028b94                gpio_get_port_count
                0x0000000010028bac                gpio_set_gpio
                0x0000000010028c70                gpio_set_direction
                0x0000000010028ecc                gpio_get_direction
                0x0000000010029014                gpio_set_level
                0x0000000010029354                gpio_get_level
                0x00000000100294b4                gpio_set_interrupt_config
                0x00000000100298b8                gpio_set_interrupt_mask
                0x0000000010029afc                gpio_get_interrupt_status
                0x0000000010029c58                gpio_clear_interrupt
 .text          0x0000000010029e6c        0x0 /home/leon/git/swp-report/iMX6_Platform_SDK/output/mx6sdl/lib/libsdk.a(imx6sdl_gpio_map.o)
 .text          0x0000000010029e6c     0x1774 /home/leon/git/swp-report/iMX6_Platform_SDK/output/mx6sdl/lib/libsdk.a(imx_i2c.o)
                0x0000000010029e9c                i2c_get_request_instance
                0x000000001002a8f4                i2c_xfer
                0x000000001002b00c                i2c_read
                0x000000001002b03c                i2c_write
                0x000000001002b06c                i2c_setup_interrupt
                0x000000001002b2d8                i2c_init
 .text          0x000000001002b5e0       0x80 /home/leon/git/swp-report/iMX6_Platform_SDK/output/mx6sdl/lib/libboard_sabre_ai_rev_c.a(i2c_iomux_config.o)
                0x000000001002b5e0                i2c_iomux_config
 *(.glue_7t)
 .glue_7t       0x0000000000000000        0x0 linker stubs
 *(.glue_7)
 .glue_7        0x0000000000000000        0x0 linker stubs
 *(.vfp11_veneer)
 .vfp11_veneer  0x0000000000000000        0x0 linker stubs
 *(.ARM.extab* .gnu.linkonce.armextab.*)
 .ARM.extab.startup
                0x000000001002b660        0x0 /home/leon/git/swp-report/iMX6_Platform_SDK/output/mx6sdl/lib/libsdk.a(startup.o)
 .ARM.extab.text.__cxa_pure_virtual
                0x000000001002b660        0xc /home/src/arm/target/bin/../arm-none-eabi/lib//libstdc++.a(pure.o)
 .ARM.extab.text.__cxa_deleted_virtual
                0x000000001002b66c        0xc /home/src/arm/target/bin/../arm-none-eabi/lib//libstdc++.a(pure.o)
 .ARM.extab.text._ZN10__cxxabiv111__terminateEPFvvE
                0x000000001002b678       0x2c /home/src/arm/target/bin/../arm-none-eabi/lib//libstdc++.a(eh_terminate.o)
 .ARM.extab.text._ZSt9terminatev
                0x000000001002b6a4        0x0 /home/src/arm/target/bin/../arm-none-eabi/lib//libstdc++.a(eh_terminate.o)
 .ARM.extab.text._ZN10__cxxabiv112__unexpectedEPFvvE
                0x000000001002b6a4        0xc /home/src/arm/target/bin/../arm-none-eabi/lib//libstdc++.a(eh_terminate.o)
 .ARM.extab.text._ZSt10unexpectedv
                0x000000001002b6b0        0xc /home/src/arm/target/bin/../arm-none-eabi/lib//libstdc++.a(eh_terminate.o)
 .ARM.extab.text._ZSt13set_terminatePFvvE
                0x000000001002b6bc        0x0 /home/src/arm/target/bin/../arm-none-eabi/lib//libstdc++.a(eh_terminate.o)
 .ARM.extab.text._ZSt14set_unexpectedPFvvE
                0x000000001002b6bc        0x0 /home/src/arm/target/bin/../arm-none-eabi/lib//libstdc++.a(eh_terminate.o)
 .ARM.extab.text.__cxa_type_match
                0x000000001002b6bc        0x0 /home/src/arm/target/bin/../arm-none-eabi/lib//libstdc++.a(eh_arm.o)
 .ARM.extab.text.__cxa_begin_cleanup
                0x000000001002b6bc        0x0 /home/src/arm/target/bin/../arm-none-eabi/lib//libstdc++.a(eh_arm.o)
 .ARM.extab.text.__gnu_end_cleanup
                0x000000001002b6bc        0x0 /home/src/arm/target/bin/../arm-none-eabi/lib//libstdc++.a(eh_arm.o)
 .ARM.extab.text._ZNSt9exceptionD2Ev
                0x000000001002b6bc        0x0 /home/src/arm/target/bin/../arm-none-eabi/lib//libstdc++.a(eh_exception.o)
 .ARM.extab.text._ZNSt13bad_exceptionD2Ev
                0x000000001002b6bc        0x0 /home/src/arm/target/bin/../arm-none-eabi/lib//libstdc++.a(eh_exception.o)
 .ARM.extab.text._ZN10__cxxabiv115__forced_unwindD2Ev
                0x000000001002b6bc        0x0 /home/src/arm/target/bin/../arm-none-eabi/lib//libstdc++.a(eh_exception.o)
 .ARM.extab.text._ZN10__cxxabiv119__foreign_exceptionD2Ev
                0x000000001002b6bc        0x0 /home/src/arm/target/bin/../arm-none-eabi/lib//libstdc++.a(eh_exception.o)
 .ARM.extab.text._ZNKSt9exception4whatEv
                0x000000001002b6bc        0x0 /home/src/arm/target/bin/../arm-none-eabi/lib//libstdc++.a(eh_exception.o)
 .ARM.extab.text._ZNKSt13bad_exception4whatEv
                0x000000001002b6bc        0x0 /home/src/arm/target/bin/../arm-none-eabi/lib//libstdc++.a(eh_exception.o)
 .ARM.extab.text._ZNSt9exceptionD0Ev
                0x000000001002b6bc        0x0 /home/src/arm/target/bin/../arm-none-eabi/lib//libstdc++.a(eh_exception.o)
 .ARM.extab.text._ZNSt13bad_exceptionD0Ev
                0x000000001002b6bc        0x0 /home/src/arm/target/bin/../arm-none-eabi/lib//libstdc++.a(eh_exception.o)
 .ARM.extab.text._ZN10__cxxabiv115__forced_unwindD0Ev
                0x000000001002b6bc        0x0 /home/src/arm/target/bin/../arm-none-eabi/lib//libstdc++.a(eh_exception.o)
 .ARM.extab.text._ZN10__cxxabiv119__foreign_exceptionD0Ev
                0x000000001002b6bc        0x0 /home/src/arm/target/bin/../arm-none-eabi/lib//libstdc++.a(eh_exception.o)
 .ARM.extab.text.__cxa_get_globals_fast
                0x000000001002b6bc        0x0 /home/src/arm/target/bin/../arm-none-eabi/lib//libstdc++.a(eh_globals.o)
 .ARM.extab.text.__cxa_get_globals
                0x000000001002b6bc        0x0 /home/src/arm/target/bin/../arm-none-eabi/lib//libstdc++.a(eh_globals.o)
 .ARM.extab.text._ZN10__cxxabiv1L24__is_gxx_exception_classEPc
                0x000000001002b6bc        0x0 /home/src/arm/target/bin/../arm-none-eabi/lib//libstdc++.a(eh_call.o)
 .ARM.extab.text.__cxa_call_terminate
                0x000000001002b6bc        0x0 /home/src/arm/target/bin/../arm-none-eabi/lib//libstdc++.a(eh_call.o)
 .ARM.extab.text.__cxa_call_unexpected
                0x000000001002b6bc       0x28 /home/src/arm/target/bin/../arm-none-eabi/lib//libstdc++.a(eh_call.o)
 .ARM.extab.text._ZL12read_sleb128PKhPl
                0x000000001002b6e4        0x0 /home/src/arm/target/bin/../arm-none-eabi/lib//libstdc++.a(eh_personality.o)
 .ARM.extab.text._ZL28read_encoded_value_with_basehjPKhPj
                0x000000001002b6e4        0x0 /home/src/arm/target/bin/../arm-none-eabi/lib//libstdc++.a(eh_personality.o)
 .ARM.extab.text._ZL21base_of_encoded_valuehP15_Unwind_Context
                0x000000001002b6e4        0xc /home/src/arm/target/bin/../arm-none-eabi/lib//libstdc++.a(eh_personality.o)
 .ARM.extab.text._ZL17parse_lsda_headerP15_Unwind_ContextPKhP16lsda_header_info
                0x000000001002b6f0        0x0 /home/src/arm/target/bin/../arm-none-eabi/lib//libstdc++.a(eh_personality.o)
 .ARM.extab.text.__gxx_personality_v0
                0x000000001002b6f0       0x20 /home/src/arm/target/bin/../arm-none-eabi/lib//libstdc++.a(eh_personality.o)
 .ARM.extab.text._ZN10__cxxabiv120__si_class_type_infoD2Ev
                0x000000001002b710        0x0 /home/src/arm/target/bin/../arm-none-eabi/lib//libstdc++.a(si_class_type_info.o)
 .ARM.extab.text._ZN10__cxxabiv120__si_class_type_infoD0Ev
                0x000000001002b710        0x0 /home/src/arm/target/bin/../arm-none-eabi/lib//libstdc++.a(si_class_type_info.o)
 .ARM.extab.text._ZNK10__cxxabiv120__si_class_type_info20__do_find_public_srcEiPKvPKNS_17__class_type_infoES2_
                0x000000001002b710        0x0 /home/src/arm/target/bin/../arm-none-eabi/lib//libstdc++.a(si_class_type_info.o)
 .ARM.extab.text._ZNK10__cxxabiv120__si_class_type_info12__do_dyncastEiNS_17__class_type_info10__sub_kindEPKS1_PKvS4_S6_RNS1_16__dyncast_resultE
                0x000000001002b710        0x0 /home/src/arm/target/bin/../arm-none-eabi/lib//libstdc++.a(si_class_type_info.o)
 .ARM.extab.text._ZNK10__cxxabiv120__si_class_type_info11__do_upcastEPKNS_17__class_type_infoEPKvRNS1_15__upcast_resultE
                0x000000001002b710        0x0 /home/src/arm/target/bin/../arm-none-eabi/lib//libstdc++.a(si_class_type_info.o)
 .ARM.extab.text._ZL23__gxx_exception_cleanup19_Unwind_Reason_CodeP21_Unwind_Control_Block
                0x000000001002b710        0x0 /home/src/arm/target/bin/../arm-none-eabi/lib//libstdc++.a(eh_throw.o)
 .ARM.extab.text.__cxa_throw
                0x000000001002b710        0x0 /home/src/arm/target/bin/../arm-none-eabi/lib//libstdc++.a(eh_throw.o)
 .ARM.extab.text.__cxa_rethrow
                0x000000001002b710        0x0 /home/src/arm/target/bin/../arm-none-eabi/lib//libstdc++.a(eh_throw.o)
 .ARM.extab.text._ZN9__gnu_cxx27__verbose_terminate_handlerEv
                0x000000001002b710       0x34 /home/src/arm/target/bin/../arm-none-eabi/lib//libstdc++.a(vterminate.o)
 .ARM.extab.text.__cxa_get_exception_ptr
                0x000000001002b744        0x0 /home/src/arm/target/bin/../arm-none-eabi/lib//libstdc++.a(eh_catch.o)
 .ARM.extab.text.__cxa_begin_catch
                0x000000001002b744       0x20 /home/src/arm/target/bin/../arm-none-eabi/lib//libstdc++.a(eh_catch.o)
 .ARM.extab.text.__cxa_end_catch
                0x000000001002b764        0xc /home/src/arm/target/bin/../arm-none-eabi/lib//libstdc++.a(eh_catch.o)
 .ARM.extab.text._ZSt18uncaught_exceptionv
                0x000000001002b770        0x0 /home/src/arm/target/bin/../arm-none-eabi/lib//libstdc++.a(eh_catch.o)
 .ARM.extab.text._ZNSt9type_infoD2Ev
                0x000000001002b770        0x0 /home/src/arm/target/bin/../arm-none-eabi/lib//libstdc++.a(tinfo.o)
 .ARM.extab.text._ZNKSt9type_info14__is_pointer_pEv
                0x000000001002b770        0x0 /home/src/arm/target/bin/../arm-none-eabi/lib//libstdc++.a(tinfo.o)
 .ARM.extab.text._ZNKSt9type_info15__is_function_pEv
                0x000000001002b770        0x0 /home/src/arm/target/bin/../arm-none-eabi/lib//libstdc++.a(tinfo.o)
 .ARM.extab.text._ZNKSt9type_info11__do_upcastEPKN10__cxxabiv117__class_type_infoEPPv
                0x000000001002b770        0x0 /home/src/arm/target/bin/../arm-none-eabi/lib//libstdc++.a(tinfo.o)
 .ARM.extab.text._ZNSt9type_infoD0Ev
                0x000000001002b770        0x0 /home/src/arm/target/bin/../arm-none-eabi/lib//libstdc++.a(tinfo.o)
 .ARM.extab.text._ZNKSt9type_infoeqERKS_
                0x000000001002b770        0x0 /home/src/arm/target/bin/../arm-none-eabi/lib//libstdc++.a(tinfo.o)
 .ARM.extab.text._ZNKSt9type_info10__do_catchEPKS_PPvj
                0x000000001002b770        0x0 /home/src/arm/target/bin/../arm-none-eabi/lib//libstdc++.a(tinfo.o)
 .ARM.extab.text._ZdlPv
                0x000000001002b770        0x0 /home/src/arm/target/bin/../arm-none-eabi/lib//libstdc++.a(del_op.o)
 .ARM.extab.text._ZNK10__cxxabiv117__class_type_info11__do_upcastEPKS0_PPv
                0x000000001002b770        0x0 /home/src/arm/target/bin/../arm-none-eabi/lib//libstdc++.a(class_type_info.o)
 .ARM.extab.text._ZNK10__cxxabiv117__class_type_info20__do_find_public_srcEiPKvPKS0_S2_
                0x000000001002b770        0x0 /home/src/arm/target/bin/../arm-none-eabi/lib//libstdc++.a(class_type_info.o)
 .ARM.extab.text._ZN10__cxxabiv117__class_type_infoD2Ev
                0x000000001002b770        0x0 /home/src/arm/target/bin/../arm-none-eabi/lib//libstdc++.a(class_type_info.o)
 .ARM.extab.text._ZN10__cxxabiv117__class_type_infoD0Ev
                0x000000001002b770        0x0 /home/src/arm/target/bin/../arm-none-eabi/lib//libstdc++.a(class_type_info.o)
 .ARM.extab.text._ZNK10__cxxabiv117__class_type_info11__do_upcastEPKS0_PKvRNS0_15__upcast_resultE
                0x000000001002b770        0x0 /home/src/arm/target/bin/../arm-none-eabi/lib//libstdc++.a(class_type_info.o)
 .ARM.extab.text._ZNK10__cxxabiv117__class_type_info10__do_catchEPKSt9type_infoPPvj
                0x000000001002b770        0x0 /home/src/arm/target/bin/../arm-none-eabi/lib//libstdc++.a(class_type_info.o)
 .ARM.extab.text._ZNK10__cxxabiv117__class_type_info12__do_dyncastEiNS0_10__sub_kindEPKS0_PKvS3_S5_RNS0_16__dyncast_resultE
                0x000000001002b770        0x0 /home/src/arm/target/bin/../arm-none-eabi/lib//libstdc++.a(class_type_info.o)
 .ARM.extab.text.__cxa_allocate_exception
                0x000000001002b770        0x0 /home/src/arm/target/bin/../arm-none-eabi/lib//libstdc++.a(eh_alloc.o)
 .ARM.extab.text.__cxa_free_exception
                0x000000001002b770        0x0 /home/src/arm/target/bin/../arm-none-eabi/lib//libstdc++.a(eh_alloc.o)
 .ARM.extab.text.__cxa_allocate_dependent_exception
                0x000000001002b770        0x0 /home/src/arm/target/bin/../arm-none-eabi/lib//libstdc++.a(eh_alloc.o)
 .ARM.extab.text.__cxa_free_dependent_exception
                0x000000001002b770        0x0 /home/src/arm/target/bin/../arm-none-eabi/lib//libstdc++.a(eh_alloc.o)
 .ARM.extab.text.__cxa_current_exception_type
                0x000000001002b770        0x0 /home/src/arm/target/bin/../arm-none-eabi/lib//libstdc++.a(eh_type.o)
 .ARM.extab     0x000000001002b770        0xc /home/src/arm/target/bin/../lib/gcc/arm-none-eabi/4.8.2//libgcc.a(unwind-arm.o)
 .ARM.extab     0x000000001002b77c       0x18 /home/src/arm/target/bin/../lib/gcc/arm-none-eabi/4.8.2//libgcc.a(pr-support.o)
 .ARM.extab     0x000000001002b794        0x0 /home/src/arm/target/bin/../lib/gcc/arm-none-eabi/4.8.2//libgcc.a(_divdi3.o)
 .ARM.extab     0x000000001002b794        0x0 /home/src/arm/target/bin/../lib/gcc/arm-none-eabi/4.8.2//libgcc.a(_udivdi3.o)
 *(.gcc_except_table)

.v4_bx          0x000000001002b794        0x0
 .v4_bx         0x0000000000000000        0x0 linker stubs

.iplt           0x000000001002b794        0x0
 .iplt          0x0000000000000000        0x0 /home/src/arm/target/bin/../lib/gcc/arm-none-eabi/4.8.2//crtbegin.o

.ctors
 *crtbegin.o(.ctors)
 *crtbegin?.o(.ctors)
 *(EXCLUDE_FILE(*crtend?.o *crtend.o) .ctors)
 *(SORT(.ctors.*))
 *(.ctors)

.dtors
 *crtbegin.o(.dtors)
 *crtbegin?.o(.dtors)
 *(EXCLUDE_FILE(*crtend?.o *crtend.o) .dtors)
 *(SORT(.dtors.*))
 *(.dtors)

.rodata         0x000000001002b798     0x2968
 *(.rodata .rodata.* .gnu.linkonce.r.*)
 .rodata.str1.1
                0x000000001002b798       0xf5 /home/leon/git/swp-report/iMX6_Platform_SDK/output/mx6sdl/stream/sabre_ai_rev_c/obj/apps/common/print_version.o
 .rodata.str1.1
                0x000000001002b88d       0x1e /home/leon/git/swp-report/iMX6_Platform_SDK/output/mx6sdl/stream/sabre_ai_rev_c/obj/apps/stream/src/main.o
 *fill*         0x000000001002b8ab        0x5 
 .rodata        0x000000001002b8b0       0x50 /home/leon/git/swp-report/iMX6_Platform_SDK/output/mx6sdl/stream/sabre_ai_rev_c/obj/apps/stream/src/stream.o
 .rodata.str1.1
                0x000000001002b900      0x17f /home/leon/git/swp-report/iMX6_Platform_SDK/output/mx6sdl/stream/sabre_ai_rev_c/obj/apps/stream/src/stream.o
 *fill*         0x000000001002ba7f        0x1 
 .rodata        0x000000001002ba80       0x34 /home/leon/git/swp-report/iMX6_Platform_SDK/output/mx6sdl/lib/libsdk.a(ccm_pll.o)
                0x000000001002ba80                PLL1_OUTPUT
                0x000000001002ba84                PLL2_OUTPUT
                0x000000001002ba98                PLL3_OUTPUT
                0x000000001002baac                PLL4_OUTPUT
                0x000000001002bab0                PLL5_OUTPUT
 .rodata        0x000000001002bab4       0x64 /home/leon/git/swp-report/iMX6_Platform_SDK/output/mx6sdl/lib/libsdk.a(gic.o)
 .rodata        0x000000001002bb18       0x50 /home/leon/git/swp-report/iMX6_Platform_SDK/output/mx6sdl/lib/libsdk.a(sdk_version.o)
                0x000000001002bb18                k_sdk_version
                0x000000001002bb1c                k_sdk_copyright
 .rodata        0x000000001002bb68       0xcc /home/leon/git/swp-report/iMX6_Platform_SDK/output/mx6sdl/lib/libsdk.a(system_util.o)
 .rodata        0x000000001002bc34       0xf4 /home/leon/git/swp-report/iMX6_Platform_SDK/output/mx6sdl/lib/libsdk.a(text_color.o)
                0x000000001002bc3c                g_TextAttributeDefault
                0x000000001002bc48                g_TextAttributeBold
                0x000000001002bc54                g_TextAttributeDim
                0x000000001002bc60                g_TextAttributeUnderline
                0x000000001002bc6c                g_TextAttributeBlink
                0x000000001002bc78                g_TextAttributeReverse
                0x000000001002bc84                g_TextAttributeHidden
                0x000000001002bc90                g_TextColorBlack
                0x000000001002bc9c                g_TextColorRed
                0x000000001002bca8                g_TextColorGreen
                0x000000001002bcb4                g_TextColorYellow
                0x000000001002bcc0                g_TextColorBlue
                0x000000001002bccc                g_TextColorMagenta
                0x000000001002bcd8                g_TextColorCyan
                0x000000001002bce4                g_TextColorWhite
                0x000000001002bcf4                g_TextColorOrange
                0x000000001002bd04                g_TextColorLightBlue
                0x000000001002bd14                g_TextColorGray
                0x000000001002bd24                g_TextColorPurple
 .rodata        0x000000001002bd28      0x1f8 /home/leon/git/swp-report/iMX6_Platform_SDK/output/mx6sdl/lib/libsdk.a(board_id.o)
 .rodata        0x000000001002bf20       0x48 /home/leon/git/swp-report/iMX6_Platform_SDK/output/mx6sdl/lib/libsdk.a(cpu_workpoint.o)
 .rodata        0x000000001002bf68      0x248 /home/leon/git/swp-report/iMX6_Platform_SDK/output/mx6sdl/lib/libsdk.a(pmu_driver.o)
                0x000000001002bf68                vtable for pmu::LDOSoCRegulator
                0x000000001002bfc0                vtable for pmu::LDOGraphicsRegulator
                0x000000001002c018                vtable for pmu::LDOARMRegulator
                0x000000001002c070                vtable for pmu::DigitalRegulator
                0x000000001002c0c8                vtable for pmu::LDO3p0Regulator
                0x000000001002c100                vtable for pmu::LDO1p1Regulator
                0x000000001002c138                vtable for pmu::AnalogRegulator
                0x000000001002c170                vtable for pmu::Regulator
 .rodata._ZTVN3pmu15LDO2p5RegulatorE
                0x000000001002c1b0       0x38 /home/leon/git/swp-report/iMX6_Platform_SDK/output/mx6sdl/lib/libsdk.a(pmu_driver.o)
                0x000000001002c1b0                vtable for pmu::LDO2p5Regulator
 .rodata        0x000000001002c1e8       0x20 /home/leon/git/swp-report/iMX6_Platform_SDK/output/mx6sdl/lib/libsdk.a(interrupt.o)
 .rodata        0x000000001002c208      0x230 /home/leon/git/swp-report/iMX6_Platform_SDK/output/mx6sdl/lib/libsdk.a(abort_handler.o)
 .rodata        0x000000001002c438       0x80 /home/leon/git/swp-report/iMX6_Platform_SDK/output/mx6sdl/lib/libboard_sabre_ai_rev_c.a(uart_iomux_config.o)
 .rodata.str1.4
                0x000000001002c4b8       0x3b /home/src/arm/target/bin/../arm-none-eabi/lib//libstdc++.a(pure.o)
                                         0x3c (size before relaxing)
 *fill*         0x000000001002c4f3        0x5 
 .rodata._ZTVN10__cxxabiv115__forced_unwindE
                0x000000001002c4f8       0x18 /home/src/arm/target/bin/../arm-none-eabi/lib//libstdc++.a(eh_exception.o)
                0x000000001002c4f8                vtable for __cxxabiv1::__forced_unwind
 .rodata._ZTVSt9exception
                0x000000001002c510       0x18 /home/src/arm/target/bin/../arm-none-eabi/lib//libstdc++.a(eh_exception.o)
                0x000000001002c510                vtable for std::exception
 .rodata._ZTIN10__cxxabiv115__forced_unwindE
                0x000000001002c528        0x8 /home/src/arm/target/bin/../arm-none-eabi/lib//libstdc++.a(eh_exception.o)
                0x000000001002c528                typeinfo for __cxxabiv1::__forced_unwind
 .rodata._ZTISt9exception
                0x000000001002c530        0x8 /home/src/arm/target/bin/../arm-none-eabi/lib//libstdc++.a(eh_exception.o)
                0x000000001002c530                typeinfo for std::exception
 .rodata._ZTSSt13bad_exception
                0x000000001002c538       0x14 /home/src/arm/target/bin/../arm-none-eabi/lib//libstdc++.a(eh_exception.o)
                0x000000001002c538                typeinfo name for std::bad_exception
 .rodata.str1.4
                0x000000001002c54c       0x23 /home/src/arm/target/bin/../arm-none-eabi/lib//libstdc++.a(eh_exception.o)
                                         0x24 (size before relaxing)
 *fill*         0x000000001002c56f        0x1 
 .rodata._ZTSN10__cxxabiv119__foreign_exceptionE
                0x000000001002c570       0x24 /home/src/arm/target/bin/../arm-none-eabi/lib//libstdc++.a(eh_exception.o)
                0x000000001002c570                typeinfo name for __cxxabiv1::__foreign_exception
 .rodata._ZTIN10__cxxabiv119__foreign_exceptionE
                0x000000001002c594        0x8 /home/src/arm/target/bin/../arm-none-eabi/lib//libstdc++.a(eh_exception.o)
                0x000000001002c594                typeinfo for __cxxabiv1::__foreign_exception
 *fill*         0x000000001002c59c        0x4 
 .rodata._ZTVSt13bad_exception
                0x000000001002c5a0       0x18 /home/src/arm/target/bin/../arm-none-eabi/lib//libstdc++.a(eh_exception.o)
                0x000000001002c5a0                vtable for std::bad_exception
 .rodata._ZTSSt9exception
                0x000000001002c5b8       0x10 /home/src/arm/target/bin/../arm-none-eabi/lib//libstdc++.a(eh_exception.o)
                0x000000001002c5b8                typeinfo name for std::exception
 .rodata._ZTVN10__cxxabiv119__foreign_exceptionE
                0x000000001002c5c8       0x18 /home/src/arm/target/bin/../arm-none-eabi/lib//libstdc++.a(eh_exception.o)
                0x000000001002c5c8                vtable for __cxxabiv1::__foreign_exception
 .rodata._ZTSN10__cxxabiv115__forced_unwindE
                0x000000001002c5e0       0x20 /home/src/arm/target/bin/../arm-none-eabi/lib//libstdc++.a(eh_exception.o)
                0x000000001002c5e0                typeinfo name for __cxxabiv1::__forced_unwind
 .rodata._ZTISt13bad_exception
                0x000000001002c600        0xc /home/src/arm/target/bin/../arm-none-eabi/lib//libstdc++.a(eh_exception.o)
                0x000000001002c600                typeinfo for std::bad_exception
 *fill*         0x000000001002c60c        0x4 
 .rodata._ZTVN10__cxxabiv120__si_class_type_infoE
                0x000000001002c610       0x30 /home/src/arm/target/bin/../arm-none-eabi/lib//libstdc++.a(si_class_type_info.o)
                0x000000001002c610                vtable for __cxxabiv1::__si_class_type_info
 .rodata._ZTIN10__cxxabiv120__si_class_type_infoE
                0x000000001002c640        0xc /home/src/arm/target/bin/../arm-none-eabi/lib//libstdc++.a(si_class_type_info.o)
                0x000000001002c640                typeinfo for __cxxabiv1::__si_class_type_info
 .rodata._ZTSN10__cxxabiv120__si_class_type_infoE
                0x000000001002c64c       0x28 /home/src/arm/target/bin/../arm-none-eabi/lib//libstdc++.a(si_class_type_info.o)
                0x000000001002c64c                typeinfo name for __cxxabiv1::__si_class_type_info
 .rodata.str1.4
                0x000000001002c674       0x94 /home/src/arm/target/bin/../arm-none-eabi/lib//libstdc++.a(vterminate.o)
 .rodata._ZTISt9type_info
                0x000000001002c708        0x8 /home/src/arm/target/bin/../arm-none-eabi/lib//libstdc++.a(tinfo.o)
                0x000000001002c708                typeinfo for std::type_info
 .rodata._ZTSSt9type_info
                0x000000001002c710       0x10 /home/src/arm/target/bin/../arm-none-eabi/lib//libstdc++.a(tinfo.o)
                0x000000001002c710                typeinfo name for std::type_info
 .rodata._ZTVSt9type_info
                0x000000001002c720       0x20 /home/src/arm/target/bin/../arm-none-eabi/lib//libstdc++.a(tinfo.o)
                0x000000001002c720                vtable for std::type_info
 .rodata        0x000000001002c740      0x738 /home/src/arm/target/bin/../arm-none-eabi/lib//libstdc++.a(cp-demangle.o)
 .rodata.str1.4
                0x000000001002ce78      0x7f2 /home/src/arm/target/bin/../arm-none-eabi/lib//libstdc++.a(cp-demangle.o)
                                        0x840 (size before relaxing)
 *fill*         0x000000001002d66a        0x6 
 .rodata._ZTVN10__cxxabiv117__class_type_infoE
                0x000000001002d670       0x30 /home/src/arm/target/bin/../arm-none-eabi/lib//libstdc++.a(class_type_info.o)
                0x000000001002d670                vtable for __cxxabiv1::__class_type_info
 .rodata._ZTIN10__cxxabiv117__class_type_infoE
                0x000000001002d6a0        0xc /home/src/arm/target/bin/../arm-none-eabi/lib//libstdc++.a(class_type_info.o)
                0x000000001002d6a0                typeinfo for __cxxabiv1::__class_type_info
 .rodata._ZTSN10__cxxabiv117__class_type_infoE
                0x000000001002d6ac       0x24 /home/src/arm/target/bin/../arm-none-eabi/lib//libstdc++.a(class_type_info.o)
                0x000000001002d6ac                typeinfo name for __cxxabiv1::__class_type_info
 .rodata.str1.4
                0x000000001002d6d0       0x3f /home/src/arm/target/bin/../arm-none-eabi/lib//libc.a(lib_a-assert.o)
                                         0x44 (size before relaxing)
 *fill*         0x000000001002d70f        0x1 
 .rodata        0x000000001002d710        0x4 /home/src/arm/target/bin/../arm-none-eabi/lib//libc.a(lib_a-impure.o)
                0x000000001002d710                _global_impure_ptr
 .rodata.str1.4
                0x000000001002d714        0x2 /home/src/arm/target/bin/../arm-none-eabi/lib//libc.a(lib_a-impure.o)
                                          0x4 (size before relaxing)
 *fill*         0x000000001002d716        0x2 
 .rodata        0x000000001002d718       0x20 /home/src/arm/target/bin/../arm-none-eabi/lib//libc.a(lib_a-svfprintf.o)
 .rodata.str1.4
                0x000000001002d738       0x42 /home/src/arm/target/bin/../arm-none-eabi/lib//libc.a(lib_a-svfprintf.o)
                                         0x44 (size before relaxing)
 *fill*         0x000000001002d77a        0x2 
 .rodata.str1.4
                0x000000001002d77c        0x4 /home/src/arm/target/bin/../arm-none-eabi/lib//libc.a(lib_a-syscalls.o)
 .rodata        0x000000001002d780       0x20 /home/src/arm/target/bin/../arm-none-eabi/lib//libc.a(lib_a-vfiprintf.o)
 .rodata.str1.4
                0x0000000000000000       0x30 /home/src/arm/target/bin/../arm-none-eabi/lib//libc.a(lib_a-vfiprintf.o)
 .rodata        0x000000001002d7a0       0x20 /home/src/arm/target/bin/../arm-none-eabi/lib//libc.a(lib_a-vfprintf.o)
 .rodata.str1.4
                0x0000000000000000       0x44 /home/src/arm/target/bin/../arm-none-eabi/lib//libc.a(lib_a-vfprintf.o)
 .rodata.str1.4
                0x000000001002d7c0       0x10 /home/src/arm/target/bin/../arm-none-eabi/lib//libc.a(lib_a-dtoa.o)
                                         0x14 (size before relaxing)
 .rodata.str1.4
                0x000000001002d7d0        0x8 /home/src/arm/target/bin/../arm-none-eabi/lib//libc.a(lib_a-locale.o)
                                         0x14 (size before relaxing)
 .rodata        0x000000001002d7d8      0x128 /home/src/arm/target/bin/../arm-none-eabi/lib//libc.a(lib_a-mprec.o)
                0x000000001002d7e8                __mprec_tens
                0x000000001002d8b0                __mprec_tinytens
                0x000000001002d8d8                __mprec_bigtens
 .rodata        0x000000001002d900       0x20 /home/src/arm/target/bin/../arm-none-eabi/lib//libc.a(lib_a-svfiprintf.o)
 .rodata.str1.4
                0x0000000000000000       0x30 /home/src/arm/target/bin/../arm-none-eabi/lib//libc.a(lib_a-svfiprintf.o)
 .rodata        0x000000001002d920       0xe0 /home/leon/git/swp-report/iMX6_Platform_SDK/output/mx6sdl/lib/libsdk.a(gpio.o)
 .rodata        0x000000001002da00      0x380 /home/leon/git/swp-report/iMX6_Platform_SDK/output/mx6sdl/lib/libsdk.a(imx6sdl_gpio_map.o)
                0x000000001002da00                k_gpio_mux_registers
 .rodata        0x000000001002dd80      0x2c4 /home/leon/git/swp-report/iMX6_Platform_SDK/output/mx6sdl/lib/libsdk.a(imx_i2c.o)
 .rodata        0x000000001002e044       0x80 /home/leon/git/swp-report/iMX6_Platform_SDK/output/mx6sdl/lib/libboard_sabre_ai_rev_c.a(i2c_iomux_config.o)
                0x000000001002e0c4                . = ALIGN (0x4)
 *(.init)
 .init          0x000000001002e0c4        0xc /home/src/arm/target/bin/../lib/gcc/arm-none-eabi/4.8.2//crti.o
                0x000000001002e0c4                _init
 .init          0x000000001002e0d0        0xc /home/src/arm/target/bin/../lib/gcc/arm-none-eabi/4.8.2//crtn.o
                0x000000001002e0dc                . = ALIGN (0x4)
                0x000000001002e0dc                __init_array_start = .
 *(SORT(.init_array.*))
 *(.init_array)
 .init_array    0x000000001002e0dc        0x4 /home/src/arm/target/bin/../lib/gcc/arm-none-eabi/4.8.2//crtbegin.o
 .init_array    0x000000001002e0e0        0x4 /home/leon/git/swp-report/iMX6_Platform_SDK/output/mx6sdl/lib/libsdk.a(pmu_driver.o)
                0x000000001002e0e4                __init_array_end = .
                0x000000001002e0e4                . = ALIGN (0x4)
 *(.fini)
 .fini          0x000000001002e0e4        0xc /home/src/arm/target/bin/../lib/gcc/arm-none-eabi/4.8.2//crti.o
                0x000000001002e0e4                _fini
 .fini          0x000000001002e0f0        0xc /home/src/arm/target/bin/../lib/gcc/arm-none-eabi/4.8.2//crtn.o
                0x000000001002e0fc                . = ALIGN (0x4)
                0x000000001002e0fc                __fini_array_start = .
 *(.fini_array)
 .fini_array    0x000000001002e0fc        0x4 /home/src/arm/target/bin/../lib/gcc/arm-none-eabi/4.8.2//crtbegin.o
 *(SORT(.fini_array.*))
                0x000000001002e100                __fini_array_end = .
                0x000000001002e100                PROVIDE (__exidx_start, .)

.eh_frame       0x000000001002e100        0x4
 .eh_frame      0x000000001002e100        0x0 /home/src/arm/target/bin/../lib/gcc/arm-none-eabi/4.8.2//crtbegin.o
 .eh_frame      0x000000001002e100        0x4 /home/src/arm/target/bin/../lib/gcc/arm-none-eabi/4.8.2//crtend.o

.ARM.exidx      0x000000001002e104      0x1d8
 *(.ARM.exidx* .gnu.linkonce.armexidx.*)
 .ARM.exidx.startup
                0x000000001002e104        0x8 /home/leon/git/swp-report/iMX6_Platform_SDK/output/mx6sdl/lib/libsdk.a(startup.o)
 .ARM.exidx.text.__cxa_pure_virtual
                0x000000001002e10c        0x8 /home/src/arm/target/bin/../arm-none-eabi/lib//libstdc++.a(pure.o)
 .ARM.exidx.text.__cxa_deleted_virtual
                0x000000001002e114        0x8 /home/src/arm/target/bin/../arm-none-eabi/lib//libstdc++.a(pure.o)
 .ARM.exidx.text._ZN10__cxxabiv111__terminateEPFvvE
                0x000000001002e11c        0x8 /home/src/arm/target/bin/../arm-none-eabi/lib//libstdc++.a(eh_terminate.o)
 .ARM.exidx.text._ZSt9terminatev
                0x000000001002e124        0x8 /home/src/arm/target/bin/../arm-none-eabi/lib//libstdc++.a(eh_terminate.o)
 .ARM.exidx.text._ZN10__cxxabiv112__unexpectedEPFvvE
                0x000000001002e12c        0x8 /home/src/arm/target/bin/../arm-none-eabi/lib//libstdc++.a(eh_terminate.o)
 .ARM.exidx.text._ZSt10unexpectedv
                0x000000001002e134        0x8 /home/src/arm/target/bin/../arm-none-eabi/lib//libstdc++.a(eh_terminate.o)
 .ARM.exidx.text._ZSt13set_terminatePFvvE
                0x000000001002e13c        0x8 /home/src/arm/target/bin/../arm-none-eabi/lib//libstdc++.a(eh_terminate.o)
 .ARM.exidx.text._ZSt14set_unexpectedPFvvE
                0x000000001002e144        0x0 /home/src/arm/target/bin/../arm-none-eabi/lib//libstdc++.a(eh_terminate.o)
                                          0x8 (size before relaxing)
 .ARM.exidx.text.__cxa_type_match
                0x000000001002e144        0x8 /home/src/arm/target/bin/../arm-none-eabi/lib//libstdc++.a(eh_arm.o)
 .ARM.exidx.text.__cxa_begin_cleanup
                0x000000001002e14c        0x8 /home/src/arm/target/bin/../arm-none-eabi/lib//libstdc++.a(eh_arm.o)
 .ARM.exidx.text.__gnu_end_cleanup
                0x000000001002e154        0x0 /home/src/arm/target/bin/../arm-none-eabi/lib//libstdc++.a(eh_arm.o)
                                          0x8 (size before relaxing)
 .ARM.exidx.text._ZNSt9exceptionD2Ev
                0x000000001002e154        0x0 /home/src/arm/target/bin/../arm-none-eabi/lib//libstdc++.a(eh_exception.o)
                                          0x8 (size before relaxing)
 .ARM.exidx.text._ZNSt13bad_exceptionD2Ev
                0x000000001002e154        0x0 /home/src/arm/target/bin/../arm-none-eabi/lib//libstdc++.a(eh_exception.o)
                                          0x8 (size before relaxing)
 .ARM.exidx.text._ZN10__cxxabiv115__forced_unwindD2Ev
                0x000000001002e154        0x0 /home/src/arm/target/bin/../arm-none-eabi/lib//libstdc++.a(eh_exception.o)
                                          0x8 (size before relaxing)
 .ARM.exidx.text._ZN10__cxxabiv119__foreign_exceptionD2Ev
                0x000000001002e154        0x0 /home/src/arm/target/bin/../arm-none-eabi/lib//libstdc++.a(eh_exception.o)
                                          0x8 (size before relaxing)
 .ARM.exidx.text._ZNKSt9exception4whatEv
                0x000000001002e154        0x0 /home/src/arm/target/bin/../arm-none-eabi/lib//libstdc++.a(eh_exception.o)
                                          0x8 (size before relaxing)
 .ARM.exidx.text._ZNKSt13bad_exception4whatEv
                0x000000001002e154        0x0 /home/src/arm/target/bin/../arm-none-eabi/lib//libstdc++.a(eh_exception.o)
                                          0x8 (size before relaxing)
 .ARM.exidx.text._ZNSt9exceptionD0Ev
                0x000000001002e154        0x0 /home/src/arm/target/bin/../arm-none-eabi/lib//libstdc++.a(eh_exception.o)
                                          0x8 (size before relaxing)
 .ARM.exidx.text._ZNSt13bad_exceptionD0Ev
                0x000000001002e154        0x0 /home/src/arm/target/bin/../arm-none-eabi/lib//libstdc++.a(eh_exception.o)
                                          0x8 (size before relaxing)
 .ARM.exidx.text._ZN10__cxxabiv115__forced_unwindD0Ev
                0x000000001002e154        0x0 /home/src/arm/target/bin/../arm-none-eabi/lib//libstdc++.a(eh_exception.o)
                                          0x8 (size before relaxing)
 .ARM.exidx.text._ZN10__cxxabiv119__foreign_exceptionD0Ev
                0x000000001002e154        0x0 /home/src/arm/target/bin/../arm-none-eabi/lib//libstdc++.a(eh_exception.o)
                                          0x8 (size before relaxing)
 .ARM.exidx.text.__cxa_get_globals_fast
                0x000000001002e154        0x0 /home/src/arm/target/bin/../arm-none-eabi/lib//libstdc++.a(eh_globals.o)
                                          0x8 (size before relaxing)
 .ARM.exidx.text.__cxa_get_globals
                0x000000001002e154        0x0 /home/src/arm/target/bin/../arm-none-eabi/lib//libstdc++.a(eh_globals.o)
                                          0x8 (size before relaxing)
 .ARM.exidx.text._ZN10__cxxabiv1L24__is_gxx_exception_classEPc
                0x000000001002e154        0x0 /home/src/arm/target/bin/../arm-none-eabi/lib//libstdc++.a(eh_call.o)
                                          0x8 (size before relaxing)
 .ARM.exidx.text.__cxa_call_terminate
                0x000000001002e154        0x0 /home/src/arm/target/bin/../arm-none-eabi/lib//libstdc++.a(eh_call.o)
                                          0x8 (size before relaxing)
 .ARM.exidx.text.__cxa_call_unexpected
                0x000000001002e154        0x8 /home/src/arm/target/bin/../arm-none-eabi/lib//libstdc++.a(eh_call.o)
 .ARM.exidx.text._ZL12read_sleb128PKhPl
                0x000000001002e15c        0x8 /home/src/arm/target/bin/../arm-none-eabi/lib//libstdc++.a(eh_personality.o)
 .ARM.exidx.text._ZL28read_encoded_value_with_basehjPKhPj
                0x000000001002e164        0x8 /home/src/arm/target/bin/../arm-none-eabi/lib//libstdc++.a(eh_personality.o)
 .ARM.exidx.text._ZL21base_of_encoded_valuehP15_Unwind_Context
                0x000000001002e16c        0x8 /home/src/arm/target/bin/../arm-none-eabi/lib//libstdc++.a(eh_personality.o)
 .ARM.exidx.text._ZL17parse_lsda_headerP15_Unwind_ContextPKhP16lsda_header_info
                0x000000001002e174        0x8 /home/src/arm/target/bin/../arm-none-eabi/lib//libstdc++.a(eh_personality.o)
 .ARM.exidx.text.__gxx_personality_v0
                0x000000001002e17c        0x8 /home/src/arm/target/bin/../arm-none-eabi/lib//libstdc++.a(eh_personality.o)
 .ARM.exidx.text._ZN10__cxxabiv120__si_class_type_infoD2Ev
                0x000000001002e184        0x8 /home/src/arm/target/bin/../arm-none-eabi/lib//libstdc++.a(si_class_type_info.o)
 .ARM.exidx.text._ZN10__cxxabiv120__si_class_type_infoD0Ev
                0x000000001002e18c        0x0 /home/src/arm/target/bin/../arm-none-eabi/lib//libstdc++.a(si_class_type_info.o)
                                          0x8 (size before relaxing)
 .ARM.exidx.text._ZNK10__cxxabiv120__si_class_type_info20__do_find_public_srcEiPKvPKNS_17__class_type_infoES2_
                0x000000001002e18c        0x8 /home/src/arm/target/bin/../arm-none-eabi/lib//libstdc++.a(si_class_type_info.o)
 .ARM.exidx.text._ZNK10__cxxabiv120__si_class_type_info12__do_dyncastEiNS_17__class_type_info10__sub_kindEPKS1_PKvS4_S6_RNS1_16__dyncast_resultE
                0x000000001002e194        0x8 /home/src/arm/target/bin/../arm-none-eabi/lib//libstdc++.a(si_class_type_info.o)
 .ARM.exidx.text._ZNK10__cxxabiv120__si_class_type_info11__do_upcastEPKNS_17__class_type_infoEPKvRNS1_15__upcast_resultE
                0x000000001002e19c        0x8 /home/src/arm/target/bin/../arm-none-eabi/lib//libstdc++.a(si_class_type_info.o)
 .ARM.exidx.text._ZL23__gxx_exception_cleanup19_Unwind_Reason_CodeP21_Unwind_Control_Block
                0x000000001002e1a4        0x8 /home/src/arm/target/bin/../arm-none-eabi/lib//libstdc++.a(eh_throw.o)
 .ARM.exidx.text.__cxa_throw
                0x000000001002e1ac        0x8 /home/src/arm/target/bin/../arm-none-eabi/lib//libstdc++.a(eh_throw.o)
 .ARM.exidx.text.__cxa_rethrow
                0x000000001002e1b4        0x8 /home/src/arm/target/bin/../arm-none-eabi/lib//libstdc++.a(eh_throw.o)
 .ARM.exidx.text._ZN9__gnu_cxx27__verbose_terminate_handlerEv
                0x000000001002e1bc        0x8 /home/src/arm/target/bin/../arm-none-eabi/lib//libstdc++.a(vterminate.o)
 .ARM.exidx.text.__cxa_get_exception_ptr
                0x000000001002e1c4        0x8 /home/src/arm/target/bin/../arm-none-eabi/lib//libstdc++.a(eh_catch.o)
 .ARM.exidx.text.__cxa_begin_catch
                0x000000001002e1cc        0x8 /home/src/arm/target/bin/../arm-none-eabi/lib//libstdc++.a(eh_catch.o)
 .ARM.exidx.text.__cxa_end_catch
                0x000000001002e1d4        0x8 /home/src/arm/target/bin/../arm-none-eabi/lib//libstdc++.a(eh_catch.o)
 .ARM.exidx.text._ZSt18uncaught_exceptionv
                0x000000001002e1dc        0x8 /home/src/arm/target/bin/../arm-none-eabi/lib//libstdc++.a(eh_catch.o)
 .ARM.exidx.text._ZNSt9type_infoD2Ev
                0x000000001002e1e4        0x0 /home/src/arm/target/bin/../arm-none-eabi/lib//libstdc++.a(tinfo.o)
                                          0x8 (size before relaxing)
 .ARM.exidx.text._ZNKSt9type_info14__is_pointer_pEv
                0x000000001002e1e4        0x0 /home/src/arm/target/bin/../arm-none-eabi/lib//libstdc++.a(tinfo.o)
                                          0x8 (size before relaxing)
 .ARM.exidx.text._ZNKSt9type_info15__is_function_pEv
                0x000000001002e1e4        0x0 /home/src/arm/target/bin/../arm-none-eabi/lib//libstdc++.a(tinfo.o)
                                          0x8 (size before relaxing)
 .ARM.exidx.text._ZNKSt9type_info11__do_upcastEPKN10__cxxabiv117__class_type_infoEPPv
                0x000000001002e1e4        0x0 /home/src/arm/target/bin/../arm-none-eabi/lib//libstdc++.a(tinfo.o)
                                          0x8 (size before relaxing)
 .ARM.exidx.text._ZNSt9type_infoD0Ev
                0x000000001002e1e4        0x0 /home/src/arm/target/bin/../arm-none-eabi/lib//libstdc++.a(tinfo.o)
                                          0x8 (size before relaxing)
 .ARM.exidx.text._ZNKSt9type_infoeqERKS_
                0x000000001002e1e4        0x0 /home/src/arm/target/bin/../arm-none-eabi/lib//libstdc++.a(tinfo.o)
                                          0x8 (size before relaxing)
 .ARM.exidx.text._ZNKSt9type_info10__do_catchEPKS_PPvj
                0x000000001002e1e4        0x0 /home/src/arm/target/bin/../arm-none-eabi/lib//libstdc++.a(tinfo.o)
                                          0x8 (size before relaxing)
 .ARM.exidx.text._ZdlPv
                0x000000001002e1e4        0x0 /home/src/arm/target/bin/../arm-none-eabi/lib//libstdc++.a(del_op.o)
                                          0x8 (size before relaxing)
 .ARM.exidx.text._ZNK10__cxxabiv117__class_type_info11__do_upcastEPKS0_PPv
                0x000000001002e1e4        0x8 /home/src/arm/target/bin/../arm-none-eabi/lib//libstdc++.a(class_type_info.o)
 .ARM.exidx.text._ZNK10__cxxabiv117__class_type_info20__do_find_public_srcEiPKvPKS0_S2_
                0x000000001002e1ec        0x8 /home/src/arm/target/bin/../arm-none-eabi/lib//libstdc++.a(class_type_info.o)
 .ARM.exidx.text._ZN10__cxxabiv117__class_type_infoD2Ev
                0x000000001002e1f4        0x8 /home/src/arm/target/bin/../arm-none-eabi/lib//libstdc++.a(class_type_info.o)
 .ARM.exidx.text._ZN10__cxxabiv117__class_type_infoD0Ev
                0x000000001002e1fc        0x0 /home/src/arm/target/bin/../arm-none-eabi/lib//libstdc++.a(class_type_info.o)
                                          0x8 (size before relaxing)
 .ARM.exidx.text._ZNK10__cxxabiv117__class_type_info11__do_upcastEPKS0_PKvRNS0_15__upcast_resultE
                0x000000001002e1fc        0x8 /home/src/arm/target/bin/../arm-none-eabi/lib//libstdc++.a(class_type_info.o)
 .ARM.exidx.text._ZNK10__cxxabiv117__class_type_info10__do_catchEPKSt9type_infoPPvj
                0x000000001002e204        0x8 /home/src/arm/target/bin/../arm-none-eabi/lib//libstdc++.a(class_type_info.o)
 .ARM.exidx.text._ZNK10__cxxabiv117__class_type_info12__do_dyncastEiNS0_10__sub_kindEPKS0_PKvS3_S5_RNS0_16__dyncast_resultE
                0x000000001002e20c        0x8 /home/src/arm/target/bin/../arm-none-eabi/lib//libstdc++.a(class_type_info.o)
 .ARM.exidx.text.__cxa_allocate_exception
                0x000000001002e214        0x8 /home/src/arm/target/bin/../arm-none-eabi/lib//libstdc++.a(eh_alloc.o)
 .ARM.exidx.text.__cxa_free_exception
                0x000000001002e21c        0x0 /home/src/arm/target/bin/../arm-none-eabi/lib//libstdc++.a(eh_alloc.o)
                                          0x8 (size before relaxing)
 .ARM.exidx.text.__cxa_allocate_dependent_exception
                0x000000001002e21c        0x0 /home/src/arm/target/bin/../arm-none-eabi/lib//libstdc++.a(eh_alloc.o)
                                          0x8 (size before relaxing)
 .ARM.exidx.text.__cxa_free_dependent_exception
                0x000000001002e21c        0x0 /home/src/arm/target/bin/../arm-none-eabi/lib//libstdc++.a(eh_alloc.o)
                                          0x8 (size before relaxing)
 .ARM.exidx.text.__cxa_current_exception_type
                0x000000001002e21c        0x0 /home/src/arm/target/bin/../arm-none-eabi/lib//libstdc++.a(eh_type.o)
                                          0x8 (size before relaxing)
 .ARM.exidx     0x000000001002e21c       0x88 /home/src/arm/target/bin/../lib/gcc/arm-none-eabi/4.8.2//libgcc.a(unwind-arm.o)
                                         0xd8 (size before relaxing)
 .ARM.exidx     0x000000001002e2a4       0x38 /home/src/arm/target/bin/../lib/gcc/arm-none-eabi/4.8.2//libgcc.a(pr-support.o)
                                         0x48 (size before relaxing)
 .ARM.exidx     0x000000001002e2dc        0x0 /home/src/arm/target/bin/../lib/gcc/arm-none-eabi/4.8.2//libgcc.a(_divdi3.o)
                                          0x8 (size before relaxing)
 .ARM.exidx     0x000000001002e2dc        0x0 /home/src/arm/target/bin/../lib/gcc/arm-none-eabi/4.8.2//libgcc.a(_udivdi3.o)
                                          0x8 (size before relaxing)
                0x000000001002e2dc                PROVIDE (__exidx_end, .)

.rel.dyn        0x000000001002e2dc        0x0
 .rel.iplt      0x0000000000000000        0x0 /home/src/arm/target/bin/../lib/gcc/arm-none-eabi/4.8.2//crtbegin.o

.data           0x000000001002e2e0      0x920
 *(.data .data.* .gnu.linkonce.d.*)
 .data          0x000000001002e2e0        0x4 /home/src/arm/target/bin/../lib/gcc/arm-none-eabi/4.8.2//crtbegin.o
                0x000000001002e2e0                __dso_handle
 .data          0x000000001002e2e4        0x0 /home/src/arm/target/bin/../lib/gcc/arm-none-eabi/4.8.2//crti.o
 .data          0x000000001002e2e4        0x0 /home/src/arm/target/bin/../lib/gcc/arm-none-eabi/4.8.2//crtend.o
 .data          0x000000001002e2e4        0x0 /home/src/arm/target/bin/../lib/gcc/arm-none-eabi/4.8.2//crtn.o
 .data          0x000000001002e2e4        0x0 /home/leon/git/swp-report/iMX6_Platform_SDK/output/mx6sdl/stream/sabre_ai_rev_c/obj/apps/common/ivt.o
 .data          0x000000001002e2e4        0x0 /home/leon/git/swp-report/iMX6_Platform_SDK/output/mx6sdl/stream/sabre_ai_rev_c/obj/apps/common/platform_init.o
 .data          0x000000001002e2e4        0x0 /home/leon/git/swp-report/iMX6_Platform_SDK/output/mx6sdl/stream/sabre_ai_rev_c/obj/apps/common/print_version.o
 .data          0x000000001002e2e4        0x0 /home/leon/git/swp-report/iMX6_Platform_SDK/output/mx6sdl/stream/sabre_ai_rev_c/obj/apps/stream/src/main.o
 .data          0x000000001002e2e4        0x0 /home/leon/git/swp-report/iMX6_Platform_SDK/output/mx6sdl/stream/sabre_ai_rev_c/obj/apps/stream/src/stream.o
 .data          0x000000001002e2e4        0x0 /home/leon/git/swp-report/iMX6_Platform_SDK/output/mx6sdl/lib/libsdk.a(ccm_pll.o)
 .data          0x000000001002e2e4        0x0 /home/leon/git/swp-report/iMX6_Platform_SDK/output/mx6sdl/lib/libsdk.a(cortexA9.o)
 .data          0x000000001002e2e4        0x0 /home/leon/git/swp-report/iMX6_Platform_SDK/output/mx6sdl/lib/libsdk.a(gic.o)
 .data          0x000000001002e2e4        0x0 /home/leon/git/swp-report/iMX6_Platform_SDK/output/mx6sdl/lib/libsdk.a(mmu.o)
 .data          0x000000001002e2e4        0x0 /home/leon/git/swp-report/iMX6_Platform_SDK/output/mx6sdl/lib/libsdk.a(startup.o)
 .data          0x000000001002e2e4        0x0 /home/leon/git/swp-report/iMX6_Platform_SDK/output/mx6sdl/lib/libsdk.a(vectors.o)
 .data          0x000000001002e2e4        0x0 /home/leon/git/swp-report/iMX6_Platform_SDK/output/mx6sdl/lib/libsdk.a(sdk_version.o)
 .data          0x000000001002e2e4        0x0 /home/leon/git/swp-report/iMX6_Platform_SDK/output/mx6sdl/lib/libsdk.a(system_util.o)
 .data          0x000000001002e2e4        0x4 /home/leon/git/swp-report/iMX6_Platform_SDK/output/mx6sdl/lib/libsdk.a(text_color.o)
                0x000000001002e2e4                is_color_supported
 .data          0x000000001002e2e8        0x0 /home/leon/git/swp-report/iMX6_Platform_SDK/output/mx6sdl/lib/libsdk.a(board_id.o)
 .data          0x000000001002e2e8       0x40 /home/leon/git/swp-report/iMX6_Platform_SDK/output/mx6sdl/lib/libsdk.a(cpu_workpoint.o)
 .data          0x000000001002e328        0x0 /home/leon/git/swp-report/iMX6_Platform_SDK/output/mx6sdl/lib/libsdk.a(pmu_driver.o)
 .data          0x000000001002e328        0x0 /home/leon/git/swp-report/iMX6_Platform_SDK/output/mx6sdl/lib/libsdk.a(epit.o)
 .data          0x000000001002e328        0x0 /home/leon/git/swp-report/iMX6_Platform_SDK/output/mx6sdl/lib/libsdk.a(timer.o)
 .data          0x000000001002e328        0x0 /home/leon/git/swp-report/iMX6_Platform_SDK/output/mx6sdl/lib/libsdk.a(imx_uart.o)
 .data          0x000000001002e328        0x4 /home/leon/git/swp-report/iMX6_Platform_SDK/output/mx6sdl/lib/libsdk.a(arm_abort.o)
 .data          0x000000001002e32c        0x0 /home/leon/git/swp-report/iMX6_Platform_SDK/output/mx6sdl/lib/libsdk.a(interrupt.o)
 .data          0x000000001002e32c        0x0 /home/leon/git/swp-report/iMX6_Platform_SDK/output/mx6sdl/lib/libsdk.a(abort_handler.o)
 .data          0x000000001002e32c        0x0 /home/leon/git/swp-report/iMX6_Platform_SDK/output/mx6sdl/lib/libboard_sabre_ai_rev_c.a(board_io_expanders.o)
 .data          0x000000001002e32c        0x8 /home/leon/git/swp-report/iMX6_Platform_SDK/output/mx6sdl/lib/libboard_sabre_ai_rev_c.a(hardware_modules.o)
                0x000000001002e32c                g_debug_uart_port
                0x000000001002e330                g_system_timer_port
 .data          0x000000001002e334        0x0 /home/leon/git/swp-report/iMX6_Platform_SDK/output/mx6sdl/lib/libboard_sabre_ai_rev_c.a(dcd.o)
 .data          0x000000001002e334        0x0 /home/leon/git/swp-report/iMX6_Platform_SDK/output/mx6sdl/lib/libboard_sabre_ai_rev_c.a(i2c3_iomux_config.o)
 .data          0x000000001002e334        0x0 /home/leon/git/swp-report/iMX6_Platform_SDK/output/mx6sdl/lib/libboard_sabre_ai_rev_c.a(uart_iomux_config.o)
 .data          0x000000001002e334        0x0 /home/leon/git/swp-report/iMX6_Platform_SDK/output/mx6sdl/lib/libboard_sabre_ai_rev_c.a(iomux_config.o)
 .data          0x000000001002e334        0x0 /home/leon/git/swp-report/iMX6_Platform_SDK/output/mx6sdl/lib/libboard_sabre_ai_rev_c.a(ipu1_iomux_config.o)
 .data          0x000000001002e334        0x0 /home/leon/git/swp-report/iMX6_Platform_SDK/output/mx6sdl/lib/libboard_sabre_ai_rev_c.a(mlb_iomux_config.o)
 .data          0x000000001002e334        0x0 /home/leon/git/swp-report/iMX6_Platform_SDK/output/mx6sdl/lib/libboard_sabre_ai_rev_c.a(mmdc_iomux_config.o)
 .data          0x000000001002e334        0x0 /home/leon/git/swp-report/iMX6_Platform_SDK/output/mx6sdl/lib/libboard_sabre_ai_rev_c.a(pwm3_iomux_config.o)
 .data          0x000000001002e334        0x0 /home/leon/git/swp-report/iMX6_Platform_SDK/output/mx6sdl/lib/libboard_sabre_ai_rev_c.a(pwm4_iomux_config.o)
 .data          0x000000001002e334        0x0 /home/leon/git/swp-report/iMX6_Platform_SDK/output/mx6sdl/lib/libboard_sabre_ai_rev_c.a(sjc_iomux_config.o)
 .data          0x000000001002e334        0x0 /home/leon/git/swp-report/iMX6_Platform_SDK/output/mx6sdl/lib/libboard_sabre_ai_rev_c.a(spdif_iomux_config.o)
 .data          0x000000001002e334        0x0 /home/leon/git/swp-report/iMX6_Platform_SDK/output/mx6sdl/lib/libboard_sabre_ai_rev_c.a(uart2_iomux_config.o)
 .data          0x000000001002e334        0x0 /home/leon/git/swp-report/iMX6_Platform_SDK/output/mx6sdl/lib/libboard_sabre_ai_rev_c.a(uart3_iomux_config.o)
 .data          0x000000001002e334        0x0 /home/leon/git/swp-report/iMX6_Platform_SDK/output/mx6sdl/lib/libboard_sabre_ai_rev_c.a(uart4_iomux_config.o)
 .data          0x000000001002e334        0x0 /home/leon/git/swp-report/iMX6_Platform_SDK/output/mx6sdl/lib/libboard_sabre_ai_rev_c.a(usdhc1_iomux_config.o)
 .data          0x000000001002e334        0x0 /home/leon/git/swp-report/iMX6_Platform_SDK/output/mx6sdl/lib/libboard_sabre_ai_rev_c.a(usdhc3_iomux_config.o)
 .data          0x000000001002e334        0x0 /home/leon/git/swp-report/iMX6_Platform_SDK/output/mx6sdl/lib/libboard_sabre_ai_rev_c.a(wdog1_iomux_config.o)
 .data          0x000000001002e334        0x0 /home/leon/git/swp-report/iMX6_Platform_SDK/output/mx6sdl/lib/libboard_sabre_ai_rev_c.a(audmux_iomux_config.o)
 .data          0x000000001002e334        0x0 /home/leon/git/swp-report/iMX6_Platform_SDK/output/mx6sdl/lib/libboard_sabre_ai_rev_c.a(ccm_iomux_config.o)
 .data          0x000000001002e334        0x0 /home/leon/git/swp-report/iMX6_Platform_SDK/output/mx6sdl/lib/libboard_sabre_ai_rev_c.a(ecspi1_iomux_config.o)
 .data          0x000000001002e334        0x0 /home/leon/git/swp-report/iMX6_Platform_SDK/output/mx6sdl/lib/libboard_sabre_ai_rev_c.a(eim_iomux_config.o)
 .data          0x000000001002e334        0x0 /home/leon/git/swp-report/iMX6_Platform_SDK/output/mx6sdl/lib/libboard_sabre_ai_rev_c.a(enet_iomux_config.o)
 .data          0x000000001002e334        0x0 /home/leon/git/swp-report/iMX6_Platform_SDK/output/mx6sdl/lib/libboard_sabre_ai_rev_c.a(esai_iomux_config.o)
 .data          0x000000001002e334        0x0 /home/leon/git/swp-report/iMX6_Platform_SDK/output/mx6sdl/lib/libboard_sabre_ai_rev_c.a(flexcan1_iomux_config.o)
 .data          0x000000001002e334        0x0 /home/leon/git/swp-report/iMX6_Platform_SDK/output/mx6sdl/lib/libboard_sabre_ai_rev_c.a(flexcan2_iomux_config.o)
 .data          0x000000001002e334        0x0 /home/leon/git/swp-report/iMX6_Platform_SDK/output/mx6sdl/lib/libboard_sabre_ai_rev_c.a(gpio1_iomux_config.o)
 .data          0x000000001002e334        0x0 /home/leon/git/swp-report/iMX6_Platform_SDK/output/mx6sdl/lib/libboard_sabre_ai_rev_c.a(gpio2_iomux_config.o)
 .data          0x000000001002e334        0x0 /home/leon/git/swp-report/iMX6_Platform_SDK/output/mx6sdl/lib/libboard_sabre_ai_rev_c.a(gpio4_iomux_config.o)
 .data          0x000000001002e334        0x0 /home/leon/git/swp-report/iMX6_Platform_SDK/output/mx6sdl/lib/libboard_sabre_ai_rev_c.a(gpio5_iomux_config.o)
 .data          0x000000001002e334        0x0 /home/leon/git/swp-report/iMX6_Platform_SDK/output/mx6sdl/lib/libboard_sabre_ai_rev_c.a(gpio6_iomux_config.o)
 .data          0x000000001002e334        0x0 /home/leon/git/swp-report/iMX6_Platform_SDK/output/mx6sdl/lib/libboard_sabre_ai_rev_c.a(gpmi_iomux_config.o)
 .data          0x000000001002e334        0x0 /home/leon/git/swp-report/iMX6_Platform_SDK/output/mx6sdl/lib/libboard_sabre_ai_rev_c.a(i2c2_iomux_config.o)
 .data          0x000000001002e334        0x0 /home/src/arm/target/bin/../arm-none-eabi/lib//libstdc++.a(pure.o)
 .data          0x000000001002e334        0x0 /home/src/arm/target/bin/../arm-none-eabi/lib//libstdc++.a(eh_terminate.o)
 .data          0x000000001002e334        0x0 /home/src/arm/target/bin/../arm-none-eabi/lib//libstdc++.a(eh_arm.o)
 .data          0x000000001002e334        0x0 /home/src/arm/target/bin/../arm-none-eabi/lib//libstdc++.a(eh_exception.o)
 .data          0x000000001002e334        0x0 /home/src/arm/target/bin/../arm-none-eabi/lib//libstdc++.a(eh_term_handler.o)
 .data._ZN10__cxxabiv119__terminate_handlerE
                0x000000001002e334        0x4 /home/src/arm/target/bin/../arm-none-eabi/lib//libstdc++.a(eh_term_handler.o)
                0x000000001002e334                __cxxabiv1::__terminate_handler
 .data          0x000000001002e338        0x0 /home/src/arm/target/bin/../arm-none-eabi/lib//libstdc++.a(eh_globals.o)
 .data          0x000000001002e338        0x0 /home/src/arm/target/bin/../arm-none-eabi/lib//libstdc++.a(eh_call.o)
 .data          0x000000001002e338        0x0 /home/src/arm/target/bin/../arm-none-eabi/lib//libstdc++.a(eh_personality.o)
 .data          0x000000001002e338        0x0 /home/src/arm/target/bin/../arm-none-eabi/lib//libstdc++.a(eh_unex_handler.o)
 .data._ZN10__cxxabiv120__unexpected_handlerE
                0x000000001002e338        0x4 /home/src/arm/target/bin/../arm-none-eabi/lib//libstdc++.a(eh_unex_handler.o)
                0x000000001002e338                __cxxabiv1::__unexpected_handler
 .data          0x000000001002e33c        0x0 /home/src/arm/target/bin/../arm-none-eabi/lib//libstdc++.a(si_class_type_info.o)
 .data          0x000000001002e33c        0x0 /home/src/arm/target/bin/../arm-none-eabi/lib//libstdc++.a(eh_throw.o)
 .data          0x000000001002e33c        0x0 /home/src/arm/target/bin/../arm-none-eabi/lib//libstdc++.a(vterminate.o)
 .data          0x000000001002e33c        0x0 /home/src/arm/target/bin/../arm-none-eabi/lib//libstdc++.a(eh_catch.o)
 .data          0x000000001002e33c        0x0 /home/src/arm/target/bin/../arm-none-eabi/lib//libstdc++.a(tinfo.o)
 .data          0x000000001002e33c        0x0 /home/src/arm/target/bin/../arm-none-eabi/lib//libstdc++.a(del_op.o)
 .data          0x000000001002e33c        0x0 /home/src/arm/target/bin/../arm-none-eabi/lib//libstdc++.a(cp-demangle.o)
 .data          0x000000001002e33c        0x0 /home/src/arm/target/bin/../arm-none-eabi/lib//libstdc++.a(class_type_info.o)
 .data          0x000000001002e33c        0x0 /home/src/arm/target/bin/../arm-none-eabi/lib//libstdc++.a(eh_alloc.o)
 .data          0x000000001002e33c        0x0 /home/src/arm/target/bin/../arm-none-eabi/lib//libstdc++.a(eh_type.o)
 .data          0x000000001002e33c        0x0 /home/src/arm/target/bin/../arm-none-eabi/lib//libc.a(lib_a-abort.o)
 .data          0x000000001002e33c        0x0 /home/src/arm/target/bin/../arm-none-eabi/lib//libc.a(lib_a-assert.o)
 .data          0x000000001002e33c        0x0 /home/src/arm/target/bin/../arm-none-eabi/lib//libc.a(lib_a-bzero.o)
 .data          0x000000001002e33c        0x0 /home/src/arm/target/bin/../arm-none-eabi/lib//libc.a(lib_a-fiprintf.o)
 .data          0x000000001002e33c        0x0 /home/src/arm/target/bin/../arm-none-eabi/lib//libc.a(lib_a-fputc.o)
 .data          0x000000001002e33c        0x0 /home/src/arm/target/bin/../arm-none-eabi/lib//libc.a(lib_a-fputs.o)
 .data          0x000000001002e33c        0x0 /home/src/arm/target/bin/../arm-none-eabi/lib//libc.a(lib_a-fvwrite.o)
 .data          0x000000001002e33c        0x0 /home/src/arm/target/bin/../arm-none-eabi/lib//libc.a(lib_a-fwrite.o)
 *fill*         0x000000001002e33c        0x4 
 .data          0x000000001002e340      0x430 /home/src/arm/target/bin/../arm-none-eabi/lib//libc.a(lib_a-impure.o)
                0x000000001002e340                _impure_ptr
 .data          0x000000001002e770        0x0 /home/src/arm/target/bin/../arm-none-eabi/lib//libc.a(lib_a-init.o)
 .data          0x000000001002e770        0x0 /home/src/arm/target/bin/../arm-none-eabi/lib//libc.a(lib_a-malloc.o)
 .data          0x000000001002e770      0x410 /home/src/arm/target/bin/../arm-none-eabi/lib//libc.a(lib_a-mallocr.o)
                0x000000001002e770                __malloc_av_
                0x000000001002eb78                __malloc_sbrk_base
                0x000000001002eb7c                __malloc_trim_threshold
 .data          0x000000001002eb80        0x0 /home/src/arm/target/bin/../arm-none-eabi/lib//libc.a(lib_a-memchr-stub.o)
 .data          0x000000001002eb80        0x0 /home/src/arm/target/bin/../arm-none-eabi/lib//libc.a(lib_a-memcmp.o)
 .data          0x000000001002eb80        0x0 /home/src/arm/target/bin/../arm-none-eabi/lib//libc.a(lib_a-memcpy-stub.o)
 .data          0x000000001002eb80        0x0 /home/src/arm/target/bin/../arm-none-eabi/lib//libc.a(lib_a-memmove.o)
 .data          0x000000001002eb80        0x0 /home/src/arm/target/bin/../arm-none-eabi/lib//libc.a(lib_a-memset.o)
 .data          0x000000001002eb80        0x0 /home/src/arm/target/bin/../arm-none-eabi/lib//libc.a(lib_a-mlock.o)
 .data          0x000000001002eb80        0x0 /home/src/arm/target/bin/../arm-none-eabi/lib//libc.a(lib_a-printf.o)
 .data          0x000000001002eb80        0x0 /home/src/arm/target/bin/../arm-none-eabi/lib//libc.a(lib_a-putc.o)
 .data          0x000000001002eb80        0x0 /home/src/arm/target/bin/../arm-none-eabi/lib//libc.a(lib_a-realloc.o)
 .data          0x000000001002eb80        0x0 /home/src/arm/target/bin/../arm-none-eabi/lib//libc.a(lib_a-reallocr.o)
 .data          0x000000001002eb80        0x0 /home/src/arm/target/bin/../arm-none-eabi/lib//libc.a(lib_a-rget.o)
 .data          0x000000001002eb80        0x0 /home/src/arm/target/bin/../arm-none-eabi/lib//libc.a(lib_a-sbrkr.o)
 .data          0x000000001002eb80        0x0 /home/src/arm/target/bin/../arm-none-eabi/lib//libc.a(lib_a-signal.o)
 .data          0x000000001002eb80        0x0 /home/src/arm/target/bin/../arm-none-eabi/lib//libc.a(lib_a-signalr.o)
 .data          0x000000001002eb80        0x0 /home/src/arm/target/bin/../arm-none-eabi/lib//libc.a(lib_a-sprintf.o)
 .data          0x000000001002eb80        0x0 /home/src/arm/target/bin/../arm-none-eabi/lib//libc.a(lib_a-strcmp.o)
 .data          0x000000001002eb80        0x0 /home/src/arm/target/bin/../arm-none-eabi/lib//libc.a(lib_a-strlen.o)
 .data          0x000000001002eb80        0x0 /home/src/arm/target/bin/../arm-none-eabi/lib//libc.a(lib_a-strncmp.o)
 .data          0x000000001002eb80        0x0 /home/src/arm/target/bin/../arm-none-eabi/lib//libc.a(lib_a-svfprintf.o)
 .data          0x000000001002eb80        0x0 /home/src/arm/target/bin/../arm-none-eabi/lib//libc.a(lib_a-syscalls.o)
 .data          0x000000001002eb80        0x0 /home/src/arm/target/bin/../arm-none-eabi/lib//libc.a(lib_a-syswrite.o)
 .data          0x000000001002eb80        0x0 /home/src/arm/target/bin/../arm-none-eabi/lib//libc.a(lib_a-vfiprintf.o)
 .data          0x000000001002eb80        0x0 /home/src/arm/target/bin/../arm-none-eabi/lib//libc.a(lib_a-vfprintf.o)
 .data          0x000000001002eb80        0x0 /home/src/arm/target/bin/../arm-none-eabi/lib//libc.a(lib_a-vprintf.o)
 .data          0x000000001002eb80        0x0 /home/src/arm/target/bin/../arm-none-eabi/lib//libc.a(lib_a-wbuf.o)
 .data          0x000000001002eb80        0x0 /home/src/arm/target/bin/../arm-none-eabi/lib//libc.a(lib_a-writer.o)
 .data          0x000000001002eb80        0x0 /home/src/arm/target/bin/../arm-none-eabi/lib//libc.a(lib_a-wsetup.o)
 .data          0x000000001002eb80        0x0 /home/src/arm/target/bin/../arm-none-eabi/lib//libc.a(lib_a-dtoa.o)
 .data          0x000000001002eb80        0x0 /home/src/arm/target/bin/../arm-none-eabi/lib//libc.a(lib_a-errno.o)
 .data          0x000000001002eb80        0x0 /home/src/arm/target/bin/../arm-none-eabi/lib//libc.a(lib_a-fflush.o)
 .data          0x000000001002eb80        0x0 /home/src/arm/target/bin/../arm-none-eabi/lib//libc.a(lib_a-findfp.o)
 .data          0x000000001002eb80        0x0 /home/src/arm/target/bin/../arm-none-eabi/lib//libc.a(lib_a-fputwc.o)
 .data          0x000000001002eb80        0x0 /home/src/arm/target/bin/../arm-none-eabi/lib//libc.a(lib_a-freer.o)
 .data          0x000000001002eb80        0x0 /home/src/arm/target/bin/../arm-none-eabi/lib//libc.a(lib_a-fwalk.o)
 .data          0x000000001002eb80       0x7c /home/src/arm/target/bin/../arm-none-eabi/lib//libc.a(lib_a-locale.o)
                0x000000001002eba0                __mb_cur_max
 .data          0x000000001002ebfc        0x0 /home/src/arm/target/bin/../arm-none-eabi/lib//libc.a(lib_a-makebuf.o)
 .data          0x000000001002ebfc        0x0 /home/src/arm/target/bin/../arm-none-eabi/lib//libc.a(lib_a-mprec.o)
 .data          0x000000001002ebfc        0x0 /home/src/arm/target/bin/../arm-none-eabi/lib//libc.a(lib_a-reent.o)
 .data          0x000000001002ebfc        0x0 /home/src/arm/target/bin/../arm-none-eabi/lib//libc.a(lib_a-refill.o)
 .data          0x000000001002ebfc        0x0 /home/src/arm/target/bin/../arm-none-eabi/lib//libc.a(lib_a-s_fpclassify.o)
 .data          0x000000001002ebfc        0x0 /home/src/arm/target/bin/../arm-none-eabi/lib//libc.a(lib_a-stdio.o)
 .data          0x000000001002ebfc        0x0 /home/src/arm/target/bin/../arm-none-eabi/lib//libc.a(lib_a-svfiprintf.o)
 .data          0x000000001002ebfc        0x0 /home/src/arm/target/bin/../arm-none-eabi/lib//libc.a(lib_a-wcrtomb.o)
 .data          0x000000001002ebfc        0x4 /home/src/arm/target/bin/../arm-none-eabi/lib//libc.a(lib_a-wctomb_r.o)
                0x000000001002ebfc                __wctomb
 .data          0x000000001002ec00        0x0 /home/src/arm/target/bin/../arm-none-eabi/lib//libc.a(lib_a-callocr.o)
 .data          0x000000001002ec00        0x0 /home/src/arm/target/bin/../arm-none-eabi/lib//libc.a(lib_a-closer.o)
 .data          0x000000001002ec00        0x0 /home/src/arm/target/bin/../arm-none-eabi/lib//libc.a(lib_a-fclose.o)
 .data          0x000000001002ec00        0x0 /home/src/arm/target/bin/../arm-none-eabi/lib//libc.a(lib_a-fstatr.o)
 .data          0x000000001002ec00        0x0 /home/src/arm/target/bin/../arm-none-eabi/lib//libc.a(lib_a-isattyr.o)
 .data          0x000000001002ec00        0x0 /home/src/arm/target/bin/../arm-none-eabi/lib//libc.a(lib_a-lseekr.o)
 .data          0x000000001002ec00        0x0 /home/src/arm/target/bin/../arm-none-eabi/lib//libc.a(lib_a-readr.o)
 .data          0x000000001002ec00        0x0 /home/src/arm/target/bin/../lib/gcc/arm-none-eabi/4.8.2//libgcc.a(_udivsi3.o)
 .data          0x000000001002ec00        0x0 /home/src/arm/target/bin/../lib/gcc/arm-none-eabi/4.8.2//libgcc.a(_divsi3.o)
 .data          0x000000001002ec00        0x0 /home/src/arm/target/bin/../lib/gcc/arm-none-eabi/4.8.2//libgcc.a(_dvmd_tls.o)
 .data          0x000000001002ec00        0x0 /home/src/arm/target/bin/../lib/gcc/arm-none-eabi/4.8.2//libgcc.a(_arm_addsubdf3.o)
 .data          0x000000001002ec00        0x0 /home/src/arm/target/bin/../lib/gcc/arm-none-eabi/4.8.2//libgcc.a(_arm_muldivdf3.o)
 .data          0x000000001002ec00        0x0 /home/src/arm/target/bin/../lib/gcc/arm-none-eabi/4.8.2//libgcc.a(_arm_cmpdf2.o)
 .data          0x000000001002ec00        0x0 /home/src/arm/target/bin/../lib/gcc/arm-none-eabi/4.8.2//libgcc.a(_arm_fixdfsi.o)
 .data          0x000000001002ec00        0x0 /home/src/arm/target/bin/../lib/gcc/arm-none-eabi/4.8.2//libgcc.a(_aeabi_uldivmod.o)
 .data          0x000000001002ec00        0x0 /home/src/arm/target/bin/../lib/gcc/arm-none-eabi/4.8.2//libgcc.a(bpabi.o)
 .data          0x000000001002ec00        0x0 /home/src/arm/target/bin/../lib/gcc/arm-none-eabi/4.8.2//libgcc.a(unwind-arm.o)
 .data          0x000000001002ec00        0x0 /home/src/arm/target/bin/../lib/gcc/arm-none-eabi/4.8.2//libgcc.a(libunwind.o)
 .data          0x000000001002ec00        0x0 /home/src/arm/target/bin/../lib/gcc/arm-none-eabi/4.8.2//libgcc.a(pr-support.o)
 .data          0x000000001002ec00        0x0 /home/src/arm/target/bin/../lib/gcc/arm-none-eabi/4.8.2//libgcc.a(_divdi3.o)
 .data          0x000000001002ec00        0x0 /home/src/arm/target/bin/../lib/gcc/arm-none-eabi/4.8.2//libgcc.a(_udivdi3.o)
 .data          0x000000001002ec00        0x0 /home/src/arm/target/bin/../lib/gcc/arm-none-eabi/4.8.2//libgcc.a(_clzsi2.o)
 .data          0x000000001002ec00        0x0 /home/leon/git/swp-report/iMX6_Platform_SDK/output/mx6sdl/lib/libsdk.a(max7310.o)
 .data          0x000000001002ec00        0x0 /home/leon/git/swp-report/iMX6_Platform_SDK/output/mx6sdl/lib/libsdk.a(gpio.o)
 .data          0x000000001002ec00        0x0 /home/leon/git/swp-report/iMX6_Platform_SDK/output/mx6sdl/lib/libsdk.a(imx6sdl_gpio_map.o)
 .data          0x000000001002ec00        0x0 /home/leon/git/swp-report/iMX6_Platform_SDK/output/mx6sdl/lib/libsdk.a(imx_i2c.o)
 .data          0x000000001002ec00        0x0 /home/leon/git/swp-report/iMX6_Platform_SDK/output/mx6sdl/lib/libboard_sabre_ai_rev_c.a(i2c_iomux_config.o)

.jcr            0x000000001002ec00        0x4
 .jcr           0x000000001002ec00        0x0 /home/src/arm/target/bin/../lib/gcc/arm-none-eabi/4.8.2//crtbegin.o
 .jcr           0x000000001002ec00        0x4 /home/src/arm/target/bin/../lib/gcc/arm-none-eabi/4.8.2//crtend.o

.tm_clone_table
                0x000000001002ec04        0x0
 .tm_clone_table
                0x000000001002ec04        0x0 /home/src/arm/target/bin/../lib/gcc/arm-none-eabi/4.8.2//crtbegin.o
 .tm_clone_table
                0x000000001002ec04        0x0 /home/src/arm/target/bin/../lib/gcc/arm-none-eabi/4.8.2//crtend.o

.igot.plt       0x000000001002ec04        0x0
 .igot.plt      0x0000000000000000        0x0 /home/src/arm/target/bin/../lib/gcc/arm-none-eabi/4.8.2//crtbegin.o

.hab.data       0x0000000010400000     0x2000
                0x0000000010400000                __hab_data = .
                0x0000000010402000                . = (. + 0x2000)
 *fill*         0x0000000010400000     0x2000 
                0x0000000010402000                . = ALIGN (0x20)
                0x0000000010402000                __hab_data_end = .
                0x0000000000402000                _image_size = (. - _start_image_add)

.bss            0x0000000010402000  0x2dc7ab8
                0x0000000010402000                __bss_start__ = .
 *(.shbss)
 *(.bss .bss.* .gnu.linkonce.b.*)
 .bss           0x0000000010402000       0x1c /home/src/arm/target/bin/../lib/gcc/arm-none-eabi/4.8.2//crtbegin.o
 .bss           0x000000001040201c        0x0 /home/src/arm/target/bin/../lib/gcc/arm-none-eabi/4.8.2//crti.o
 .bss           0x000000001040201c        0x0 /home/src/arm/target/bin/../lib/gcc/arm-none-eabi/4.8.2//crtend.o
 .bss           0x000000001040201c        0x0 /home/src/arm/target/bin/../lib/gcc/arm-none-eabi/4.8.2//crtn.o
 .bss           0x000000001040201c        0x0 /home/leon/git/swp-report/iMX6_Platform_SDK/output/mx6sdl/stream/sabre_ai_rev_c/obj/apps/common/ivt.o
 .bss           0x000000001040201c        0x0 /home/leon/git/swp-report/iMX6_Platform_SDK/output/mx6sdl/stream/sabre_ai_rev_c/obj/apps/common/platform_init.o
 .bss           0x000000001040201c        0x0 /home/leon/git/swp-report/iMX6_Platform_SDK/output/mx6sdl/stream/sabre_ai_rev_c/obj/apps/common/print_version.o
 .bss           0x000000001040201c        0x4 /home/leon/git/swp-report/iMX6_Platform_SDK/output/mx6sdl/stream/sabre_ai_rev_c/obj/apps/stream/src/main.o
 .bss           0x0000000010402020  0x2dc6c00 /home/leon/git/swp-report/iMX6_Platform_SDK/output/mx6sdl/stream/sabre_ai_rev_c/obj/apps/stream/src/stream.o
 .bss           0x00000000131c8c20        0x0 /home/leon/git/swp-report/iMX6_Platform_SDK/output/mx6sdl/lib/libsdk.a(ccm_pll.o)
 .bss           0x00000000131c8c20        0x0 /home/leon/git/swp-report/iMX6_Platform_SDK/output/mx6sdl/lib/libsdk.a(cortexA9.o)
 .bss           0x00000000131c8c20        0x0 /home/leon/git/swp-report/iMX6_Platform_SDK/output/mx6sdl/lib/libsdk.a(gic.o)
 .bss           0x00000000131c8c20        0x0 /home/leon/git/swp-report/iMX6_Platform_SDK/output/mx6sdl/lib/libsdk.a(mmu.o)
 .bss           0x00000000131c8c20        0x0 /home/leon/git/swp-report/iMX6_Platform_SDK/output/mx6sdl/lib/libsdk.a(startup.o)
 .bss           0x00000000131c8c20        0x0 /home/leon/git/swp-report/iMX6_Platform_SDK/output/mx6sdl/lib/libsdk.a(vectors.o)
 .bss           0x00000000131c8c20        0x0 /home/leon/git/swp-report/iMX6_Platform_SDK/output/mx6sdl/lib/libsdk.a(sdk_version.o)
 .bss           0x00000000131c8c20        0x0 /home/leon/git/swp-report/iMX6_Platform_SDK/output/mx6sdl/lib/libsdk.a(system_util.o)
 .bss           0x00000000131c8c20        0x0 /home/leon/git/swp-report/iMX6_Platform_SDK/output/mx6sdl/lib/libsdk.a(text_color.o)
 .bss           0x00000000131c8c20        0x0 /home/leon/git/swp-report/iMX6_Platform_SDK/output/mx6sdl/lib/libsdk.a(board_id.o)
 .bss           0x00000000131c8c20        0x0 /home/leon/git/swp-report/iMX6_Platform_SDK/output/mx6sdl/lib/libsdk.a(cpu_workpoint.o)
 .bss           0x00000000131c8c20       0xa0 /home/leon/git/swp-report/iMX6_Platform_SDK/output/mx6sdl/lib/libsdk.a(pmu_driver.o)
 .bss           0x00000000131c8cc0        0x0 /home/leon/git/swp-report/iMX6_Platform_SDK/output/mx6sdl/lib/libsdk.a(epit.o)
 .bss           0x00000000131c8cc0        0x4 /home/leon/git/swp-report/iMX6_Platform_SDK/output/mx6sdl/lib/libsdk.a(timer.o)
                0x00000000131c8cc0                g_microsecondTimerMultiple
 .bss           0x00000000131c8cc4        0x0 /home/leon/git/swp-report/iMX6_Platform_SDK/output/mx6sdl/lib/libsdk.a(imx_uart.o)
 .bss           0x00000000131c8cc4        0x0 /home/leon/git/swp-report/iMX6_Platform_SDK/output/mx6sdl/lib/libsdk.a(arm_abort.o)
 .bss           0x00000000131c8cc4      0x290 /home/leon/git/swp-report/iMX6_Platform_SDK/output/mx6sdl/lib/libsdk.a(interrupt.o)
                0x00000000131c8cc4                g_interrupt_handlers
                0x00000000131c8f44                g_vectNum
 .bss           0x00000000131c8f54        0x0 /home/leon/git/swp-report/iMX6_Platform_SDK/output/mx6sdl/lib/libsdk.a(abort_handler.o)
 .bss           0x00000000131c8f54       0x6c /home/leon/git/swp-report/iMX6_Platform_SDK/output/mx6sdl/lib/libboard_sabre_ai_rev_c.a(board_io_expanders.o)
                0x00000000131c8f54                max7310_i2c_req_array
 .bss           0x00000000131c8fc0        0x0 /home/leon/git/swp-report/iMX6_Platform_SDK/output/mx6sdl/lib/libboard_sabre_ai_rev_c.a(hardware_modules.o)
 .bss           0x00000000131c8fc0        0x0 /home/leon/git/swp-report/iMX6_Platform_SDK/output/mx6sdl/lib/libboard_sabre_ai_rev_c.a(dcd.o)
 .bss           0x00000000131c8fc0        0x0 /home/leon/git/swp-report/iMX6_Platform_SDK/output/mx6sdl/lib/libboard_sabre_ai_rev_c.a(i2c3_iomux_config.o)
 .bss           0x00000000131c8fc0        0x0 /home/leon/git/swp-report/iMX6_Platform_SDK/output/mx6sdl/lib/libboard_sabre_ai_rev_c.a(uart_iomux_config.o)
 .bss           0x00000000131c8fc0        0x0 /home/leon/git/swp-report/iMX6_Platform_SDK/output/mx6sdl/lib/libboard_sabre_ai_rev_c.a(iomux_config.o)
 .bss           0x00000000131c8fc0        0x0 /home/leon/git/swp-report/iMX6_Platform_SDK/output/mx6sdl/lib/libboard_sabre_ai_rev_c.a(ipu1_iomux_config.o)
 .bss           0x00000000131c8fc0        0x0 /home/leon/git/swp-report/iMX6_Platform_SDK/output/mx6sdl/lib/libboard_sabre_ai_rev_c.a(mlb_iomux_config.o)
 .bss           0x00000000131c8fc0        0x0 /home/leon/git/swp-report/iMX6_Platform_SDK/output/mx6sdl/lib/libboard_sabre_ai_rev_c.a(mmdc_iomux_config.o)
 .bss           0x00000000131c8fc0        0x0 /home/leon/git/swp-report/iMX6_Platform_SDK/output/mx6sdl/lib/libboard_sabre_ai_rev_c.a(pwm3_iomux_config.o)
 .bss           0x00000000131c8fc0        0x0 /home/leon/git/swp-report/iMX6_Platform_SDK/output/mx6sdl/lib/libboard_sabre_ai_rev_c.a(pwm4_iomux_config.o)
 .bss           0x00000000131c8fc0        0x0 /home/leon/git/swp-report/iMX6_Platform_SDK/output/mx6sdl/lib/libboard_sabre_ai_rev_c.a(sjc_iomux_config.o)
 .bss           0x00000000131c8fc0        0x0 /home/leon/git/swp-report/iMX6_Platform_SDK/output/mx6sdl/lib/libboard_sabre_ai_rev_c.a(spdif_iomux_config.o)
 .bss           0x00000000131c8fc0        0x0 /home/leon/git/swp-report/iMX6_Platform_SDK/output/mx6sdl/lib/libboard_sabre_ai_rev_c.a(uart2_iomux_config.o)
 .bss           0x00000000131c8fc0        0x0 /home/leon/git/swp-report/iMX6_Platform_SDK/output/mx6sdl/lib/libboard_sabre_ai_rev_c.a(uart3_iomux_config.o)
 .bss           0x00000000131c8fc0        0x0 /home/leon/git/swp-report/iMX6_Platform_SDK/output/mx6sdl/lib/libboard_sabre_ai_rev_c.a(uart4_iomux_config.o)
 .bss           0x00000000131c8fc0        0x0 /home/leon/git/swp-report/iMX6_Platform_SDK/output/mx6sdl/lib/libboard_sabre_ai_rev_c.a(usdhc1_iomux_config.o)
 .bss           0x00000000131c8fc0        0x0 /home/leon/git/swp-report/iMX6_Platform_SDK/output/mx6sdl/lib/libboard_sabre_ai_rev_c.a(usdhc3_iomux_config.o)
 .bss           0x00000000131c8fc0        0x0 /home/leon/git/swp-report/iMX6_Platform_SDK/output/mx6sdl/lib/libboard_sabre_ai_rev_c.a(wdog1_iomux_config.o)
 .bss           0x00000000131c8fc0        0x0 /home/leon/git/swp-report/iMX6_Platform_SDK/output/mx6sdl/lib/libboard_sabre_ai_rev_c.a(audmux_iomux_config.o)
 .bss           0x00000000131c8fc0        0x0 /home/leon/git/swp-report/iMX6_Platform_SDK/output/mx6sdl/lib/libboard_sabre_ai_rev_c.a(ccm_iomux_config.o)
 .bss           0x00000000131c8fc0        0x0 /home/leon/git/swp-report/iMX6_Platform_SDK/output/mx6sdl/lib/libboard_sabre_ai_rev_c.a(ecspi1_iomux_config.o)
 .bss           0x00000000131c8fc0        0x0 /home/leon/git/swp-report/iMX6_Platform_SDK/output/mx6sdl/lib/libboard_sabre_ai_rev_c.a(eim_iomux_config.o)
 .bss           0x00000000131c8fc0        0x0 /home/leon/git/swp-report/iMX6_Platform_SDK/output/mx6sdl/lib/libboard_sabre_ai_rev_c.a(enet_iomux_config.o)
 .bss           0x00000000131c8fc0        0x0 /home/leon/git/swp-report/iMX6_Platform_SDK/output/mx6sdl/lib/libboard_sabre_ai_rev_c.a(esai_iomux_config.o)
 .bss           0x00000000131c8fc0        0x0 /home/leon/git/swp-report/iMX6_Platform_SDK/output/mx6sdl/lib/libboard_sabre_ai_rev_c.a(flexcan1_iomux_config.o)
 .bss           0x00000000131c8fc0        0x0 /home/leon/git/swp-report/iMX6_Platform_SDK/output/mx6sdl/lib/libboard_sabre_ai_rev_c.a(flexcan2_iomux_config.o)
 .bss           0x00000000131c8fc0        0x0 /home/leon/git/swp-report/iMX6_Platform_SDK/output/mx6sdl/lib/libboard_sabre_ai_rev_c.a(gpio1_iomux_config.o)
 .bss           0x00000000131c8fc0        0x0 /home/leon/git/swp-report/iMX6_Platform_SDK/output/mx6sdl/lib/libboard_sabre_ai_rev_c.a(gpio2_iomux_config.o)
 .bss           0x00000000131c8fc0        0x0 /home/leon/git/swp-report/iMX6_Platform_SDK/output/mx6sdl/lib/libboard_sabre_ai_rev_c.a(gpio4_iomux_config.o)
 .bss           0x00000000131c8fc0        0x0 /home/leon/git/swp-report/iMX6_Platform_SDK/output/mx6sdl/lib/libboard_sabre_ai_rev_c.a(gpio5_iomux_config.o)
 .bss           0x00000000131c8fc0        0x0 /home/leon/git/swp-report/iMX6_Platform_SDK/output/mx6sdl/lib/libboard_sabre_ai_rev_c.a(gpio6_iomux_config.o)
 .bss           0x00000000131c8fc0        0x0 /home/leon/git/swp-report/iMX6_Platform_SDK/output/mx6sdl/lib/libboard_sabre_ai_rev_c.a(gpmi_iomux_config.o)
 .bss           0x00000000131c8fc0        0x0 /home/leon/git/swp-report/iMX6_Platform_SDK/output/mx6sdl/lib/libboard_sabre_ai_rev_c.a(i2c2_iomux_config.o)
 .bss           0x00000000131c8fc0        0x0 /home/src/arm/target/bin/../arm-none-eabi/lib//libstdc++.a(pure.o)
 .bss           0x00000000131c8fc0        0x0 /home/src/arm/target/bin/../arm-none-eabi/lib//libstdc++.a(eh_terminate.o)
 .bss           0x00000000131c8fc0        0x0 /home/src/arm/target/bin/../arm-none-eabi/lib//libstdc++.a(eh_arm.o)
 .bss           0x00000000131c8fc0        0x0 /home/src/arm/target/bin/../arm-none-eabi/lib//libstdc++.a(eh_exception.o)
 .bss           0x00000000131c8fc0        0x0 /home/src/arm/target/bin/../arm-none-eabi/lib//libstdc++.a(eh_term_handler.o)
 .bss           0x00000000131c8fc0        0x0 /home/src/arm/target/bin/../arm-none-eabi/lib//libstdc++.a(eh_globals.o)
 .bss._ZL10eh_globals
                0x00000000131c8fc0        0xc /home/src/arm/target/bin/../arm-none-eabi/lib//libstdc++.a(eh_globals.o)
 .bss           0x00000000131c8fcc        0x0 /home/src/arm/target/bin/../arm-none-eabi/lib//libstdc++.a(eh_call.o)
 .bss           0x00000000131c8fcc        0x0 /home/src/arm/target/bin/../arm-none-eabi/lib//libstdc++.a(eh_personality.o)
 .bss           0x00000000131c8fcc        0x0 /home/src/arm/target/bin/../arm-none-eabi/lib//libstdc++.a(eh_unex_handler.o)
 .bss           0x00000000131c8fcc        0x0 /home/src/arm/target/bin/../arm-none-eabi/lib//libstdc++.a(si_class_type_info.o)
 .bss           0x00000000131c8fcc        0x0 /home/src/arm/target/bin/../arm-none-eabi/lib//libstdc++.a(eh_throw.o)
 .bss           0x00000000131c8fcc        0x0 /home/src/arm/target/bin/../arm-none-eabi/lib//libstdc++.a(vterminate.o)
 .bss._ZZN9__gnu_cxx27__verbose_terminate_handlerEvE11terminating
                0x00000000131c8fcc        0x1 /home/src/arm/target/bin/../arm-none-eabi/lib//libstdc++.a(vterminate.o)
 .bss           0x00000000131c8fcd        0x0 /home/src/arm/target/bin/../arm-none-eabi/lib//libstdc++.a(eh_catch.o)
 .bss           0x00000000131c8fcd        0x0 /home/src/arm/target/bin/../arm-none-eabi/lib//libstdc++.a(tinfo.o)
 .bss           0x00000000131c8fcd        0x0 /home/src/arm/target/bin/../arm-none-eabi/lib//libstdc++.a(del_op.o)
 .bss           0x00000000131c8fcd        0x0 /home/src/arm/target/bin/../arm-none-eabi/lib//libstdc++.a(cp-demangle.o)
 .bss           0x00000000131c8fcd        0x0 /home/src/arm/target/bin/../arm-none-eabi/lib//libstdc++.a(class_type_info.o)
 .bss           0x00000000131c8fcd        0x0 /home/src/arm/target/bin/../arm-none-eabi/lib//libstdc++.a(eh_alloc.o)
 *fill*         0x00000000131c8fcd        0x3 
 .bss._ZL15dependents_used
                0x00000000131c8fd0        0x4 /home/src/arm/target/bin/../arm-none-eabi/lib//libstdc++.a(eh_alloc.o)
 *fill*         0x00000000131c8fd4        0x4 
 .bss._ZL17dependents_buffer
                0x00000000131c8fd8      0x1e0 /home/src/arm/target/bin/../arm-none-eabi/lib//libstdc++.a(eh_alloc.o)
 .bss._ZL14emergency_used
                0x00000000131c91b8        0x4 /home/src/arm/target/bin/../arm-none-eabi/lib//libstdc++.a(eh_alloc.o)
 *fill*         0x00000000131c91bc        0x4 
 .bss._ZL16emergency_buffer
                0x00000000131c91c0      0x800 /home/src/arm/target/bin/../arm-none-eabi/lib//libstdc++.a(eh_alloc.o)
 .bss           0x00000000131c99c0        0x0 /home/src/arm/target/bin/../arm-none-eabi/lib//libstdc++.a(eh_type.o)
 .bss           0x00000000131c99c0        0x0 /home/src/arm/target/bin/../arm-none-eabi/lib//libc.a(lib_a-abort.o)
 .bss           0x00000000131c99c0        0x0 /home/src/arm/target/bin/../arm-none-eabi/lib//libc.a(lib_a-assert.o)
 .bss           0x00000000131c99c0        0x0 /home/src/arm/target/bin/../arm-none-eabi/lib//libc.a(lib_a-bzero.o)
 .bss           0x00000000131c99c0        0x0 /home/src/arm/target/bin/../arm-none-eabi/lib//libc.a(lib_a-fiprintf.o)
 .bss           0x00000000131c99c0        0x0 /home/src/arm/target/bin/../arm-none-eabi/lib//libc.a(lib_a-fputc.o)
 .bss           0x00000000131c99c0        0x0 /home/src/arm/target/bin/../arm-none-eabi/lib//libc.a(lib_a-fputs.o)
 .bss           0x00000000131c99c0        0x0 /home/src/arm/target/bin/../arm-none-eabi/lib//libc.a(lib_a-fvwrite.o)
 .bss           0x00000000131c99c0        0x0 /home/src/arm/target/bin/../arm-none-eabi/lib//libc.a(lib_a-fwrite.o)
 .bss           0x00000000131c99c0        0x0 /home/src/arm/target/bin/../arm-none-eabi/lib//libc.a(lib_a-impure.o)
 .bss           0x00000000131c99c0        0x0 /home/src/arm/target/bin/../arm-none-eabi/lib//libc.a(lib_a-init.o)
 .bss           0x00000000131c99c0        0x0 /home/src/arm/target/bin/../arm-none-eabi/lib//libc.a(lib_a-malloc.o)
 .bss           0x00000000131c99c0       0x34 /home/src/arm/target/bin/../arm-none-eabi/lib//libc.a(lib_a-mallocr.o)
                0x00000000131c99c0                __malloc_top_pad
                0x00000000131c99c4                __malloc_current_mallinfo
                0x00000000131c99ec                __malloc_max_sbrked_mem
                0x00000000131c99f0                __malloc_max_total_mem
 .bss           0x00000000131c99f4        0x0 /home/src/arm/target/bin/../arm-none-eabi/lib//libc.a(lib_a-memchr-stub.o)
 .bss           0x00000000131c99f4        0x0 /home/src/arm/target/bin/../arm-none-eabi/lib//libc.a(lib_a-memcmp.o)
 .bss           0x00000000131c99f4        0x0 /home/src/arm/target/bin/../arm-none-eabi/lib//libc.a(lib_a-memcpy-stub.o)
 .bss           0x00000000131c99f4        0x0 /home/src/arm/target/bin/../arm-none-eabi/lib//libc.a(lib_a-memmove.o)
 .bss           0x00000000131c99f4        0x0 /home/src/arm/target/bin/../arm-none-eabi/lib//libc.a(lib_a-memset.o)
 .bss           0x00000000131c99f4        0x0 /home/src/arm/target/bin/../arm-none-eabi/lib//libc.a(lib_a-mlock.o)
 .bss           0x00000000131c99f4        0x0 /home/src/arm/target/bin/../arm-none-eabi/lib//libc.a(lib_a-printf.o)
 .bss           0x00000000131c99f4        0x0 /home/src/arm/target/bin/../arm-none-eabi/lib//libc.a(lib_a-putc.o)
 .bss           0x00000000131c99f4        0x0 /home/src/arm/target/bin/../arm-none-eabi/lib//libc.a(lib_a-realloc.o)
 .bss           0x00000000131c99f4        0x0 /home/src/arm/target/bin/../arm-none-eabi/lib//libc.a(lib_a-reallocr.o)
 .bss           0x00000000131c99f4        0x0 /home/src/arm/target/bin/../arm-none-eabi/lib//libc.a(lib_a-rget.o)
 .bss           0x00000000131c99f4        0x0 /home/src/arm/target/bin/../arm-none-eabi/lib//libc.a(lib_a-sbrkr.o)
 .bss           0x00000000131c99f4        0x0 /home/src/arm/target/bin/../arm-none-eabi/lib//libc.a(lib_a-signal.o)
 .bss           0x00000000131c99f4        0x0 /home/src/arm/target/bin/../arm-none-eabi/lib//libc.a(lib_a-signalr.o)
 .bss           0x00000000131c99f4        0x0 /home/src/arm/target/bin/../arm-none-eabi/lib//libc.a(lib_a-sprintf.o)
 .bss           0x00000000131c99f4        0x0 /home/src/arm/target/bin/../arm-none-eabi/lib//libc.a(lib_a-strcmp.o)
 .bss           0x00000000131c99f4        0x0 /home/src/arm/target/bin/../arm-none-eabi/lib//libc.a(lib_a-strlen.o)
 .bss           0x00000000131c99f4        0x0 /home/src/arm/target/bin/../arm-none-eabi/lib//libc.a(lib_a-strncmp.o)
 .bss           0x00000000131c99f4        0x0 /home/src/arm/target/bin/../arm-none-eabi/lib//libc.a(lib_a-svfprintf.o)
 .bss           0x00000000131c99f4       0xb0 /home/src/arm/target/bin/../arm-none-eabi/lib//libc.a(lib_a-syscalls.o)
 .bss           0x00000000131c9aa4        0x0 /home/src/arm/target/bin/../arm-none-eabi/lib//libc.a(lib_a-syswrite.o)
 .bss           0x00000000131c9aa4        0x0 /home/src/arm/target/bin/../arm-none-eabi/lib//libc.a(lib_a-vfiprintf.o)
 .bss           0x00000000131c9aa4        0x0 /home/src/arm/target/bin/../arm-none-eabi/lib//libc.a(lib_a-vfprintf.o)
 .bss           0x00000000131c9aa4        0x0 /home/src/arm/target/bin/../arm-none-eabi/lib//libc.a(lib_a-vprintf.o)
 .bss           0x00000000131c9aa4        0x0 /home/src/arm/target/bin/../arm-none-eabi/lib//libc.a(lib_a-wbuf.o)
 .bss           0x00000000131c9aa4        0x0 /home/src/arm/target/bin/../arm-none-eabi/lib//libc.a(lib_a-writer.o)
 .bss           0x00000000131c9aa4        0x0 /home/src/arm/target/bin/../arm-none-eabi/lib//libc.a(lib_a-wsetup.o)
 .bss           0x00000000131c9aa4        0x0 /home/src/arm/target/bin/../arm-none-eabi/lib//libc.a(lib_a-dtoa.o)
 .bss           0x00000000131c9aa4        0x0 /home/src/arm/target/bin/../arm-none-eabi/lib//libc.a(lib_a-errno.o)
 .bss           0x00000000131c9aa4        0x0 /home/src/arm/target/bin/../arm-none-eabi/lib//libc.a(lib_a-fflush.o)
 .bss           0x00000000131c9aa4        0x0 /home/src/arm/target/bin/../arm-none-eabi/lib//libc.a(lib_a-findfp.o)
 .bss           0x00000000131c9aa4        0x0 /home/src/arm/target/bin/../arm-none-eabi/lib//libc.a(lib_a-fputwc.o)
 .bss           0x00000000131c9aa4        0x0 /home/src/arm/target/bin/../arm-none-eabi/lib//libc.a(lib_a-freer.o)
 .bss           0x00000000131c9aa4        0x0 /home/src/arm/target/bin/../arm-none-eabi/lib//libc.a(lib_a-fwalk.o)
 .bss           0x00000000131c9aa4        0xc /home/src/arm/target/bin/../arm-none-eabi/lib//libc.a(lib_a-locale.o)
                0x00000000131c9aa4                _PathLocale
                0x00000000131c9aa8                __mlocale_changed
                0x00000000131c9aac                __nlocale_changed
 .bss           0x00000000131c9ab0        0x0 /home/src/arm/target/bin/../arm-none-eabi/lib//libc.a(lib_a-makebuf.o)
 .bss           0x00000000131c9ab0        0x0 /home/src/arm/target/bin/../arm-none-eabi/lib//libc.a(lib_a-mprec.o)
 .bss           0x00000000131c9ab0        0x0 /home/src/arm/target/bin/../arm-none-eabi/lib//libc.a(lib_a-reent.o)
 .bss           0x00000000131c9ab0        0x0 /home/src/arm/target/bin/../arm-none-eabi/lib//libc.a(lib_a-refill.o)
 .bss           0x00000000131c9ab0        0x0 /home/src/arm/target/bin/../arm-none-eabi/lib//libc.a(lib_a-s_fpclassify.o)
 .bss           0x00000000131c9ab0        0x0 /home/src/arm/target/bin/../arm-none-eabi/lib//libc.a(lib_a-stdio.o)
 .bss           0x00000000131c9ab0        0x0 /home/src/arm/target/bin/../arm-none-eabi/lib//libc.a(lib_a-svfiprintf.o)
 .bss           0x00000000131c9ab0        0x0 /home/src/arm/target/bin/../arm-none-eabi/lib//libc.a(lib_a-wcrtomb.o)
 .bss           0x00000000131c9ab0        0x0 /home/src/arm/target/bin/../arm-none-eabi/lib//libc.a(lib_a-wctomb_r.o)
 .bss           0x00000000131c9ab0        0x0 /home/src/arm/target/bin/../arm-none-eabi/lib//libc.a(lib_a-callocr.o)
 .bss           0x00000000131c9ab0        0x0 /home/src/arm/target/bin/../arm-none-eabi/lib//libc.a(lib_a-closer.o)
 .bss           0x00000000131c9ab0        0x0 /home/src/arm/target/bin/../arm-none-eabi/lib//libc.a(lib_a-fclose.o)
 .bss           0x00000000131c9ab0        0x0 /home/src/arm/target/bin/../arm-none-eabi/lib//libc.a(lib_a-fstatr.o)
 .bss           0x00000000131c9ab0        0x0 /home/src/arm/target/bin/../arm-none-eabi/lib//libc.a(lib_a-isattyr.o)
 .bss           0x00000000131c9ab0        0x0 /home/src/arm/target/bin/../arm-none-eabi/lib//libc.a(lib_a-lseekr.o)
 .bss           0x00000000131c9ab0        0x0 /home/src/arm/target/bin/../arm-none-eabi/lib//libc.a(lib_a-readr.o)
 .bss           0x00000000131c9ab0        0x0 /home/src/arm/target/bin/../lib/gcc/arm-none-eabi/4.8.2//libgcc.a(_udivsi3.o)
 .bss           0x00000000131c9ab0        0x0 /home/src/arm/target/bin/../lib/gcc/arm-none-eabi/4.8.2//libgcc.a(_divsi3.o)
 .bss           0x00000000131c9ab0        0x0 /home/src/arm/target/bin/../lib/gcc/arm-none-eabi/4.8.2//libgcc.a(_dvmd_tls.o)
 .bss           0x00000000131c9ab0        0x0 /home/src/arm/target/bin/../lib/gcc/arm-none-eabi/4.8.2//libgcc.a(_arm_addsubdf3.o)
 .bss           0x00000000131c9ab0        0x0 /home/src/arm/target/bin/../lib/gcc/arm-none-eabi/4.8.2//libgcc.a(_arm_muldivdf3.o)
 .bss           0x00000000131c9ab0        0x0 /home/src/arm/target/bin/../lib/gcc/arm-none-eabi/4.8.2//libgcc.a(_arm_cmpdf2.o)
 .bss           0x00000000131c9ab0        0x0 /home/src/arm/target/bin/../lib/gcc/arm-none-eabi/4.8.2//libgcc.a(_arm_fixdfsi.o)
 .bss           0x00000000131c9ab0        0x0 /home/src/arm/target/bin/../lib/gcc/arm-none-eabi/4.8.2//libgcc.a(_aeabi_uldivmod.o)
 .bss           0x00000000131c9ab0        0x0 /home/src/arm/target/bin/../lib/gcc/arm-none-eabi/4.8.2//libgcc.a(bpabi.o)
 .bss           0x00000000131c9ab0        0x0 /home/src/arm/target/bin/../lib/gcc/arm-none-eabi/4.8.2//libgcc.a(unwind-arm.o)
 .bss           0x00000000131c9ab0        0x0 /home/src/arm/target/bin/../lib/gcc/arm-none-eabi/4.8.2//libgcc.a(libunwind.o)
 .bss           0x00000000131c9ab0        0x0 /home/src/arm/target/bin/../lib/gcc/arm-none-eabi/4.8.2//libgcc.a(pr-support.o)
 .bss           0x00000000131c9ab0        0x0 /home/src/arm/target/bin/../lib/gcc/arm-none-eabi/4.8.2//libgcc.a(_divdi3.o)
 .bss           0x00000000131c9ab0        0x0 /home/src/arm/target/bin/../lib/gcc/arm-none-eabi/4.8.2//libgcc.a(_udivdi3.o)
 .bss           0x00000000131c9ab0        0x0 /home/src/arm/target/bin/../lib/gcc/arm-none-eabi/4.8.2//libgcc.a(_clzsi2.o)
 .bss           0x00000000131c9ab0        0x4 /home/leon/git/swp-report/iMX6_Platform_SDK/output/mx6sdl/lib/libsdk.a(max7310.o)
 .bss           0x00000000131c9ab4        0x0 /home/leon/git/swp-report/iMX6_Platform_SDK/output/mx6sdl/lib/libsdk.a(gpio.o)
 .bss           0x00000000131c9ab4        0x0 /home/leon/git/swp-report/iMX6_Platform_SDK/output/mx6sdl/lib/libsdk.a(imx6sdl_gpio_map.o)
 .bss           0x00000000131c9ab4        0x0 /home/leon/git/swp-report/iMX6_Platform_SDK/output/mx6sdl/lib/libsdk.a(imx_i2c.o)
 .bss           0x00000000131c9ab4        0x0 /home/leon/git/swp-report/iMX6_Platform_SDK/output/mx6sdl/lib/libboard_sabre_ai_rev_c.a(i2c_iomux_config.o)
 *(COMMON)
 COMMON         0x00000000131c9ab4        0x4 /home/src/arm/target/bin/../arm-none-eabi/lib//libc.a(lib_a-reent.o)
                0x00000000131c9ab4                errno
 *(.bss)
                0x00000000131c9ab8                __bss_end__ = .

.stacks         0x00000000131c9ab8     0xc000
                0x00000000131c9ab8                __stacks_start = .
                0x00000000131d5ab8                . = (. + 0xc000)
 *fill*         0x00000000131c9ab8     0xc000 
                0x00000000131d5ab8                __stacks_end = .
                0x00000000131d5ab8                top_of_stacks = .
                0x00000000131d5ac0                free_memory_start = ALIGN (0x20)
                0x000000001b1d5ab8                . = (. + 0x8000000)
                0x000000001b1d5ab8                free_memory_end = .
                0x000000001b1d5ab8                _end = .
                0x000000001b1d5ab8                PROVIDE (end, .)
START GROUP
LOAD /home/leon/git/swp-report/iMX6_Platform_SDK/output/mx6sdl/stream/sabre_ai_rev_c/obj/apps/common/ivt.o
LOAD /home/leon/git/swp-report/iMX6_Platform_SDK/output/mx6sdl/stream/sabre_ai_rev_c/obj/apps/common/platform_init.o
LOAD /home/leon/git/swp-report/iMX6_Platform_SDK/output/mx6sdl/stream/sabre_ai_rev_c/obj/apps/common/print_version.o
LOAD /home/leon/git/swp-report/iMX6_Platform_SDK/output/mx6sdl/stream/sabre_ai_rev_c/obj/apps/stream/src/main.o
LOAD /home/leon/git/swp-report/iMX6_Platform_SDK/output/mx6sdl/stream/sabre_ai_rev_c/obj/apps/stream/src/stream.o
LOAD /home/leon/git/swp-report/iMX6_Platform_SDK/output/mx6sdl/lib/libsdk.a
LOAD /home/leon/git/swp-report/iMX6_Platform_SDK/output/mx6sdl/lib/libboard_sabre_ai_rev_c.a
LOAD /home/src/arm/target/bin/../arm-none-eabi/lib//libm.a
LOAD /home/src/arm/target/bin/../arm-none-eabi/lib//libstdc++.a
LOAD /home/src/arm/target/bin/../arm-none-eabi/lib//libc.a
LOAD /home/src/arm/target/bin/../lib/gcc/arm-none-eabi/4.8.2//libgcc.a
END GROUP
OUTPUT(/home/leon/git/swp-report/iMX6_Platform_SDK/output/mx6sdl/stream/sabre_ai_rev_c/stream.elf elf32-littlearm)

.comment        0x0000000000000000       0x11
 .comment       0x0000000000000000       0x11 /home/src/arm/target/bin/../lib/gcc/arm-none-eabi/4.8.2//crtbegin.o
                                         0x12 (size before relaxing)
 .comment       0x0000000000000000       0x12 /home/src/arm/target/bin/../lib/gcc/arm-none-eabi/4.8.2//crtend.o
 .comment       0x0000000000000000       0x12 /home/leon/git/swp-report/iMX6_Platform_SDK/output/mx6sdl/stream/sabre_ai_rev_c/obj/apps/common/ivt.o
 .comment       0x0000000000000000       0x12 /home/leon/git/swp-report/iMX6_Platform_SDK/output/mx6sdl/stream/sabre_ai_rev_c/obj/apps/common/platform_init.o
 .comment       0x0000000000000000       0x12 /home/leon/git/swp-report/iMX6_Platform_SDK/output/mx6sdl/stream/sabre_ai_rev_c/obj/apps/common/print_version.o
 .comment       0x0000000000000000       0x12 /home/leon/git/swp-report/iMX6_Platform_SDK/output/mx6sdl/stream/sabre_ai_rev_c/obj/apps/stream/src/main.o
 .comment       0x0000000000000000       0x12 /home/leon/git/swp-report/iMX6_Platform_SDK/output/mx6sdl/stream/sabre_ai_rev_c/obj/apps/stream/src/stream.o
 .comment       0x0000000000000000       0x12 /home/leon/git/swp-report/iMX6_Platform_SDK/output/mx6sdl/lib/libsdk.a(ccm_pll.o)
 .comment       0x0000000000000000       0x12 /home/leon/git/swp-report/iMX6_Platform_SDK/output/mx6sdl/lib/libsdk.a(gic.o)
 .comment       0x0000000000000000       0x12 /home/leon/git/swp-report/iMX6_Platform_SDK/output/mx6sdl/lib/libsdk.a(mmu.o)
 .comment       0x0000000000000000       0x12 /home/leon/git/swp-report/iMX6_Platform_SDK/output/mx6sdl/lib/libsdk.a(sdk_version.o)
 .comment       0x0000000000000000       0x12 /home/leon/git/swp-report/iMX6_Platform_SDK/output/mx6sdl/lib/libsdk.a(system_util.o)
 .comment       0x0000000000000000       0x12 /home/leon/git/swp-report/iMX6_Platform_SDK/output/mx6sdl/lib/libsdk.a(text_color.o)
 .comment       0x0000000000000000       0x12 /home/leon/git/swp-report/iMX6_Platform_SDK/output/mx6sdl/lib/libsdk.a(board_id.o)
 .comment       0x0000000000000000       0x12 /home/leon/git/swp-report/iMX6_Platform_SDK/output/mx6sdl/lib/libsdk.a(cpu_workpoint.o)
 .comment       0x0000000000000000       0x12 /home/leon/git/swp-report/iMX6_Platform_SDK/output/mx6sdl/lib/libsdk.a(pmu_driver.o)
 .comment       0x0000000000000000       0x12 /home/leon/git/swp-report/iMX6_Platform_SDK/output/mx6sdl/lib/libsdk.a(epit.o)
 .comment       0x0000000000000000       0x12 /home/leon/git/swp-report/iMX6_Platform_SDK/output/mx6sdl/lib/libsdk.a(timer.o)
 .comment       0x0000000000000000       0x12 /home/leon/git/swp-report/iMX6_Platform_SDK/output/mx6sdl/lib/libsdk.a(imx_uart.o)
 .comment       0x0000000000000000       0x12 /home/leon/git/swp-report/iMX6_Platform_SDK/output/mx6sdl/lib/libsdk.a(interrupt.o)
 .comment       0x0000000000000000       0x12 /home/leon/git/swp-report/iMX6_Platform_SDK/output/mx6sdl/lib/libsdk.a(abort_handler.o)
 .comment       0x0000000000000000       0x12 /home/leon/git/swp-report/iMX6_Platform_SDK/output/mx6sdl/lib/libboard_sabre_ai_rev_c.a(board_io_expanders.o)
 .comment       0x0000000000000000       0x12 /home/leon/git/swp-report/iMX6_Platform_SDK/output/mx6sdl/lib/libboard_sabre_ai_rev_c.a(hardware_modules.o)
 .comment       0x0000000000000000       0x12 /home/leon/git/swp-report/iMX6_Platform_SDK/output/mx6sdl/lib/libboard_sabre_ai_rev_c.a(dcd.o)
 .comment       0x0000000000000000       0x12 /home/leon/git/swp-report/iMX6_Platform_SDK/output/mx6sdl/lib/libboard_sabre_ai_rev_c.a(i2c3_iomux_config.o)
 .comment       0x0000000000000000       0x12 /home/leon/git/swp-report/iMX6_Platform_SDK/output/mx6sdl/lib/libboard_sabre_ai_rev_c.a(uart_iomux_config.o)
 .comment       0x0000000000000000       0x12 /home/leon/git/swp-report/iMX6_Platform_SDK/output/mx6sdl/lib/libboard_sabre_ai_rev_c.a(iomux_config.o)
 .comment       0x0000000000000000       0x12 /home/leon/git/swp-report/iMX6_Platform_SDK/output/mx6sdl/lib/libboard_sabre_ai_rev_c.a(ipu1_iomux_config.o)
 .comment       0x0000000000000000       0x12 /home/leon/git/swp-report/iMX6_Platform_SDK/output/mx6sdl/lib/libboard_sabre_ai_rev_c.a(mlb_iomux_config.o)
 .comment       0x0000000000000000       0x12 /home/leon/git/swp-report/iMX6_Platform_SDK/output/mx6sdl/lib/libboard_sabre_ai_rev_c.a(mmdc_iomux_config.o)
 .comment       0x0000000000000000       0x12 /home/leon/git/swp-report/iMX6_Platform_SDK/output/mx6sdl/lib/libboard_sabre_ai_rev_c.a(pwm3_iomux_config.o)
 .comment       0x0000000000000000       0x12 /home/leon/git/swp-report/iMX6_Platform_SDK/output/mx6sdl/lib/libboard_sabre_ai_rev_c.a(pwm4_iomux_config.o)
 .comment       0x0000000000000000       0x12 /home/leon/git/swp-report/iMX6_Platform_SDK/output/mx6sdl/lib/libboard_sabre_ai_rev_c.a(sjc_iomux_config.o)
 .comment       0x0000000000000000       0x12 /home/leon/git/swp-report/iMX6_Platform_SDK/output/mx6sdl/lib/libboard_sabre_ai_rev_c.a(spdif_iomux_config.o)
 .comment       0x0000000000000000       0x12 /home/leon/git/swp-report/iMX6_Platform_SDK/output/mx6sdl/lib/libboard_sabre_ai_rev_c.a(uart2_iomux_config.o)
 .comment       0x0000000000000000       0x12 /home/leon/git/swp-report/iMX6_Platform_SDK/output/mx6sdl/lib/libboard_sabre_ai_rev_c.a(uart3_iomux_config.o)
 .comment       0x0000000000000000       0x12 /home/leon/git/swp-report/iMX6_Platform_SDK/output/mx6sdl/lib/libboard_sabre_ai_rev_c.a(uart4_iomux_config.o)
 .comment       0x0000000000000000       0x12 /home/leon/git/swp-report/iMX6_Platform_SDK/output/mx6sdl/lib/libboard_sabre_ai_rev_c.a(usdhc1_iomux_config.o)
 .comment       0x0000000000000000       0x12 /home/leon/git/swp-report/iMX6_Platform_SDK/output/mx6sdl/lib/libboard_sabre_ai_rev_c.a(usdhc3_iomux_config.o)
 .comment       0x0000000000000000       0x12 /home/leon/git/swp-report/iMX6_Platform_SDK/output/mx6sdl/lib/libboard_sabre_ai_rev_c.a(wdog1_iomux_config.o)
 .comment       0x0000000000000000       0x12 /home/leon/git/swp-report/iMX6_Platform_SDK/output/mx6sdl/lib/libboard_sabre_ai_rev_c.a(audmux_iomux_config.o)
 .comment       0x0000000000000000       0x12 /home/leon/git/swp-report/iMX6_Platform_SDK/output/mx6sdl/lib/libboard_sabre_ai_rev_c.a(ccm_iomux_config.o)
 .comment       0x0000000000000000       0x12 /home/leon/git/swp-report/iMX6_Platform_SDK/output/mx6sdl/lib/libboard_sabre_ai_rev_c.a(ecspi1_iomux_config.o)
 .comment       0x0000000000000000       0x12 /home/leon/git/swp-report/iMX6_Platform_SDK/output/mx6sdl/lib/libboard_sabre_ai_rev_c.a(eim_iomux_config.o)
 .comment       0x0000000000000000       0x12 /home/leon/git/swp-report/iMX6_Platform_SDK/output/mx6sdl/lib/libboard_sabre_ai_rev_c.a(enet_iomux_config.o)
 .comment       0x0000000000000000       0x12 /home/leon/git/swp-report/iMX6_Platform_SDK/output/mx6sdl/lib/libboard_sabre_ai_rev_c.a(esai_iomux_config.o)
 .comment       0x0000000000000000       0x12 /home/leon/git/swp-report/iMX6_Platform_SDK/output/mx6sdl/lib/libboard_sabre_ai_rev_c.a(flexcan1_iomux_config.o)
 .comment       0x0000000000000000       0x12 /home/leon/git/swp-report/iMX6_Platform_SDK/output/mx6sdl/lib/libboard_sabre_ai_rev_c.a(flexcan2_iomux_config.o)
 .comment       0x0000000000000000       0x12 /home/leon/git/swp-report/iMX6_Platform_SDK/output/mx6sdl/lib/libboard_sabre_ai_rev_c.a(gpio1_iomux_config.o)
 .comment       0x0000000000000000       0x12 /home/leon/git/swp-report/iMX6_Platform_SDK/output/mx6sdl/lib/libboard_sabre_ai_rev_c.a(gpio2_iomux_config.o)
 .comment       0x0000000000000000       0x12 /home/leon/git/swp-report/iMX6_Platform_SDK/output/mx6sdl/lib/libboard_sabre_ai_rev_c.a(gpio4_iomux_config.o)
 .comment       0x0000000000000000       0x12 /home/leon/git/swp-report/iMX6_Platform_SDK/output/mx6sdl/lib/libboard_sabre_ai_rev_c.a(gpio5_iomux_config.o)
 .comment       0x0000000000000000       0x12 /home/leon/git/swp-report/iMX6_Platform_SDK/output/mx6sdl/lib/libboard_sabre_ai_rev_c.a(gpio6_iomux_config.o)
 .comment       0x0000000000000000       0x12 /home/leon/git/swp-report/iMX6_Platform_SDK/output/mx6sdl/lib/libboard_sabre_ai_rev_c.a(gpmi_iomux_config.o)
 .comment       0x0000000000000000       0x12 /home/leon/git/swp-report/iMX6_Platform_SDK/output/mx6sdl/lib/libboard_sabre_ai_rev_c.a(i2c2_iomux_config.o)
 .comment       0x0000000000000000       0x12 /home/src/arm/target/bin/../arm-none-eabi/lib//libstdc++.a(pure.o)
 .comment       0x0000000000000000       0x12 /home/src/arm/target/bin/../arm-none-eabi/lib//libstdc++.a(eh_terminate.o)
 .comment       0x0000000000000000       0x12 /home/src/arm/target/bin/../arm-none-eabi/lib//libstdc++.a(eh_arm.o)
 .comment       0x0000000000000000       0x12 /home/src/arm/target/bin/../arm-none-eabi/lib//libstdc++.a(eh_exception.o)
 .comment       0x0000000000000000       0x12 /home/src/arm/target/bin/../arm-none-eabi/lib//libstdc++.a(eh_term_handler.o)
 .comment       0x0000000000000000       0x12 /home/src/arm/target/bin/../arm-none-eabi/lib//libstdc++.a(eh_globals.o)
 .comment       0x0000000000000000       0x12 /home/src/arm/target/bin/../arm-none-eabi/lib//libstdc++.a(eh_call.o)
 .comment       0x0000000000000000       0x12 /home/src/arm/target/bin/../arm-none-eabi/lib//libstdc++.a(eh_personality.o)
 .comment       0x0000000000000000       0x12 /home/src/arm/target/bin/../arm-none-eabi/lib//libstdc++.a(eh_unex_handler.o)
 .comment       0x0000000000000000       0x12 /home/src/arm/target/bin/../arm-none-eabi/lib//libstdc++.a(si_class_type_info.o)
 .comment       0x0000000000000000       0x12 /home/src/arm/target/bin/../arm-none-eabi/lib//libstdc++.a(eh_throw.o)
 .comment       0x0000000000000000       0x12 /home/src/arm/target/bin/../arm-none-eabi/lib//libstdc++.a(vterminate.o)
 .comment       0x0000000000000000       0x12 /home/src/arm/target/bin/../arm-none-eabi/lib//libstdc++.a(eh_catch.o)
 .comment       0x0000000000000000       0x12 /home/src/arm/target/bin/../arm-none-eabi/lib//libstdc++.a(tinfo.o)
 .comment       0x0000000000000000       0x12 /home/src/arm/target/bin/../arm-none-eabi/lib//libstdc++.a(del_op.o)
 .comment       0x0000000000000000       0x12 /home/src/arm/target/bin/../arm-none-eabi/lib//libstdc++.a(cp-demangle.o)
 .comment       0x0000000000000000       0x12 /home/src/arm/target/bin/../arm-none-eabi/lib//libstdc++.a(class_type_info.o)
 .comment       0x0000000000000000       0x12 /home/src/arm/target/bin/../arm-none-eabi/lib//libstdc++.a(eh_alloc.o)
 .comment       0x0000000000000000       0x12 /home/src/arm/target/bin/../arm-none-eabi/lib//libstdc++.a(eh_type.o)
 .comment       0x0000000000000000       0x12 /home/src/arm/target/bin/../arm-none-eabi/lib//libc.a(lib_a-abort.o)
 .comment       0x0000000000000000       0x12 /home/src/arm/target/bin/../arm-none-eabi/lib//libc.a(lib_a-assert.o)
 .comment       0x0000000000000000       0x12 /home/src/arm/target/bin/../arm-none-eabi/lib//libc.a(lib_a-bzero.o)
 .comment       0x0000000000000000       0x12 /home/src/arm/target/bin/../arm-none-eabi/lib//libc.a(lib_a-fiprintf.o)
 .comment       0x0000000000000000       0x12 /home/src/arm/target/bin/../arm-none-eabi/lib//libc.a(lib_a-fputc.o)
 .comment       0x0000000000000000       0x12 /home/src/arm/target/bin/../arm-none-eabi/lib//libc.a(lib_a-fputs.o)
 .comment       0x0000000000000000       0x12 /home/src/arm/target/bin/../arm-none-eabi/lib//libc.a(lib_a-fvwrite.o)
 .comment       0x0000000000000000       0x12 /home/src/arm/target/bin/../arm-none-eabi/lib//libc.a(lib_a-fwrite.o)
 .comment       0x0000000000000000       0x12 /home/src/arm/target/bin/../arm-none-eabi/lib//libc.a(lib_a-impure.o)
 .comment       0x0000000000000000       0x12 /home/src/arm/target/bin/../arm-none-eabi/lib//libc.a(lib_a-init.o)
 .comment       0x0000000000000000       0x12 /home/src/arm/target/bin/../arm-none-eabi/lib//libc.a(lib_a-malloc.o)
 .comment       0x0000000000000000       0x12 /home/src/arm/target/bin/../arm-none-eabi/lib//libc.a(lib_a-mallocr.o)
 .comment       0x0000000000000000       0x12 /home/src/arm/target/bin/../arm-none-eabi/lib//libc.a(lib_a-memchr-stub.o)
 .comment       0x0000000000000000       0x12 /home/src/arm/target/bin/../arm-none-eabi/lib//libc.a(lib_a-memcmp.o)
 .comment       0x0000000000000000       0x12 /home/src/arm/target/bin/../arm-none-eabi/lib//libc.a(lib_a-memcpy-stub.o)
 .comment       0x0000000000000000       0x12 /home/src/arm/target/bin/../arm-none-eabi/lib//libc.a(lib_a-memmove.o)
 .comment       0x0000000000000000       0x12 /home/src/arm/target/bin/../arm-none-eabi/lib//libc.a(lib_a-memset.o)
 .comment       0x0000000000000000       0x12 /home/src/arm/target/bin/../arm-none-eabi/lib//libc.a(lib_a-mlock.o)
 .comment       0x0000000000000000       0x12 /home/src/arm/target/bin/../arm-none-eabi/lib//libc.a(lib_a-printf.o)
 .comment       0x0000000000000000       0x12 /home/src/arm/target/bin/../arm-none-eabi/lib//libc.a(lib_a-putc.o)
 .comment       0x0000000000000000       0x12 /home/src/arm/target/bin/../arm-none-eabi/lib//libc.a(lib_a-realloc.o)
 .comment       0x0000000000000000       0x12 /home/src/arm/target/bin/../arm-none-eabi/lib//libc.a(lib_a-reallocr.o)
 .comment       0x0000000000000000       0x12 /home/src/arm/target/bin/../arm-none-eabi/lib//libc.a(lib_a-rget.o)
 .comment       0x0000000000000000       0x12 /home/src/arm/target/bin/../arm-none-eabi/lib//libc.a(lib_a-sbrkr.o)
 .comment       0x0000000000000000       0x12 /home/src/arm/target/bin/../arm-none-eabi/lib//libc.a(lib_a-signal.o)
 .comment       0x0000000000000000       0x12 /home/src/arm/target/bin/../arm-none-eabi/lib//libc.a(lib_a-signalr.o)
 .comment       0x0000000000000000       0x12 /home/src/arm/target/bin/../arm-none-eabi/lib//libc.a(lib_a-sprintf.o)
 .comment       0x0000000000000000       0x12 /home/src/arm/target/bin/../arm-none-eabi/lib//libc.a(lib_a-strlen.o)
 .comment       0x0000000000000000       0x12 /home/src/arm/target/bin/../arm-none-eabi/lib//libc.a(lib_a-strncmp.o)
 .comment       0x0000000000000000       0x12 /home/src/arm/target/bin/../arm-none-eabi/lib//libc.a(lib_a-svfprintf.o)
 .comment       0x0000000000000000       0x12 /home/src/arm/target/bin/../arm-none-eabi/lib//libc.a(lib_a-syscalls.o)
 .comment       0x0000000000000000       0x12 /home/src/arm/target/bin/../arm-none-eabi/lib//libc.a(lib_a-syswrite.o)
 .comment       0x0000000000000000       0x12 /home/src/arm/target/bin/../arm-none-eabi/lib//libc.a(lib_a-vfiprintf.o)
 .comment       0x0000000000000000       0x12 /home/src/arm/target/bin/../arm-none-eabi/lib//libc.a(lib_a-vfprintf.o)
 .comment       0x0000000000000000       0x12 /home/src/arm/target/bin/../arm-none-eabi/lib//libc.a(lib_a-vprintf.o)
 .comment       0x0000000000000000       0x12 /home/src/arm/target/bin/../arm-none-eabi/lib//libc.a(lib_a-wbuf.o)
 .comment       0x0000000000000000       0x12 /home/src/arm/target/bin/../arm-none-eabi/lib//libc.a(lib_a-writer.o)
 .comment       0x0000000000000000       0x12 /home/src/arm/target/bin/../arm-none-eabi/lib//libc.a(lib_a-wsetup.o)
 .comment       0x0000000000000000       0x12 /home/src/arm/target/bin/../arm-none-eabi/lib//libc.a(lib_a-dtoa.o)
 .comment       0x0000000000000000       0x12 /home/src/arm/target/bin/../arm-none-eabi/lib//libc.a(lib_a-errno.o)
 .comment       0x0000000000000000       0x12 /home/src/arm/target/bin/../arm-none-eabi/lib//libc.a(lib_a-fflush.o)
 .comment       0x0000000000000000       0x12 /home/src/arm/target/bin/../arm-none-eabi/lib//libc.a(lib_a-findfp.o)
 .comment       0x0000000000000000       0x12 /home/src/arm/target/bin/../arm-none-eabi/lib//libc.a(lib_a-fputwc.o)
 .comment       0x0000000000000000       0x12 /home/src/arm/target/bin/../arm-none-eabi/lib//libc.a(lib_a-freer.o)
 .comment       0x0000000000000000       0x12 /home/src/arm/target/bin/../arm-none-eabi/lib//libc.a(lib_a-fwalk.o)
 .comment       0x0000000000000000       0x12 /home/src/arm/target/bin/../arm-none-eabi/lib//libc.a(lib_a-locale.o)
 .comment       0x0000000000000000       0x12 /home/src/arm/target/bin/../arm-none-eabi/lib//libc.a(lib_a-makebuf.o)
 .comment       0x0000000000000000       0x12 /home/src/arm/target/bin/../arm-none-eabi/lib//libc.a(lib_a-mprec.o)
 .comment       0x0000000000000000       0x12 /home/src/arm/target/bin/../arm-none-eabi/lib//libc.a(lib_a-reent.o)
 .comment       0x0000000000000000       0x12 /home/src/arm/target/bin/../arm-none-eabi/lib//libc.a(lib_a-refill.o)
 .comment       0x0000000000000000       0x12 /home/src/arm/target/bin/../arm-none-eabi/lib//libc.a(lib_a-s_fpclassify.o)
 .comment       0x0000000000000000       0x12 /home/src/arm/target/bin/../arm-none-eabi/lib//libc.a(lib_a-stdio.o)
 .comment       0x0000000000000000       0x12 /home/src/arm/target/bin/../arm-none-eabi/lib//libc.a(lib_a-svfiprintf.o)
 .comment       0x0000000000000000       0x12 /home/src/arm/target/bin/../arm-none-eabi/lib//libc.a(lib_a-wcrtomb.o)
 .comment       0x0000000000000000       0x12 /home/src/arm/target/bin/../arm-none-eabi/lib//libc.a(lib_a-wctomb_r.o)
 .comment       0x0000000000000000       0x12 /home/src/arm/target/bin/../arm-none-eabi/lib//libc.a(lib_a-callocr.o)
 .comment       0x0000000000000000       0x12 /home/src/arm/target/bin/../arm-none-eabi/lib//libc.a(lib_a-closer.o)
 .comment       0x0000000000000000       0x12 /home/src/arm/target/bin/../arm-none-eabi/lib//libc.a(lib_a-fclose.o)
 .comment       0x0000000000000000       0x12 /home/src/arm/target/bin/../arm-none-eabi/lib//libc.a(lib_a-fstatr.o)
 .comment       0x0000000000000000       0x12 /home/src/arm/target/bin/../arm-none-eabi/lib//libc.a(lib_a-isattyr.o)
 .comment       0x0000000000000000       0x12 /home/src/arm/target/bin/../arm-none-eabi/lib//libc.a(lib_a-lseekr.o)
 .comment       0x0000000000000000       0x12 /home/src/arm/target/bin/../arm-none-eabi/lib//libc.a(lib_a-readr.o)
 .comment       0x0000000000000000       0x12 /home/src/arm/target/bin/../lib/gcc/arm-none-eabi/4.8.2//libgcc.a(bpabi.o)
 .comment       0x0000000000000000       0x12 /home/src/arm/target/bin/../lib/gcc/arm-none-eabi/4.8.2//libgcc.a(unwind-arm.o)
 .comment       0x0000000000000000       0x12 /home/src/arm/target/bin/../lib/gcc/arm-none-eabi/4.8.2//libgcc.a(pr-support.o)
 .comment       0x0000000000000000       0x12 /home/src/arm/target/bin/../lib/gcc/arm-none-eabi/4.8.2//libgcc.a(_divdi3.o)
 .comment       0x0000000000000000       0x12 /home/src/arm/target/bin/../lib/gcc/arm-none-eabi/4.8.2//libgcc.a(_udivdi3.o)
 .comment       0x0000000000000000       0x12 /home/leon/git/swp-report/iMX6_Platform_SDK/output/mx6sdl/lib/libsdk.a(max7310.o)
 .comment       0x0000000000000000       0x12 /home/leon/git/swp-report/iMX6_Platform_SDK/output/mx6sdl/lib/libsdk.a(gpio.o)
 .comment       0x0000000000000000       0x12 /home/leon/git/swp-report/iMX6_Platform_SDK/output/mx6sdl/lib/libsdk.a(imx6sdl_gpio_map.o)
 .comment       0x0000000000000000       0x12 /home/leon/git/swp-report/iMX6_Platform_SDK/output/mx6sdl/lib/libsdk.a(imx_i2c.o)
 .comment       0x0000000000000000       0x12 /home/leon/git/swp-report/iMX6_Platform_SDK/output/mx6sdl/lib/libboard_sabre_ai_rev_c.a(i2c_iomux_config.o)

.ARM.attributes
                0x0000000000000000       0x3b
 .ARM.attributes
                0x0000000000000000       0x30 /home/src/arm/target/bin/../lib/gcc/arm-none-eabi/4.8.2//crtbegin.o
 .ARM.attributes
                0x0000000000000030       0x16 /home/src/arm/target/bin/../lib/gcc/arm-none-eabi/4.8.2//crti.o
 .ARM.attributes
                0x0000000000000046       0x30 /home/src/arm/target/bin/../lib/gcc/arm-none-eabi/4.8.2//crtend.o
 .ARM.attributes
                0x0000000000000076       0x18 /home/src/arm/target/bin/../lib/gcc/arm-none-eabi/4.8.2//crtn.o
 .ARM.attributes
                0x000000000000008e       0x39 /home/leon/git/swp-report/iMX6_Platform_SDK/output/mx6sdl/stream/sabre_ai_rev_c/obj/apps/common/ivt.o
 .ARM.attributes
                0x00000000000000c7       0x39 /home/leon/git/swp-report/iMX6_Platform_SDK/output/mx6sdl/stream/sabre_ai_rev_c/obj/apps/common/platform_init.o
 .ARM.attributes
                0x0000000000000100       0x39 /home/leon/git/swp-report/iMX6_Platform_SDK/output/mx6sdl/stream/sabre_ai_rev_c/obj/apps/common/print_version.o
 .ARM.attributes
                0x0000000000000139       0x39 /home/leon/git/swp-report/iMX6_Platform_SDK/output/mx6sdl/stream/sabre_ai_rev_c/obj/apps/stream/src/main.o
 .ARM.attributes
                0x0000000000000172       0x39 /home/leon/git/swp-report/iMX6_Platform_SDK/output/mx6sdl/stream/sabre_ai_rev_c/obj/apps/stream/src/stream.o
 .ARM.attributes
                0x00000000000001ab       0x39 /home/leon/git/swp-report/iMX6_Platform_SDK/output/mx6sdl/lib/libsdk.a(ccm_pll.o)
 .ARM.attributes
                0x00000000000001e4       0x16 /home/leon/git/swp-report/iMX6_Platform_SDK/output/mx6sdl/lib/libsdk.a(cortexA9.o)
 .ARM.attributes
                0x00000000000001fa       0x39 /home/leon/git/swp-report/iMX6_Platform_SDK/output/mx6sdl/lib/libsdk.a(gic.o)
 .ARM.attributes
                0x0000000000000233       0x39 /home/leon/git/swp-report/iMX6_Platform_SDK/output/mx6sdl/lib/libsdk.a(mmu.o)
 .ARM.attributes
                0x000000000000026c       0x16 /home/leon/git/swp-report/iMX6_Platform_SDK/output/mx6sdl/lib/libsdk.a(startup.o)
 .ARM.attributes
                0x0000000000000282       0x14 /home/leon/git/swp-report/iMX6_Platform_SDK/output/mx6sdl/lib/libsdk.a(vectors.o)
 .ARM.attributes
                0x0000000000000296       0x39 /home/leon/git/swp-report/iMX6_Platform_SDK/output/mx6sdl/lib/libsdk.a(sdk_version.o)
 .ARM.attributes
                0x00000000000002cf       0x39 /home/leon/git/swp-report/iMX6_Platform_SDK/output/mx6sdl/lib/libsdk.a(system_util.o)
 .ARM.attributes
                0x0000000000000308       0x39 /home/leon/git/swp-report/iMX6_Platform_SDK/output/mx6sdl/lib/libsdk.a(text_color.o)
 .ARM.attributes
                0x0000000000000341       0x39 /home/leon/git/swp-report/iMX6_Platform_SDK/output/mx6sdl/lib/libsdk.a(board_id.o)
 .ARM.attributes
                0x000000000000037a       0x39 /home/leon/git/swp-report/iMX6_Platform_SDK/output/mx6sdl/lib/libsdk.a(cpu_workpoint.o)
 .ARM.attributes
                0x00000000000003b3       0x39 /home/leon/git/swp-report/iMX6_Platform_SDK/output/mx6sdl/lib/libsdk.a(pmu_driver.o)
 .ARM.attributes
                0x00000000000003ec       0x39 /home/leon/git/swp-report/iMX6_Platform_SDK/output/mx6sdl/lib/libsdk.a(epit.o)
 .ARM.attributes
                0x0000000000000425       0x39 /home/leon/git/swp-report/iMX6_Platform_SDK/output/mx6sdl/lib/libsdk.a(timer.o)
 .ARM.attributes
                0x000000000000045e       0x39 /home/leon/git/swp-report/iMX6_Platform_SDK/output/mx6sdl/lib/libsdk.a(imx_uart.o)
 .ARM.attributes
                0x0000000000000497       0x14 /home/leon/git/swp-report/iMX6_Platform_SDK/output/mx6sdl/lib/libsdk.a(arm_abort.o)
 .ARM.attributes
                0x00000000000004ab       0x39 /home/leon/git/swp-report/iMX6_Platform_SDK/output/mx6sdl/lib/libsdk.a(interrupt.o)
 .ARM.attributes
                0x00000000000004e4       0x39 /home/leon/git/swp-report/iMX6_Platform_SDK/output/mx6sdl/lib/libsdk.a(abort_handler.o)
 .ARM.attributes
                0x000000000000051d       0x39 /home/leon/git/swp-report/iMX6_Platform_SDK/output/mx6sdl/lib/libboard_sabre_ai_rev_c.a(board_io_expanders.o)
 .ARM.attributes
                0x0000000000000556       0x39 /home/leon/git/swp-report/iMX6_Platform_SDK/output/mx6sdl/lib/libboard_sabre_ai_rev_c.a(hardware_modules.o)
 .ARM.attributes
                0x000000000000058f       0x39 /home/leon/git/swp-report/iMX6_Platform_SDK/output/mx6sdl/lib/libboard_sabre_ai_rev_c.a(dcd.o)
 .ARM.attributes
                0x00000000000005c8       0x39 /home/leon/git/swp-report/iMX6_Platform_SDK/output/mx6sdl/lib/libboard_sabre_ai_rev_c.a(i2c3_iomux_config.o)
 .ARM.attributes
                0x0000000000000601       0x39 /home/leon/git/swp-report/iMX6_Platform_SDK/output/mx6sdl/lib/libboard_sabre_ai_rev_c.a(uart_iomux_config.o)
 .ARM.attributes
                0x000000000000063a       0x39 /home/leon/git/swp-report/iMX6_Platform_SDK/output/mx6sdl/lib/libboard_sabre_ai_rev_c.a(iomux_config.o)
 .ARM.attributes
                0x0000000000000673       0x39 /home/leon/git/swp-report/iMX6_Platform_SDK/output/mx6sdl/lib/libboard_sabre_ai_rev_c.a(ipu1_iomux_config.o)
 .ARM.attributes
                0x00000000000006ac       0x39 /home/leon/git/swp-report/iMX6_Platform_SDK/output/mx6sdl/lib/libboard_sabre_ai_rev_c.a(mlb_iomux_config.o)
 .ARM.attributes
                0x00000000000006e5       0x39 /home/leon/git/swp-report/iMX6_Platform_SDK/output/mx6sdl/lib/libboard_sabre_ai_rev_c.a(mmdc_iomux_config.o)
 .ARM.attributes
                0x000000000000071e       0x39 /home/leon/git/swp-report/iMX6_Platform_SDK/output/mx6sdl/lib/libboard_sabre_ai_rev_c.a(pwm3_iomux_config.o)
 .ARM.attributes
                0x0000000000000757       0x39 /home/leon/git/swp-report/iMX6_Platform_SDK/output/mx6sdl/lib/libboard_sabre_ai_rev_c.a(pwm4_iomux_config.o)
 .ARM.attributes
                0x0000000000000790       0x39 /home/leon/git/swp-report/iMX6_Platform_SDK/output/mx6sdl/lib/libboard_sabre_ai_rev_c.a(sjc_iomux_config.o)
 .ARM.attributes
                0x00000000000007c9       0x39 /home/leon/git/swp-report/iMX6_Platform_SDK/output/mx6sdl/lib/libboard_sabre_ai_rev_c.a(spdif_iomux_config.o)
 .ARM.attributes
                0x0000000000000802       0x39 /home/leon/git/swp-report/iMX6_Platform_SDK/output/mx6sdl/lib/libboard_sabre_ai_rev_c.a(uart2_iomux_config.o)
 .ARM.attributes
                0x000000000000083b       0x39 /home/leon/git/swp-report/iMX6_Platform_SDK/output/mx6sdl/lib/libboard_sabre_ai_rev_c.a(uart3_iomux_config.o)
 .ARM.attributes
                0x0000000000000874       0x39 /home/leon/git/swp-report/iMX6_Platform_SDK/output/mx6sdl/lib/libboard_sabre_ai_rev_c.a(uart4_iomux_config.o)
 .ARM.attributes
                0x00000000000008ad       0x39 /home/leon/git/swp-report/iMX6_Platform_SDK/output/mx6sdl/lib/libboard_sabre_ai_rev_c.a(usdhc1_iomux_config.o)
 .ARM.attributes
                0x00000000000008e6       0x39 /home/leon/git/swp-report/iMX6_Platform_SDK/output/mx6sdl/lib/libboard_sabre_ai_rev_c.a(usdhc3_iomux_config.o)
 .ARM.attributes
                0x000000000000091f       0x39 /home/leon/git/swp-report/iMX6_Platform_SDK/output/mx6sdl/lib/libboard_sabre_ai_rev_c.a(wdog1_iomux_config.o)
 .ARM.attributes
                0x0000000000000958       0x39 /home/leon/git/swp-report/iMX6_Platform_SDK/output/mx6sdl/lib/libboard_sabre_ai_rev_c.a(audmux_iomux_config.o)
 .ARM.attributes
                0x0000000000000991       0x39 /home/leon/git/swp-report/iMX6_Platform_SDK/output/mx6sdl/lib/libboard_sabre_ai_rev_c.a(ccm_iomux_config.o)
 .ARM.attributes
                0x00000000000009ca       0x39 /home/leon/git/swp-report/iMX6_Platform_SDK/output/mx6sdl/lib/libboard_sabre_ai_rev_c.a(ecspi1_iomux_config.o)
 .ARM.attributes
                0x0000000000000a03       0x39 /home/leon/git/swp-report/iMX6_Platform_SDK/output/mx6sdl/lib/libboard_sabre_ai_rev_c.a(eim_iomux_config.o)
 .ARM.attributes
                0x0000000000000a3c       0x39 /home/leon/git/swp-report/iMX6_Platform_SDK/output/mx6sdl/lib/libboard_sabre_ai_rev_c.a(enet_iomux_config.o)
 .ARM.attributes
                0x0000000000000a75       0x39 /home/leon/git/swp-report/iMX6_Platform_SDK/output/mx6sdl/lib/libboard_sabre_ai_rev_c.a(esai_iomux_config.o)
 .ARM.attributes
                0x0000000000000aae       0x39 /home/leon/git/swp-report/iMX6_Platform_SDK/output/mx6sdl/lib/libboard_sabre_ai_rev_c.a(flexcan1_iomux_config.o)
 .ARM.attributes
                0x0000000000000ae7       0x39 /home/leon/git/swp-report/iMX6_Platform_SDK/output/mx6sdl/lib/libboard_sabre_ai_rev_c.a(flexcan2_iomux_config.o)
 .ARM.attributes
                0x0000000000000b20       0x39 /home/leon/git/swp-report/iMX6_Platform_SDK/output/mx6sdl/lib/libboard_sabre_ai_rev_c.a(gpio1_iomux_config.o)
 .ARM.attributes
                0x0000000000000b59       0x39 /home/leon/git/swp-report/iMX6_Platform_SDK/output/mx6sdl/lib/libboard_sabre_ai_rev_c.a(gpio2_iomux_config.o)
 .ARM.attributes
                0x0000000000000b92       0x39 /home/leon/git/swp-report/iMX6_Platform_SDK/output/mx6sdl/lib/libboard_sabre_ai_rev_c.a(gpio4_iomux_config.o)
 .ARM.attributes
                0x0000000000000bcb       0x39 /home/leon/git/swp-report/iMX6_Platform_SDK/output/mx6sdl/lib/libboard_sabre_ai_rev_c.a(gpio5_iomux_config.o)
 .ARM.attributes
                0x0000000000000c04       0x39 /home/leon/git/swp-report/iMX6_Platform_SDK/output/mx6sdl/lib/libboard_sabre_ai_rev_c.a(gpio6_iomux_config.o)
 .ARM.attributes
                0x0000000000000c3d       0x39 /home/leon/git/swp-report/iMX6_Platform_SDK/output/mx6sdl/lib/libboard_sabre_ai_rev_c.a(gpmi_iomux_config.o)
 .ARM.attributes
                0x0000000000000c76       0x39 /home/leon/git/swp-report/iMX6_Platform_SDK/output/mx6sdl/lib/libboard_sabre_ai_rev_c.a(i2c2_iomux_config.o)
 .ARM.attributes
                0x0000000000000caf       0x30 /home/src/arm/target/bin/../arm-none-eabi/lib//libstdc++.a(pure.o)
 .ARM.attributes
                0x0000000000000cdf       0x30 /home/src/arm/target/bin/../arm-none-eabi/lib//libstdc++.a(eh_terminate.o)
 .ARM.attributes
                0x0000000000000d0f       0x30 /home/src/arm/target/bin/../arm-none-eabi/lib//libstdc++.a(eh_arm.o)
 .ARM.attributes
                0x0000000000000d3f       0x30 /home/src/arm/target/bin/../arm-none-eabi/lib//libstdc++.a(eh_exception.o)
 .ARM.attributes
                0x0000000000000d6f       0x30 /home/src/arm/target/bin/../arm-none-eabi/lib//libstdc++.a(eh_term_handler.o)
 .ARM.attributes
                0x0000000000000d9f       0x30 /home/src/arm/target/bin/../arm-none-eabi/lib//libstdc++.a(eh_globals.o)
 .ARM.attributes
                0x0000000000000dcf       0x30 /home/src/arm/target/bin/../arm-none-eabi/lib//libstdc++.a(eh_call.o)
 .ARM.attributes
                0x0000000000000dff       0x30 /home/src/arm/target/bin/../arm-none-eabi/lib//libstdc++.a(eh_personality.o)
 .ARM.attributes
                0x0000000000000e2f       0x30 /home/src/arm/target/bin/../arm-none-eabi/lib//libstdc++.a(eh_unex_handler.o)
 .ARM.attributes
                0x0000000000000e5f       0x30 /home/src/arm/target/bin/../arm-none-eabi/lib//libstdc++.a(si_class_type_info.o)
 .ARM.attributes
                0x0000000000000e8f       0x30 /home/src/arm/target/bin/../arm-none-eabi/lib//libstdc++.a(eh_throw.o)
 .ARM.attributes
                0x0000000000000ebf       0x30 /home/src/arm/target/bin/../arm-none-eabi/lib//libstdc++.a(vterminate.o)
 .ARM.attributes
                0x0000000000000eef       0x30 /home/src/arm/target/bin/../arm-none-eabi/lib//libstdc++.a(eh_catch.o)
 .ARM.attributes
                0x0000000000000f1f       0x30 /home/src/arm/target/bin/../arm-none-eabi/lib//libstdc++.a(tinfo.o)
 .ARM.attributes
                0x0000000000000f4f       0x30 /home/src/arm/target/bin/../arm-none-eabi/lib//libstdc++.a(del_op.o)
 .ARM.attributes
                0x0000000000000f7f       0x30 /home/src/arm/target/bin/../arm-none-eabi/lib//libstdc++.a(cp-demangle.o)
 .ARM.attributes
                0x0000000000000faf       0x30 /home/src/arm/target/bin/../arm-none-eabi/lib//libstdc++.a(class_type_info.o)
 .ARM.attributes
                0x0000000000000fdf       0x30 /home/src/arm/target/bin/../arm-none-eabi/lib//libstdc++.a(eh_alloc.o)
 .ARM.attributes
                0x000000000000100f       0x30 /home/src/arm/target/bin/../arm-none-eabi/lib//libstdc++.a(eh_type.o)
 .ARM.attributes
                0x000000000000103f       0x30 /home/src/arm/target/bin/../arm-none-eabi/lib//libc.a(lib_a-abort.o)
 .ARM.attributes
                0x000000000000106f       0x30 /home/src/arm/target/bin/../arm-none-eabi/lib//libc.a(lib_a-assert.o)
 .ARM.attributes
                0x000000000000109f       0x30 /home/src/arm/target/bin/../arm-none-eabi/lib//libc.a(lib_a-bzero.o)
 .ARM.attributes
                0x00000000000010cf       0x30 /home/src/arm/target/bin/../arm-none-eabi/lib//libc.a(lib_a-fiprintf.o)
 .ARM.attributes
                0x00000000000010ff       0x30 /home/src/arm/target/bin/../arm-none-eabi/lib//libc.a(lib_a-fputc.o)
 .ARM.attributes
                0x000000000000112f       0x30 /home/src/arm/target/bin/../arm-none-eabi/lib//libc.a(lib_a-fputs.o)
 .ARM.attributes
                0x000000000000115f       0x30 /home/src/arm/target/bin/../arm-none-eabi/lib//libc.a(lib_a-fvwrite.o)
 .ARM.attributes
                0x000000000000118f       0x30 /home/src/arm/target/bin/../arm-none-eabi/lib//libc.a(lib_a-fwrite.o)
 .ARM.attributes
                0x00000000000011bf       0x30 /home/src/arm/target/bin/../arm-none-eabi/lib//libc.a(lib_a-impure.o)
 .ARM.attributes
                0x00000000000011ef       0x30 /home/src/arm/target/bin/../arm-none-eabi/lib//libc.a(lib_a-init.o)
 .ARM.attributes
                0x000000000000121f       0x30 /home/src/arm/target/bin/../arm-none-eabi/lib//libc.a(lib_a-malloc.o)
 .ARM.attributes
                0x000000000000124f       0x30 /home/src/arm/target/bin/../arm-none-eabi/lib//libc.a(lib_a-mallocr.o)
 .ARM.attributes
                0x000000000000127f       0x30 /home/src/arm/target/bin/../arm-none-eabi/lib//libc.a(lib_a-memchr-stub.o)
 .ARM.attributes
                0x00000000000012af       0x30 /home/src/arm/target/bin/../arm-none-eabi/lib//libc.a(lib_a-memcmp.o)
 .ARM.attributes
                0x00000000000012df       0x30 /home/src/arm/target/bin/../arm-none-eabi/lib//libc.a(lib_a-memcpy-stub.o)
 .ARM.attributes
                0x000000000000130f       0x30 /home/src/arm/target/bin/../arm-none-eabi/lib//libc.a(lib_a-memmove.o)
 .ARM.attributes
                0x000000000000133f       0x30 /home/src/arm/target/bin/../arm-none-eabi/lib//libc.a(lib_a-memset.o)
 .ARM.attributes
                0x000000000000136f       0x30 /home/src/arm/target/bin/../arm-none-eabi/lib//libc.a(lib_a-mlock.o)
 .ARM.attributes
                0x000000000000139f       0x30 /home/src/arm/target/bin/../arm-none-eabi/lib//libc.a(lib_a-printf.o)
 .ARM.attributes
                0x00000000000013cf       0x30 /home/src/arm/target/bin/../arm-none-eabi/lib//libc.a(lib_a-putc.o)
 .ARM.attributes
                0x00000000000013ff       0x30 /home/src/arm/target/bin/../arm-none-eabi/lib//libc.a(lib_a-realloc.o)
 .ARM.attributes
                0x000000000000142f       0x30 /home/src/arm/target/bin/../arm-none-eabi/lib//libc.a(lib_a-reallocr.o)
 .ARM.attributes
                0x000000000000145f       0x30 /home/src/arm/target/bin/../arm-none-eabi/lib//libc.a(lib_a-rget.o)
 .ARM.attributes
                0x000000000000148f       0x30 /home/src/arm/target/bin/../arm-none-eabi/lib//libc.a(lib_a-sbrkr.o)
 .ARM.attributes
                0x00000000000014bf       0x30 /home/src/arm/target/bin/../arm-none-eabi/lib//libc.a(lib_a-signal.o)
 .ARM.attributes
                0x00000000000014ef       0x30 /home/src/arm/target/bin/../arm-none-eabi/lib//libc.a(lib_a-signalr.o)
 .ARM.attributes
                0x000000000000151f       0x30 /home/src/arm/target/bin/../arm-none-eabi/lib//libc.a(lib_a-sprintf.o)
 .ARM.attributes
                0x000000000000154f       0x16 /home/src/arm/target/bin/../arm-none-eabi/lib//libc.a(lib_a-strcmp.o)
 .ARM.attributes
                0x0000000000001565       0x30 /home/src/arm/target/bin/../arm-none-eabi/lib//libc.a(lib_a-strlen.o)
 .ARM.attributes
                0x0000000000001595       0x30 /home/src/arm/target/bin/../arm-none-eabi/lib//libc.a(lib_a-strncmp.o)
 .ARM.attributes
                0x00000000000015c5       0x30 /home/src/arm/target/bin/../arm-none-eabi/lib//libc.a(lib_a-svfprintf.o)
 .ARM.attributes
                0x00000000000015f5       0x30 /home/src/arm/target/bin/../arm-none-eabi/lib//libc.a(lib_a-syscalls.o)
 .ARM.attributes
                0x0000000000001625       0x30 /home/src/arm/target/bin/../arm-none-eabi/lib//libc.a(lib_a-syswrite.o)
 .ARM.attributes
                0x0000000000001655       0x30 /home/src/arm/target/bin/../arm-none-eabi/lib//libc.a(lib_a-vfiprintf.o)
 .ARM.attributes
                0x0000000000001685       0x30 /home/src/arm/target/bin/../arm-none-eabi/lib//libc.a(lib_a-vfprintf.o)
 .ARM.attributes
                0x00000000000016b5       0x30 /home/src/arm/target/bin/../arm-none-eabi/lib//libc.a(lib_a-vprintf.o)
 .ARM.attributes
                0x00000000000016e5       0x30 /home/src/arm/target/bin/../arm-none-eabi/lib//libc.a(lib_a-wbuf.o)
 .ARM.attributes
                0x0000000000001715       0x30 /home/src/arm/target/bin/../arm-none-eabi/lib//libc.a(lib_a-writer.o)
 .ARM.attributes
                0x0000000000001745       0x30 /home/src/arm/target/bin/../arm-none-eabi/lib//libc.a(lib_a-wsetup.o)
 .ARM.attributes
                0x0000000000001775       0x30 /home/src/arm/target/bin/../arm-none-eabi/lib//libc.a(lib_a-dtoa.o)
 .ARM.attributes
                0x00000000000017a5       0x30 /home/src/arm/target/bin/../arm-none-eabi/lib//libc.a(lib_a-errno.o)
 .ARM.attributes
                0x00000000000017d5       0x30 /home/src/arm/target/bin/../arm-none-eabi/lib//libc.a(lib_a-fflush.o)
 .ARM.attributes
                0x0000000000001805       0x30 /home/src/arm/target/bin/../arm-none-eabi/lib//libc.a(lib_a-findfp.o)
 .ARM.attributes
                0x0000000000001835       0x30 /home/src/arm/target/bin/../arm-none-eabi/lib//libc.a(lib_a-fputwc.o)
 .ARM.attributes
                0x0000000000001865       0x30 /home/src/arm/target/bin/../arm-none-eabi/lib//libc.a(lib_a-freer.o)
 .ARM.attributes
                0x0000000000001895       0x30 /home/src/arm/target/bin/../arm-none-eabi/lib//libc.a(lib_a-fwalk.o)
 .ARM.attributes
                0x00000000000018c5       0x30 /home/src/arm/target/bin/../arm-none-eabi/lib//libc.a(lib_a-locale.o)
 .ARM.attributes
                0x00000000000018f5       0x30 /home/src/arm/target/bin/../arm-none-eabi/lib//libc.a(lib_a-makebuf.o)
 .ARM.attributes
                0x0000000000001925       0x30 /home/src/arm/target/bin/../arm-none-eabi/lib//libc.a(lib_a-mprec.o)
 .ARM.attributes
                0x0000000000001955       0x30 /home/src/arm/target/bin/../arm-none-eabi/lib//libc.a(lib_a-reent.o)
 .ARM.attributes
                0x0000000000001985       0x30 /home/src/arm/target/bin/../arm-none-eabi/lib//libc.a(lib_a-refill.o)
 .ARM.attributes
                0x00000000000019b5       0x30 /home/src/arm/target/bin/../arm-none-eabi/lib//libc.a(lib_a-s_fpclassify.o)
 .ARM.attributes
                0x00000000000019e5       0x30 /home/src/arm/target/bin/../arm-none-eabi/lib//libc.a(lib_a-stdio.o)
 .ARM.attributes
                0x0000000000001a15       0x30 /home/src/arm/target/bin/../arm-none-eabi/lib//libc.a(lib_a-svfiprintf.o)
 .ARM.attributes
                0x0000000000001a45       0x30 /home/src/arm/target/bin/../arm-none-eabi/lib//libc.a(lib_a-wcrtomb.o)
 .ARM.attributes
                0x0000000000001a75       0x30 /home/src/arm/target/bin/../arm-none-eabi/lib//libc.a(lib_a-wctomb_r.o)
 .ARM.attributes
                0x0000000000001aa5       0x30 /home/src/arm/target/bin/../arm-none-eabi/lib//libc.a(lib_a-callocr.o)
 .ARM.attributes
                0x0000000000001ad5       0x30 /home/src/arm/target/bin/../arm-none-eabi/lib//libc.a(lib_a-closer.o)
 .ARM.attributes
                0x0000000000001b05       0x30 /home/src/arm/target/bin/../arm-none-eabi/lib//libc.a(lib_a-fclose.o)
 .ARM.attributes
                0x0000000000001b35       0x30 /home/src/arm/target/bin/../arm-none-eabi/lib//libc.a(lib_a-fstatr.o)
 .ARM.attributes
                0x0000000000001b65       0x30 /home/src/arm/target/bin/../arm-none-eabi/lib//libc.a(lib_a-isattyr.o)
 .ARM.attributes
                0x0000000000001b95       0x30 /home/src/arm/target/bin/../arm-none-eabi/lib//libc.a(lib_a-lseekr.o)
 .ARM.attributes
                0x0000000000001bc5       0x30 /home/src/arm/target/bin/../arm-none-eabi/lib//libc.a(lib_a-readr.o)
 .ARM.attributes
                0x0000000000001bf5       0x18 /home/src/arm/target/bin/../lib/gcc/arm-none-eabi/4.8.2//libgcc.a(_udivsi3.o)
 .ARM.attributes
                0x0000000000001c0d       0x18 /home/src/arm/target/bin/../lib/gcc/arm-none-eabi/4.8.2//libgcc.a(_divsi3.o)
 .ARM.attributes
                0x0000000000001c25       0x18 /home/src/arm/target/bin/../lib/gcc/arm-none-eabi/4.8.2//libgcc.a(_dvmd_tls.o)
 .ARM.attributes
                0x0000000000001c3d       0x18 /home/src/arm/target/bin/../lib/gcc/arm-none-eabi/4.8.2//libgcc.a(_arm_addsubdf3.o)
 .ARM.attributes
                0x0000000000001c55       0x18 /home/src/arm/target/bin/../lib/gcc/arm-none-eabi/4.8.2//libgcc.a(_arm_muldivdf3.o)
 .ARM.attributes
                0x0000000000001c6d       0x18 /home/src/arm/target/bin/../lib/gcc/arm-none-eabi/4.8.2//libgcc.a(_arm_cmpdf2.o)
 .ARM.attributes
                0x0000000000001c85       0x18 /home/src/arm/target/bin/../lib/gcc/arm-none-eabi/4.8.2//libgcc.a(_arm_fixdfsi.o)
 .ARM.attributes
                0x0000000000001c9d       0x18 /home/src/arm/target/bin/../lib/gcc/arm-none-eabi/4.8.2//libgcc.a(_aeabi_uldivmod.o)
 .ARM.attributes
                0x0000000000001cb5       0x30 /home/src/arm/target/bin/../lib/gcc/arm-none-eabi/4.8.2//libgcc.a(bpabi.o)
 .ARM.attributes
                0x0000000000001ce5       0x30 /home/src/arm/target/bin/../lib/gcc/arm-none-eabi/4.8.2//libgcc.a(unwind-arm.o)
 .ARM.attributes
                0x0000000000001d15       0x1c /home/src/arm/target/bin/../lib/gcc/arm-none-eabi/4.8.2//libgcc.a(libunwind.o)
 .ARM.attributes
                0x0000000000001d31       0x30 /home/src/arm/target/bin/../lib/gcc/arm-none-eabi/4.8.2//libgcc.a(pr-support.o)
 .ARM.attributes
                0x0000000000001d61       0x30 /home/src/arm/target/bin/../lib/gcc/arm-none-eabi/4.8.2//libgcc.a(_divdi3.o)
 .ARM.attributes
                0x0000000000001d91       0x30 /home/src/arm/target/bin/../lib/gcc/arm-none-eabi/4.8.2//libgcc.a(_udivdi3.o)
 .ARM.attributes
                0x0000000000001dc1       0x18 /home/src/arm/target/bin/../lib/gcc/arm-none-eabi/4.8.2//libgcc.a(_clzsi2.o)
 .ARM.attributes
                0x0000000000001dd9       0x39 /home/leon/git/swp-report/iMX6_Platform_SDK/output/mx6sdl/lib/libsdk.a(max7310.o)
 .ARM.attributes
                0x0000000000001e12       0x39 /home/leon/git/swp-report/iMX6_Platform_SDK/output/mx6sdl/lib/libsdk.a(gpio.o)
 .ARM.attributes
                0x0000000000001e4b       0x39 /home/leon/git/swp-report/iMX6_Platform_SDK/output/mx6sdl/lib/libsdk.a(imx6sdl_gpio_map.o)
 .ARM.attributes
                0x0000000000001e84       0x39 /home/leon/git/swp-report/iMX6_Platform_SDK/output/mx6sdl/lib/libsdk.a(imx_i2c.o)
 .ARM.attributes
                0x0000000000001ebd       0x39 /home/leon/git/swp-report/iMX6_Platform_SDK/output/mx6sdl/lib/libboard_sabre_ai_rev_c.a(i2c_iomux_config.o)

.debug_info     0x0000000000000000    0x6383c
 .debug_info    0x0000000000000000      0x1ff /home/leon/git/swp-report/iMX6_Platform_SDK/output/mx6sdl/stream/sabre_ai_rev_c/obj/apps/common/ivt.o
 .debug_info    0x00000000000001ff      0x241 /home/leon/git/swp-report/iMX6_Platform_SDK/output/mx6sdl/stream/sabre_ai_rev_c/obj/apps/common/platform_init.o
 .debug_info    0x0000000000000440      0x425 /home/leon/git/swp-report/iMX6_Platform_SDK/output/mx6sdl/stream/sabre_ai_rev_c/obj/apps/common/print_version.o
 .debug_info    0x0000000000000865      0x38c /home/leon/git/swp-report/iMX6_Platform_SDK/output/mx6sdl/stream/sabre_ai_rev_c/obj/apps/stream/src/main.o
 .debug_info    0x0000000000000bf1      0x62a /home/leon/git/swp-report/iMX6_Platform_SDK/output/mx6sdl/stream/sabre_ai_rev_c/obj/apps/stream/src/stream.o
 .debug_info    0x000000000000121b     0x1ad0 /home/leon/git/swp-report/iMX6_Platform_SDK/output/mx6sdl/lib/libsdk.a(ccm_pll.o)
 .debug_info    0x0000000000002ceb      0x767 /home/leon/git/swp-report/iMX6_Platform_SDK/output/mx6sdl/lib/libsdk.a(gic.o)
 .debug_info    0x0000000000003452      0x3b3 /home/leon/git/swp-report/iMX6_Platform_SDK/output/mx6sdl/lib/libsdk.a(mmu.o)
 .debug_info    0x0000000000003805       0x74 /home/leon/git/swp-report/iMX6_Platform_SDK/output/mx6sdl/lib/libsdk.a(sdk_version.o)
 .debug_info    0x0000000000003879     0x1360 /home/leon/git/swp-report/iMX6_Platform_SDK/output/mx6sdl/lib/libsdk.a(system_util.o)
 .debug_info    0x0000000000004bd9      0x278 /home/leon/git/swp-report/iMX6_Platform_SDK/output/mx6sdl/lib/libsdk.a(text_color.o)
 .debug_info    0x0000000000004e51      0x4c7 /home/leon/git/swp-report/iMX6_Platform_SDK/output/mx6sdl/lib/libsdk.a(board_id.o)
 .debug_info    0x0000000000005318      0x3f1 /home/leon/git/swp-report/iMX6_Platform_SDK/output/mx6sdl/lib/libsdk.a(cpu_workpoint.o)
 .debug_info    0x0000000000005709     0x33ee /home/leon/git/swp-report/iMX6_Platform_SDK/output/mx6sdl/lib/libsdk.a(pmu_driver.o)
 .debug_info    0x0000000000008af7      0x968 /home/leon/git/swp-report/iMX6_Platform_SDK/output/mx6sdl/lib/libsdk.a(epit.o)
 .debug_info    0x000000000000945f      0x2f5 /home/leon/git/swp-report/iMX6_Platform_SDK/output/mx6sdl/lib/libsdk.a(timer.o)
 .debug_info    0x0000000000009754     0x10ca /home/leon/git/swp-report/iMX6_Platform_SDK/output/mx6sdl/lib/libsdk.a(imx_uart.o)
 .debug_info    0x000000000000a81e      0x61f /home/leon/git/swp-report/iMX6_Platform_SDK/output/mx6sdl/lib/libsdk.a(interrupt.o)
 .debug_info    0x000000000000ae3d      0x205 /home/leon/git/swp-report/iMX6_Platform_SDK/output/mx6sdl/lib/libsdk.a(abort_handler.o)
 .debug_info    0x000000000000b042      0x20f /home/leon/git/swp-report/iMX6_Platform_SDK/output/mx6sdl/lib/libboard_sabre_ai_rev_c.a(board_io_expanders.o)
 .debug_info    0x000000000000b251       0x9f /home/leon/git/swp-report/iMX6_Platform_SDK/output/mx6sdl/lib/libboard_sabre_ai_rev_c.a(hardware_modules.o)
 .debug_info    0x000000000000b2f0       0xe6 /home/leon/git/swp-report/iMX6_Platform_SDK/output/mx6sdl/lib/libboard_sabre_ai_rev_c.a(dcd.o)
 .debug_info    0x000000000000b3d6      0x40e /home/leon/git/swp-report/iMX6_Platform_SDK/output/mx6sdl/lib/libboard_sabre_ai_rev_c.a(i2c3_iomux_config.o)
 .debug_info    0x000000000000b7e4       0xc9 /home/leon/git/swp-report/iMX6_Platform_SDK/output/mx6sdl/lib/libboard_sabre_ai_rev_c.a(uart_iomux_config.o)
 .debug_info    0x000000000000b8ad      0x297 /home/leon/git/swp-report/iMX6_Platform_SDK/output/mx6sdl/lib/libboard_sabre_ai_rev_c.a(iomux_config.o)
 .debug_info    0x000000000000bb44     0x3b1a /home/leon/git/swp-report/iMX6_Platform_SDK/output/mx6sdl/lib/libboard_sabre_ai_rev_c.a(ipu1_iomux_config.o)
 .debug_info    0x000000000000f65e      0x620 /home/leon/git/swp-report/iMX6_Platform_SDK/output/mx6sdl/lib/libboard_sabre_ai_rev_c.a(mlb_iomux_config.o)
 .debug_info    0x000000000000fc7e     0x365e /home/leon/git/swp-report/iMX6_Platform_SDK/output/mx6sdl/lib/libboard_sabre_ai_rev_c.a(mmdc_iomux_config.o)
 .debug_info    0x00000000000132dc      0x1e2 /home/leon/git/swp-report/iMX6_Platform_SDK/output/mx6sdl/lib/libboard_sabre_ai_rev_c.a(pwm3_iomux_config.o)
 .debug_info    0x00000000000134be      0x1e2 /home/leon/git/swp-report/iMX6_Platform_SDK/output/mx6sdl/lib/libboard_sabre_ai_rev_c.a(pwm4_iomux_config.o)
 .debug_info    0x00000000000136a0      0x6a2 /home/leon/git/swp-report/iMX6_Platform_SDK/output/mx6sdl/lib/libboard_sabre_ai_rev_c.a(sjc_iomux_config.o)
 .debug_info    0x0000000000013d42      0x24c /home/leon/git/swp-report/iMX6_Platform_SDK/output/mx6sdl/lib/libboard_sabre_ai_rev_c.a(spdif_iomux_config.o)
 .debug_info    0x0000000000013f8e      0x72e /home/leon/git/swp-report/iMX6_Platform_SDK/output/mx6sdl/lib/libboard_sabre_ai_rev_c.a(uart2_iomux_config.o)
 .debug_info    0x00000000000146bc      0x70e /home/leon/git/swp-report/iMX6_Platform_SDK/output/mx6sdl/lib/libboard_sabre_ai_rev_c.a(uart3_iomux_config.o)
 .debug_info    0x0000000000014dca      0x3d4 /home/leon/git/swp-report/iMX6_Platform_SDK/output/mx6sdl/lib/libboard_sabre_ai_rev_c.a(uart4_iomux_config.o)
 .debug_info    0x000000000001519e     0x119c /home/leon/git/swp-report/iMX6_Platform_SDK/output/mx6sdl/lib/libboard_sabre_ai_rev_c.a(usdhc1_iomux_config.o)
 .debug_info    0x000000000001633a     0x1324 /home/leon/git/swp-report/iMX6_Platform_SDK/output/mx6sdl/lib/libboard_sabre_ai_rev_c.a(usdhc3_iomux_config.o)
 .debug_info    0x000000000001765e      0x1c2 /home/leon/git/swp-report/iMX6_Platform_SDK/output/mx6sdl/lib/libboard_sabre_ai_rev_c.a(wdog1_iomux_config.o)
 .debug_info    0x0000000000017820      0xb30 /home/leon/git/swp-report/iMX6_Platform_SDK/output/mx6sdl/lib/libboard_sabre_ai_rev_c.a(audmux_iomux_config.o)
 .debug_info    0x0000000000018350      0x1e2 /home/leon/git/swp-report/iMX6_Platform_SDK/output/mx6sdl/lib/libboard_sabre_ai_rev_c.a(ccm_iomux_config.o)
 .debug_info    0x0000000000018532      0x8ea /home/leon/git/swp-report/iMX6_Platform_SDK/output/mx6sdl/lib/libboard_sabre_ai_rev_c.a(ecspi1_iomux_config.o)
 .debug_info    0x0000000000018e1c     0x3caa /home/leon/git/swp-report/iMX6_Platform_SDK/output/mx6sdl/lib/libboard_sabre_ai_rev_c.a(eim_iomux_config.o)
 .debug_info    0x000000000001cac6     0x1c08 /home/leon/git/swp-report/iMX6_Platform_SDK/output/mx6sdl/lib/libboard_sabre_ai_rev_c.a(enet_iomux_config.o)
 .debug_info    0x000000000001e6ce     0x13ae /home/leon/git/swp-report/iMX6_Platform_SDK/output/mx6sdl/lib/libboard_sabre_ai_rev_c.a(esai_iomux_config.o)
 .debug_info    0x000000000001fa7c      0x3d4 /home/leon/git/swp-report/iMX6_Platform_SDK/output/mx6sdl/lib/libboard_sabre_ai_rev_c.a(flexcan1_iomux_config.o)
 .debug_info    0x000000000001fe50      0x3d4 /home/leon/git/swp-report/iMX6_Platform_SDK/output/mx6sdl/lib/libboard_sabre_ai_rev_c.a(flexcan2_iomux_config.o)
 .debug_info    0x0000000000020224      0xc9a /home/leon/git/swp-report/iMX6_Platform_SDK/output/mx6sdl/lib/libboard_sabre_ai_rev_c.a(gpio1_iomux_config.o)
 .debug_info    0x0000000000020ebe      0xab2 /home/leon/git/swp-report/iMX6_Platform_SDK/output/mx6sdl/lib/libboard_sabre_ai_rev_c.a(gpio2_iomux_config.o)
 .debug_info    0x0000000000021970      0x36a /home/leon/git/swp-report/iMX6_Platform_SDK/output/mx6sdl/lib/libboard_sabre_ai_rev_c.a(gpio4_iomux_config.o)
 .debug_info    0x0000000000021cda      0x8ba /home/leon/git/swp-report/iMX6_Platform_SDK/output/mx6sdl/lib/libboard_sabre_ai_rev_c.a(gpio5_iomux_config.o)
 .debug_info    0x0000000000022594      0x32a /home/leon/git/swp-report/iMX6_Platform_SDK/output/mx6sdl/lib/libboard_sabre_ai_rev_c.a(gpio6_iomux_config.o)
 .debug_info    0x00000000000228be     0x1a02 /home/leon/git/swp-report/iMX6_Platform_SDK/output/mx6sdl/lib/libboard_sabre_ai_rev_c.a(gpmi_iomux_config.o)
 .debug_info    0x00000000000242c0      0x42e /home/leon/git/swp-report/iMX6_Platform_SDK/output/mx6sdl/lib/libboard_sabre_ai_rev_c.a(i2c2_iomux_config.o)
 .debug_info    0x00000000000246ee      0x16b /home/src/arm/target/bin/../arm-none-eabi/lib//libstdc++.a(pure.o)
 .debug_info    0x0000000000024859      0x63d /home/src/arm/target/bin/../arm-none-eabi/lib//libstdc++.a(eh_terminate.o)
 .debug_info    0x0000000000024e96      0x780 /home/src/arm/target/bin/../arm-none-eabi/lib//libstdc++.a(eh_arm.o)
 .debug_info    0x0000000000025616      0x5a3 /home/src/arm/target/bin/../arm-none-eabi/lib//libstdc++.a(eh_exception.o)
 .debug_info    0x0000000000025bb9       0xb4 /home/src/arm/target/bin/../arm-none-eabi/lib//libstdc++.a(eh_term_handler.o)
 .debug_info    0x0000000000025c6d      0x719 /home/src/arm/target/bin/../arm-none-eabi/lib//libstdc++.a(eh_globals.o)
 .debug_info    0x0000000000026386      0xe2b /home/src/arm/target/bin/../arm-none-eabi/lib//libstdc++.a(eh_call.o)
 .debug_info    0x00000000000271b1     0x1b54 /home/src/arm/target/bin/../arm-none-eabi/lib//libstdc++.a(eh_personality.o)
 .debug_info    0x0000000000028d05       0xb4 /home/src/arm/target/bin/../arm-none-eabi/lib//libstdc++.a(eh_unex_handler.o)
 .debug_info    0x0000000000028db9      0x8df /home/src/arm/target/bin/../arm-none-eabi/lib//libstdc++.a(si_class_type_info.o)
 .debug_info    0x0000000000029698      0x6b0 /home/src/arm/target/bin/../arm-none-eabi/lib//libstdc++.a(eh_throw.o)
 .debug_info    0x0000000000029d48     0x12c4 /home/src/arm/target/bin/../arm-none-eabi/lib//libstdc++.a(vterminate.o)
 .debug_info    0x000000000002b00c      0x9ce /home/src/arm/target/bin/../arm-none-eabi/lib//libstdc++.a(eh_catch.o)
 .debug_info    0x000000000002b9da      0x51f /home/src/arm/target/bin/../arm-none-eabi/lib//libstdc++.a(tinfo.o)
 .debug_info    0x000000000002bef9      0x43d /home/src/arm/target/bin/../arm-none-eabi/lib//libstdc++.a(del_op.o)
 .debug_info    0x000000000002c336     0xa1cf /home/src/arm/target/bin/../arm-none-eabi/lib//libstdc++.a(cp-demangle.o)
 .debug_info    0x0000000000036505      0x9da /home/src/arm/target/bin/../arm-none-eabi/lib//libstdc++.a(class_type_info.o)
 .debug_info    0x0000000000036edf      0xfee /home/src/arm/target/bin/../arm-none-eabi/lib//libstdc++.a(eh_alloc.o)
 .debug_info    0x0000000000037ecd      0x4c3 /home/src/arm/target/bin/../arm-none-eabi/lib//libstdc++.a(eh_type.o)
 .debug_info    0x0000000000038390       0xd4 /home/src/arm/target/bin/../arm-none-eabi/lib//libc.a(lib_a-abort.o)
 .debug_info    0x0000000000038464      0x990 /home/src/arm/target/bin/../arm-none-eabi/lib//libc.a(lib_a-assert.o)
 .debug_info    0x0000000000038df4       0xc8 /home/src/arm/target/bin/../arm-none-eabi/lib//libc.a(lib_a-bzero.o)
 .debug_info    0x0000000000038ebc      0x9c2 /home/src/arm/target/bin/../arm-none-eabi/lib//libc.a(lib_a-fiprintf.o)
 .debug_info    0x000000000003987e      0x9d1 /home/src/arm/target/bin/../arm-none-eabi/lib//libc.a(lib_a-fputc.o)
 .debug_info    0x000000000003a24f      0xa4f /home/src/arm/target/bin/../arm-none-eabi/lib//libc.a(lib_a-fputs.o)
 .debug_info    0x000000000003ac9e      0xc4a /home/src/arm/target/bin/../arm-none-eabi/lib//libc.a(lib_a-fvwrite.o)
 .debug_info    0x000000000003b8e8      0xa69 /home/src/arm/target/bin/../arm-none-eabi/lib//libc.a(lib_a-fwrite.o)
 .debug_info    0x000000000003c351      0x894 /home/src/arm/target/bin/../arm-none-eabi/lib//libc.a(lib_a-impure.o)
 .debug_info    0x000000000003cbe5      0x105 /home/src/arm/target/bin/../arm-none-eabi/lib//libc.a(lib_a-init.o)
 .debug_info    0x000000000003ccea      0x915 /home/src/arm/target/bin/../arm-none-eabi/lib//libc.a(lib_a-malloc.o)
 .debug_info    0x000000000003d5ff      0xd81 /home/src/arm/target/bin/../arm-none-eabi/lib//libc.a(lib_a-mallocr.o)
 .debug_info    0x000000000003e380      0x129 /home/src/arm/target/bin/../arm-none-eabi/lib//libc.a(lib_a-memchr-stub.o)
 .debug_info    0x000000000003e4a9      0x113 /home/src/arm/target/bin/../arm-none-eabi/lib//libc.a(lib_a-memcmp.o)
 .debug_info    0x000000000003e5bc      0x131 /home/src/arm/target/bin/../arm-none-eabi/lib//libc.a(lib_a-memcpy-stub.o)
 .debug_info    0x000000000003e6ed      0x131 /home/src/arm/target/bin/../arm-none-eabi/lib//libc.a(lib_a-memmove.o)
 .debug_info    0x000000000003e81e      0x117 /home/src/arm/target/bin/../arm-none-eabi/lib//libc.a(lib_a-memset.o)
 .debug_info    0x000000000003e935      0x8b4 /home/src/arm/target/bin/../arm-none-eabi/lib//libc.a(lib_a-mlock.o)
 .debug_info    0x000000000003f1e9      0x9ab /home/src/arm/target/bin/../arm-none-eabi/lib//libc.a(lib_a-printf.o)
 .debug_info    0x000000000003fb94      0xa0a /home/src/arm/target/bin/../arm-none-eabi/lib//libc.a(lib_a-putc.o)
 .debug_info    0x000000000004059e      0x8e3 /home/src/arm/target/bin/../arm-none-eabi/lib//libc.a(lib_a-realloc.o)
 .debug_info    0x0000000000040e81      0xcd4 /home/src/arm/target/bin/../arm-none-eabi/lib//libc.a(lib_a-reallocr.o)
 .debug_info    0x0000000000041b55      0x94f /home/src/arm/target/bin/../arm-none-eabi/lib//libc.a(lib_a-rget.o)
 .debug_info    0x00000000000424a4      0x8f4 /home/src/arm/target/bin/../arm-none-eabi/lib//libc.a(lib_a-sbrkr.o)
 .debug_info    0x0000000000042d98      0xb5e /home/src/arm/target/bin/../arm-none-eabi/lib//libc.a(lib_a-signal.o)
 .debug_info    0x00000000000438f6      0x958 /home/src/arm/target/bin/../arm-none-eabi/lib//libc.a(lib_a-signalr.o)
 .debug_info    0x000000000004424e      0x9ee /home/src/arm/target/bin/../arm-none-eabi/lib//libc.a(lib_a-sprintf.o)
 .debug_info    0x0000000000044c3c       0xaa /home/src/arm/target/bin/../arm-none-eabi/lib//libc.a(lib_a-strcmp.o)
 .debug_info    0x0000000000044ce6       0xb5 /home/src/arm/target/bin/../arm-none-eabi/lib//libc.a(lib_a-strlen.o)
 .debug_info    0x0000000000044d9b       0xf5 /home/src/arm/target/bin/../arm-none-eabi/lib//libc.a(lib_a-strncmp.o)
 .debug_info    0x0000000000044e90     0x1678 /home/src/arm/target/bin/../arm-none-eabi/lib//libc.a(lib_a-svfprintf.o)
 .debug_info    0x0000000000046508     0x1e01 /home/src/arm/target/bin/../arm-none-eabi/lib//libc.a(lib_a-syscalls.o)
 .debug_info    0x0000000000048309      0x910 /home/src/arm/target/bin/../arm-none-eabi/lib//libc.a(lib_a-syswrite.o)
 .debug_info    0x0000000000048c19     0x153c /home/src/arm/target/bin/../arm-none-eabi/lib//libc.a(lib_a-vfiprintf.o)
 .debug_info    0x000000000004a155     0x1828 /home/src/arm/target/bin/../arm-none-eabi/lib//libc.a(lib_a-vfprintf.o)
 .debug_info    0x000000000004b97d      0x987 /home/src/arm/target/bin/../arm-none-eabi/lib//libc.a(lib_a-vprintf.o)
 .debug_info    0x000000000004c304      0x9cc /home/src/arm/target/bin/../arm-none-eabi/lib//libc.a(lib_a-wbuf.o)
 .debug_info    0x000000000004ccd0      0x929 /home/src/arm/target/bin/../arm-none-eabi/lib//libc.a(lib_a-writer.o)
 .debug_info    0x000000000004d5f9      0x93b /home/src/arm/target/bin/../arm-none-eabi/lib//libc.a(lib_a-wsetup.o)
 .debug_info    0x000000000004df34     0x1326 /home/src/arm/target/bin/../arm-none-eabi/lib//libc.a(lib_a-dtoa.o)
 .debug_info    0x000000000004f25a      0x889 /home/src/arm/target/bin/../arm-none-eabi/lib//libc.a(lib_a-errno.o)
 .debug_info    0x000000000004fae3      0xab7 /home/src/arm/target/bin/../arm-none-eabi/lib//libc.a(lib_a-fflush.o)
 .debug_info    0x000000000005059a      0xd39 /home/src/arm/target/bin/../arm-none-eabi/lib//libc.a(lib_a-findfp.o)
 .debug_info    0x00000000000512d3      0xac7 /home/src/arm/target/bin/../arm-none-eabi/lib//libc.a(lib_a-fputwc.o)
 .debug_info    0x0000000000051d9a      0xc06 /home/src/arm/target/bin/../arm-none-eabi/lib//libc.a(lib_a-freer.o)
 .debug_info    0x00000000000529a0      0x99e /home/src/arm/target/bin/../arm-none-eabi/lib//libc.a(lib_a-fwalk.o)
 .debug_info    0x000000000005333e      0xbe5 /home/src/arm/target/bin/../arm-none-eabi/lib//libc.a(lib_a-locale.o)
 .debug_info    0x0000000000053f23      0xae6 /home/src/arm/target/bin/../arm-none-eabi/lib//libc.a(lib_a-makebuf.o)
 .debug_info    0x0000000000054a09     0x167e /home/src/arm/target/bin/../arm-none-eabi/lib//libc.a(lib_a-mprec.o)
 .debug_info    0x0000000000056087      0x9f9 /home/src/arm/target/bin/../arm-none-eabi/lib//libc.a(lib_a-reent.o)
 .debug_info    0x0000000000056a80      0xa5e /home/src/arm/target/bin/../arm-none-eabi/lib//libc.a(lib_a-refill.o)
 .debug_info    0x00000000000574de       0xdb /home/src/arm/target/bin/../arm-none-eabi/lib//libc.a(lib_a-s_fpclassify.o)
 .debug_info    0x00000000000575b9      0xb89 /home/src/arm/target/bin/../arm-none-eabi/lib//libc.a(lib_a-stdio.o)
 .debug_info    0x0000000000058142     0x1001 /home/src/arm/target/bin/../arm-none-eabi/lib//libc.a(lib_a-svfiprintf.o)
 .debug_info    0x0000000000059143      0xa77 /home/src/arm/target/bin/../arm-none-eabi/lib//libc.a(lib_a-wcrtomb.o)
 .debug_info    0x0000000000059bba      0x9b5 /home/src/arm/target/bin/../arm-none-eabi/lib//libc.a(lib_a-wctomb_r.o)
 .debug_info    0x000000000005a56f      0x9e0 /home/src/arm/target/bin/../arm-none-eabi/lib//libc.a(lib_a-callocr.o)
 .debug_info    0x000000000005af4f      0x8e0 /home/src/arm/target/bin/../arm-none-eabi/lib//libc.a(lib_a-closer.o)
 .debug_info    0x000000000005b82f      0x9e5 /home/src/arm/target/bin/../arm-none-eabi/lib//libc.a(lib_a-fclose.o)
 .debug_info    0x000000000005c214      0xa5e /home/src/arm/target/bin/../arm-none-eabi/lib//libc.a(lib_a-fstatr.o)
 .debug_info    0x000000000005cc72      0x8e0 /home/src/arm/target/bin/../arm-none-eabi/lib//libc.a(lib_a-isattyr.o)
 .debug_info    0x000000000005d552      0x90c /home/src/arm/target/bin/../arm-none-eabi/lib//libc.a(lib_a-lseekr.o)
 .debug_info    0x000000000005de5e      0x922 /home/src/arm/target/bin/../arm-none-eabi/lib//libc.a(lib_a-readr.o)
 .debug_info    0x000000000005e780       0x87 /home/src/arm/target/bin/../lib/gcc/arm-none-eabi/4.8.2//libgcc.a(_udivsi3.o)
 .debug_info    0x000000000005e807       0x87 /home/src/arm/target/bin/../lib/gcc/arm-none-eabi/4.8.2//libgcc.a(_divsi3.o)
 .debug_info    0x000000000005e88e       0x87 /home/src/arm/target/bin/../lib/gcc/arm-none-eabi/4.8.2//libgcc.a(_dvmd_tls.o)
 .debug_info    0x000000000005e915       0x88 /home/src/arm/target/bin/../lib/gcc/arm-none-eabi/4.8.2//libgcc.a(_arm_addsubdf3.o)
 .debug_info    0x000000000005e99d       0x88 /home/src/arm/target/bin/../lib/gcc/arm-none-eabi/4.8.2//libgcc.a(_arm_muldivdf3.o)
 .debug_info    0x000000000005ea25       0x88 /home/src/arm/target/bin/../lib/gcc/arm-none-eabi/4.8.2//libgcc.a(_arm_cmpdf2.o)
 .debug_info    0x000000000005eaad       0x88 /home/src/arm/target/bin/../lib/gcc/arm-none-eabi/4.8.2//libgcc.a(_arm_fixdfsi.o)
 .debug_info    0x000000000005eb35       0x83 /home/src/arm/target/bin/../lib/gcc/arm-none-eabi/4.8.2//libgcc.a(_aeabi_uldivmod.o)
 .debug_info    0x000000000005ebb8      0x164 /home/src/arm/target/bin/../lib/gcc/arm-none-eabi/4.8.2//libgcc.a(bpabi.o)
 .debug_info    0x000000000005ed1c     0x1bdf /home/src/arm/target/bin/../lib/gcc/arm-none-eabi/4.8.2//libgcc.a(unwind-arm.o)
 .debug_info    0x00000000000608fb       0x87 /home/src/arm/target/bin/../lib/gcc/arm-none-eabi/4.8.2//libgcc.a(libunwind.o)
 .debug_info    0x0000000000060982      0x944 /home/src/arm/target/bin/../lib/gcc/arm-none-eabi/4.8.2//libgcc.a(pr-support.o)
 .debug_info    0x00000000000612c6      0x5c4 /home/src/arm/target/bin/../lib/gcc/arm-none-eabi/4.8.2//libgcc.a(_divdi3.o)
 .debug_info    0x000000000006188a      0x583 /home/src/arm/target/bin/../lib/gcc/arm-none-eabi/4.8.2//libgcc.a(_udivdi3.o)
 .debug_info    0x0000000000061e0d       0x87 /home/src/arm/target/bin/../lib/gcc/arm-none-eabi/4.8.2//libgcc.a(_clzsi2.o)
 .debug_info    0x0000000000061e94      0x2be /home/leon/git/swp-report/iMX6_Platform_SDK/output/mx6sdl/lib/libsdk.a(max7310.o)
 .debug_info    0x0000000000062152      0x7ee /home/leon/git/swp-report/iMX6_Platform_SDK/output/mx6sdl/lib/libsdk.a(gpio.o)
 .debug_info    0x0000000000062940       0x9e /home/leon/git/swp-report/iMX6_Platform_SDK/output/mx6sdl/lib/libsdk.a(imx6sdl_gpio_map.o)
 .debug_info    0x00000000000629de      0xd95 /home/leon/git/swp-report/iMX6_Platform_SDK/output/mx6sdl/lib/libsdk.a(imx_i2c.o)
 .debug_info    0x0000000000063773       0xc9 /home/leon/git/swp-report/iMX6_Platform_SDK/output/mx6sdl/lib/libboard_sabre_ai_rev_c.a(i2c_iomux_config.o)

.debug_abbrev   0x0000000000000000     0xfbcb
 .debug_abbrev  0x0000000000000000       0xe6 /home/leon/git/swp-report/iMX6_Platform_SDK/output/mx6sdl/stream/sabre_ai_rev_c/obj/apps/common/ivt.o
 .debug_abbrev  0x00000000000000e6      0x111 /home/leon/git/swp-report/iMX6_Platform_SDK/output/mx6sdl/stream/sabre_ai_rev_c/obj/apps/common/platform_init.o
 .debug_abbrev  0x00000000000001f7      0x175 /home/leon/git/swp-report/iMX6_Platform_SDK/output/mx6sdl/stream/sabre_ai_rev_c/obj/apps/common/print_version.o
 .debug_abbrev  0x000000000000036c      0x175 /home/leon/git/swp-report/iMX6_Platform_SDK/output/mx6sdl/stream/sabre_ai_rev_c/obj/apps/stream/src/main.o
 .debug_abbrev  0x00000000000004e1      0x202 /home/leon/git/swp-report/iMX6_Platform_SDK/output/mx6sdl/stream/sabre_ai_rev_c/obj/apps/stream/src/stream.o
 .debug_abbrev  0x00000000000006e3      0x1b1 /home/leon/git/swp-report/iMX6_Platform_SDK/output/mx6sdl/lib/libsdk.a(ccm_pll.o)
 .debug_abbrev  0x0000000000000894      0x188 /home/leon/git/swp-report/iMX6_Platform_SDK/output/mx6sdl/lib/libsdk.a(gic.o)
 .debug_abbrev  0x0000000000000a1c      0x172 /home/leon/git/swp-report/iMX6_Platform_SDK/output/mx6sdl/lib/libsdk.a(mmu.o)
 .debug_abbrev  0x0000000000000b8e       0x43 /home/leon/git/swp-report/iMX6_Platform_SDK/output/mx6sdl/lib/libsdk.a(sdk_version.o)
 .debug_abbrev  0x0000000000000bd1      0x28d /home/leon/git/swp-report/iMX6_Platform_SDK/output/mx6sdl/lib/libsdk.a(system_util.o)
 .debug_abbrev  0x0000000000000e5e       0xd0 /home/leon/git/swp-report/iMX6_Platform_SDK/output/mx6sdl/lib/libsdk.a(text_color.o)
 .debug_abbrev  0x0000000000000f2e      0x13a /home/leon/git/swp-report/iMX6_Platform_SDK/output/mx6sdl/lib/libsdk.a(board_id.o)
 .debug_abbrev  0x0000000000001068      0x15c /home/leon/git/swp-report/iMX6_Platform_SDK/output/mx6sdl/lib/libsdk.a(cpu_workpoint.o)
 .debug_abbrev  0x00000000000011c4      0x512 /home/leon/git/swp-report/iMX6_Platform_SDK/output/mx6sdl/lib/libsdk.a(pmu_driver.o)
 .debug_abbrev  0x00000000000016d6      0x194 /home/leon/git/swp-report/iMX6_Platform_SDK/output/mx6sdl/lib/libsdk.a(epit.o)
 .debug_abbrev  0x000000000000186a      0x122 /home/leon/git/swp-report/iMX6_Platform_SDK/output/mx6sdl/lib/libsdk.a(timer.o)
 .debug_abbrev  0x000000000000198c      0x1e3 /home/leon/git/swp-report/iMX6_Platform_SDK/output/mx6sdl/lib/libsdk.a(imx_uart.o)
 .debug_abbrev  0x0000000000001b6f      0x11a /home/leon/git/swp-report/iMX6_Platform_SDK/output/mx6sdl/lib/libsdk.a(interrupt.o)
 .debug_abbrev  0x0000000000001c89       0xc8 /home/leon/git/swp-report/iMX6_Platform_SDK/output/mx6sdl/lib/libsdk.a(abort_handler.o)
 .debug_abbrev  0x0000000000001d51       0xc8 /home/leon/git/swp-report/iMX6_Platform_SDK/output/mx6sdl/lib/libboard_sabre_ai_rev_c.a(board_io_expanders.o)
 .debug_abbrev  0x0000000000001e19       0x44 /home/leon/git/swp-report/iMX6_Platform_SDK/output/mx6sdl/lib/libboard_sabre_ai_rev_c.a(hardware_modules.o)
 .debug_abbrev  0x0000000000001e5d       0x75 /home/leon/git/swp-report/iMX6_Platform_SDK/output/mx6sdl/lib/libboard_sabre_ai_rev_c.a(dcd.o)
 .debug_abbrev  0x0000000000001ed2      0x106 /home/leon/git/swp-report/iMX6_Platform_SDK/output/mx6sdl/lib/libboard_sabre_ai_rev_c.a(i2c3_iomux_config.o)
 .debug_abbrev  0x0000000000001fd8       0x79 /home/leon/git/swp-report/iMX6_Platform_SDK/output/mx6sdl/lib/libboard_sabre_ai_rev_c.a(uart_iomux_config.o)
 .debug_abbrev  0x0000000000002051       0x42 /home/leon/git/swp-report/iMX6_Platform_SDK/output/mx6sdl/lib/libboard_sabre_ai_rev_c.a(iomux_config.o)
 .debug_abbrev  0x0000000000002093       0xa4 /home/leon/git/swp-report/iMX6_Platform_SDK/output/mx6sdl/lib/libboard_sabre_ai_rev_c.a(ipu1_iomux_config.o)
 .debug_abbrev  0x0000000000002137       0xf1 /home/leon/git/swp-report/iMX6_Platform_SDK/output/mx6sdl/lib/libboard_sabre_ai_rev_c.a(mlb_iomux_config.o)
 .debug_abbrev  0x0000000000002228      0x106 /home/leon/git/swp-report/iMX6_Platform_SDK/output/mx6sdl/lib/libboard_sabre_ai_rev_c.a(mmdc_iomux_config.o)
 .debug_abbrev  0x000000000000232e       0xf1 /home/leon/git/swp-report/iMX6_Platform_SDK/output/mx6sdl/lib/libboard_sabre_ai_rev_c.a(pwm3_iomux_config.o)
 .debug_abbrev  0x000000000000241f       0xf1 /home/leon/git/swp-report/iMX6_Platform_SDK/output/mx6sdl/lib/libboard_sabre_ai_rev_c.a(pwm4_iomux_config.o)
 .debug_abbrev  0x0000000000002510       0xa4 /home/leon/git/swp-report/iMX6_Platform_SDK/output/mx6sdl/lib/libboard_sabre_ai_rev_c.a(sjc_iomux_config.o)
 .debug_abbrev  0x00000000000025b4       0xf1 /home/leon/git/swp-report/iMX6_Platform_SDK/output/mx6sdl/lib/libboard_sabre_ai_rev_c.a(spdif_iomux_config.o)
 .debug_abbrev  0x00000000000026a5       0xf1 /home/leon/git/swp-report/iMX6_Platform_SDK/output/mx6sdl/lib/libboard_sabre_ai_rev_c.a(uart2_iomux_config.o)
 .debug_abbrev  0x0000000000002796      0x106 /home/leon/git/swp-report/iMX6_Platform_SDK/output/mx6sdl/lib/libboard_sabre_ai_rev_c.a(uart3_iomux_config.o)
 .debug_abbrev  0x000000000000289c       0xf1 /home/leon/git/swp-report/iMX6_Platform_SDK/output/mx6sdl/lib/libboard_sabre_ai_rev_c.a(uart4_iomux_config.o)
 .debug_abbrev  0x000000000000298d       0xf1 /home/leon/git/swp-report/iMX6_Platform_SDK/output/mx6sdl/lib/libboard_sabre_ai_rev_c.a(usdhc1_iomux_config.o)
 .debug_abbrev  0x0000000000002a7e       0xf1 /home/leon/git/swp-report/iMX6_Platform_SDK/output/mx6sdl/lib/libboard_sabre_ai_rev_c.a(usdhc3_iomux_config.o)
 .debug_abbrev  0x0000000000002b6f       0xa4 /home/leon/git/swp-report/iMX6_Platform_SDK/output/mx6sdl/lib/libboard_sabre_ai_rev_c.a(wdog1_iomux_config.o)
 .debug_abbrev  0x0000000000002c13       0xf1 /home/leon/git/swp-report/iMX6_Platform_SDK/output/mx6sdl/lib/libboard_sabre_ai_rev_c.a(audmux_iomux_config.o)
 .debug_abbrev  0x0000000000002d04       0xf1 /home/leon/git/swp-report/iMX6_Platform_SDK/output/mx6sdl/lib/libboard_sabre_ai_rev_c.a(ccm_iomux_config.o)
 .debug_abbrev  0x0000000000002df5      0x106 /home/leon/git/swp-report/iMX6_Platform_SDK/output/mx6sdl/lib/libboard_sabre_ai_rev_c.a(ecspi1_iomux_config.o)
 .debug_abbrev  0x0000000000002efb      0x106 /home/leon/git/swp-report/iMX6_Platform_SDK/output/mx6sdl/lib/libboard_sabre_ai_rev_c.a(eim_iomux_config.o)
 .debug_abbrev  0x0000000000003001       0xf1 /home/leon/git/swp-report/iMX6_Platform_SDK/output/mx6sdl/lib/libboard_sabre_ai_rev_c.a(enet_iomux_config.o)
 .debug_abbrev  0x00000000000030f2       0xf1 /home/leon/git/swp-report/iMX6_Platform_SDK/output/mx6sdl/lib/libboard_sabre_ai_rev_c.a(esai_iomux_config.o)
 .debug_abbrev  0x00000000000031e3       0xf1 /home/leon/git/swp-report/iMX6_Platform_SDK/output/mx6sdl/lib/libboard_sabre_ai_rev_c.a(flexcan1_iomux_config.o)
 .debug_abbrev  0x00000000000032d4       0xf1 /home/leon/git/swp-report/iMX6_Platform_SDK/output/mx6sdl/lib/libboard_sabre_ai_rev_c.a(flexcan2_iomux_config.o)
 .debug_abbrev  0x00000000000033c5       0xf1 /home/leon/git/swp-report/iMX6_Platform_SDK/output/mx6sdl/lib/libboard_sabre_ai_rev_c.a(gpio1_iomux_config.o)
 .debug_abbrev  0x00000000000034b6      0x106 /home/leon/git/swp-report/iMX6_Platform_SDK/output/mx6sdl/lib/libboard_sabre_ai_rev_c.a(gpio2_iomux_config.o)
 .debug_abbrev  0x00000000000035bc       0xf1 /home/leon/git/swp-report/iMX6_Platform_SDK/output/mx6sdl/lib/libboard_sabre_ai_rev_c.a(gpio4_iomux_config.o)
 .debug_abbrev  0x00000000000036ad       0xa4 /home/leon/git/swp-report/iMX6_Platform_SDK/output/mx6sdl/lib/libboard_sabre_ai_rev_c.a(gpio5_iomux_config.o)
 .debug_abbrev  0x0000000000003751      0x106 /home/leon/git/swp-report/iMX6_Platform_SDK/output/mx6sdl/lib/libboard_sabre_ai_rev_c.a(gpio6_iomux_config.o)
 .debug_abbrev  0x0000000000003857       0xf1 /home/leon/git/swp-report/iMX6_Platform_SDK/output/mx6sdl/lib/libboard_sabre_ai_rev_c.a(gpmi_iomux_config.o)
 .debug_abbrev  0x0000000000003948       0xf1 /home/leon/git/swp-report/iMX6_Platform_SDK/output/mx6sdl/lib/libboard_sabre_ai_rev_c.a(i2c2_iomux_config.o)
 .debug_abbrev  0x0000000000003a39       0xdc /home/src/arm/target/bin/../arm-none-eabi/lib//libstdc++.a(pure.o)
 .debug_abbrev  0x0000000000003b15      0x229 /home/src/arm/target/bin/../arm-none-eabi/lib//libstdc++.a(eh_terminate.o)
 .debug_abbrev  0x0000000000003d3e      0x267 /home/src/arm/target/bin/../arm-none-eabi/lib//libstdc++.a(eh_arm.o)
 .debug_abbrev  0x0000000000003fa5      0x24a /home/src/arm/target/bin/../arm-none-eabi/lib//libstdc++.a(eh_exception.o)
 .debug_abbrev  0x00000000000041ef       0x84 /home/src/arm/target/bin/../arm-none-eabi/lib//libstdc++.a(eh_term_handler.o)
 .debug_abbrev  0x0000000000004273      0x1b2 /home/src/arm/target/bin/../arm-none-eabi/lib//libstdc++.a(eh_globals.o)
 .debug_abbrev  0x0000000000004425      0x44a /home/src/arm/target/bin/../arm-none-eabi/lib//libstdc++.a(eh_call.o)
 .debug_abbrev  0x000000000000486f      0x4b0 /home/src/arm/target/bin/../arm-none-eabi/lib//libstdc++.a(eh_personality.o)
 .debug_abbrev  0x0000000000004d1f       0x84 /home/src/arm/target/bin/../arm-none-eabi/lib//libstdc++.a(eh_unex_handler.o)
 .debug_abbrev  0x0000000000004da3      0x33b /home/src/arm/target/bin/../arm-none-eabi/lib//libstdc++.a(si_class_type_info.o)
 .debug_abbrev  0x00000000000050de      0x2bc /home/src/arm/target/bin/../arm-none-eabi/lib//libstdc++.a(eh_throw.o)
 .debug_abbrev  0x000000000000539a      0x35e /home/src/arm/target/bin/../arm-none-eabi/lib//libstdc++.a(vterminate.o)
 .debug_abbrev  0x00000000000056f8      0x2f2 /home/src/arm/target/bin/../arm-none-eabi/lib//libstdc++.a(eh_catch.o)
 .debug_abbrev  0x00000000000059ea      0x2b5 /home/src/arm/target/bin/../arm-none-eabi/lib//libstdc++.a(tinfo.o)
 .debug_abbrev  0x0000000000005c9f      0x144 /home/src/arm/target/bin/../arm-none-eabi/lib//libstdc++.a(del_op.o)
 .debug_abbrev  0x0000000000005de3      0x457 /home/src/arm/target/bin/../arm-none-eabi/lib//libstdc++.a(cp-demangle.o)
 .debug_abbrev  0x000000000000623a      0x3d4 /home/src/arm/target/bin/../arm-none-eabi/lib//libstdc++.a(class_type_info.o)
 .debug_abbrev  0x000000000000660e      0x433 /home/src/arm/target/bin/../arm-none-eabi/lib//libstdc++.a(eh_alloc.o)
 .debug_abbrev  0x0000000000006a41      0x19a /home/src/arm/target/bin/../arm-none-eabi/lib//libstdc++.a(eh_type.o)
 .debug_abbrev  0x0000000000006bdb       0x95 /home/src/arm/target/bin/../arm-none-eabi/lib//libc.a(lib_a-abort.o)
 .debug_abbrev  0x0000000000006c70      0x1f8 /home/src/arm/target/bin/../arm-none-eabi/lib//libc.a(lib_a-assert.o)
 .debug_abbrev  0x0000000000006e68       0x8c /home/src/arm/target/bin/../arm-none-eabi/lib//libc.a(lib_a-bzero.o)
 .debug_abbrev  0x0000000000006ef4      0x216 /home/src/arm/target/bin/../arm-none-eabi/lib//libc.a(lib_a-fiprintf.o)
 .debug_abbrev  0x000000000000710a      0x22f /home/src/arm/target/bin/../arm-none-eabi/lib//libc.a(lib_a-fputc.o)
 .debug_abbrev  0x0000000000007339      0x242 /home/src/arm/target/bin/../arm-none-eabi/lib//libc.a(lib_a-fputs.o)
 .debug_abbrev  0x000000000000757b      0x247 /home/src/arm/target/bin/../arm-none-eabi/lib//libc.a(lib_a-fvwrite.o)
 .debug_abbrev  0x00000000000077c2      0x25f /home/src/arm/target/bin/../arm-none-eabi/lib//libc.a(lib_a-fwrite.o)
 .debug_abbrev  0x0000000000007a21      0x180 /home/src/arm/target/bin/../arm-none-eabi/lib//libc.a(lib_a-impure.o)
 .debug_abbrev  0x0000000000007ba1       0xba /home/src/arm/target/bin/../arm-none-eabi/lib//libc.a(lib_a-init.o)
 .debug_abbrev  0x0000000000007c5b      0x1f7 /home/src/arm/target/bin/../arm-none-eabi/lib//libc.a(lib_a-malloc.o)
 .debug_abbrev  0x0000000000007e52      0x2a2 /home/src/arm/target/bin/../arm-none-eabi/lib//libc.a(lib_a-mallocr.o)
 .debug_abbrev  0x00000000000080f4       0xba /home/src/arm/target/bin/../arm-none-eabi/lib//libc.a(lib_a-memchr-stub.o)
 .debug_abbrev  0x00000000000081ae       0x7f /home/src/arm/target/bin/../arm-none-eabi/lib//libc.a(lib_a-memcmp.o)
 .debug_abbrev  0x000000000000822d       0xab /home/src/arm/target/bin/../arm-none-eabi/lib//libc.a(lib_a-memcpy-stub.o)
 .debug_abbrev  0x00000000000082d8       0xab /home/src/arm/target/bin/../arm-none-eabi/lib//libc.a(lib_a-memmove.o)
 .debug_abbrev  0x0000000000008383       0x9f /home/src/arm/target/bin/../arm-none-eabi/lib//libc.a(lib_a-memset.o)
 .debug_abbrev  0x0000000000008422      0x19a /home/src/arm/target/bin/../arm-none-eabi/lib//libc.a(lib_a-mlock.o)
 .debug_abbrev  0x00000000000085bc      0x227 /home/src/arm/target/bin/../arm-none-eabi/lib//libc.a(lib_a-printf.o)
 .debug_abbrev  0x00000000000087e3      0x229 /home/src/arm/target/bin/../arm-none-eabi/lib//libc.a(lib_a-putc.o)
 .debug_abbrev  0x0000000000008a0c      0x1d9 /home/src/arm/target/bin/../arm-none-eabi/lib//libc.a(lib_a-realloc.o)
 .debug_abbrev  0x0000000000008be5      0x25b /home/src/arm/target/bin/../arm-none-eabi/lib//libc.a(lib_a-reallocr.o)
 .debug_abbrev  0x0000000000008e40      0x22a /home/src/arm/target/bin/../arm-none-eabi/lib//libc.a(lib_a-rget.o)
 .debug_abbrev  0x000000000000906a      0x1fd /home/src/arm/target/bin/../arm-none-eabi/lib//libc.a(lib_a-sbrkr.o)
 .debug_abbrev  0x0000000000009267      0x2c4 /home/src/arm/target/bin/../arm-none-eabi/lib//libc.a(lib_a-signal.o)
 .debug_abbrev  0x000000000000952b      0x1fa /home/src/arm/target/bin/../arm-none-eabi/lib//libc.a(lib_a-signalr.o)
 .debug_abbrev  0x0000000000009725      0x218 /home/src/arm/target/bin/../arm-none-eabi/lib//libc.a(lib_a-sprintf.o)
 .debug_abbrev  0x000000000000993d       0x14 /home/src/arm/target/bin/../arm-none-eabi/lib//libc.a(lib_a-strcmp.o)
 .debug_abbrev  0x0000000000009951       0x70 /home/src/arm/target/bin/../arm-none-eabi/lib//libc.a(lib_a-strlen.o)
 .debug_abbrev  0x00000000000099c1       0x81 /home/src/arm/target/bin/../arm-none-eabi/lib//libc.a(lib_a-strncmp.o)
 .debug_abbrev  0x0000000000009a42      0x36f /home/src/arm/target/bin/../arm-none-eabi/lib//libc.a(lib_a-svfprintf.o)
 .debug_abbrev  0x0000000000009db1      0x50d /home/src/arm/target/bin/../arm-none-eabi/lib//libc.a(lib_a-syscalls.o)
 .debug_abbrev  0x000000000000a2be      0x1cf /home/src/arm/target/bin/../arm-none-eabi/lib//libc.a(lib_a-syswrite.o)
 .debug_abbrev  0x000000000000a48d      0x3af /home/src/arm/target/bin/../arm-none-eabi/lib//libc.a(lib_a-vfiprintf.o)
 .debug_abbrev  0x000000000000a83c      0x3cd /home/src/arm/target/bin/../arm-none-eabi/lib//libc.a(lib_a-vfprintf.o)
 .debug_abbrev  0x000000000000ac09      0x204 /home/src/arm/target/bin/../arm-none-eabi/lib//libc.a(lib_a-vprintf.o)
 .debug_abbrev  0x000000000000ae0d      0x25b /home/src/arm/target/bin/../arm-none-eabi/lib//libc.a(lib_a-wbuf.o)
 .debug_abbrev  0x000000000000b068      0x1f4 /home/src/arm/target/bin/../arm-none-eabi/lib//libc.a(lib_a-writer.o)
 .debug_abbrev  0x000000000000b25c      0x20b /home/src/arm/target/bin/../arm-none-eabi/lib//libc.a(lib_a-wsetup.o)
 .debug_abbrev  0x000000000000b467      0x2da /home/src/arm/target/bin/../arm-none-eabi/lib//libc.a(lib_a-dtoa.o)
 .debug_abbrev  0x000000000000b741      0x18f /home/src/arm/target/bin/../arm-none-eabi/lib//libc.a(lib_a-errno.o)
 .debug_abbrev  0x000000000000b8d0      0x28d /home/src/arm/target/bin/../arm-none-eabi/lib//libc.a(lib_a-fflush.o)
 .debug_abbrev  0x000000000000bb5d      0x339 /home/src/arm/target/bin/../arm-none-eabi/lib//libc.a(lib_a-findfp.o)
 .debug_abbrev  0x000000000000be96      0x2a1 /home/src/arm/target/bin/../arm-none-eabi/lib//libc.a(lib_a-fputwc.o)
 .debug_abbrev  0x000000000000c137      0x26b /home/src/arm/target/bin/../arm-none-eabi/lib//libc.a(lib_a-freer.o)
 .debug_abbrev  0x000000000000c3a2      0x1c2 /home/src/arm/target/bin/../arm-none-eabi/lib//libc.a(lib_a-fwalk.o)
 .debug_abbrev  0x000000000000c564      0x2a3 /home/src/arm/target/bin/../arm-none-eabi/lib//libc.a(lib_a-locale.o)
 .debug_abbrev  0x000000000000c807      0x206 /home/src/arm/target/bin/../arm-none-eabi/lib//libc.a(lib_a-makebuf.o)
 .debug_abbrev  0x000000000000ca0d      0x3bd /home/src/arm/target/bin/../arm-none-eabi/lib//libc.a(lib_a-mprec.o)
 .debug_abbrev  0x000000000000cdca      0x258 /home/src/arm/target/bin/../arm-none-eabi/lib//libc.a(lib_a-reent.o)
 .debug_abbrev  0x000000000000d022      0x265 /home/src/arm/target/bin/../arm-none-eabi/lib//libc.a(lib_a-refill.o)
 .debug_abbrev  0x000000000000d287       0x6f /home/src/arm/target/bin/../arm-none-eabi/lib//libc.a(lib_a-s_fpclassify.o)
 .debug_abbrev  0x000000000000d2f6      0x22b /home/src/arm/target/bin/../arm-none-eabi/lib//libc.a(lib_a-stdio.o)
 .debug_abbrev  0x000000000000d521      0x2a9 /home/src/arm/target/bin/../arm-none-eabi/lib//libc.a(lib_a-svfiprintf.o)
 .debug_abbrev  0x000000000000d7ca      0x213 /home/src/arm/target/bin/../arm-none-eabi/lib//libc.a(lib_a-wcrtomb.o)
 .debug_abbrev  0x000000000000d9dd      0x212 /home/src/arm/target/bin/../arm-none-eabi/lib//libc.a(lib_a-wctomb_r.o)
 .debug_abbrev  0x000000000000dbef      0x213 /home/src/arm/target/bin/../arm-none-eabi/lib//libc.a(lib_a-callocr.o)
 .debug_abbrev  0x000000000000de02      0x1ef /home/src/arm/target/bin/../arm-none-eabi/lib//libc.a(lib_a-closer.o)
 .debug_abbrev  0x000000000000dff1      0x273 /home/src/arm/target/bin/../arm-none-eabi/lib//libc.a(lib_a-fclose.o)
 .debug_abbrev  0x000000000000e264      0x1fe /home/src/arm/target/bin/../arm-none-eabi/lib//libc.a(lib_a-fstatr.o)
 .debug_abbrev  0x000000000000e462      0x1ef /home/src/arm/target/bin/../arm-none-eabi/lib//libc.a(lib_a-isattyr.o)
 .debug_abbrev  0x000000000000e651      0x1fe /home/src/arm/target/bin/../arm-none-eabi/lib//libc.a(lib_a-lseekr.o)
 .debug_abbrev  0x000000000000e84f      0x1ef /home/src/arm/target/bin/../arm-none-eabi/lib//libc.a(lib_a-readr.o)
 .debug_abbrev  0x000000000000ea3e       0x14 /home/src/arm/target/bin/../lib/gcc/arm-none-eabi/4.8.2//libgcc.a(_udivsi3.o)
 .debug_abbrev  0x000000000000ea52       0x14 /home/src/arm/target/bin/../lib/gcc/arm-none-eabi/4.8.2//libgcc.a(_divsi3.o)
 .debug_abbrev  0x000000000000ea66       0x14 /home/src/arm/target/bin/../lib/gcc/arm-none-eabi/4.8.2//libgcc.a(_dvmd_tls.o)
 .debug_abbrev  0x000000000000ea7a       0x14 /home/src/arm/target/bin/../lib/gcc/arm-none-eabi/4.8.2//libgcc.a(_arm_addsubdf3.o)
 .debug_abbrev  0x000000000000ea8e       0x14 /home/src/arm/target/bin/../lib/gcc/arm-none-eabi/4.8.2//libgcc.a(_arm_muldivdf3.o)
 .debug_abbrev  0x000000000000eaa2       0x14 /home/src/arm/target/bin/../lib/gcc/arm-none-eabi/4.8.2//libgcc.a(_arm_cmpdf2.o)
 .debug_abbrev  0x000000000000eab6       0x14 /home/src/arm/target/bin/../lib/gcc/arm-none-eabi/4.8.2//libgcc.a(_arm_fixdfsi.o)
 .debug_abbrev  0x000000000000eaca       0x14 /home/src/arm/target/bin/../lib/gcc/arm-none-eabi/4.8.2//libgcc.a(_aeabi_uldivmod.o)
 .debug_abbrev  0x000000000000eade       0xb7 /home/src/arm/target/bin/../lib/gcc/arm-none-eabi/4.8.2//libgcc.a(bpabi.o)
 .debug_abbrev  0x000000000000eb95      0x429 /home/src/arm/target/bin/../lib/gcc/arm-none-eabi/4.8.2//libgcc.a(unwind-arm.o)
 .debug_abbrev  0x000000000000efbe       0x14 /home/src/arm/target/bin/../lib/gcc/arm-none-eabi/4.8.2//libgcc.a(libunwind.o)
 .debug_abbrev  0x000000000000efd2      0x26e /home/src/arm/target/bin/../lib/gcc/arm-none-eabi/4.8.2//libgcc.a(pr-support.o)
 .debug_abbrev  0x000000000000f240      0x165 /home/src/arm/target/bin/../lib/gcc/arm-none-eabi/4.8.2//libgcc.a(_divdi3.o)
 .debug_abbrev  0x000000000000f3a5      0x154 /home/src/arm/target/bin/../lib/gcc/arm-none-eabi/4.8.2//libgcc.a(_udivdi3.o)
 .debug_abbrev  0x000000000000f4f9       0x14 /home/src/arm/target/bin/../lib/gcc/arm-none-eabi/4.8.2//libgcc.a(_clzsi2.o)
 .debug_abbrev  0x000000000000f50d       0xf9 /home/leon/git/swp-report/iMX6_Platform_SDK/output/mx6sdl/lib/libsdk.a(max7310.o)
 .debug_abbrev  0x000000000000f606      0x228 /home/leon/git/swp-report/iMX6_Platform_SDK/output/mx6sdl/lib/libsdk.a(gpio.o)
 .debug_abbrev  0x000000000000f82e       0x5b /home/leon/git/swp-report/iMX6_Platform_SDK/output/mx6sdl/lib/libsdk.a(imx6sdl_gpio_map.o)
 .debug_abbrev  0x000000000000f889      0x2c9 /home/leon/git/swp-report/iMX6_Platform_SDK/output/mx6sdl/lib/libsdk.a(imx_i2c.o)
 .debug_abbrev  0x000000000000fb52       0x79 /home/leon/git/swp-report/iMX6_Platform_SDK/output/mx6sdl/lib/libboard_sabre_ai_rev_c.a(i2c_iomux_config.o)

.debug_aranges  0x0000000000000000     0x15d8
 .debug_aranges
                0x0000000000000000       0x18 /home/leon/git/swp-report/iMX6_Platform_SDK/output/mx6sdl/stream/sabre_ai_rev_c/obj/apps/common/ivt.o
 .debug_aranges
                0x0000000000000018       0x20 /home/leon/git/swp-report/iMX6_Platform_SDK/output/mx6sdl/stream/sabre_ai_rev_c/obj/apps/common/platform_init.o
 .debug_aranges
                0x0000000000000038       0x20 /home/leon/git/swp-report/iMX6_Platform_SDK/output/mx6sdl/stream/sabre_ai_rev_c/obj/apps/common/print_version.o
 .debug_aranges
                0x0000000000000058       0x28 /home/leon/git/swp-report/iMX6_Platform_SDK/output/mx6sdl/stream/sabre_ai_rev_c/obj/apps/stream/src/main.o
 .debug_aranges
                0x0000000000000080       0x20 /home/leon/git/swp-report/iMX6_Platform_SDK/output/mx6sdl/stream/sabre_ai_rev_c/obj/apps/stream/src/stream.o
 .debug_aranges
                0x00000000000000a0       0x20 /home/leon/git/swp-report/iMX6_Platform_SDK/output/mx6sdl/lib/libsdk.a(ccm_pll.o)
 .debug_aranges
                0x00000000000000c0       0x20 /home/leon/git/swp-report/iMX6_Platform_SDK/output/mx6sdl/lib/libsdk.a(gic.o)
 .debug_aranges
                0x00000000000000e0       0x20 /home/leon/git/swp-report/iMX6_Platform_SDK/output/mx6sdl/lib/libsdk.a(mmu.o)
 .debug_aranges
                0x0000000000000100       0x18 /home/leon/git/swp-report/iMX6_Platform_SDK/output/mx6sdl/lib/libsdk.a(sdk_version.o)
 .debug_aranges
                0x0000000000000118       0x20 /home/leon/git/swp-report/iMX6_Platform_SDK/output/mx6sdl/lib/libsdk.a(system_util.o)
 .debug_aranges
                0x0000000000000138       0x20 /home/leon/git/swp-report/iMX6_Platform_SDK/output/mx6sdl/lib/libsdk.a(text_color.o)
 .debug_aranges
                0x0000000000000158       0x20 /home/leon/git/swp-report/iMX6_Platform_SDK/output/mx6sdl/lib/libsdk.a(board_id.o)
 .debug_aranges
                0x0000000000000178       0x20 /home/leon/git/swp-report/iMX6_Platform_SDK/output/mx6sdl/lib/libsdk.a(cpu_workpoint.o)
 .debug_aranges
                0x0000000000000198      0x150 /home/leon/git/swp-report/iMX6_Platform_SDK/output/mx6sdl/lib/libsdk.a(pmu_driver.o)
 .debug_aranges
                0x00000000000002e8       0x20 /home/leon/git/swp-report/iMX6_Platform_SDK/output/mx6sdl/lib/libsdk.a(epit.o)
 .debug_aranges
                0x0000000000000308       0x20 /home/leon/git/swp-report/iMX6_Platform_SDK/output/mx6sdl/lib/libsdk.a(timer.o)
 .debug_aranges
                0x0000000000000328       0x20 /home/leon/git/swp-report/iMX6_Platform_SDK/output/mx6sdl/lib/libsdk.a(imx_uart.o)
 .debug_aranges
                0x0000000000000348       0x20 /home/leon/git/swp-report/iMX6_Platform_SDK/output/mx6sdl/lib/libsdk.a(interrupt.o)
 .debug_aranges
                0x0000000000000368       0x20 /home/leon/git/swp-report/iMX6_Platform_SDK/output/mx6sdl/lib/libsdk.a(abort_handler.o)
 .debug_aranges
                0x0000000000000388       0x20 /home/leon/git/swp-report/iMX6_Platform_SDK/output/mx6sdl/lib/libboard_sabre_ai_rev_c.a(board_io_expanders.o)
 .debug_aranges
                0x00000000000003a8       0x18 /home/leon/git/swp-report/iMX6_Platform_SDK/output/mx6sdl/lib/libboard_sabre_ai_rev_c.a(hardware_modules.o)
 .debug_aranges
                0x00000000000003c0       0x18 /home/leon/git/swp-report/iMX6_Platform_SDK/output/mx6sdl/lib/libboard_sabre_ai_rev_c.a(dcd.o)
 .debug_aranges
                0x00000000000003d8       0x20 /home/leon/git/swp-report/iMX6_Platform_SDK/output/mx6sdl/lib/libboard_sabre_ai_rev_c.a(i2c3_iomux_config.o)
 .debug_aranges
                0x00000000000003f8       0x20 /home/leon/git/swp-report/iMX6_Platform_SDK/output/mx6sdl/lib/libboard_sabre_ai_rev_c.a(uart_iomux_config.o)
 .debug_aranges
                0x0000000000000418       0x20 /home/leon/git/swp-report/iMX6_Platform_SDK/output/mx6sdl/lib/libboard_sabre_ai_rev_c.a(iomux_config.o)
 .debug_aranges
                0x0000000000000438       0x20 /home/leon/git/swp-report/iMX6_Platform_SDK/output/mx6sdl/lib/libboard_sabre_ai_rev_c.a(ipu1_iomux_config.o)
 .debug_aranges
                0x0000000000000458       0x20 /home/leon/git/swp-report/iMX6_Platform_SDK/output/mx6sdl/lib/libboard_sabre_ai_rev_c.a(mlb_iomux_config.o)
 .debug_aranges
                0x0000000000000478       0x20 /home/leon/git/swp-report/iMX6_Platform_SDK/output/mx6sdl/lib/libboard_sabre_ai_rev_c.a(mmdc_iomux_config.o)
 .debug_aranges
                0x0000000000000498       0x20 /home/leon/git/swp-report/iMX6_Platform_SDK/output/mx6sdl/lib/libboard_sabre_ai_rev_c.a(pwm3_iomux_config.o)
 .debug_aranges
                0x00000000000004b8       0x20 /home/leon/git/swp-report/iMX6_Platform_SDK/output/mx6sdl/lib/libboard_sabre_ai_rev_c.a(pwm4_iomux_config.o)
 .debug_aranges
                0x00000000000004d8       0x20 /home/leon/git/swp-report/iMX6_Platform_SDK/output/mx6sdl/lib/libboard_sabre_ai_rev_c.a(sjc_iomux_config.o)
 .debug_aranges
                0x00000000000004f8       0x20 /home/leon/git/swp-report/iMX6_Platform_SDK/output/mx6sdl/lib/libboard_sabre_ai_rev_c.a(spdif_iomux_config.o)
 .debug_aranges
                0x0000000000000518       0x20 /home/leon/git/swp-report/iMX6_Platform_SDK/output/mx6sdl/lib/libboard_sabre_ai_rev_c.a(uart2_iomux_config.o)
 .debug_aranges
                0x0000000000000538       0x20 /home/leon/git/swp-report/iMX6_Platform_SDK/output/mx6sdl/lib/libboard_sabre_ai_rev_c.a(uart3_iomux_config.o)
 .debug_aranges
                0x0000000000000558       0x20 /home/leon/git/swp-report/iMX6_Platform_SDK/output/mx6sdl/lib/libboard_sabre_ai_rev_c.a(uart4_iomux_config.o)
 .debug_aranges
                0x0000000000000578       0x20 /home/leon/git/swp-report/iMX6_Platform_SDK/output/mx6sdl/lib/libboard_sabre_ai_rev_c.a(usdhc1_iomux_config.o)
 .debug_aranges
                0x0000000000000598       0x20 /home/leon/git/swp-report/iMX6_Platform_SDK/output/mx6sdl/lib/libboard_sabre_ai_rev_c.a(usdhc3_iomux_config.o)
 .debug_aranges
                0x00000000000005b8       0x20 /home/leon/git/swp-report/iMX6_Platform_SDK/output/mx6sdl/lib/libboard_sabre_ai_rev_c.a(wdog1_iomux_config.o)
 .debug_aranges
                0x00000000000005d8       0x20 /home/leon/git/swp-report/iMX6_Platform_SDK/output/mx6sdl/lib/libboard_sabre_ai_rev_c.a(audmux_iomux_config.o)
 .debug_aranges
                0x00000000000005f8       0x20 /home/leon/git/swp-report/iMX6_Platform_SDK/output/mx6sdl/lib/libboard_sabre_ai_rev_c.a(ccm_iomux_config.o)
 .debug_aranges
                0x0000000000000618       0x20 /home/leon/git/swp-report/iMX6_Platform_SDK/output/mx6sdl/lib/libboard_sabre_ai_rev_c.a(ecspi1_iomux_config.o)
 .debug_aranges
                0x0000000000000638       0x20 /home/leon/git/swp-report/iMX6_Platform_SDK/output/mx6sdl/lib/libboard_sabre_ai_rev_c.a(eim_iomux_config.o)
 .debug_aranges
                0x0000000000000658       0x20 /home/leon/git/swp-report/iMX6_Platform_SDK/output/mx6sdl/lib/libboard_sabre_ai_rev_c.a(enet_iomux_config.o)
 .debug_aranges
                0x0000000000000678       0x20 /home/leon/git/swp-report/iMX6_Platform_SDK/output/mx6sdl/lib/libboard_sabre_ai_rev_c.a(esai_iomux_config.o)
 .debug_aranges
                0x0000000000000698       0x20 /home/leon/git/swp-report/iMX6_Platform_SDK/output/mx6sdl/lib/libboard_sabre_ai_rev_c.a(flexcan1_iomux_config.o)
 .debug_aranges
                0x00000000000006b8       0x20 /home/leon/git/swp-report/iMX6_Platform_SDK/output/mx6sdl/lib/libboard_sabre_ai_rev_c.a(flexcan2_iomux_config.o)
 .debug_aranges
                0x00000000000006d8       0x20 /home/leon/git/swp-report/iMX6_Platform_SDK/output/mx6sdl/lib/libboard_sabre_ai_rev_c.a(gpio1_iomux_config.o)
 .debug_aranges
                0x00000000000006f8       0x20 /home/leon/git/swp-report/iMX6_Platform_SDK/output/mx6sdl/lib/libboard_sabre_ai_rev_c.a(gpio2_iomux_config.o)
 .debug_aranges
                0x0000000000000718       0x20 /home/leon/git/swp-report/iMX6_Platform_SDK/output/mx6sdl/lib/libboard_sabre_ai_rev_c.a(gpio4_iomux_config.o)
 .debug_aranges
                0x0000000000000738       0x20 /home/leon/git/swp-report/iMX6_Platform_SDK/output/mx6sdl/lib/libboard_sabre_ai_rev_c.a(gpio5_iomux_config.o)
 .debug_aranges
                0x0000000000000758       0x20 /home/leon/git/swp-report/iMX6_Platform_SDK/output/mx6sdl/lib/libboard_sabre_ai_rev_c.a(gpio6_iomux_config.o)
 .debug_aranges
                0x0000000000000778       0x20 /home/leon/git/swp-report/iMX6_Platform_SDK/output/mx6sdl/lib/libboard_sabre_ai_rev_c.a(gpmi_iomux_config.o)
 .debug_aranges
                0x0000000000000798       0x20 /home/leon/git/swp-report/iMX6_Platform_SDK/output/mx6sdl/lib/libboard_sabre_ai_rev_c.a(i2c2_iomux_config.o)
 .debug_aranges
                0x00000000000007b8       0x28 /home/src/arm/target/bin/../arm-none-eabi/lib//libstdc++.a(pure.o)
 .debug_aranges
                0x00000000000007e0       0x48 /home/src/arm/target/bin/../arm-none-eabi/lib//libstdc++.a(eh_terminate.o)
 .debug_aranges
                0x0000000000000828       0x30 /home/src/arm/target/bin/../arm-none-eabi/lib//libstdc++.a(eh_arm.o)
 .debug_aranges
                0x0000000000000858       0x68 /home/src/arm/target/bin/../arm-none-eabi/lib//libstdc++.a(eh_exception.o)
 .debug_aranges
                0x00000000000008c0       0x18 /home/src/arm/target/bin/../arm-none-eabi/lib//libstdc++.a(eh_term_handler.o)
 .debug_aranges
                0x00000000000008d8       0x28 /home/src/arm/target/bin/../arm-none-eabi/lib//libstdc++.a(eh_globals.o)
 .debug_aranges
                0x0000000000000900       0x30 /home/src/arm/target/bin/../arm-none-eabi/lib//libstdc++.a(eh_call.o)
 .debug_aranges
                0x0000000000000930       0x40 /home/src/arm/target/bin/../arm-none-eabi/lib//libstdc++.a(eh_personality.o)
 .debug_aranges
                0x0000000000000970       0x18 /home/src/arm/target/bin/../arm-none-eabi/lib//libstdc++.a(eh_unex_handler.o)
 .debug_aranges
                0x0000000000000988       0x40 /home/src/arm/target/bin/../arm-none-eabi/lib//libstdc++.a(si_class_type_info.o)
 .debug_aranges
                0x00000000000009c8       0x30 /home/src/arm/target/bin/../arm-none-eabi/lib//libstdc++.a(eh_throw.o)
 .debug_aranges
                0x00000000000009f8       0x20 /home/src/arm/target/bin/../arm-none-eabi/lib//libstdc++.a(vterminate.o)
 .debug_aranges
                0x0000000000000a18       0x38 /home/src/arm/target/bin/../arm-none-eabi/lib//libstdc++.a(eh_catch.o)
 .debug_aranges
                0x0000000000000a50       0x50 /home/src/arm/target/bin/../arm-none-eabi/lib//libstdc++.a(tinfo.o)
 .debug_aranges
                0x0000000000000aa0       0x20 /home/src/arm/target/bin/../arm-none-eabi/lib//libstdc++.a(del_op.o)
 .debug_aranges
                0x0000000000000ac0       0x20 /home/src/arm/target/bin/../arm-none-eabi/lib//libstdc++.a(cp-demangle.o)
 .debug_aranges
                0x0000000000000ae0       0x50 /home/src/arm/target/bin/../arm-none-eabi/lib//libstdc++.a(class_type_info.o)
 .debug_aranges
                0x0000000000000b30       0x38 /home/src/arm/target/bin/../arm-none-eabi/lib//libstdc++.a(eh_alloc.o)
 .debug_aranges
                0x0000000000000b68       0x20 /home/src/arm/target/bin/../arm-none-eabi/lib//libstdc++.a(eh_type.o)
 .debug_aranges
                0x0000000000000b88       0x20 /home/src/arm/target/bin/../arm-none-eabi/lib//libc.a(lib_a-abort.o)
 .debug_aranges
                0x0000000000000ba8       0x20 /home/src/arm/target/bin/../arm-none-eabi/lib//libc.a(lib_a-assert.o)
 .debug_aranges
                0x0000000000000bc8       0x20 /home/src/arm/target/bin/../arm-none-eabi/lib//libc.a(lib_a-bzero.o)
 .debug_aranges
                0x0000000000000be8       0x20 /home/src/arm/target/bin/../arm-none-eabi/lib//libc.a(lib_a-fiprintf.o)
 .debug_aranges
                0x0000000000000c08       0x20 /home/src/arm/target/bin/../arm-none-eabi/lib//libc.a(lib_a-fputc.o)
 .debug_aranges
                0x0000000000000c28       0x20 /home/src/arm/target/bin/../arm-none-eabi/lib//libc.a(lib_a-fputs.o)
 .debug_aranges
                0x0000000000000c48       0x20 /home/src/arm/target/bin/../arm-none-eabi/lib//libc.a(lib_a-fvwrite.o)
 .debug_aranges
                0x0000000000000c68       0x20 /home/src/arm/target/bin/../arm-none-eabi/lib//libc.a(lib_a-fwrite.o)
 .debug_aranges
                0x0000000000000c88       0x18 /home/src/arm/target/bin/../arm-none-eabi/lib//libc.a(lib_a-impure.o)
 .debug_aranges
                0x0000000000000ca0       0x20 /home/src/arm/target/bin/../arm-none-eabi/lib//libc.a(lib_a-init.o)
 .debug_aranges
                0x0000000000000cc0       0x20 /home/src/arm/target/bin/../arm-none-eabi/lib//libc.a(lib_a-malloc.o)
 .debug_aranges
                0x0000000000000ce0       0x20 /home/src/arm/target/bin/../arm-none-eabi/lib//libc.a(lib_a-mallocr.o)
 .debug_aranges
                0x0000000000000d00       0x20 /home/src/arm/target/bin/../arm-none-eabi/lib//libc.a(lib_a-memchr-stub.o)
 .debug_aranges
                0x0000000000000d20       0x20 /home/src/arm/target/bin/../arm-none-eabi/lib//libc.a(lib_a-memcmp.o)
 .debug_aranges
                0x0000000000000d40       0x20 /home/src/arm/target/bin/../arm-none-eabi/lib//libc.a(lib_a-memcpy-stub.o)
 .debug_aranges
                0x0000000000000d60       0x20 /home/src/arm/target/bin/../arm-none-eabi/lib//libc.a(lib_a-memmove.o)
 .debug_aranges
                0x0000000000000d80       0x20 /home/src/arm/target/bin/../arm-none-eabi/lib//libc.a(lib_a-memset.o)
 .debug_aranges
                0x0000000000000da0       0x20 /home/src/arm/target/bin/../arm-none-eabi/lib//libc.a(lib_a-mlock.o)
 .debug_aranges
                0x0000000000000dc0       0x20 /home/src/arm/target/bin/../arm-none-eabi/lib//libc.a(lib_a-printf.o)
 .debug_aranges
                0x0000000000000de0       0x20 /home/src/arm/target/bin/../arm-none-eabi/lib//libc.a(lib_a-putc.o)
 .debug_aranges
                0x0000000000000e00       0x20 /home/src/arm/target/bin/../arm-none-eabi/lib//libc.a(lib_a-realloc.o)
 .debug_aranges
                0x0000000000000e20       0x20 /home/src/arm/target/bin/../arm-none-eabi/lib//libc.a(lib_a-reallocr.o)
 .debug_aranges
                0x0000000000000e40       0x20 /home/src/arm/target/bin/../arm-none-eabi/lib//libc.a(lib_a-rget.o)
 .debug_aranges
                0x0000000000000e60       0x20 /home/src/arm/target/bin/../arm-none-eabi/lib//libc.a(lib_a-sbrkr.o)
 .debug_aranges
                0x0000000000000e80       0x20 /home/src/arm/target/bin/../arm-none-eabi/lib//libc.a(lib_a-signal.o)
 .debug_aranges
                0x0000000000000ea0       0x20 /home/src/arm/target/bin/../arm-none-eabi/lib//libc.a(lib_a-signalr.o)
 .debug_aranges
                0x0000000000000ec0       0x20 /home/src/arm/target/bin/../arm-none-eabi/lib//libc.a(lib_a-sprintf.o)
 .debug_aranges
                0x0000000000000ee0       0x20 /home/src/arm/target/bin/../arm-none-eabi/lib//libc.a(lib_a-strcmp.o)
 .debug_aranges
                0x0000000000000f00       0x20 /home/src/arm/target/bin/../arm-none-eabi/lib//libc.a(lib_a-strlen.o)
 .debug_aranges
                0x0000000000000f20       0x20 /home/src/arm/target/bin/../arm-none-eabi/lib//libc.a(lib_a-strncmp.o)
 .debug_aranges
                0x0000000000000f40       0x20 /home/src/arm/target/bin/../arm-none-eabi/lib//libc.a(lib_a-svfprintf.o)
 .debug_aranges
                0x0000000000000f60       0x20 /home/src/arm/target/bin/../arm-none-eabi/lib//libc.a(lib_a-syscalls.o)
 .debug_aranges
                0x0000000000000f80       0x20 /home/src/arm/target/bin/../arm-none-eabi/lib//libc.a(lib_a-syswrite.o)
 .debug_aranges
                0x0000000000000fa0       0x20 /home/src/arm/target/bin/../arm-none-eabi/lib//libc.a(lib_a-vfiprintf.o)
 .debug_aranges
                0x0000000000000fc0       0x20 /home/src/arm/target/bin/../arm-none-eabi/lib//libc.a(lib_a-vfprintf.o)
 .debug_aranges
                0x0000000000000fe0       0x20 /home/src/arm/target/bin/../arm-none-eabi/lib//libc.a(lib_a-vprintf.o)
 .debug_aranges
                0x0000000000001000       0x20 /home/src/arm/target/bin/../arm-none-eabi/lib//libc.a(lib_a-wbuf.o)
 .debug_aranges
                0x0000000000001020       0x20 /home/src/arm/target/bin/../arm-none-eabi/lib//libc.a(lib_a-writer.o)
 .debug_aranges
                0x0000000000001040       0x20 /home/src/arm/target/bin/../arm-none-eabi/lib//libc.a(lib_a-wsetup.o)
 .debug_aranges
                0x0000000000001060       0x20 /home/src/arm/target/bin/../arm-none-eabi/lib//libc.a(lib_a-dtoa.o)
 .debug_aranges
                0x0000000000001080       0x20 /home/src/arm/target/bin/../arm-none-eabi/lib//libc.a(lib_a-errno.o)
 .debug_aranges
                0x00000000000010a0       0x20 /home/src/arm/target/bin/../arm-none-eabi/lib//libc.a(lib_a-fflush.o)
 .debug_aranges
                0x00000000000010c0       0x20 /home/src/arm/target/bin/../arm-none-eabi/lib//libc.a(lib_a-findfp.o)
 .debug_aranges
                0x00000000000010e0       0x20 /home/src/arm/target/bin/../arm-none-eabi/lib//libc.a(lib_a-fputwc.o)
 .debug_aranges
                0x0000000000001100       0x20 /home/src/arm/target/bin/../arm-none-eabi/lib//libc.a(lib_a-freer.o)
 .debug_aranges
                0x0000000000001120       0x20 /home/src/arm/target/bin/../arm-none-eabi/lib//libc.a(lib_a-fwalk.o)
 .debug_aranges
                0x0000000000001140       0x20 /home/src/arm/target/bin/../arm-none-eabi/lib//libc.a(lib_a-locale.o)
 .debug_aranges
                0x0000000000001160       0x20 /home/src/arm/target/bin/../arm-none-eabi/lib//libc.a(lib_a-makebuf.o)
 .debug_aranges
                0x0000000000001180       0x20 /home/src/arm/target/bin/../arm-none-eabi/lib//libc.a(lib_a-mprec.o)
 .debug_aranges
                0x00000000000011a0       0x20 /home/src/arm/target/bin/../arm-none-eabi/lib//libc.a(lib_a-reent.o)
 .debug_aranges
                0x00000000000011c0       0x20 /home/src/arm/target/bin/../arm-none-eabi/lib//libc.a(lib_a-refill.o)
 .debug_aranges
                0x00000000000011e0       0x20 /home/src/arm/target/bin/../arm-none-eabi/lib//libc.a(lib_a-s_fpclassify.o)
 .debug_aranges
                0x0000000000001200       0x20 /home/src/arm/target/bin/../arm-none-eabi/lib//libc.a(lib_a-stdio.o)
 .debug_aranges
                0x0000000000001220       0x20 /home/src/arm/target/bin/../arm-none-eabi/lib//libc.a(lib_a-svfiprintf.o)
 .debug_aranges
                0x0000000000001240       0x20 /home/src/arm/target/bin/../arm-none-eabi/lib//libc.a(lib_a-wcrtomb.o)
 .debug_aranges
                0x0000000000001260       0x20 /home/src/arm/target/bin/../arm-none-eabi/lib//libc.a(lib_a-wctomb_r.o)
 .debug_aranges
                0x0000000000001280       0x20 /home/src/arm/target/bin/../arm-none-eabi/lib//libc.a(lib_a-callocr.o)
 .debug_aranges
                0x00000000000012a0       0x20 /home/src/arm/target/bin/../arm-none-eabi/lib//libc.a(lib_a-closer.o)
 .debug_aranges
                0x00000000000012c0       0x20 /home/src/arm/target/bin/../arm-none-eabi/lib//libc.a(lib_a-fclose.o)
 .debug_aranges
                0x00000000000012e0       0x20 /home/src/arm/target/bin/../arm-none-eabi/lib//libc.a(lib_a-fstatr.o)
 .debug_aranges
                0x0000000000001300       0x20 /home/src/arm/target/bin/../arm-none-eabi/lib//libc.a(lib_a-isattyr.o)
 .debug_aranges
                0x0000000000001320       0x20 /home/src/arm/target/bin/../arm-none-eabi/lib//libc.a(lib_a-lseekr.o)
 .debug_aranges
                0x0000000000001340       0x20 /home/src/arm/target/bin/../arm-none-eabi/lib//libc.a(lib_a-readr.o)
 .debug_aranges
                0x0000000000001360       0x20 /home/src/arm/target/bin/../lib/gcc/arm-none-eabi/4.8.2//libgcc.a(_udivsi3.o)
 .debug_aranges
                0x0000000000001380       0x20 /home/src/arm/target/bin/../lib/gcc/arm-none-eabi/4.8.2//libgcc.a(_divsi3.o)
 .debug_aranges
                0x00000000000013a0       0x20 /home/src/arm/target/bin/../lib/gcc/arm-none-eabi/4.8.2//libgcc.a(_dvmd_tls.o)
 .debug_aranges
                0x00000000000013c0       0x20 /home/src/arm/target/bin/../lib/gcc/arm-none-eabi/4.8.2//libgcc.a(_arm_addsubdf3.o)
 .debug_aranges
                0x00000000000013e0       0x20 /home/src/arm/target/bin/../lib/gcc/arm-none-eabi/4.8.2//libgcc.a(_arm_muldivdf3.o)
 .debug_aranges
                0x0000000000001400       0x20 /home/src/arm/target/bin/../lib/gcc/arm-none-eabi/4.8.2//libgcc.a(_arm_cmpdf2.o)
 .debug_aranges
                0x0000000000001420       0x20 /home/src/arm/target/bin/../lib/gcc/arm-none-eabi/4.8.2//libgcc.a(_arm_fixdfsi.o)
 .debug_aranges
                0x0000000000001440       0x20 /home/src/arm/target/bin/../lib/gcc/arm-none-eabi/4.8.2//libgcc.a(_aeabi_uldivmod.o)
 .debug_aranges
                0x0000000000001460       0x20 /home/src/arm/target/bin/../lib/gcc/arm-none-eabi/4.8.2//libgcc.a(bpabi.o)
 .debug_aranges
                0x0000000000001480       0x20 /home/src/arm/target/bin/../lib/gcc/arm-none-eabi/4.8.2//libgcc.a(unwind-arm.o)
 .debug_aranges
                0x00000000000014a0       0x20 /home/src/arm/target/bin/../lib/gcc/arm-none-eabi/4.8.2//libgcc.a(libunwind.o)
 .debug_aranges
                0x00000000000014c0       0x20 /home/src/arm/target/bin/../lib/gcc/arm-none-eabi/4.8.2//libgcc.a(pr-support.o)
 .debug_aranges
                0x00000000000014e0       0x20 /home/src/arm/target/bin/../lib/gcc/arm-none-eabi/4.8.2//libgcc.a(_divdi3.o)
 .debug_aranges
                0x0000000000001500       0x20 /home/src/arm/target/bin/../lib/gcc/arm-none-eabi/4.8.2//libgcc.a(_udivdi3.o)
 .debug_aranges
                0x0000000000001520       0x20 /home/src/arm/target/bin/../lib/gcc/arm-none-eabi/4.8.2//libgcc.a(_clzsi2.o)
 .debug_aranges
                0x0000000000001540       0x20 /home/leon/git/swp-report/iMX6_Platform_SDK/output/mx6sdl/lib/libsdk.a(max7310.o)
 .debug_aranges
                0x0000000000001560       0x20 /home/leon/git/swp-report/iMX6_Platform_SDK/output/mx6sdl/lib/libsdk.a(gpio.o)
 .debug_aranges
                0x0000000000001580       0x18 /home/leon/git/swp-report/iMX6_Platform_SDK/output/mx6sdl/lib/libsdk.a(imx6sdl_gpio_map.o)
 .debug_aranges
                0x0000000000001598       0x20 /home/leon/git/swp-report/iMX6_Platform_SDK/output/mx6sdl/lib/libsdk.a(imx_i2c.o)
 .debug_aranges
                0x00000000000015b8       0x20 /home/leon/git/swp-report/iMX6_Platform_SDK/output/mx6sdl/lib/libboard_sabre_ai_rev_c.a(i2c_iomux_config.o)

.debug_line     0x0000000000000000    0x14f2a
 .debug_line    0x0000000000000000       0xf2 /home/leon/git/swp-report/iMX6_Platform_SDK/output/mx6sdl/stream/sabre_ai_rev_c/obj/apps/common/ivt.o
 .debug_line    0x00000000000000f2      0x26f /home/leon/git/swp-report/iMX6_Platform_SDK/output/mx6sdl/stream/sabre_ai_rev_c/obj/apps/common/platform_init.o
 .debug_line    0x0000000000000361      0x1a8 /home/leon/git/swp-report/iMX6_Platform_SDK/output/mx6sdl/stream/sabre_ai_rev_c/obj/apps/common/print_version.o
 .debug_line    0x0000000000000509      0x26d /home/leon/git/swp-report/iMX6_Platform_SDK/output/mx6sdl/stream/sabre_ai_rev_c/obj/apps/stream/src/main.o
 .debug_line    0x0000000000000776      0x2d5 /home/leon/git/swp-report/iMX6_Platform_SDK/output/mx6sdl/stream/sabre_ai_rev_c/obj/apps/stream/src/stream.o
 .debug_line    0x0000000000000a4b      0x29e /home/leon/git/swp-report/iMX6_Platform_SDK/output/mx6sdl/lib/libsdk.a(ccm_pll.o)
 .debug_line    0x0000000000000ce9      0x154 /home/leon/git/swp-report/iMX6_Platform_SDK/output/mx6sdl/lib/libsdk.a(gic.o)
 .debug_line    0x0000000000000e3d      0x177 /home/leon/git/swp-report/iMX6_Platform_SDK/output/mx6sdl/lib/libsdk.a(mmu.o)
 .debug_line    0x0000000000000fb4       0x6a /home/leon/git/swp-report/iMX6_Platform_SDK/output/mx6sdl/lib/libsdk.a(sdk_version.o)
 .debug_line    0x000000000000101e      0x33d /home/leon/git/swp-report/iMX6_Platform_SDK/output/mx6sdl/lib/libsdk.a(system_util.o)
 .debug_line    0x000000000000135b       0xdf /home/leon/git/swp-report/iMX6_Platform_SDK/output/mx6sdl/lib/libsdk.a(text_color.o)
 .debug_line    0x000000000000143a      0x266 /home/leon/git/swp-report/iMX6_Platform_SDK/output/mx6sdl/lib/libsdk.a(board_id.o)
 .debug_line    0x00000000000016a0      0x209 /home/leon/git/swp-report/iMX6_Platform_SDK/output/mx6sdl/lib/libsdk.a(cpu_workpoint.o)
 .debug_line    0x00000000000018a9      0x8d5 /home/leon/git/swp-report/iMX6_Platform_SDK/output/mx6sdl/lib/libsdk.a(pmu_driver.o)
 .debug_line    0x000000000000217e      0x56a /home/leon/git/swp-report/iMX6_Platform_SDK/output/mx6sdl/lib/libsdk.a(epit.o)
 .debug_line    0x00000000000026e8      0x1ec /home/leon/git/swp-report/iMX6_Platform_SDK/output/mx6sdl/lib/libsdk.a(timer.o)
 .debug_line    0x00000000000028d4     0x12ba /home/leon/git/swp-report/iMX6_Platform_SDK/output/mx6sdl/lib/libsdk.a(imx_uart.o)
 .debug_line    0x0000000000003b8e      0x170 /home/leon/git/swp-report/iMX6_Platform_SDK/output/mx6sdl/lib/libsdk.a(interrupt.o)
 .debug_line    0x0000000000003cfe      0x230 /home/leon/git/swp-report/iMX6_Platform_SDK/output/mx6sdl/lib/libsdk.a(abort_handler.o)
 .debug_line    0x0000000000003f2e      0x16f /home/leon/git/swp-report/iMX6_Platform_SDK/output/mx6sdl/lib/libboard_sabre_ai_rev_c.a(board_io_expanders.o)
 .debug_line    0x000000000000409d       0xb7 /home/leon/git/swp-report/iMX6_Platform_SDK/output/mx6sdl/lib/libboard_sabre_ai_rev_c.a(hardware_modules.o)
 .debug_line    0x0000000000004154       0xfc /home/leon/git/swp-report/iMX6_Platform_SDK/output/mx6sdl/lib/libboard_sabre_ai_rev_c.a(dcd.o)
 .debug_line    0x0000000000004250      0x107 /home/leon/git/swp-report/iMX6_Platform_SDK/output/mx6sdl/lib/libboard_sabre_ai_rev_c.a(i2c3_iomux_config.o)
 .debug_line    0x0000000000004357       0x9a /home/leon/git/swp-report/iMX6_Platform_SDK/output/mx6sdl/lib/libboard_sabre_ai_rev_c.a(uart_iomux_config.o)
 .debug_line    0x00000000000043f1       0xf2 /home/leon/git/swp-report/iMX6_Platform_SDK/output/mx6sdl/lib/libboard_sabre_ai_rev_c.a(iomux_config.o)
 .debug_line    0x00000000000044e3      0x1f3 /home/leon/git/swp-report/iMX6_Platform_SDK/output/mx6sdl/lib/libboard_sabre_ai_rev_c.a(ipu1_iomux_config.o)
 .debug_line    0x00000000000046d6      0x10f /home/leon/git/swp-report/iMX6_Platform_SDK/output/mx6sdl/lib/libboard_sabre_ai_rev_c.a(mlb_iomux_config.o)
 .debug_line    0x00000000000047e5      0x5d7 /home/leon/git/swp-report/iMX6_Platform_SDK/output/mx6sdl/lib/libboard_sabre_ai_rev_c.a(mmdc_iomux_config.o)
 .debug_line    0x0000000000004dbc       0xfd /home/leon/git/swp-report/iMX6_Platform_SDK/output/mx6sdl/lib/libboard_sabre_ai_rev_c.a(pwm3_iomux_config.o)
 .debug_line    0x0000000000004eb9       0xfd /home/leon/git/swp-report/iMX6_Platform_SDK/output/mx6sdl/lib/libboard_sabre_ai_rev_c.a(pwm4_iomux_config.o)
 .debug_line    0x0000000000004fb6      0x106 /home/leon/git/swp-report/iMX6_Platform_SDK/output/mx6sdl/lib/libboard_sabre_ai_rev_c.a(sjc_iomux_config.o)
 .debug_line    0x00000000000050bc       0xff /home/leon/git/swp-report/iMX6_Platform_SDK/output/mx6sdl/lib/libboard_sabre_ai_rev_c.a(spdif_iomux_config.o)
 .debug_line    0x00000000000051bb      0x11a /home/leon/git/swp-report/iMX6_Platform_SDK/output/mx6sdl/lib/libboard_sabre_ai_rev_c.a(uart2_iomux_config.o)
 .debug_line    0x00000000000052d5      0x11a /home/leon/git/swp-report/iMX6_Platform_SDK/output/mx6sdl/lib/libboard_sabre_ai_rev_c.a(uart3_iomux_config.o)
 .debug_line    0x00000000000053ef      0x108 /home/leon/git/swp-report/iMX6_Platform_SDK/output/mx6sdl/lib/libboard_sabre_ai_rev_c.a(uart4_iomux_config.o)
 .debug_line    0x00000000000054f7      0x13e /home/leon/git/swp-report/iMX6_Platform_SDK/output/mx6sdl/lib/libboard_sabre_ai_rev_c.a(usdhc1_iomux_config.o)
 .debug_line    0x0000000000005635      0x144 /home/leon/git/swp-report/iMX6_Platform_SDK/output/mx6sdl/lib/libboard_sabre_ai_rev_c.a(usdhc3_iomux_config.o)
 .debug_line    0x0000000000005779       0xfe /home/leon/git/swp-report/iMX6_Platform_SDK/output/mx6sdl/lib/libboard_sabre_ai_rev_c.a(wdog1_iomux_config.o)
 .debug_line    0x0000000000005877      0x12c /home/leon/git/swp-report/iMX6_Platform_SDK/output/mx6sdl/lib/libboard_sabre_ai_rev_c.a(audmux_iomux_config.o)
 .debug_line    0x00000000000059a3       0xfa /home/leon/git/swp-report/iMX6_Platform_SDK/output/mx6sdl/lib/libboard_sabre_ai_rev_c.a(ccm_iomux_config.o)
 .debug_line    0x0000000000005a9d      0x121 /home/leon/git/swp-report/iMX6_Platform_SDK/output/mx6sdl/lib/libboard_sabre_ai_rev_c.a(ecspi1_iomux_config.o)
 .debug_line    0x0000000000005bbe      0x1fe /home/leon/git/swp-report/iMX6_Platform_SDK/output/mx6sdl/lib/libboard_sabre_ai_rev_c.a(eim_iomux_config.o)
 .debug_line    0x0000000000005dbc      0x19a /home/leon/git/swp-report/iMX6_Platform_SDK/output/mx6sdl/lib/libboard_sabre_ai_rev_c.a(enet_iomux_config.o)
 .debug_line    0x0000000000005f56      0x14f /home/leon/git/swp-report/iMX6_Platform_SDK/output/mx6sdl/lib/libboard_sabre_ai_rev_c.a(esai_iomux_config.o)
 .debug_line    0x00000000000060a5      0x10a /home/leon/git/swp-report/iMX6_Platform_SDK/output/mx6sdl/lib/libboard_sabre_ai_rev_c.a(flexcan1_iomux_config.o)
 .debug_line    0x00000000000061af      0x10a /home/leon/git/swp-report/iMX6_Platform_SDK/output/mx6sdl/lib/libboard_sabre_ai_rev_c.a(flexcan2_iomux_config.o)
 .debug_line    0x00000000000062b9      0x126 /home/leon/git/swp-report/iMX6_Platform_SDK/output/mx6sdl/lib/libboard_sabre_ai_rev_c.a(gpio1_iomux_config.o)
 .debug_line    0x00000000000063df      0x122 /home/leon/git/swp-report/iMX6_Platform_SDK/output/mx6sdl/lib/libboard_sabre_ai_rev_c.a(gpio2_iomux_config.o)
 .debug_line    0x0000000000006501      0x104 /home/leon/git/swp-report/iMX6_Platform_SDK/output/mx6sdl/lib/libboard_sabre_ai_rev_c.a(gpio4_iomux_config.o)
 .debug_line    0x0000000000006605      0x11c /home/leon/git/swp-report/iMX6_Platform_SDK/output/mx6sdl/lib/libboard_sabre_ai_rev_c.a(gpio5_iomux_config.o)
 .debug_line    0x0000000000006721      0x104 /home/leon/git/swp-report/iMX6_Platform_SDK/output/mx6sdl/lib/libboard_sabre_ai_rev_c.a(gpio6_iomux_config.o)
 .debug_line    0x0000000000006825      0x15d /home/leon/git/swp-report/iMX6_Platform_SDK/output/mx6sdl/lib/libboard_sabre_ai_rev_c.a(gpmi_iomux_config.o)
 .debug_line    0x0000000000006982      0x107 /home/leon/git/swp-report/iMX6_Platform_SDK/output/mx6sdl/lib/libboard_sabre_ai_rev_c.a(i2c2_iomux_config.o)
 .debug_line    0x0000000000006a89      0x13b /home/src/arm/target/bin/../arm-none-eabi/lib//libstdc++.a(pure.o)
 .debug_line    0x0000000000006bc4      0x1e1 /home/src/arm/target/bin/../arm-none-eabi/lib//libstdc++.a(eh_terminate.o)
 .debug_line    0x0000000000006da5      0x1fd /home/src/arm/target/bin/../arm-none-eabi/lib//libstdc++.a(eh_arm.o)
 .debug_line    0x0000000000006fa2      0x1ad /home/src/arm/target/bin/../arm-none-eabi/lib//libstdc++.a(eh_exception.o)
 .debug_line    0x000000000000714f       0xb9 /home/src/arm/target/bin/../arm-none-eabi/lib//libstdc++.a(eh_term_handler.o)
 .debug_line    0x0000000000007208      0x1aa /home/src/arm/target/bin/../arm-none-eabi/lib//libstdc++.a(eh_globals.o)
 .debug_line    0x00000000000073b2      0x254 /home/src/arm/target/bin/../arm-none-eabi/lib//libstdc++.a(eh_call.o)
 .debug_line    0x0000000000007606      0x55f /home/src/arm/target/bin/../arm-none-eabi/lib//libstdc++.a(eh_personality.o)
 .debug_line    0x0000000000007b65       0xb9 /home/src/arm/target/bin/../arm-none-eabi/lib//libstdc++.a(eh_unex_handler.o)
 .debug_line    0x0000000000007c1e      0x19b /home/src/arm/target/bin/../arm-none-eabi/lib//libstdc++.a(si_class_type_info.o)
 .debug_line    0x0000000000007db9      0x21d /home/src/arm/target/bin/../arm-none-eabi/lib//libstdc++.a(eh_throw.o)
 .debug_line    0x0000000000007fd6      0x219 /home/src/arm/target/bin/../arm-none-eabi/lib//libstdc++.a(vterminate.o)
 .debug_line    0x00000000000081ef      0x25c /home/src/arm/target/bin/../arm-none-eabi/lib//libstdc++.a(eh_catch.o)
 .debug_line    0x000000000000844b      0x14a /home/src/arm/target/bin/../arm-none-eabi/lib//libstdc++.a(tinfo.o)
 .debug_line    0x0000000000008595      0x129 /home/src/arm/target/bin/../arm-none-eabi/lib//libstdc++.a(del_op.o)
 .debug_line    0x00000000000086be     0x1dfc /home/src/arm/target/bin/../arm-none-eabi/lib//libstdc++.a(cp-demangle.o)
 .debug_line    0x000000000000a4ba      0x1c9 /home/src/arm/target/bin/../arm-none-eabi/lib//libstdc++.a(class_type_info.o)
 .debug_line    0x000000000000a683      0x2f2 /home/src/arm/target/bin/../arm-none-eabi/lib//libstdc++.a(eh_alloc.o)
 .debug_line    0x000000000000a975      0x112 /home/src/arm/target/bin/../arm-none-eabi/lib//libstdc++.a(eh_type.o)
 .debug_line    0x000000000000aa87       0xf1 /home/src/arm/target/bin/../arm-none-eabi/lib//libc.a(lib_a-abort.o)
 .debug_line    0x000000000000ab78      0x167 /home/src/arm/target/bin/../arm-none-eabi/lib//libc.a(lib_a-assert.o)
 .debug_line    0x000000000000acdf       0xf2 /home/src/arm/target/bin/../arm-none-eabi/lib//libc.a(lib_a-bzero.o)
 .debug_line    0x000000000000add1      0x16b /home/src/arm/target/bin/../arm-none-eabi/lib//libc.a(lib_a-fiprintf.o)
 .debug_line    0x000000000000af3c      0x168 /home/src/arm/target/bin/../arm-none-eabi/lib//libc.a(lib_a-fputc.o)
 .debug_line    0x000000000000b0a4      0x18b /home/src/arm/target/bin/../arm-none-eabi/lib//libc.a(lib_a-fputs.o)
 .debug_line    0x000000000000b22f      0x292 /home/src/arm/target/bin/../arm-none-eabi/lib//libc.a(lib_a-fvwrite.o)
 .debug_line    0x000000000000b4c1      0x18b /home/src/arm/target/bin/../arm-none-eabi/lib//libc.a(lib_a-fwrite.o)
 .debug_line    0x000000000000b64c       0xf8 /home/src/arm/target/bin/../arm-none-eabi/lib//libc.a(lib_a-impure.o)
 .debug_line    0x000000000000b744       0xd8 /home/src/arm/target/bin/../arm-none-eabi/lib//libc.a(lib_a-init.o)
 .debug_line    0x000000000000b81c      0x14d /home/src/arm/target/bin/../arm-none-eabi/lib//libc.a(lib_a-malloc.o)
 .debug_line    0x000000000000b969      0x340 /home/src/arm/target/bin/../arm-none-eabi/lib//libc.a(lib_a-mallocr.o)
 .debug_line    0x000000000000bca9      0x139 /home/src/arm/target/bin/../arm-none-eabi/lib//libc.a(lib_a-memchr-stub.o)
 .debug_line    0x000000000000bde2      0x119 /home/src/arm/target/bin/../arm-none-eabi/lib//libc.a(lib_a-memcmp.o)
 .debug_line    0x000000000000befb      0x13d /home/src/arm/target/bin/../arm-none-eabi/lib//libc.a(lib_a-memcpy-stub.o)
 .debug_line    0x000000000000c038      0x134 /home/src/arm/target/bin/../arm-none-eabi/lib//libc.a(lib_a-memmove.o)
 .debug_line    0x000000000000c16c      0x128 /home/src/arm/target/bin/../arm-none-eabi/lib//libc.a(lib_a-memset.o)
 .debug_line    0x000000000000c294      0x10a /home/src/arm/target/bin/../arm-none-eabi/lib//libc.a(lib_a-mlock.o)
 .debug_line    0x000000000000c39e      0x169 /home/src/arm/target/bin/../arm-none-eabi/lib//libc.a(lib_a-printf.o)
 .debug_line    0x000000000000c507      0x1af /home/src/arm/target/bin/../arm-none-eabi/lib//libc.a(lib_a-putc.o)
 .debug_line    0x000000000000c6b6      0x148 /home/src/arm/target/bin/../arm-none-eabi/lib//libc.a(lib_a-realloc.o)
 .debug_line    0x000000000000c7fe      0x23f /home/src/arm/target/bin/../arm-none-eabi/lib//libc.a(lib_a-reallocr.o)
 .debug_line    0x000000000000ca3d      0x16a /home/src/arm/target/bin/../arm-none-eabi/lib//libc.a(lib_a-rget.o)
 .debug_line    0x000000000000cba7      0x155 /home/src/arm/target/bin/../arm-none-eabi/lib//libc.a(lib_a-sbrkr.o)
 .debug_line    0x000000000000ccfc      0x1e8 /home/src/arm/target/bin/../arm-none-eabi/lib//libc.a(lib_a-signal.o)
 .debug_line    0x000000000000cee4      0x159 /home/src/arm/target/bin/../arm-none-eabi/lib//libc.a(lib_a-signalr.o)
 .debug_line    0x000000000000d03d      0x1a4 /home/src/arm/target/bin/../arm-none-eabi/lib//libc.a(lib_a-sprintf.o)
 .debug_line    0x000000000000d1e1      0x107 /home/src/arm/target/bin/../arm-none-eabi/lib//libc.a(lib_a-strcmp.o)
 .debug_line    0x000000000000d2e8       0xf9 /home/src/arm/target/bin/../arm-none-eabi/lib//libc.a(lib_a-strlen.o)
 .debug_line    0x000000000000d3e1      0x15d /home/src/arm/target/bin/../arm-none-eabi/lib//libc.a(lib_a-strncmp.o)
 .debug_line    0x000000000000d53e      0x897 /home/src/arm/target/bin/../arm-none-eabi/lib//libc.a(lib_a-svfprintf.o)
 .debug_line    0x000000000000ddd5      0x495 /home/src/arm/target/bin/../arm-none-eabi/lib//libc.a(lib_a-syscalls.o)
 .debug_line    0x000000000000e26a      0x156 /home/src/arm/target/bin/../arm-none-eabi/lib//libc.a(lib_a-syswrite.o)
 .debug_line    0x000000000000e3c0      0x650 /home/src/arm/target/bin/../arm-none-eabi/lib//libc.a(lib_a-vfiprintf.o)
 .debug_line    0x000000000000ea10      0x8c4 /home/src/arm/target/bin/../arm-none-eabi/lib//libc.a(lib_a-vfprintf.o)
 .debug_line    0x000000000000f2d4      0x166 /home/src/arm/target/bin/../arm-none-eabi/lib//libc.a(lib_a-vprintf.o)
 .debug_line    0x000000000000f43a      0x1ad /home/src/arm/target/bin/../arm-none-eabi/lib//libc.a(lib_a-wbuf.o)
 .debug_line    0x000000000000f5e7      0x153 /home/src/arm/target/bin/../arm-none-eabi/lib//libc.a(lib_a-writer.o)
 .debug_line    0x000000000000f73a      0x1ca /home/src/arm/target/bin/../arm-none-eabi/lib//libc.a(lib_a-wsetup.o)
 .debug_line    0x000000000000f904      0x64f /home/src/arm/target/bin/../arm-none-eabi/lib//libc.a(lib_a-dtoa.o)
 .debug_line    0x000000000000ff53      0x113 /home/src/arm/target/bin/../arm-none-eabi/lib//libc.a(lib_a-errno.o)
 .debug_line    0x0000000000010066      0x231 /home/src/arm/target/bin/../arm-none-eabi/lib//libc.a(lib_a-fflush.o)
 .debug_line    0x0000000000010297      0x258 /home/src/arm/target/bin/../arm-none-eabi/lib//libc.a(lib_a-findfp.o)
 .debug_line    0x00000000000104ef      0x1a2 /home/src/arm/target/bin/../arm-none-eabi/lib//libc.a(lib_a-fputwc.o)
 .debug_line    0x0000000000010691      0x21d /home/src/arm/target/bin/../arm-none-eabi/lib//libc.a(lib_a-freer.o)
 .debug_line    0x00000000000108ae      0x19b /home/src/arm/target/bin/../arm-none-eabi/lib//libc.a(lib_a-fwalk.o)
 .debug_line    0x0000000000010a49      0x189 /home/src/arm/target/bin/../arm-none-eabi/lib//libc.a(lib_a-locale.o)
 .debug_line    0x0000000000010bd2      0x1db /home/src/arm/target/bin/../arm-none-eabi/lib//libc.a(lib_a-makebuf.o)
 .debug_line    0x0000000000010dad      0x598 /home/src/arm/target/bin/../arm-none-eabi/lib//libc.a(lib_a-mprec.o)
 .debug_line    0x0000000000011345      0x179 /home/src/arm/target/bin/../arm-none-eabi/lib//libc.a(lib_a-reent.o)
 .debug_line    0x00000000000114be      0x1f1 /home/src/arm/target/bin/../arm-none-eabi/lib//libc.a(lib_a-refill.o)
 .debug_line    0x00000000000116af      0x104 /home/src/arm/target/bin/../arm-none-eabi/lib//libc.a(lib_a-s_fpclassify.o)
 .debug_line    0x00000000000117b3      0x180 /home/src/arm/target/bin/../arm-none-eabi/lib//libc.a(lib_a-stdio.o)
 .debug_line    0x0000000000011933      0x590 /home/src/arm/target/bin/../arm-none-eabi/lib//libc.a(lib_a-svfiprintf.o)
 .debug_line    0x0000000000011ec3      0x180 /home/src/arm/target/bin/../arm-none-eabi/lib//libc.a(lib_a-wcrtomb.o)
 .debug_line    0x0000000000012043      0x170 /home/src/arm/target/bin/../arm-none-eabi/lib//libc.a(lib_a-wctomb_r.o)
 .debug_line    0x00000000000121b3      0x133 /home/src/arm/target/bin/../arm-none-eabi/lib//libc.a(lib_a-callocr.o)
 .debug_line    0x00000000000122e6      0x153 /home/src/arm/target/bin/../arm-none-eabi/lib//libc.a(lib_a-closer.o)
 .debug_line    0x0000000000012439      0x1a5 /home/src/arm/target/bin/../arm-none-eabi/lib//libc.a(lib_a-fclose.o)
 .debug_line    0x00000000000125de      0x168 /home/src/arm/target/bin/../arm-none-eabi/lib//libc.a(lib_a-fstatr.o)
 .debug_line    0x0000000000012746      0x154 /home/src/arm/target/bin/../arm-none-eabi/lib//libc.a(lib_a-isattyr.o)
 .debug_line    0x000000000001289a      0x153 /home/src/arm/target/bin/../arm-none-eabi/lib//libc.a(lib_a-lseekr.o)
 .debug_line    0x00000000000129ed      0x152 /home/src/arm/target/bin/../arm-none-eabi/lib//libc.a(lib_a-readr.o)
 .debug_line    0x0000000000012b3f       0x8d /home/src/arm/target/bin/../lib/gcc/arm-none-eabi/4.8.2//libgcc.a(_udivsi3.o)
 .debug_line    0x0000000000012bcc       0x99 /home/src/arm/target/bin/../lib/gcc/arm-none-eabi/4.8.2//libgcc.a(_divsi3.o)
 .debug_line    0x0000000000012c65       0x64 /home/src/arm/target/bin/../lib/gcc/arm-none-eabi/4.8.2//libgcc.a(_dvmd_tls.o)
 .debug_line    0x0000000000012cc9      0x167 /home/src/arm/target/bin/../lib/gcc/arm-none-eabi/4.8.2//libgcc.a(_arm_addsubdf3.o)
 .debug_line    0x0000000000012e30      0x183 /home/src/arm/target/bin/../lib/gcc/arm-none-eabi/4.8.2//libgcc.a(_arm_muldivdf3.o)
 .debug_line    0x0000000000012fb3       0xb1 /home/src/arm/target/bin/../lib/gcc/arm-none-eabi/4.8.2//libgcc.a(_arm_cmpdf2.o)
 .debug_line    0x0000000000013064       0x7b /home/src/arm/target/bin/../lib/gcc/arm-none-eabi/4.8.2//libgcc.a(_arm_fixdfsi.o)
 .debug_line    0x00000000000130df       0x69 /home/src/arm/target/bin/../lib/gcc/arm-none-eabi/4.8.2//libgcc.a(_aeabi_uldivmod.o)
 .debug_line    0x0000000000013148       0x6a /home/src/arm/target/bin/../lib/gcc/arm-none-eabi/4.8.2//libgcc.a(bpabi.o)
 .debug_line    0x00000000000131b2      0x4dd /home/src/arm/target/bin/../lib/gcc/arm-none-eabi/4.8.2//libgcc.a(unwind-arm.o)
 .debug_line    0x000000000001368f       0xb2 /home/src/arm/target/bin/../lib/gcc/arm-none-eabi/4.8.2//libgcc.a(libunwind.o)
 .debug_line    0x0000000000013741      0x1a4 /home/src/arm/target/bin/../lib/gcc/arm-none-eabi/4.8.2//libgcc.a(pr-support.o)
 .debug_line    0x00000000000138e5       0xe4 /home/src/arm/target/bin/../lib/gcc/arm-none-eabi/4.8.2//libgcc.a(_divdi3.o)
 .debug_line    0x00000000000139c9       0xda /home/src/arm/target/bin/../lib/gcc/arm-none-eabi/4.8.2//libgcc.a(_udivdi3.o)
 .debug_line    0x0000000000013aa3       0x71 /home/src/arm/target/bin/../lib/gcc/arm-none-eabi/4.8.2//libgcc.a(_clzsi2.o)
 .debug_line    0x0000000000013b14      0x183 /home/leon/git/swp-report/iMX6_Platform_SDK/output/mx6sdl/lib/libsdk.a(max7310.o)
 .debug_line    0x0000000000013c97      0x7aa /home/leon/git/swp-report/iMX6_Platform_SDK/output/mx6sdl/lib/libsdk.a(gpio.o)
 .debug_line    0x0000000000014441       0xbf /home/leon/git/swp-report/iMX6_Platform_SDK/output/mx6sdl/lib/libsdk.a(imx6sdl_gpio_map.o)
 .debug_line    0x0000000000014500      0x992 /home/leon/git/swp-report/iMX6_Platform_SDK/output/mx6sdl/lib/libsdk.a(imx_i2c.o)
 .debug_line    0x0000000000014e92       0x98 /home/leon/git/swp-report/iMX6_Platform_SDK/output/mx6sdl/lib/libboard_sabre_ai_rev_c.a(i2c_iomux_config.o)

.debug_str      0x0000000000000000    0x1d0c8
 .debug_str     0x0000000000000000      0x258 /home/leon/git/swp-report/iMX6_Platform_SDK/output/mx6sdl/stream/sabre_ai_rev_c/obj/apps/common/ivt.o
                                        0x2c4 (size before relaxing)
 .debug_str     0x0000000000000258      0x1e2 /home/leon/git/swp-report/iMX6_Platform_SDK/output/mx6sdl/stream/sabre_ai_rev_c/obj/apps/common/platform_init.o
                                        0x3a8 (size before relaxing)
 .debug_str     0x000000000000043a      0x160 /home/leon/git/swp-report/iMX6_Platform_SDK/output/mx6sdl/stream/sabre_ai_rev_c/obj/apps/common/print_version.o
                                        0x370 (size before relaxing)
 .debug_str     0x000000000000059a      0x27f /home/leon/git/swp-report/iMX6_Platform_SDK/output/mx6sdl/stream/sabre_ai_rev_c/obj/apps/stream/src/main.o
                                        0x487 (size before relaxing)
 .debug_str     0x0000000000000819      0x11c /home/leon/git/swp-report/iMX6_Platform_SDK/output/mx6sdl/stream/sabre_ai_rev_c/obj/apps/stream/src/stream.o
                                        0x34e (size before relaxing)
 .debug_str     0x0000000000000935     0x1031 /home/leon/git/swp-report/iMX6_Platform_SDK/output/mx6sdl/lib/libsdk.a(ccm_pll.o)
                                       0x11ad (size before relaxing)
 .debug_str     0x0000000000001966      0x4d8 /home/leon/git/swp-report/iMX6_Platform_SDK/output/mx6sdl/lib/libsdk.a(gic.o)
                                        0x705 (size before relaxing)
 .debug_str     0x0000000000001e3e      0x24d /home/leon/git/swp-report/iMX6_Platform_SDK/output/mx6sdl/lib/libsdk.a(mmu.o)
                                        0x471 (size before relaxing)
 .debug_str     0x000000000000208b       0x4a /home/leon/git/swp-report/iMX6_Platform_SDK/output/mx6sdl/lib/libsdk.a(sdk_version.o)
                                        0x195 (size before relaxing)
 .debug_str     0x00000000000020d5      0x492 /home/leon/git/swp-report/iMX6_Platform_SDK/output/mx6sdl/lib/libsdk.a(system_util.o)
                                        0x8c6 (size before relaxing)
 .debug_str     0x0000000000002567      0x1ef /home/leon/git/swp-report/iMX6_Platform_SDK/output/mx6sdl/lib/libsdk.a(text_color.o)
                                        0x418 (size before relaxing)
 .debug_str     0x0000000000002756      0x1ea /home/leon/git/swp-report/iMX6_Platform_SDK/output/mx6sdl/lib/libsdk.a(board_id.o)
                                        0x4e5 (size before relaxing)
 .debug_str     0x0000000000002940      0x48e /home/leon/git/swp-report/iMX6_Platform_SDK/output/mx6sdl/lib/libsdk.a(cpu_workpoint.o)
                                        0x73a (size before relaxing)
 .debug_str     0x0000000000002dce     0x2937 /home/leon/git/swp-report/iMX6_Platform_SDK/output/mx6sdl/lib/libsdk.a(pmu_driver.o)
                                       0x2d79 (size before relaxing)
 .debug_str     0x0000000000005705      0x2b2 /home/leon/git/swp-report/iMX6_Platform_SDK/output/mx6sdl/lib/libsdk.a(epit.o)
                                       0x1019 (size before relaxing)
 .debug_str     0x00000000000059b7      0x1e1 /home/leon/git/swp-report/iMX6_Platform_SDK/output/mx6sdl/lib/libsdk.a(timer.o)
                                        0x50b (size before relaxing)
 .debug_str     0x0000000000005b98      0x557 /home/leon/git/swp-report/iMX6_Platform_SDK/output/mx6sdl/lib/libsdk.a(imx_uart.o)
                                       0x1401 (size before relaxing)
 .debug_str     0x00000000000060ef       0xd7 /home/leon/git/swp-report/iMX6_Platform_SDK/output/mx6sdl/lib/libsdk.a(interrupt.o)
                                        0xd98 (size before relaxing)
 .debug_str     0x00000000000061c6       0xbc /home/leon/git/swp-report/iMX6_Platform_SDK/output/mx6sdl/lib/libsdk.a(abort_handler.o)
                                        0x2b4 (size before relaxing)
 .debug_str     0x0000000000006282      0x1a4 /home/leon/git/swp-report/iMX6_Platform_SDK/output/mx6sdl/lib/libboard_sabre_ai_rev_c.a(board_io_expanders.o)
                                        0x3aa (size before relaxing)
 .debug_str     0x0000000000006426       0x4c /home/leon/git/swp-report/iMX6_Platform_SDK/output/mx6sdl/lib/libboard_sabre_ai_rev_c.a(hardware_modules.o)
                                        0x265 (size before relaxing)
 .debug_str     0x0000000000006472       0xaf /home/leon/git/swp-report/iMX6_Platform_SDK/output/mx6sdl/lib/libboard_sabre_ai_rev_c.a(dcd.o)
                                        0x271 (size before relaxing)
 .debug_str     0x0000000000006521      0x347 /home/leon/git/swp-report/iMX6_Platform_SDK/output/mx6sdl/lib/libboard_sabre_ai_rev_c.a(i2c3_iomux_config.o)
                                        0x4c8 (size before relaxing)
 .debug_str     0x0000000000006868       0xc2 /home/leon/git/swp-report/iMX6_Platform_SDK/output/mx6sdl/lib/libboard_sabre_ai_rev_c.a(uart_iomux_config.o)
                                        0x28b (size before relaxing)
 .debug_str     0x000000000000692a      0x2ee /home/leon/git/swp-report/iMX6_Platform_SDK/output/mx6sdl/lib/libboard_sabre_ai_rev_c.a(iomux_config.o)
                                        0x42b (size before relaxing)
 .debug_str     0x0000000000006c18     0x29ae /home/leon/git/swp-report/iMX6_Platform_SDK/output/mx6sdl/lib/libboard_sabre_ai_rev_c.a(ipu1_iomux_config.o)
                                       0x2b3e (size before relaxing)
 .debug_str     0x00000000000095c6      0x4b3 /home/leon/git/swp-report/iMX6_Platform_SDK/output/mx6sdl/lib/libboard_sabre_ai_rev_c.a(mlb_iomux_config.o)
                                        0x649 (size before relaxing)
 .debug_str     0x0000000000009a79     0x1dea /home/leon/git/swp-report/iMX6_Platform_SDK/output/mx6sdl/lib/libboard_sabre_ai_rev_c.a(mmdc_iomux_config.o)
                                       0x1f70 (size before relaxing)
 .debug_str     0x000000000000b863      0x162 /home/leon/git/swp-report/iMX6_Platform_SDK/output/mx6sdl/lib/libboard_sabre_ai_rev_c.a(pwm3_iomux_config.o)
                                        0x2f2 (size before relaxing)
 .debug_str     0x000000000000b9c5      0x162 /home/leon/git/swp-report/iMX6_Platform_SDK/output/mx6sdl/lib/libboard_sabre_ai_rev_c.a(pwm4_iomux_config.o)
                                        0x2f2 (size before relaxing)
 .debug_str     0x000000000000bb27      0x330 /home/leon/git/swp-report/iMX6_Platform_SDK/output/mx6sdl/lib/libboard_sabre_ai_rev_c.a(sjc_iomux_config.o)
                                        0x4b2 (size before relaxing)
 .debug_str     0x000000000000be57      0x1e1 /home/leon/git/swp-report/iMX6_Platform_SDK/output/mx6sdl/lib/libboard_sabre_ai_rev_c.a(spdif_iomux_config.o)
                                        0x377 (size before relaxing)
 .debug_str     0x000000000000c038      0x51c /home/leon/git/swp-report/iMX6_Platform_SDK/output/mx6sdl/lib/libboard_sabre_ai_rev_c.a(uart2_iomux_config.o)
                                        0x6b2 (size before relaxing)
 .debug_str     0x000000000000c554      0x522 /home/leon/git/swp-report/iMX6_Platform_SDK/output/mx6sdl/lib/libboard_sabre_ai_rev_c.a(uart3_iomux_config.o)
                                        0x6b8 (size before relaxing)
 .debug_str     0x000000000000ca76      0x2d2 /home/leon/git/swp-report/iMX6_Platform_SDK/output/mx6sdl/lib/libboard_sabre_ai_rev_c.a(uart4_iomux_config.o)
                                        0x468 (size before relaxing)
 .debug_str     0x000000000000cd48      0xb44 /home/leon/git/swp-report/iMX6_Platform_SDK/output/mx6sdl/lib/libboard_sabre_ai_rev_c.a(usdhc1_iomux_config.o)
                                        0xcda (size before relaxing)
 .debug_str     0x000000000000d88c      0xc02 /home/leon/git/swp-report/iMX6_Platform_SDK/output/mx6sdl/lib/libboard_sabre_ai_rev_c.a(usdhc3_iomux_config.o)
                                        0xd98 (size before relaxing)
 .debug_str     0x000000000000e48e       0x76 /home/leon/git/swp-report/iMX6_Platform_SDK/output/mx6sdl/lib/libboard_sabre_ai_rev_c.a(wdog1_iomux_config.o)
                                        0x306 (size before relaxing)
 .debug_str     0x000000000000e504      0x422 /home/leon/git/swp-report/iMX6_Platform_SDK/output/mx6sdl/lib/libboard_sabre_ai_rev_c.a(audmux_iomux_config.o)
                                        0xa70 (size before relaxing)
 .debug_str     0x000000000000e926      0x14e /home/leon/git/swp-report/iMX6_Platform_SDK/output/mx6sdl/lib/libboard_sabre_ai_rev_c.a(ccm_iomux_config.o)
                                        0x2de (size before relaxing)
 .debug_str     0x000000000000ea74      0x61e /home/leon/git/swp-report/iMX6_Platform_SDK/output/mx6sdl/lib/libboard_sabre_ai_rev_c.a(ecspi1_iomux_config.o)
                                        0x8a8 (size before relaxing)
 .debug_str     0x000000000000f092     0x2490 /home/leon/git/swp-report/iMX6_Platform_SDK/output/mx6sdl/lib/libboard_sabre_ai_rev_c.a(eim_iomux_config.o)
                                       0x2ae4 (size before relaxing)
 .debug_str     0x0000000000011522     0x1357 /home/leon/git/swp-report/iMX6_Platform_SDK/output/mx6sdl/lib/libboard_sabre_ai_rev_c.a(enet_iomux_config.o)
                                       0x1501 (size before relaxing)
 .debug_str     0x0000000000012879      0xe84 /home/leon/git/swp-report/iMX6_Platform_SDK/output/mx6sdl/lib/libboard_sabre_ai_rev_c.a(esai_iomux_config.o)
                                       0x101a (size before relaxing)
 .debug_str     0x00000000000136fd      0x1db /home/leon/git/swp-report/iMX6_Platform_SDK/output/mx6sdl/lib/libboard_sabre_ai_rev_c.a(flexcan1_iomux_config.o)
                                        0x459 (size before relaxing)
 .debug_str     0x00000000000138d8      0x2c3 /home/leon/git/swp-report/iMX6_Platform_SDK/output/mx6sdl/lib/libboard_sabre_ai_rev_c.a(flexcan2_iomux_config.o)
                                        0x459 (size before relaxing)
 .debug_str     0x0000000000013b9b      0x7d4 /home/leon/git/swp-report/iMX6_Platform_SDK/output/mx6sdl/lib/libboard_sabre_ai_rev_c.a(gpio1_iomux_config.o)
                                        0x964 (size before relaxing)
 .debug_str     0x000000000001436f      0x6c8 /home/leon/git/swp-report/iMX6_Platform_SDK/output/mx6sdl/lib/libboard_sabre_ai_rev_c.a(gpio2_iomux_config.o)
                                        0x858 (size before relaxing)
 .debug_str     0x0000000000014a37      0x15e /home/leon/git/swp-report/iMX6_Platform_SDK/output/mx6sdl/lib/libboard_sabre_ai_rev_c.a(gpio4_iomux_config.o)
                                        0x3ca (size before relaxing)
 .debug_str     0x0000000000014b95      0x66a /home/leon/git/swp-report/iMX6_Platform_SDK/output/mx6sdl/lib/libboard_sabre_ai_rev_c.a(gpio5_iomux_config.o)
                                        0x7fa (size before relaxing)
 .debug_str     0x00000000000151ff      0x252 /home/leon/git/swp-report/iMX6_Platform_SDK/output/mx6sdl/lib/libboard_sabre_ai_rev_c.a(gpio6_iomux_config.o)
                                        0x3e2 (size before relaxing)
 .debug_str     0x0000000000015451      0xae4 /home/leon/git/swp-report/iMX6_Platform_SDK/output/mx6sdl/lib/libboard_sabre_ai_rev_c.a(gpmi_iomux_config.o)
                                       0x1220 (size before relaxing)
 .debug_str     0x0000000000015f35      0x32c /home/leon/git/swp-report/iMX6_Platform_SDK/output/mx6sdl/lib/libboard_sabre_ai_rev_c.a(i2c2_iomux_config.o)
                                        0x4c2 (size before relaxing)
 .debug_str     0x0000000000016261      0x108 /home/src/arm/target/bin/../arm-none-eabi/lib//libstdc++.a(pure.o)
                                        0x1b6 (size before relaxing)
 .debug_str     0x0000000000016369      0x2c7 /home/src/arm/target/bin/../arm-none-eabi/lib//libstdc++.a(eh_terminate.o)
                                        0x432 (size before relaxing)
 .debug_str     0x0000000000016630      0x48e /home/src/arm/target/bin/../arm-none-eabi/lib//libstdc++.a(eh_arm.o)
                                        0x655 (size before relaxing)
 .debug_str     0x0000000000016abe      0x2db /home/src/arm/target/bin/../arm-none-eabi/lib//libstdc++.a(eh_exception.o)
                                        0x394 (size before relaxing)
 .debug_str     0x0000000000016d99       0x9d /home/src/arm/target/bin/../arm-none-eabi/lib//libstdc++.a(eh_term_handler.o)
                                        0x1a4 (size before relaxing)
 .debug_str     0x0000000000016e36       0xaa /home/src/arm/target/bin/../arm-none-eabi/lib//libstdc++.a(eh_globals.o)
                                        0x517 (size before relaxing)
 .debug_str     0x0000000000016ee0      0x1be /home/src/arm/target/bin/../arm-none-eabi/lib//libstdc++.a(eh_call.o)
                                        0x890 (size before relaxing)
 .debug_str     0x000000000001709e      0x620 /home/src/arm/target/bin/../arm-none-eabi/lib//libstdc++.a(eh_personality.o)
                                        0xc54 (size before relaxing)
 .debug_str     0x00000000000176be       0x9d /home/src/arm/target/bin/../arm-none-eabi/lib//libstdc++.a(eh_unex_handler.o)
                                        0x1a7 (size before relaxing)
 .debug_str     0x000000000001775b      0x551 /home/src/arm/target/bin/../arm-none-eabi/lib//libstdc++.a(si_class_type_info.o)
                                        0x62d (size before relaxing)
 .debug_str     0x0000000000017cac      0x195 /home/src/arm/target/bin/../arm-none-eabi/lib//libstdc++.a(eh_throw.o)
                                        0x673 (size before relaxing)
 .debug_str     0x0000000000017e41      0x1fd /home/src/arm/target/bin/../arm-none-eabi/lib//libstdc++.a(vterminate.o)
                                        0x825 (size before relaxing)
 .debug_str     0x000000000001803e      0x12e /home/src/arm/target/bin/../arm-none-eabi/lib//libstdc++.a(eh_catch.o)
                                        0x67d (size before relaxing)
 .debug_str     0x000000000001816c      0x227 /home/src/arm/target/bin/../arm-none-eabi/lib//libstdc++.a(tinfo.o)
                                        0x3bc (size before relaxing)
 .debug_str     0x0000000000018393       0x8b /home/src/arm/target/bin/../arm-none-eabi/lib//libstdc++.a(del_op.o)
                                        0x239 (size before relaxing)
 .debug_str     0x000000000001841e     0x1501 /home/src/arm/target/bin/../arm-none-eabi/lib//libstdc++.a(cp-demangle.o)
                                       0x1726 (size before relaxing)
 .debug_str     0x000000000001991f      0x40f /home/src/arm/target/bin/../arm-none-eabi/lib//libstdc++.a(class_type_info.o)
                                        0x791 (size before relaxing)
 .debug_str     0x0000000000019d2e      0x343 /home/src/arm/target/bin/../arm-none-eabi/lib//libstdc++.a(eh_alloc.o)
                                        0x921 (size before relaxing)
 .debug_str     0x000000000001a071       0x8d /home/src/arm/target/bin/../arm-none-eabi/lib//libstdc++.a(eh_type.o)
                                        0x4ba (size before relaxing)
 .debug_str     0x000000000001a0fe       0x96 /home/src/arm/target/bin/../arm-none-eabi/lib//libc.a(lib_a-abort.o)
                                        0x13a (size before relaxing)
 .debug_str     0x000000000001a194       0x5d /home/src/arm/target/bin/../arm-none-eabi/lib//libc.a(lib_a-assert.o)
                                        0x530 (size before relaxing)
 .debug_str     0x000000000001a1f1       0x7c /home/src/arm/target/bin/../arm-none-eabi/lib//libc.a(lib_a-bzero.o)
                                        0x13c (size before relaxing)
 .debug_str     0x000000000001a26d       0x90 /home/src/arm/target/bin/../arm-none-eabi/lib//libc.a(lib_a-fiprintf.o)
                                        0x538 (size before relaxing)
 .debug_str     0x000000000001a2fd       0x62 /home/src/arm/target/bin/../arm-none-eabi/lib//libc.a(lib_a-fputc.o)
                                        0x52e (size before relaxing)
 .debug_str     0x000000000001a35f       0x8b /home/src/arm/target/bin/../arm-none-eabi/lib//libc.a(lib_a-fputs.o)
                                        0x572 (size before relaxing)
 .debug_str     0x000000000001a3ea       0x9b /home/src/arm/target/bin/../arm-none-eabi/lib//libc.a(lib_a-fvwrite.o)
                                        0x59a (size before relaxing)
 .debug_str     0x000000000001a485       0x44 /home/src/arm/target/bin/../arm-none-eabi/lib//libc.a(lib_a-fwrite.o)
                                        0x572 (size before relaxing)
 .debug_str     0x000000000001a4c9       0x94 /home/src/arm/target/bin/../arm-none-eabi/lib//libc.a(lib_a-impure.o)
                                        0x508 (size before relaxing)
 .debug_str     0x000000000001a55d       0xd1 /home/src/arm/target/bin/../arm-none-eabi/lib//libc.a(lib_a-init.o)
                                        0x196 (size before relaxing)
 .debug_str     0x000000000001a62e       0x47 /home/src/arm/target/bin/../arm-none-eabi/lib//libc.a(lib_a-malloc.o)
                                        0x51c (size before relaxing)
 .debug_str     0x000000000001a675      0x224 /home/src/arm/target/bin/../arm-none-eabi/lib//libc.a(lib_a-mallocr.o)
                                        0x717 (size before relaxing)
 .debug_str     0x000000000001a899       0x97 /home/src/arm/target/bin/../arm-none-eabi/lib//libc.a(lib_a-memchr-stub.o)
                                        0x163 (size before relaxing)
 .debug_str     0x000000000001a930       0x3b /home/src/arm/target/bin/../arm-none-eabi/lib//libc.a(lib_a-memcmp.o)
                                        0x137 (size before relaxing)
 .debug_str     0x000000000001a96b       0x6f /home/src/arm/target/bin/../arm-none-eabi/lib//libc.a(lib_a-memcpy-stub.o)
                                        0x170 (size before relaxing)
 .debug_str     0x000000000001a9da       0x45 /home/src/arm/target/bin/../arm-none-eabi/lib//libc.a(lib_a-memmove.o)
                                        0x16a (size before relaxing)
 .debug_str     0x000000000001aa1f       0x48 /home/src/arm/target/bin/../arm-none-eabi/lib//libc.a(lib_a-memset.o)
                                        0x14b (size before relaxing)
 .debug_str     0x000000000001aa67       0x4f /home/src/arm/target/bin/../arm-none-eabi/lib//libc.a(lib_a-mlock.o)
                                        0x511 (size before relaxing)
 .debug_str     0x000000000001aab6       0x50 /home/src/arm/target/bin/../arm-none-eabi/lib//libc.a(lib_a-printf.o)
                                        0x531 (size before relaxing)
 .debug_str     0x000000000001ab06       0x42 /home/src/arm/target/bin/../arm-none-eabi/lib//libc.a(lib_a-putc.o)
                                        0x528 (size before relaxing)
 .debug_str     0x000000000001ab48       0x3c /home/src/arm/target/bin/../arm-none-eabi/lib//libc.a(lib_a-realloc.o)
                                        0x50d (size before relaxing)
 .debug_str     0x000000000001ab84       0x49 /home/src/arm/target/bin/../arm-none-eabi/lib//libc.a(lib_a-reallocr.o)
                                        0x5e9 (size before relaxing)
 .debug_str     0x000000000001abcd       0x56 /home/src/arm/target/bin/../arm-none-eabi/lib//libc.a(lib_a-rget.o)
                                        0x522 (size before relaxing)
 .debug_str     0x000000000001ac23       0x44 /home/src/arm/target/bin/../arm-none-eabi/lib//libc.a(lib_a-sbrkr.o)
                                        0x4ff (size before relaxing)
 .debug_str     0x000000000001ac67       0xdd /home/src/arm/target/bin/../arm-none-eabi/lib//libc.a(lib_a-signal.o)
                                        0x57e (size before relaxing)
 .debug_str     0x000000000001ad44       0x49 /home/src/arm/target/bin/../arm-none-eabi/lib//libc.a(lib_a-signalr.o)
                                        0x504 (size before relaxing)
 .debug_str     0x000000000001ad8d       0x53 /home/src/arm/target/bin/../arm-none-eabi/lib//libc.a(lib_a-sprintf.o)
                                        0x535 (size before relaxing)
 .debug_str     0x000000000001ade0       0x43 /home/src/arm/target/bin/../arm-none-eabi/lib//libc.a(lib_a-strlen.o)
                                        0x144 (size before relaxing)
 .debug_str     0x000000000001ae23       0x3c /home/src/arm/target/bin/../arm-none-eabi/lib//libc.a(lib_a-strncmp.o)
                                        0x139 (size before relaxing)
 .debug_str     0x000000000001ae5f      0x28b /home/src/arm/target/bin/../arm-none-eabi/lib//libc.a(lib_a-svfprintf.o)
                                        0x892 (size before relaxing)
 .debug_str     0x000000000001b0ea      0x32e /home/src/arm/target/bin/../arm-none-eabi/lib//libc.a(lib_a-syscalls.o)
                                        0x840 (size before relaxing)
 .debug_str     0x000000000001b418       0x8f /home/src/arm/target/bin/../arm-none-eabi/lib//libc.a(lib_a-syswrite.o)
                                        0x510 (size before relaxing)
 .debug_str     0x000000000001b4a7       0x34 /home/src/arm/target/bin/../arm-none-eabi/lib//libc.a(lib_a-vfiprintf.o)
                                        0x6dc (size before relaxing)
 .debug_str     0x000000000001b4db        0x9 /home/src/arm/target/bin/../arm-none-eabi/lib//libc.a(lib_a-vfprintf.o)
                                        0x8ea (size before relaxing)
 .debug_str     0x000000000001b4e4       0x4e /home/src/arm/target/bin/../arm-none-eabi/lib//libc.a(lib_a-vprintf.o)
                                        0x53a (size before relaxing)
 .debug_str     0x000000000001b532       0x40 /home/src/arm/target/bin/../arm-none-eabi/lib//libc.a(lib_a-wbuf.o)
                                        0x52c (size before relaxing)
 .debug_str     0x000000000001b572       0x3a /home/src/arm/target/bin/../arm-none-eabi/lib//libc.a(lib_a-writer.o)
                                        0x4fc (size before relaxing)
 .debug_str     0x000000000001b5ac       0x47 /home/src/arm/target/bin/../arm-none-eabi/lib//libc.a(lib_a-wsetup.o)
                                        0x527 (size before relaxing)
 .debug_str     0x000000000001b5f3      0x157 /home/src/arm/target/bin/../arm-none-eabi/lib//libc.a(lib_a-dtoa.o)
                                        0x65a (size before relaxing)
 .debug_str     0x000000000001b74a       0x74 /home/src/arm/target/bin/../arm-none-eabi/lib//libc.a(lib_a-errno.o)
                                        0x4f0 (size before relaxing)
 .debug_str     0x000000000001b7be       0x63 /home/src/arm/target/bin/../arm-none-eabi/lib//libc.a(lib_a-fflush.o)
                                        0x568 (size before relaxing)
 .debug_str     0x000000000001b821      0x10a /home/src/arm/target/bin/../arm-none-eabi/lib//libc.a(lib_a-findfp.o)
                                        0x615 (size before relaxing)
 .debug_str     0x000000000001b92b       0x62 /home/src/arm/target/bin/../arm-none-eabi/lib//libc.a(lib_a-fputwc.o)
                                        0x568 (size before relaxing)
 .debug_str     0x000000000001b98d       0x34 /home/src/arm/target/bin/../arm-none-eabi/lib//libc.a(lib_a-freer.o)
                                        0x661 (size before relaxing)
 .debug_str     0x000000000001b9c1       0x48 /home/src/arm/target/bin/../arm-none-eabi/lib//libc.a(lib_a-fwalk.o)
                                        0x50d (size before relaxing)
 .debug_str     0x000000000001ba09      0x143 /home/src/arm/target/bin/../arm-none-eabi/lib//libc.a(lib_a-locale.o)
                                        0x765 (size before relaxing)
 .debug_str     0x000000000001bb4c       0x59 /home/src/arm/target/bin/../arm-none-eabi/lib//libc.a(lib_a-makebuf.o)
                                        0x60a (size before relaxing)
 .debug_str     0x000000000001bba5       0xa5 /home/src/arm/target/bin/../arm-none-eabi/lib//libc.a(lib_a-mprec.o)
                                        0x614 (size before relaxing)
 .debug_str     0x000000000001bc4a       0x65 /home/src/arm/target/bin/../arm-none-eabi/lib//libc.a(lib_a-reent.o)
                                        0x527 (size before relaxing)
 .debug_str     0x000000000001bcaf       0x4c /home/src/arm/target/bin/../arm-none-eabi/lib//libc.a(lib_a-refill.o)
                                        0x563 (size before relaxing)
 .debug_str     0x000000000001bcfb       0x7d /home/src/arm/target/bin/../arm-none-eabi/lib//libc.a(lib_a-s_fpclassify.o)
                                        0x161 (size before relaxing)
 .debug_str     0x000000000001bd78       0x87 /home/src/arm/target/bin/../arm-none-eabi/lib//libc.a(lib_a-stdio.o)
                                        0x563 (size before relaxing)
 .debug_str     0x000000000001bdff        0xe /home/src/arm/target/bin/../arm-none-eabi/lib//libc.a(lib_a-svfiprintf.o)
                                        0x695 (size before relaxing)
 .debug_str     0x000000000001be0d       0x54 /home/src/arm/target/bin/../arm-none-eabi/lib//libc.a(lib_a-wcrtomb.o)
                                        0x53f (size before relaxing)
 .debug_str     0x000000000001be61       0x5d /home/src/arm/target/bin/../arm-none-eabi/lib//libc.a(lib_a-wctomb_r.o)
                                        0x548 (size before relaxing)
 .debug_str     0x000000000001bebe        0xf /home/src/arm/target/bin/../arm-none-eabi/lib//libc.a(lib_a-callocr.o)
                                        0x541 (size before relaxing)
 .debug_str     0x000000000001becd       0x3a /home/src/arm/target/bin/../arm-none-eabi/lib//libc.a(lib_a-closer.o)
                                        0x4ec (size before relaxing)
 .debug_str     0x000000000001bf07       0x44 /home/src/arm/target/bin/../arm-none-eabi/lib//libc.a(lib_a-fclose.o)
                                        0x554 (size before relaxing)
 .debug_str     0x000000000001bf4b       0x40 /home/src/arm/target/bin/../arm-none-eabi/lib//libc.a(lib_a-fstatr.o)
                                        0x5df (size before relaxing)
 .debug_str     0x000000000001bf8b       0x3b /home/src/arm/target/bin/../arm-none-eabi/lib//libc.a(lib_a-isattyr.o)
                                        0x4f6 (size before relaxing)
 .debug_str     0x000000000001bfc6       0x3a /home/src/arm/target/bin/../arm-none-eabi/lib//libc.a(lib_a-lseekr.o)
                                        0x4fa (size before relaxing)
 .debug_str     0x000000000001c000       0x39 /home/src/arm/target/bin/../arm-none-eabi/lib//libc.a(lib_a-readr.o)
                                        0x4fa (size before relaxing)
 .debug_str     0x000000000001c039      0x10c /home/src/arm/target/bin/../lib/gcc/arm-none-eabi/4.8.2//libgcc.a(bpabi.o)
                                        0x13b (size before relaxing)
 .debug_str     0x000000000001c145      0x5fe /home/src/arm/target/bin/../lib/gcc/arm-none-eabi/4.8.2//libgcc.a(unwind-arm.o)
                                        0xbc7 (size before relaxing)
 .debug_str     0x000000000001c743       0x65 /home/src/arm/target/bin/../lib/gcc/arm-none-eabi/4.8.2//libgcc.a(pr-support.o)
                                        0x537 (size before relaxing)
 .debug_str     0x000000000001c7a8       0x95 /home/src/arm/target/bin/../lib/gcc/arm-none-eabi/4.8.2//libgcc.a(_divdi3.o)
                                        0x1f2 (size before relaxing)
 .debug_str     0x0000000000000000      0x1f3 /home/src/arm/target/bin/../lib/gcc/arm-none-eabi/4.8.2//libgcc.a(_udivdi3.o)
 .debug_str     0x000000000001c83d      0x112 /home/leon/git/swp-report/iMX6_Platform_SDK/output/mx6sdl/lib/libsdk.a(max7310.o)
                                        0x3be (size before relaxing)
 .debug_str     0x000000000001c94f      0x37a /home/leon/git/swp-report/iMX6_Platform_SDK/output/mx6sdl/lib/libsdk.a(gpio.o)
                                        0x59e (size before relaxing)
 .debug_str     0x000000000001ccc9       0x54 /home/leon/git/swp-report/iMX6_Platform_SDK/output/mx6sdl/lib/libsdk.a(imx6sdl_gpio_map.o)
                                        0x21e (size before relaxing)
 .debug_str     0x000000000001cd1d      0x339 /home/leon/git/swp-report/iMX6_Platform_SDK/output/mx6sdl/lib/libsdk.a(imx_i2c.o)
                                       0x11ac (size before relaxing)
 .debug_str     0x000000000001d056       0x72 /home/leon/git/swp-report/iMX6_Platform_SDK/output/mx6sdl/lib/libboard_sabre_ai_rev_c.a(i2c_iomux_config.o)
                                        0x289 (size before relaxing)

.debug_loc      0x0000000000000000    0x277a9
 .debug_loc     0x0000000000000000       0x13 /home/leon/git/swp-report/iMX6_Platform_SDK/output/mx6sdl/stream/sabre_ai_rev_c/obj/apps/common/platform_init.o
 .debug_loc     0x0000000000000013       0x13 /home/leon/git/swp-report/iMX6_Platform_SDK/output/mx6sdl/stream/sabre_ai_rev_c/obj/apps/common/print_version.o
 .debug_loc     0x0000000000000026       0xad /home/leon/git/swp-report/iMX6_Platform_SDK/output/mx6sdl/stream/sabre_ai_rev_c/obj/apps/stream/src/main.o
 .debug_loc     0x00000000000000d3      0x36e /home/leon/git/swp-report/iMX6_Platform_SDK/output/mx6sdl/stream/sabre_ai_rev_c/obj/apps/stream/src/stream.o
 .debug_loc     0x0000000000000441       0x80 /home/src/arm/target/bin/../arm-none-eabi/lib//libstdc++.a(eh_terminate.o)
 .debug_loc     0x00000000000004c1      0x30f /home/src/arm/target/bin/../arm-none-eabi/lib//libstdc++.a(eh_arm.o)
 .debug_loc     0x00000000000007d0      0x18a /home/src/arm/target/bin/../arm-none-eabi/lib//libstdc++.a(eh_exception.o)
 .debug_loc     0x000000000000095a      0x350 /home/src/arm/target/bin/../arm-none-eabi/lib//libstdc++.a(eh_call.o)
 .debug_loc     0x0000000000000caa     0x1618 /home/src/arm/target/bin/../arm-none-eabi/lib//libstdc++.a(eh_personality.o)
 .debug_loc     0x00000000000022c2      0x4c4 /home/src/arm/target/bin/../arm-none-eabi/lib//libstdc++.a(si_class_type_info.o)
 .debug_loc     0x0000000000002786      0x163 /home/src/arm/target/bin/../arm-none-eabi/lib//libstdc++.a(eh_throw.o)
 .debug_loc     0x00000000000028e9       0x9a /home/src/arm/target/bin/../arm-none-eabi/lib//libstdc++.a(vterminate.o)
 .debug_loc     0x0000000000002983      0x353 /home/src/arm/target/bin/../arm-none-eabi/lib//libstdc++.a(eh_catch.o)
 .debug_loc     0x0000000000002cd6      0x14f /home/src/arm/target/bin/../arm-none-eabi/lib//libstdc++.a(tinfo.o)
 .debug_loc     0x0000000000002e25       0x21 /home/src/arm/target/bin/../arm-none-eabi/lib//libstdc++.a(del_op.o)
 .debug_loc     0x0000000000002e46     0xce26 /home/src/arm/target/bin/../arm-none-eabi/lib//libstdc++.a(cp-demangle.o)
 .debug_loc     0x000000000000fc6c      0x4b0 /home/src/arm/target/bin/../arm-none-eabi/lib//libstdc++.a(class_type_info.o)
 .debug_loc     0x000000000001011c      0x33c /home/src/arm/target/bin/../arm-none-eabi/lib//libstdc++.a(eh_alloc.o)
 .debug_loc     0x0000000000010458       0x31 /home/src/arm/target/bin/../arm-none-eabi/lib//libstdc++.a(eh_type.o)
 .debug_loc     0x0000000000010489      0x114 /home/src/arm/target/bin/../arm-none-eabi/lib//libc.a(lib_a-assert.o)
 .debug_loc     0x000000000001059d       0x41 /home/src/arm/target/bin/../arm-none-eabi/lib//libc.a(lib_a-bzero.o)
 .debug_loc     0x00000000000105de       0x6e /home/src/arm/target/bin/../arm-none-eabi/lib//libc.a(lib_a-fiprintf.o)
 .debug_loc     0x000000000001064c       0xd9 /home/src/arm/target/bin/../arm-none-eabi/lib//libc.a(lib_a-fputc.o)
 .debug_loc     0x0000000000010725      0x126 /home/src/arm/target/bin/../arm-none-eabi/lib//libc.a(lib_a-fputs.o)
 .debug_loc     0x000000000001084b      0x612 /home/src/arm/target/bin/../arm-none-eabi/lib//libc.a(lib_a-fvwrite.o)
 .debug_loc     0x0000000000010e5d      0x20d /home/src/arm/target/bin/../arm-none-eabi/lib//libc.a(lib_a-fwrite.o)
 .debug_loc     0x000000000001106a       0xa2 /home/src/arm/target/bin/../arm-none-eabi/lib//libc.a(lib_a-init.o)
 .debug_loc     0x000000000001110c       0x58 /home/src/arm/target/bin/../arm-none-eabi/lib//libc.a(lib_a-malloc.o)
 .debug_loc     0x0000000000011164      0xcee /home/src/arm/target/bin/../arm-none-eabi/lib//libc.a(lib_a-mallocr.o)
 .debug_loc     0x0000000000011e52      0x15a /home/src/arm/target/bin/../arm-none-eabi/lib//libc.a(lib_a-memchr-stub.o)
 .debug_loc     0x0000000000011fac       0xe3 /home/src/arm/target/bin/../arm-none-eabi/lib//libc.a(lib_a-memcmp.o)
 .debug_loc     0x000000000001208f      0x1c1 /home/src/arm/target/bin/../arm-none-eabi/lib//libc.a(lib_a-memcpy-stub.o)
 .debug_loc     0x0000000000012250      0x2b0 /home/src/arm/target/bin/../arm-none-eabi/lib//libc.a(lib_a-memmove.o)
 .debug_loc     0x0000000000012500      0x175 /home/src/arm/target/bin/../arm-none-eabi/lib//libc.a(lib_a-memset.o)
 .debug_loc     0x0000000000012675       0x34 /home/src/arm/target/bin/../arm-none-eabi/lib//libc.a(lib_a-printf.o)
 .debug_loc     0x00000000000126a9      0x1c5 /home/src/arm/target/bin/../arm-none-eabi/lib//libc.a(lib_a-putc.o)
 .debug_loc     0x000000000001286e       0x58 /home/src/arm/target/bin/../arm-none-eabi/lib//libc.a(lib_a-realloc.o)
 .debug_loc     0x00000000000128c6      0xed3 /home/src/arm/target/bin/../arm-none-eabi/lib//libc.a(lib_a-reallocr.o)
 .debug_loc     0x0000000000013799       0xb0 /home/src/arm/target/bin/../arm-none-eabi/lib//libc.a(lib_a-rget.o)
 .debug_loc     0x0000000000013849       0x66 /home/src/arm/target/bin/../arm-none-eabi/lib//libc.a(lib_a-sbrkr.o)
 .debug_loc     0x00000000000138af      0x32c /home/src/arm/target/bin/../arm-none-eabi/lib//libc.a(lib_a-signal.o)
 .debug_loc     0x0000000000013bdb       0x9a /home/src/arm/target/bin/../arm-none-eabi/lib//libc.a(lib_a-signalr.o)
 .debug_loc     0x0000000000013c75       0x79 /home/src/arm/target/bin/../arm-none-eabi/lib//libc.a(lib_a-sprintf.o)
 .debug_loc     0x0000000000013cee       0x21 /home/src/arm/target/bin/../arm-none-eabi/lib//libc.a(lib_a-strlen.o)
 .debug_loc     0x0000000000013d0f       0xfa /home/src/arm/target/bin/../arm-none-eabi/lib//libc.a(lib_a-strncmp.o)
 .debug_loc     0x0000000000013e09     0x215f /home/src/arm/target/bin/../arm-none-eabi/lib//libc.a(lib_a-svfprintf.o)
 .debug_loc     0x0000000000015f68     0x135b /home/src/arm/target/bin/../arm-none-eabi/lib//libc.a(lib_a-syscalls.o)
 .debug_loc     0x00000000000172c3       0x84 /home/src/arm/target/bin/../arm-none-eabi/lib//libc.a(lib_a-syswrite.o)
 .debug_loc     0x0000000000017347     0x1c73 /home/src/arm/target/bin/../arm-none-eabi/lib//libc.a(lib_a-vfiprintf.o)
 .debug_loc     0x0000000000018fba     0x233a /home/src/arm/target/bin/../arm-none-eabi/lib//libc.a(lib_a-vfprintf.o)
 .debug_loc     0x000000000001b2f4       0xb2 /home/src/arm/target/bin/../arm-none-eabi/lib//libc.a(lib_a-vprintf.o)
 .debug_loc     0x000000000001b3a6      0x15a /home/src/arm/target/bin/../arm-none-eabi/lib//libc.a(lib_a-wbuf.o)
 .debug_loc     0x000000000001b500       0xa5 /home/src/arm/target/bin/../arm-none-eabi/lib//libc.a(lib_a-writer.o)
 .debug_loc     0x000000000001b5a5       0xd4 /home/src/arm/target/bin/../arm-none-eabi/lib//libc.a(lib_a-wsetup.o)
 .debug_loc     0x000000000001b679     0x3000 /home/src/arm/target/bin/../arm-none-eabi/lib//libc.a(lib_a-dtoa.o)
 .debug_loc     0x000000000001e679      0x2db /home/src/arm/target/bin/../arm-none-eabi/lib//libc.a(lib_a-fflush.o)
 .debug_loc     0x000000000001e954      0x2dd /home/src/arm/target/bin/../arm-none-eabi/lib//libc.a(lib_a-findfp.o)
 .debug_loc     0x000000000001ec31      0x304 /home/src/arm/target/bin/../arm-none-eabi/lib//libc.a(lib_a-fputwc.o)
 .debug_loc     0x000000000001ef35      0x3fc /home/src/arm/target/bin/../arm-none-eabi/lib//libc.a(lib_a-freer.o)
 .debug_loc     0x000000000001f331      0x284 /home/src/arm/target/bin/../arm-none-eabi/lib//libc.a(lib_a-fwalk.o)
 .debug_loc     0x000000000001f5b5      0x100 /home/src/arm/target/bin/../arm-none-eabi/lib//libc.a(lib_a-locale.o)
 .debug_loc     0x000000000001f6b5      0x170 /home/src/arm/target/bin/../arm-none-eabi/lib//libc.a(lib_a-makebuf.o)
 .debug_loc     0x000000000001f825     0x2890 /home/src/arm/target/bin/../arm-none-eabi/lib//libc.a(lib_a-mprec.o)
 .debug_loc     0x00000000000220b5      0x13e /home/src/arm/target/bin/../arm-none-eabi/lib//libc.a(lib_a-reent.o)
 .debug_loc     0x00000000000221f3      0x14e /home/src/arm/target/bin/../arm-none-eabi/lib//libc.a(lib_a-refill.o)
 .debug_loc     0x0000000000022341       0x84 /home/src/arm/target/bin/../arm-none-eabi/lib//libc.a(lib_a-s_fpclassify.o)
 .debug_loc     0x00000000000223c5      0x2b5 /home/src/arm/target/bin/../arm-none-eabi/lib//libc.a(lib_a-stdio.o)
 .debug_loc     0x000000000002267a     0x1221 /home/src/arm/target/bin/../arm-none-eabi/lib//libc.a(lib_a-svfiprintf.o)
 .debug_loc     0x000000000002389b      0x253 /home/src/arm/target/bin/../arm-none-eabi/lib//libc.a(lib_a-wcrtomb.o)
 .debug_loc     0x0000000000023aee      0x116 /home/src/arm/target/bin/../arm-none-eabi/lib//libc.a(lib_a-wctomb_r.o)
 .debug_loc     0x0000000000023c04      0x20c /home/src/arm/target/bin/../arm-none-eabi/lib//libc.a(lib_a-callocr.o)
 .debug_loc     0x0000000000023e10       0x4d /home/src/arm/target/bin/../arm-none-eabi/lib//libc.a(lib_a-closer.o)
 .debug_loc     0x0000000000023e5d      0x163 /home/src/arm/target/bin/../arm-none-eabi/lib//libc.a(lib_a-fclose.o)
 .debug_loc     0x0000000000023fc0       0x79 /home/src/arm/target/bin/../arm-none-eabi/lib//libc.a(lib_a-fstatr.o)
 .debug_loc     0x0000000000024039       0x4d /home/src/arm/target/bin/../arm-none-eabi/lib//libc.a(lib_a-isattyr.o)
 .debug_loc     0x0000000000024086       0xa5 /home/src/arm/target/bin/../arm-none-eabi/lib//libc.a(lib_a-lseekr.o)
 .debug_loc     0x000000000002412b       0xa5 /home/src/arm/target/bin/../arm-none-eabi/lib//libc.a(lib_a-readr.o)
 .debug_loc     0x00000000000241d0       0xa0 /home/src/arm/target/bin/../lib/gcc/arm-none-eabi/4.8.2//libgcc.a(bpabi.o)
 .debug_loc     0x0000000000024270     0x1881 /home/src/arm/target/bin/../lib/gcc/arm-none-eabi/4.8.2//libgcc.a(unwind-arm.o)
 .debug_loc     0x0000000000025af1      0x524 /home/src/arm/target/bin/../lib/gcc/arm-none-eabi/4.8.2//libgcc.a(pr-support.o)
 .debug_loc     0x0000000000026015      0xb31 /home/src/arm/target/bin/../lib/gcc/arm-none-eabi/4.8.2//libgcc.a(_divdi3.o)
 .debug_loc     0x0000000000026b46      0xc63 /home/src/arm/target/bin/../lib/gcc/arm-none-eabi/4.8.2//libgcc.a(_udivdi3.o)

.debug_frame    0x0000000000000000     0x4b50
 .debug_frame   0x0000000000000000       0x30 /home/leon/git/swp-report/iMX6_Platform_SDK/output/mx6sdl/stream/sabre_ai_rev_c/obj/apps/common/platform_init.o
 .debug_frame   0x0000000000000030       0x34 /home/leon/git/swp-report/iMX6_Platform_SDK/output/mx6sdl/stream/sabre_ai_rev_c/obj/apps/common/print_version.o
 .debug_frame   0x0000000000000064       0x58 /home/leon/git/swp-report/iMX6_Platform_SDK/output/mx6sdl/stream/sabre_ai_rev_c/obj/apps/stream/src/main.o
 .debug_frame   0x00000000000000bc      0x11c /home/leon/git/swp-report/iMX6_Platform_SDK/output/mx6sdl/stream/sabre_ai_rev_c/obj/apps/stream/src/stream.o
 .debug_frame   0x00000000000001d8      0x130 /home/leon/git/swp-report/iMX6_Platform_SDK/output/mx6sdl/lib/libsdk.a(ccm_pll.o)
 .debug_frame   0x0000000000000308      0x230 /home/leon/git/swp-report/iMX6_Platform_SDK/output/mx6sdl/lib/libsdk.a(gic.o)
 .debug_frame   0x0000000000000538       0xb0 /home/leon/git/swp-report/iMX6_Platform_SDK/output/mx6sdl/lib/libsdk.a(mmu.o)
 .debug_frame   0x00000000000005e8       0xe0 /home/leon/git/swp-report/iMX6_Platform_SDK/output/mx6sdl/lib/libsdk.a(system_util.o)
 .debug_frame   0x00000000000006c8       0x54 /home/leon/git/swp-report/iMX6_Platform_SDK/output/mx6sdl/lib/libsdk.a(text_color.o)
 .debug_frame   0x000000000000071c       0xf0 /home/leon/git/swp-report/iMX6_Platform_SDK/output/mx6sdl/lib/libsdk.a(board_id.o)
 .debug_frame   0x000000000000080c       0x30 /home/leon/git/swp-report/iMX6_Platform_SDK/output/mx6sdl/lib/libsdk.a(cpu_workpoint.o)
 .debug_frame   0x000000000000083c      0xb10 /home/leon/git/swp-report/iMX6_Platform_SDK/output/mx6sdl/lib/libsdk.a(pmu_driver.o)
 .debug_frame   0x000000000000134c      0x110 /home/leon/git/swp-report/iMX6_Platform_SDK/output/mx6sdl/lib/libsdk.a(epit.o)
 .debug_frame   0x000000000000145c       0x90 /home/leon/git/swp-report/iMX6_Platform_SDK/output/mx6sdl/lib/libsdk.a(timer.o)
 .debug_frame   0x00000000000014ec       0xf0 /home/leon/git/swp-report/iMX6_Platform_SDK/output/mx6sdl/lib/libsdk.a(imx_uart.o)
 .debug_frame   0x00000000000015dc       0xb8 /home/leon/git/swp-report/iMX6_Platform_SDK/output/mx6sdl/lib/libsdk.a(interrupt.o)
 .debug_frame   0x0000000000001694       0x38 /home/leon/git/swp-report/iMX6_Platform_SDK/output/mx6sdl/lib/libsdk.a(abort_handler.o)
 .debug_frame   0x00000000000016cc       0x50 /home/leon/git/swp-report/iMX6_Platform_SDK/output/mx6sdl/lib/libboard_sabre_ai_rev_c.a(board_io_expanders.o)
 .debug_frame   0x000000000000171c       0x30 /home/leon/git/swp-report/iMX6_Platform_SDK/output/mx6sdl/lib/libboard_sabre_ai_rev_c.a(i2c3_iomux_config.o)
 .debug_frame   0x000000000000174c       0x30 /home/leon/git/swp-report/iMX6_Platform_SDK/output/mx6sdl/lib/libboard_sabre_ai_rev_c.a(uart_iomux_config.o)
 .debug_frame   0x000000000000177c      0x4b0 /home/leon/git/swp-report/iMX6_Platform_SDK/output/mx6sdl/lib/libboard_sabre_ai_rev_c.a(iomux_config.o)
 .debug_frame   0x0000000000001c2c       0x30 /home/leon/git/swp-report/iMX6_Platform_SDK/output/mx6sdl/lib/libboard_sabre_ai_rev_c.a(ipu1_iomux_config.o)
 .debug_frame   0x0000000000001c5c       0x30 /home/leon/git/swp-report/iMX6_Platform_SDK/output/mx6sdl/lib/libboard_sabre_ai_rev_c.a(mlb_iomux_config.o)
 .debug_frame   0x0000000000001c8c       0x30 /home/leon/git/swp-report/iMX6_Platform_SDK/output/mx6sdl/lib/libboard_sabre_ai_rev_c.a(mmdc_iomux_config.o)
 .debug_frame   0x0000000000001cbc       0x30 /home/leon/git/swp-report/iMX6_Platform_SDK/output/mx6sdl/lib/libboard_sabre_ai_rev_c.a(pwm3_iomux_config.o)
 .debug_frame   0x0000000000001cec       0x30 /home/leon/git/swp-report/iMX6_Platform_SDK/output/mx6sdl/lib/libboard_sabre_ai_rev_c.a(pwm4_iomux_config.o)
 .debug_frame   0x0000000000001d1c       0x30 /home/leon/git/swp-report/iMX6_Platform_SDK/output/mx6sdl/lib/libboard_sabre_ai_rev_c.a(sjc_iomux_config.o)
 .debug_frame   0x0000000000001d4c       0x30 /home/leon/git/swp-report/iMX6_Platform_SDK/output/mx6sdl/lib/libboard_sabre_ai_rev_c.a(spdif_iomux_config.o)
 .debug_frame   0x0000000000001d7c       0x30 /home/leon/git/swp-report/iMX6_Platform_SDK/output/mx6sdl/lib/libboard_sabre_ai_rev_c.a(uart2_iomux_config.o)
 .debug_frame   0x0000000000001dac       0x30 /home/leon/git/swp-report/iMX6_Platform_SDK/output/mx6sdl/lib/libboard_sabre_ai_rev_c.a(uart3_iomux_config.o)
 .debug_frame   0x0000000000001ddc       0x30 /home/leon/git/swp-report/iMX6_Platform_SDK/output/mx6sdl/lib/libboard_sabre_ai_rev_c.a(uart4_iomux_config.o)
 .debug_frame   0x0000000000001e0c       0x30 /home/leon/git/swp-report/iMX6_Platform_SDK/output/mx6sdl/lib/libboard_sabre_ai_rev_c.a(usdhc1_iomux_config.o)
 .debug_frame   0x0000000000001e3c       0x30 /home/leon/git/swp-report/iMX6_Platform_SDK/output/mx6sdl/lib/libboard_sabre_ai_rev_c.a(usdhc3_iomux_config.o)
 .debug_frame   0x0000000000001e6c       0x30 /home/leon/git/swp-report/iMX6_Platform_SDK/output/mx6sdl/lib/libboard_sabre_ai_rev_c.a(wdog1_iomux_config.o)
 .debug_frame   0x0000000000001e9c       0x30 /home/leon/git/swp-report/iMX6_Platform_SDK/output/mx6sdl/lib/libboard_sabre_ai_rev_c.a(audmux_iomux_config.o)
 .debug_frame   0x0000000000001ecc       0x30 /home/leon/git/swp-report/iMX6_Platform_SDK/output/mx6sdl/lib/libboard_sabre_ai_rev_c.a(ccm_iomux_config.o)
 .debug_frame   0x0000000000001efc       0x30 /home/leon/git/swp-report/iMX6_Platform_SDK/output/mx6sdl/lib/libboard_sabre_ai_rev_c.a(ecspi1_iomux_config.o)
 .debug_frame   0x0000000000001f2c       0x30 /home/leon/git/swp-report/iMX6_Platform_SDK/output/mx6sdl/lib/libboard_sabre_ai_rev_c.a(eim_iomux_config.o)
 .debug_frame   0x0000000000001f5c       0x30 /home/leon/git/swp-report/iMX6_Platform_SDK/output/mx6sdl/lib/libboard_sabre_ai_rev_c.a(enet_iomux_config.o)
 .debug_frame   0x0000000000001f8c       0x30 /home/leon/git/swp-report/iMX6_Platform_SDK/output/mx6sdl/lib/libboard_sabre_ai_rev_c.a(esai_iomux_config.o)
 .debug_frame   0x0000000000001fbc       0x30 /home/leon/git/swp-report/iMX6_Platform_SDK/output/mx6sdl/lib/libboard_sabre_ai_rev_c.a(flexcan1_iomux_config.o)
 .debug_frame   0x0000000000001fec       0x30 /home/leon/git/swp-report/iMX6_Platform_SDK/output/mx6sdl/lib/libboard_sabre_ai_rev_c.a(flexcan2_iomux_config.o)
 .debug_frame   0x000000000000201c       0x30 /home/leon/git/swp-report/iMX6_Platform_SDK/output/mx6sdl/lib/libboard_sabre_ai_rev_c.a(gpio1_iomux_config.o)
 .debug_frame   0x000000000000204c       0x30 /home/leon/git/swp-report/iMX6_Platform_SDK/output/mx6sdl/lib/libboard_sabre_ai_rev_c.a(gpio2_iomux_config.o)
 .debug_frame   0x000000000000207c       0x30 /home/leon/git/swp-report/iMX6_Platform_SDK/output/mx6sdl/lib/libboard_sabre_ai_rev_c.a(gpio4_iomux_config.o)
 .debug_frame   0x00000000000020ac       0x30 /home/leon/git/swp-report/iMX6_Platform_SDK/output/mx6sdl/lib/libboard_sabre_ai_rev_c.a(gpio5_iomux_config.o)
 .debug_frame   0x00000000000020dc       0x30 /home/leon/git/swp-report/iMX6_Platform_SDK/output/mx6sdl/lib/libboard_sabre_ai_rev_c.a(gpio6_iomux_config.o)
 .debug_frame   0x000000000000210c       0x30 /home/leon/git/swp-report/iMX6_Platform_SDK/output/mx6sdl/lib/libboard_sabre_ai_rev_c.a(gpmi_iomux_config.o)
 .debug_frame   0x000000000000213c       0x30 /home/leon/git/swp-report/iMX6_Platform_SDK/output/mx6sdl/lib/libboard_sabre_ai_rev_c.a(i2c2_iomux_config.o)
 .debug_frame   0x000000000000216c       0x40 /home/src/arm/target/bin/../arm-none-eabi/lib//libstdc++.a(pure.o)
 .debug_frame   0x00000000000021ac       0x90 /home/src/arm/target/bin/../arm-none-eabi/lib//libstdc++.a(eh_terminate.o)
 .debug_frame   0x000000000000223c       0x60 /home/src/arm/target/bin/../arm-none-eabi/lib//libstdc++.a(eh_arm.o)
 .debug_frame   0x000000000000229c       0xd0 /home/src/arm/target/bin/../arm-none-eabi/lib//libstdc++.a(eh_exception.o)
 .debug_frame   0x000000000000236c       0x30 /home/src/arm/target/bin/../arm-none-eabi/lib//libstdc++.a(eh_globals.o)
 .debug_frame   0x000000000000239c       0x60 /home/src/arm/target/bin/../arm-none-eabi/lib//libstdc++.a(eh_call.o)
 .debug_frame   0x00000000000023fc       0xa8 /home/src/arm/target/bin/../arm-none-eabi/lib//libstdc++.a(eh_personality.o)
 .debug_frame   0x00000000000024a4       0xa8 /home/src/arm/target/bin/../arm-none-eabi/lib//libstdc++.a(si_class_type_info.o)
 .debug_frame   0x000000000000254c       0x68 /home/src/arm/target/bin/../arm-none-eabi/lib//libstdc++.a(eh_throw.o)
 .debug_frame   0x00000000000025b4       0x30 /home/src/arm/target/bin/../arm-none-eabi/lib//libstdc++.a(vterminate.o)
 .debug_frame   0x00000000000025e4       0x68 /home/src/arm/target/bin/../arm-none-eabi/lib//libstdc++.a(eh_catch.o)
 .debug_frame   0x000000000000264c       0x90 /home/src/arm/target/bin/../arm-none-eabi/lib//libstdc++.a(tinfo.o)
 .debug_frame   0x00000000000026dc       0x28 /home/src/arm/target/bin/../arm-none-eabi/lib//libstdc++.a(del_op.o)
 .debug_frame   0x0000000000002704      0x4fc /home/src/arm/target/bin/../arm-none-eabi/lib//libstdc++.a(cp-demangle.o)
 .debug_frame   0x0000000000002c00       0xc8 /home/src/arm/target/bin/../arm-none-eabi/lib//libstdc++.a(class_type_info.o)
 .debug_frame   0x0000000000002cc8       0x74 /home/src/arm/target/bin/../arm-none-eabi/lib//libstdc++.a(eh_alloc.o)
 .debug_frame   0x0000000000002d3c       0x28 /home/src/arm/target/bin/../arm-none-eabi/lib//libstdc++.a(eh_type.o)
 .debug_frame   0x0000000000002d64       0x28 /home/src/arm/target/bin/../arm-none-eabi/lib//libc.a(lib_a-abort.o)
 .debug_frame   0x0000000000002d8c       0x40 /home/src/arm/target/bin/../arm-none-eabi/lib//libc.a(lib_a-assert.o)
 .debug_frame   0x0000000000002dcc       0x20 /home/src/arm/target/bin/../arm-none-eabi/lib//libc.a(lib_a-bzero.o)
 .debug_frame   0x0000000000002dec       0x54 /home/src/arm/target/bin/../arm-none-eabi/lib//libc.a(lib_a-fiprintf.o)
 .debug_frame   0x0000000000002e40       0x48 /home/src/arm/target/bin/../arm-none-eabi/lib//libc.a(lib_a-fputc.o)
 .debug_frame   0x0000000000002e88       0x3c /home/src/arm/target/bin/../arm-none-eabi/lib//libc.a(lib_a-fputs.o)
 .debug_frame   0x0000000000002ec4       0x38 /home/src/arm/target/bin/../arm-none-eabi/lib//libc.a(lib_a-fvwrite.o)
 .debug_frame   0x0000000000002efc       0x50 /home/src/arm/target/bin/../arm-none-eabi/lib//libc.a(lib_a-fwrite.o)
 .debug_frame   0x0000000000002f4c       0x2c /home/src/arm/target/bin/../arm-none-eabi/lib//libc.a(lib_a-init.o)
 .debug_frame   0x0000000000002f78       0x40 /home/src/arm/target/bin/../arm-none-eabi/lib//libc.a(lib_a-malloc.o)
 .debug_frame   0x0000000000002fb8       0x38 /home/src/arm/target/bin/../arm-none-eabi/lib//libc.a(lib_a-mallocr.o)
 .debug_frame   0x0000000000002ff0       0x2c /home/src/arm/target/bin/../arm-none-eabi/lib//libc.a(lib_a-memchr-stub.o)
 .debug_frame   0x000000000000301c       0x28 /home/src/arm/target/bin/../arm-none-eabi/lib//libc.a(lib_a-memcmp.o)
 .debug_frame   0x0000000000003044       0x2c /home/src/arm/target/bin/../arm-none-eabi/lib//libc.a(lib_a-memcpy-stub.o)
 .debug_frame   0x0000000000003070       0x2c /home/src/arm/target/bin/../arm-none-eabi/lib//libc.a(lib_a-memmove.o)
 .debug_frame   0x000000000000309c       0x2c /home/src/arm/target/bin/../arm-none-eabi/lib//libc.a(lib_a-memset.o)
 .debug_frame   0x00000000000030c8       0x30 /home/src/arm/target/bin/../arm-none-eabi/lib//libc.a(lib_a-mlock.o)
 .debug_frame   0x00000000000030f8       0x58 /home/src/arm/target/bin/../arm-none-eabi/lib//libc.a(lib_a-printf.o)
 .debug_frame   0x0000000000003150       0x48 /home/src/arm/target/bin/../arm-none-eabi/lib//libc.a(lib_a-putc.o)
 .debug_frame   0x0000000000003198       0x28 /home/src/arm/target/bin/../arm-none-eabi/lib//libc.a(lib_a-realloc.o)
 .debug_frame   0x00000000000031c0       0x38 /home/src/arm/target/bin/../arm-none-eabi/lib//libc.a(lib_a-reallocr.o)
 .debug_frame   0x00000000000031f8       0x3c /home/src/arm/target/bin/../arm-none-eabi/lib//libc.a(lib_a-rget.o)
 .debug_frame   0x0000000000003234       0x2c /home/src/arm/target/bin/../arm-none-eabi/lib//libc.a(lib_a-sbrkr.o)
 .debug_frame   0x0000000000003260       0xc0 /home/src/arm/target/bin/../arm-none-eabi/lib//libc.a(lib_a-signal.o)
 .debug_frame   0x0000000000003320       0x44 /home/src/arm/target/bin/../arm-none-eabi/lib//libc.a(lib_a-signalr.o)
 .debug_frame   0x0000000000003364       0x60 /home/src/arm/target/bin/../arm-none-eabi/lib//libc.a(lib_a-sprintf.o)
 .debug_frame   0x00000000000033c4       0x20 /home/src/arm/target/bin/../arm-none-eabi/lib//libc.a(lib_a-strlen.o)
 .debug_frame   0x00000000000033e4       0x28 /home/src/arm/target/bin/../arm-none-eabi/lib//libc.a(lib_a-strncmp.o)
 .debug_frame   0x000000000000340c       0x3c /home/src/arm/target/bin/../arm-none-eabi/lib//libc.a(lib_a-svfprintf.o)
 .debug_frame   0x0000000000003448      0x2ec /home/src/arm/target/bin/../arm-none-eabi/lib//libc.a(lib_a-syscalls.o)
 .debug_frame   0x0000000000003734       0x28 /home/src/arm/target/bin/../arm-none-eabi/lib//libc.a(lib_a-syswrite.o)
 .debug_frame   0x000000000000375c       0xb8 /home/src/arm/target/bin/../arm-none-eabi/lib//libc.a(lib_a-vfiprintf.o)
 .debug_frame   0x0000000000003814       0x84 /home/src/arm/target/bin/../arm-none-eabi/lib//libc.a(lib_a-vfprintf.o)
 .debug_frame   0x0000000000003898       0x40 /home/src/arm/target/bin/../arm-none-eabi/lib//libc.a(lib_a-vprintf.o)
 .debug_frame   0x00000000000038d8       0x3c /home/src/arm/target/bin/../arm-none-eabi/lib//libc.a(lib_a-wbuf.o)
 .debug_frame   0x0000000000003914       0x2c /home/src/arm/target/bin/../arm-none-eabi/lib//libc.a(lib_a-writer.o)
 .debug_frame   0x0000000000003940       0x2c /home/src/arm/target/bin/../arm-none-eabi/lib//libc.a(lib_a-wsetup.o)
 .debug_frame   0x000000000000396c       0x64 /home/src/arm/target/bin/../arm-none-eabi/lib//libc.a(lib_a-dtoa.o)
 .debug_frame   0x00000000000039d0       0x20 /home/src/arm/target/bin/../arm-none-eabi/lib//libc.a(lib_a-errno.o)
 .debug_frame   0x00000000000039f0       0x64 /home/src/arm/target/bin/../arm-none-eabi/lib//libc.a(lib_a-fflush.o)
 .debug_frame   0x0000000000003a54      0x130 /home/src/arm/target/bin/../arm-none-eabi/lib//libc.a(lib_a-findfp.o)
 .debug_frame   0x0000000000003b84       0x50 /home/src/arm/target/bin/../arm-none-eabi/lib//libc.a(lib_a-fputwc.o)
 .debug_frame   0x0000000000003bd4       0x50 /home/src/arm/target/bin/../arm-none-eabi/lib//libc.a(lib_a-freer.o)
 .debug_frame   0x0000000000003c24       0x54 /home/src/arm/target/bin/../arm-none-eabi/lib//libc.a(lib_a-fwalk.o)
 .debug_frame   0x0000000000003c78       0x98 /home/src/arm/target/bin/../arm-none-eabi/lib//libc.a(lib_a-locale.o)
 .debug_frame   0x0000000000003d10       0x30 /home/src/arm/target/bin/../arm-none-eabi/lib//libc.a(lib_a-makebuf.o)
 .debug_frame   0x0000000000003d40      0x210 /home/src/arm/target/bin/../arm-none-eabi/lib//libc.a(lib_a-mprec.o)
 .debug_frame   0x0000000000003f50       0x48 /home/src/arm/target/bin/../arm-none-eabi/lib//libc.a(lib_a-reent.o)
 .debug_frame   0x0000000000003f98       0x48 /home/src/arm/target/bin/../arm-none-eabi/lib//libc.a(lib_a-refill.o)
 .debug_frame   0x0000000000003fe0       0x20 /home/src/arm/target/bin/../arm-none-eabi/lib//libc.a(lib_a-s_fpclassify.o)
 .debug_frame   0x0000000000004000       0x88 /home/src/arm/target/bin/../arm-none-eabi/lib//libc.a(lib_a-stdio.o)
 .debug_frame   0x0000000000004088       0x64 /home/src/arm/target/bin/../arm-none-eabi/lib//libc.a(lib_a-svfiprintf.o)
 .debug_frame   0x00000000000040ec       0x58 /home/src/arm/target/bin/../arm-none-eabi/lib//libc.a(lib_a-wcrtomb.o)
 .debug_frame   0x0000000000004144       0x44 /home/src/arm/target/bin/../arm-none-eabi/lib//libc.a(lib_a-wctomb_r.o)
 .debug_frame   0x0000000000004188       0x28 /home/src/arm/target/bin/../arm-none-eabi/lib//libc.a(lib_a-callocr.o)
 .debug_frame   0x00000000000041b0       0x2c /home/src/arm/target/bin/../arm-none-eabi/lib//libc.a(lib_a-closer.o)
 .debug_frame   0x00000000000041dc       0x3c /home/src/arm/target/bin/../arm-none-eabi/lib//libc.a(lib_a-fclose.o)
 .debug_frame   0x0000000000004218       0x2c /home/src/arm/target/bin/../arm-none-eabi/lib//libc.a(lib_a-fstatr.o)
 .debug_frame   0x0000000000004244       0x2c /home/src/arm/target/bin/../arm-none-eabi/lib//libc.a(lib_a-isattyr.o)
 .debug_frame   0x0000000000004270       0x2c /home/src/arm/target/bin/../arm-none-eabi/lib//libc.a(lib_a-lseekr.o)
 .debug_frame   0x000000000000429c       0x2c /home/src/arm/target/bin/../arm-none-eabi/lib//libc.a(lib_a-readr.o)
 .debug_frame   0x00000000000042c8       0x20 /home/src/arm/target/bin/../lib/gcc/arm-none-eabi/4.8.2//libgcc.a(_udivsi3.o)
 .debug_frame   0x00000000000042e8       0x20 /home/src/arm/target/bin/../lib/gcc/arm-none-eabi/4.8.2//libgcc.a(_divsi3.o)
 .debug_frame   0x0000000000004308       0x58 /home/src/arm/target/bin/../lib/gcc/arm-none-eabi/4.8.2//libgcc.a(bpabi.o)
 .debug_frame   0x0000000000004360      0x28c /home/src/arm/target/bin/../lib/gcc/arm-none-eabi/4.8.2//libgcc.a(unwind-arm.o)
 .debug_frame   0x00000000000045ec       0xe4 /home/src/arm/target/bin/../lib/gcc/arm-none-eabi/4.8.2//libgcc.a(pr-support.o)
 .debug_frame   0x00000000000046d0       0x38 /home/src/arm/target/bin/../lib/gcc/arm-none-eabi/4.8.2//libgcc.a(_divdi3.o)
 .debug_frame   0x0000000000004708       0x38 /home/src/arm/target/bin/../lib/gcc/arm-none-eabi/4.8.2//libgcc.a(_udivdi3.o)
 .debug_frame   0x0000000000004740       0x90 /home/leon/git/swp-report/iMX6_Platform_SDK/output/mx6sdl/lib/libsdk.a(max7310.o)
 .debug_frame   0x00000000000047d0      0x178 /home/leon/git/swp-report/iMX6_Platform_SDK/output/mx6sdl/lib/libsdk.a(gpio.o)
 .debug_frame   0x0000000000004948      0x1d8 /home/leon/git/swp-report/iMX6_Platform_SDK/output/mx6sdl/lib/libsdk.a(imx_i2c.o)
 .debug_frame   0x0000000000004b20       0x30 /home/leon/git/swp-report/iMX6_Platform_SDK/output/mx6sdl/lib/libboard_sabre_ai_rev_c.a(i2c_iomux_config.o)

.debug_ranges   0x0000000000000000     0x3e70
 .debug_ranges  0x0000000000000000       0x18 /home/leon/git/swp-report/iMX6_Platform_SDK/output/mx6sdl/stream/sabre_ai_rev_c/obj/apps/stream/src/main.o
 .debug_ranges  0x0000000000000018      0x140 /home/leon/git/swp-report/iMX6_Platform_SDK/output/mx6sdl/lib/libsdk.a(pmu_driver.o)
 .debug_ranges  0x0000000000000158       0x18 /home/src/arm/target/bin/../arm-none-eabi/lib//libstdc++.a(pure.o)
 .debug_ranges  0x0000000000000170       0x38 /home/src/arm/target/bin/../arm-none-eabi/lib//libstdc++.a(eh_terminate.o)
 .debug_ranges  0x00000000000001a8       0xe8 /home/src/arm/target/bin/../arm-none-eabi/lib//libstdc++.a(eh_arm.o)
 .debug_ranges  0x0000000000000290       0xd0 /home/src/arm/target/bin/../arm-none-eabi/lib//libstdc++.a(eh_exception.o)
 .debug_ranges  0x0000000000000360       0x18 /home/src/arm/target/bin/../arm-none-eabi/lib//libstdc++.a(eh_globals.o)
 .debug_ranges  0x0000000000000378       0x80 /home/src/arm/target/bin/../arm-none-eabi/lib//libstdc++.a(eh_call.o)
 .debug_ranges  0x00000000000003f8      0x2c8 /home/src/arm/target/bin/../arm-none-eabi/lib//libstdc++.a(eh_personality.o)
 .debug_ranges  0x00000000000006c0       0x48 /home/src/arm/target/bin/../arm-none-eabi/lib//libstdc++.a(si_class_type_info.o)
 .debug_ranges  0x0000000000000708       0x98 /home/src/arm/target/bin/../arm-none-eabi/lib//libstdc++.a(eh_throw.o)
 .debug_ranges  0x00000000000007a0       0x80 /home/src/arm/target/bin/../arm-none-eabi/lib//libstdc++.a(vterminate.o)
 .debug_ranges  0x0000000000000820       0xb0 /home/src/arm/target/bin/../arm-none-eabi/lib//libstdc++.a(eh_catch.o)
 .debug_ranges  0x00000000000008d0       0x58 /home/src/arm/target/bin/../arm-none-eabi/lib//libstdc++.a(tinfo.o)
 .debug_ranges  0x0000000000000928       0x10 /home/src/arm/target/bin/../arm-none-eabi/lib//libstdc++.a(del_op.o)
 .debug_ranges  0x0000000000000938     0x2780 /home/src/arm/target/bin/../arm-none-eabi/lib//libstdc++.a(cp-demangle.o)
 .debug_ranges  0x00000000000030b8       0xa0 /home/src/arm/target/bin/../arm-none-eabi/lib//libstdc++.a(class_type_info.o)
 .debug_ranges  0x0000000000003158       0x88 /home/src/arm/target/bin/../arm-none-eabi/lib//libstdc++.a(eh_alloc.o)
 .debug_ranges  0x00000000000031e0       0x10 /home/src/arm/target/bin/../arm-none-eabi/lib//libstdc++.a(eh_type.o)
 .debug_ranges  0x00000000000031f0       0x30 /home/src/arm/target/bin/../arm-none-eabi/lib//libc.a(lib_a-fputc.o)
 .debug_ranges  0x0000000000003220       0x20 /home/src/arm/target/bin/../arm-none-eabi/lib//libc.a(lib_a-fputs.o)
 .debug_ranges  0x0000000000003240       0x20 /home/src/arm/target/bin/../arm-none-eabi/lib//libc.a(lib_a-fvwrite.o)
 .debug_ranges  0x0000000000003260       0x20 /home/src/arm/target/bin/../arm-none-eabi/lib//libc.a(lib_a-fwrite.o)
 .debug_ranges  0x0000000000003280       0x28 /home/src/arm/target/bin/../arm-none-eabi/lib//libc.a(lib_a-mallocr.o)
 .debug_ranges  0x00000000000032a8       0x40 /home/src/arm/target/bin/../arm-none-eabi/lib//libc.a(lib_a-putc.o)
 .debug_ranges  0x00000000000032e8       0xb8 /home/src/arm/target/bin/../arm-none-eabi/lib//libc.a(lib_a-reallocr.o)
 .debug_ranges  0x00000000000033a0       0x20 /home/src/arm/target/bin/../arm-none-eabi/lib//libc.a(lib_a-rget.o)
 .debug_ranges  0x00000000000033c0       0x10 /home/src/arm/target/bin/../arm-none-eabi/lib//libc.a(lib_a-strlen.o)
 .debug_ranges  0x00000000000033d0      0x120 /home/src/arm/target/bin/../arm-none-eabi/lib//libc.a(lib_a-svfprintf.o)
 .debug_ranges  0x00000000000034f0      0x200 /home/src/arm/target/bin/../arm-none-eabi/lib//libc.a(lib_a-syscalls.o)
 .debug_ranges  0x00000000000036f0      0x1a8 /home/src/arm/target/bin/../arm-none-eabi/lib//libc.a(lib_a-vfiprintf.o)
 .debug_ranges  0x0000000000003898      0x118 /home/src/arm/target/bin/../arm-none-eabi/lib//libc.a(lib_a-vfprintf.o)
 .debug_ranges  0x00000000000039b0       0x20 /home/src/arm/target/bin/../arm-none-eabi/lib//libc.a(lib_a-wbuf.o)
 .debug_ranges  0x00000000000039d0       0x20 /home/src/arm/target/bin/../arm-none-eabi/lib//libc.a(lib_a-wsetup.o)
 .debug_ranges  0x00000000000039f0       0x38 /home/src/arm/target/bin/../arm-none-eabi/lib//libc.a(lib_a-fflush.o)
 .debug_ranges  0x0000000000003a28       0x68 /home/src/arm/target/bin/../arm-none-eabi/lib//libc.a(lib_a-findfp.o)
 .debug_ranges  0x0000000000003a90       0x38 /home/src/arm/target/bin/../arm-none-eabi/lib//libc.a(lib_a-fputwc.o)
 .debug_ranges  0x0000000000003ac8       0x48 /home/src/arm/target/bin/../arm-none-eabi/lib//libc.a(lib_a-mprec.o)
 .debug_ranges  0x0000000000003b10       0x18 /home/src/arm/target/bin/../arm-none-eabi/lib//libc.a(lib_a-reent.o)
 .debug_ranges  0x0000000000003b28       0x20 /home/src/arm/target/bin/../arm-none-eabi/lib//libc.a(lib_a-refill.o)
 .debug_ranges  0x0000000000003b48       0x50 /home/src/arm/target/bin/../arm-none-eabi/lib//libc.a(lib_a-svfiprintf.o)
 .debug_ranges  0x0000000000003b98       0x30 /home/src/arm/target/bin/../arm-none-eabi/lib//libc.a(lib_a-callocr.o)
 .debug_ranges  0x0000000000003bc8       0x18 /home/src/arm/target/bin/../arm-none-eabi/lib//libc.a(lib_a-fclose.o)
 .debug_ranges  0x0000000000003be0      0x118 /home/src/arm/target/bin/../lib/gcc/arm-none-eabi/4.8.2//libgcc.a(unwind-arm.o)
 .debug_ranges  0x0000000000003cf8       0xa8 /home/src/arm/target/bin/../lib/gcc/arm-none-eabi/4.8.2//libgcc.a(_divdi3.o)
 .debug_ranges  0x0000000000003da0       0xd0 /home/src/arm/target/bin/../lib/gcc/arm-none-eabi/4.8.2//libgcc.a(_udivdi3.o)

Cross Reference Table

Symbol                                            File
IRQ_HDLR                                          /home/leon/git/swp-report/iMX6_Platform_SDK/output/mx6sdl/lib/libsdk.a(interrupt.o)
                                                  /home/leon/git/swp-report/iMX6_Platform_SDK/output/mx6sdl/lib/libsdk.a(vectors.o)
PLL1_OUTPUT                                       /home/leon/git/swp-report/iMX6_Platform_SDK/output/mx6sdl/lib/libsdk.a(ccm_pll.o)
PLL2_OUTPUT                                       /home/leon/git/swp-report/iMX6_Platform_SDK/output/mx6sdl/lib/libsdk.a(ccm_pll.o)
PLL3_OUTPUT                                       /home/leon/git/swp-report/iMX6_Platform_SDK/output/mx6sdl/lib/libsdk.a(ccm_pll.o)
PLL4_OUTPUT                                       /home/leon/git/swp-report/iMX6_Platform_SDK/output/mx6sdl/lib/libsdk.a(ccm_pll.o)
PLL5_OUTPUT                                       /home/leon/git/swp-report/iMX6_Platform_SDK/output/mx6sdl/lib/libsdk.a(ccm_pll.o)
_Balloc                                           /home/src/arm/target/bin/../arm-none-eabi/lib//libc.a(lib_a-mprec.o)
                                                  /home/src/arm/target/bin/../arm-none-eabi/lib//libc.a(lib_a-dtoa.o)
_Bfree                                            /home/src/arm/target/bin/../arm-none-eabi/lib//libc.a(lib_a-mprec.o)
                                                  /home/src/arm/target/bin/../arm-none-eabi/lib//libc.a(lib_a-dtoa.o)
_ITM_deregisterTMCloneTable                       /home/src/arm/target/bin/../lib/gcc/arm-none-eabi/4.8.2//crtbegin.o
_ITM_registerTMCloneTable                         /home/src/arm/target/bin/../lib/gcc/arm-none-eabi/4.8.2//crtbegin.o
_Jv_RegisterClasses                               /home/src/arm/target/bin/../lib/gcc/arm-none-eabi/4.8.2//crtbegin.o
_PathLocale                                       /home/src/arm/target/bin/../arm-none-eabi/lib//libc.a(lib_a-locale.o)
_Unwind_Backtrace                                 /home/src/arm/target/bin/../lib/gcc/arm-none-eabi/4.8.2//libgcc.a(libunwind.o)
_Unwind_Complete                                  /home/src/arm/target/bin/../lib/gcc/arm-none-eabi/4.8.2//libgcc.a(unwind-arm.o)
                                                  /home/src/arm/target/bin/../arm-none-eabi/lib//libstdc++.a(eh_catch.o)
_Unwind_DeleteException                           /home/src/arm/target/bin/../lib/gcc/arm-none-eabi/4.8.2//libgcc.a(unwind-arm.o)
                                                  /home/src/arm/target/bin/../arm-none-eabi/lib//libstdc++.a(eh_catch.o)
_Unwind_ForcedUnwind                              /home/src/arm/target/bin/../lib/gcc/arm-none-eabi/4.8.2//libgcc.a(libunwind.o)
_Unwind_GetCFA                                    /home/src/arm/target/bin/../lib/gcc/arm-none-eabi/4.8.2//libgcc.a(unwind-arm.o)
_Unwind_GetDataRelBase                            /home/src/arm/target/bin/../lib/gcc/arm-none-eabi/4.8.2//libgcc.a(pr-support.o)
                                                  /home/src/arm/target/bin/../arm-none-eabi/lib//libstdc++.a(eh_personality.o)
_Unwind_GetLanguageSpecificData                   /home/src/arm/target/bin/../lib/gcc/arm-none-eabi/4.8.2//libgcc.a(pr-support.o)
                                                  /home/src/arm/target/bin/../arm-none-eabi/lib//libstdc++.a(eh_personality.o)
_Unwind_GetRegionStart                            /home/src/arm/target/bin/../lib/gcc/arm-none-eabi/4.8.2//libgcc.a(pr-support.o)
                                                  /home/src/arm/target/bin/../arm-none-eabi/lib//libstdc++.a(eh_personality.o)
_Unwind_GetTextRelBase                            /home/src/arm/target/bin/../lib/gcc/arm-none-eabi/4.8.2//libgcc.a(pr-support.o)
                                                  /home/src/arm/target/bin/../arm-none-eabi/lib//libstdc++.a(eh_personality.o)
_Unwind_RaiseException                            /home/src/arm/target/bin/../lib/gcc/arm-none-eabi/4.8.2//libgcc.a(libunwind.o)
                                                  /home/src/arm/target/bin/../arm-none-eabi/lib//libstdc++.a(eh_throw.o)
_Unwind_Resume                                    /home/src/arm/target/bin/../lib/gcc/arm-none-eabi/4.8.2//libgcc.a(libunwind.o)
                                                  /home/src/arm/target/bin/../arm-none-eabi/lib//libstdc++.a(eh_arm.o)
_Unwind_Resume_or_Rethrow                         /home/src/arm/target/bin/../lib/gcc/arm-none-eabi/4.8.2//libgcc.a(libunwind.o)
                                                  /home/src/arm/target/bin/../arm-none-eabi/lib//libstdc++.a(eh_throw.o)
_Unwind_VRS_Get                                   /home/src/arm/target/bin/../lib/gcc/arm-none-eabi/4.8.2//libgcc.a(unwind-arm.o)
                                                  /home/src/arm/target/bin/../lib/gcc/arm-none-eabi/4.8.2//libgcc.a(pr-support.o)
                                                  /home/src/arm/target/bin/../arm-none-eabi/lib//libstdc++.a(eh_personality.o)
_Unwind_VRS_Pop                                   /home/src/arm/target/bin/../lib/gcc/arm-none-eabi/4.8.2//libgcc.a(unwind-arm.o)
                                                  /home/src/arm/target/bin/../lib/gcc/arm-none-eabi/4.8.2//libgcc.a(pr-support.o)
_Unwind_VRS_Set                                   /home/src/arm/target/bin/../lib/gcc/arm-none-eabi/4.8.2//libgcc.a(unwind-arm.o)
                                                  /home/src/arm/target/bin/../lib/gcc/arm-none-eabi/4.8.2//libgcc.a(pr-support.o)
                                                  /home/src/arm/target/bin/../arm-none-eabi/lib//libstdc++.a(eh_personality.o)
__TMC_END__                                       /home/src/arm/target/bin/../lib/gcc/arm-none-eabi/4.8.2//crtend.o
                                                  /home/src/arm/target/bin/../lib/gcc/arm-none-eabi/4.8.2//crtbegin.o
___Unwind_Backtrace                               /home/src/arm/target/bin/../lib/gcc/arm-none-eabi/4.8.2//libgcc.a(libunwind.o)
___Unwind_ForcedUnwind                            /home/src/arm/target/bin/../lib/gcc/arm-none-eabi/4.8.2//libgcc.a(libunwind.o)
___Unwind_RaiseException                          /home/src/arm/target/bin/../lib/gcc/arm-none-eabi/4.8.2//libgcc.a(libunwind.o)
___Unwind_Resume                                  /home/src/arm/target/bin/../lib/gcc/arm-none-eabi/4.8.2//libgcc.a(libunwind.o)
___Unwind_Resume_or_Rethrow                       /home/src/arm/target/bin/../lib/gcc/arm-none-eabi/4.8.2//libgcc.a(libunwind.o)
__adddf3                                          /home/src/arm/target/bin/../lib/gcc/arm-none-eabi/4.8.2//libgcc.a(_arm_addsubdf3.o)
__aeabi_cdcmpeq                                   /home/src/arm/target/bin/../lib/gcc/arm-none-eabi/4.8.2//libgcc.a(_arm_cmpdf2.o)
__aeabi_cdcmple                                   /home/src/arm/target/bin/../lib/gcc/arm-none-eabi/4.8.2//libgcc.a(_arm_cmpdf2.o)
__aeabi_cdrcmple                                  /home/src/arm/target/bin/../lib/gcc/arm-none-eabi/4.8.2//libgcc.a(_arm_cmpdf2.o)
__aeabi_d2iz                                      /home/src/arm/target/bin/../lib/gcc/arm-none-eabi/4.8.2//libgcc.a(_arm_fixdfsi.o)
                                                  /home/src/arm/target/bin/../arm-none-eabi/lib//libc.a(lib_a-dtoa.o)
__aeabi_dadd                                      /home/src/arm/target/bin/../lib/gcc/arm-none-eabi/4.8.2//libgcc.a(_arm_addsubdf3.o)
                                                  /home/src/arm/target/bin/../arm-none-eabi/lib//libc.a(lib_a-dtoa.o)
__aeabi_dcmpeq                                    /home/src/arm/target/bin/../lib/gcc/arm-none-eabi/4.8.2//libgcc.a(_arm_cmpdf2.o)
                                                  /home/src/arm/target/bin/../arm-none-eabi/lib//libc.a(lib_a-dtoa.o)
                                                  /home/src/arm/target/bin/../arm-none-eabi/lib//libc.a(lib_a-vfprintf.o)
                                                  /home/src/arm/target/bin/../arm-none-eabi/lib//libc.a(lib_a-svfprintf.o)
__aeabi_dcmpge                                    /home/src/arm/target/bin/../lib/gcc/arm-none-eabi/4.8.2//libgcc.a(_arm_cmpdf2.o)
                                                  /home/src/arm/target/bin/../arm-none-eabi/lib//libc.a(lib_a-dtoa.o)
__aeabi_dcmpgt                                    /home/src/arm/target/bin/../lib/gcc/arm-none-eabi/4.8.2//libgcc.a(_arm_cmpdf2.o)
                                                  /home/src/arm/target/bin/../arm-none-eabi/lib//libc.a(lib_a-dtoa.o)
__aeabi_dcmple                                    /home/src/arm/target/bin/../lib/gcc/arm-none-eabi/4.8.2//libgcc.a(_arm_cmpdf2.o)
__aeabi_dcmplt                                    /home/src/arm/target/bin/../lib/gcc/arm-none-eabi/4.8.2//libgcc.a(_arm_cmpdf2.o)
                                                  /home/src/arm/target/bin/../arm-none-eabi/lib//libc.a(lib_a-dtoa.o)
                                                  /home/src/arm/target/bin/../arm-none-eabi/lib//libc.a(lib_a-vfprintf.o)
                                                  /home/src/arm/target/bin/../arm-none-eabi/lib//libc.a(lib_a-svfprintf.o)
__aeabi_ddiv                                      /home/src/arm/target/bin/../lib/gcc/arm-none-eabi/4.8.2//libgcc.a(_arm_muldivdf3.o)
                                                  /home/src/arm/target/bin/../arm-none-eabi/lib//libc.a(lib_a-mprec.o)
                                                  /home/src/arm/target/bin/../arm-none-eabi/lib//libc.a(lib_a-dtoa.o)
__aeabi_dmul                                      /home/src/arm/target/bin/../lib/gcc/arm-none-eabi/4.8.2//libgcc.a(_arm_muldivdf3.o)
                                                  /home/src/arm/target/bin/../arm-none-eabi/lib//libc.a(lib_a-mprec.o)
                                                  /home/src/arm/target/bin/../arm-none-eabi/lib//libc.a(lib_a-dtoa.o)
__aeabi_drsub                                     /home/src/arm/target/bin/../lib/gcc/arm-none-eabi/4.8.2//libgcc.a(_arm_addsubdf3.o)
__aeabi_dsub                                      /home/src/arm/target/bin/../lib/gcc/arm-none-eabi/4.8.2//libgcc.a(_arm_addsubdf3.o)
                                                  /home/src/arm/target/bin/../arm-none-eabi/lib//libc.a(lib_a-dtoa.o)
__aeabi_f2d                                       /home/src/arm/target/bin/../lib/gcc/arm-none-eabi/4.8.2//libgcc.a(_arm_addsubdf3.o)
__aeabi_i2d                                       /home/src/arm/target/bin/../lib/gcc/arm-none-eabi/4.8.2//libgcc.a(_arm_addsubdf3.o)
                                                  /home/src/arm/target/bin/../arm-none-eabi/lib//libc.a(lib_a-dtoa.o)
__aeabi_idiv                                      /home/src/arm/target/bin/../lib/gcc/arm-none-eabi/4.8.2//libgcc.a(_divsi3.o)
                                                  /home/src/arm/target/bin/../arm-none-eabi/lib//libc.a(lib_a-fvwrite.o)
__aeabi_idiv0                                     /home/src/arm/target/bin/../lib/gcc/arm-none-eabi/4.8.2//libgcc.a(_dvmd_tls.o)
                                                  /home/src/arm/target/bin/../lib/gcc/arm-none-eabi/4.8.2//libgcc.a(_divsi3.o)
                                                  /home/src/arm/target/bin/../lib/gcc/arm-none-eabi/4.8.2//libgcc.a(_udivsi3.o)
__aeabi_idivmod                                   /home/src/arm/target/bin/../lib/gcc/arm-none-eabi/4.8.2//libgcc.a(_divsi3.o)
                                                  /home/leon/git/swp-report/iMX6_Platform_SDK/output/mx6sdl/stream/sabre_ai_rev_c/obj/apps/stream/src/stream.o
__aeabi_l2d                                       /home/src/arm/target/bin/../lib/gcc/arm-none-eabi/4.8.2//libgcc.a(_arm_addsubdf3.o)
__aeabi_ldiv0                                     /home/src/arm/target/bin/../lib/gcc/arm-none-eabi/4.8.2//libgcc.a(_dvmd_tls.o)
                                                  /home/src/arm/target/bin/../lib/gcc/arm-none-eabi/4.8.2//libgcc.a(_aeabi_uldivmod.o)
__aeabi_ui2d                                      /home/src/arm/target/bin/../lib/gcc/arm-none-eabi/4.8.2//libgcc.a(_arm_addsubdf3.o)
                                                  /home/src/arm/target/bin/../arm-none-eabi/lib//libc.a(lib_a-dtoa.o)
__aeabi_uidiv                                     /home/src/arm/target/bin/../lib/gcc/arm-none-eabi/4.8.2//libgcc.a(_udivsi3.o)
                                                  /home/leon/git/swp-report/iMX6_Platform_SDK/output/mx6sdl/lib/libsdk.a(imx_i2c.o)
                                                  /home/src/arm/target/bin/../lib/gcc/arm-none-eabi/4.8.2//libgcc.a(_udivdi3.o)
                                                  /home/src/arm/target/bin/../lib/gcc/arm-none-eabi/4.8.2//libgcc.a(_divdi3.o)
                                                  /home/src/arm/target/bin/../arm-none-eabi/lib//libc.a(lib_a-dtoa.o)
                                                  /home/src/arm/target/bin/../arm-none-eabi/lib//libc.a(lib_a-fwrite.o)
                                                  /home/leon/git/swp-report/iMX6_Platform_SDK/output/mx6sdl/lib/libsdk.a(ccm_pll.o)
                                                  /home/leon/git/swp-report/iMX6_Platform_SDK/output/mx6sdl/stream/sabre_ai_rev_c/obj/apps/stream/src/main.o
__aeabi_uidivmod                                  /home/src/arm/target/bin/../lib/gcc/arm-none-eabi/4.8.2//libgcc.a(_udivsi3.o)
                                                  /home/src/arm/target/bin/../lib/gcc/arm-none-eabi/4.8.2//libgcc.a(_udivdi3.o)
                                                  /home/src/arm/target/bin/../lib/gcc/arm-none-eabi/4.8.2//libgcc.a(_divdi3.o)
__aeabi_ul2d                                      /home/src/arm/target/bin/../lib/gcc/arm-none-eabi/4.8.2//libgcc.a(_arm_addsubdf3.o)
__aeabi_uldivmod                                  /home/src/arm/target/bin/../lib/gcc/arm-none-eabi/4.8.2//libgcc.a(_aeabi_uldivmod.o)
                                                  /home/leon/git/swp-report/iMX6_Platform_SDK/output/mx6sdl/lib/libsdk.a(timer.o)
__aeabi_unwind_cpp_pr0                            /home/src/arm/target/bin/../lib/gcc/arm-none-eabi/4.8.2//libgcc.a(unwind-arm.o)
                                                  /home/src/arm/target/bin/../lib/gcc/arm-none-eabi/4.8.2//libgcc.a(pr-support.o)
                                                  /home/src/arm/target/bin/../arm-none-eabi/lib//libstdc++.a(class_type_info.o)
                                                  /home/src/arm/target/bin/../arm-none-eabi/lib//libstdc++.a(eh_throw.o)
                                                  /home/src/arm/target/bin/../arm-none-eabi/lib//libstdc++.a(si_class_type_info.o)
                                                  /home/src/arm/target/bin/../arm-none-eabi/lib//libstdc++.a(eh_personality.o)
                                                  /home/src/arm/target/bin/../arm-none-eabi/lib//libstdc++.a(eh_arm.o)
__aeabi_unwind_cpp_pr1                            /home/src/arm/target/bin/../lib/gcc/arm-none-eabi/4.8.2//libgcc.a(unwind-arm.o)
                                                  /home/src/arm/target/bin/../lib/gcc/arm-none-eabi/4.8.2//libgcc.a(pr-support.o)
                                                  /home/src/arm/target/bin/../arm-none-eabi/lib//libstdc++.a(eh_catch.o)
                                                  /home/src/arm/target/bin/../arm-none-eabi/lib//libstdc++.a(eh_personality.o)
                                                  /home/src/arm/target/bin/../arm-none-eabi/lib//libstdc++.a(eh_terminate.o)
                                                  /home/src/arm/target/bin/../arm-none-eabi/lib//libstdc++.a(pure.o)
__aeabi_unwind_cpp_pr2                            /home/src/arm/target/bin/../lib/gcc/arm-none-eabi/4.8.2//libgcc.a(unwind-arm.o)
__any_on                                          /home/src/arm/target/bin/../arm-none-eabi/lib//libc.a(lib_a-mprec.o)
__ascii_wctomb                                    /home/src/arm/target/bin/../arm-none-eabi/lib//libc.a(lib_a-wctomb_r.o)
__assert                                          /home/src/arm/target/bin/../arm-none-eabi/lib//libc.a(lib_a-assert.o)
__assert_func                                     /home/src/arm/target/bin/../arm-none-eabi/lib//libc.a(lib_a-assert.o)
                                                  /home/leon/git/swp-report/iMX6_Platform_SDK/output/mx6sdl/lib/libboard_sabre_ai_rev_c.a(i2c_iomux_config.o)
                                                  /home/leon/git/swp-report/iMX6_Platform_SDK/output/mx6sdl/lib/libboard_sabre_ai_rev_c.a(uart_iomux_config.o)
                                                  /home/leon/git/swp-report/iMX6_Platform_SDK/output/mx6sdl/lib/libsdk.a(gic.o)
__b2d                                             /home/src/arm/target/bin/../arm-none-eabi/lib//libc.a(lib_a-mprec.o)
__bss_end__                                       /home/leon/git/swp-report/iMX6_Platform_SDK/output/mx6sdl/lib/libsdk.a(startup.o)
__bss_start__                                     /home/leon/git/swp-report/iMX6_Platform_SDK/output/mx6sdl/lib/libsdk.a(startup.o)
__clzsi2                                          /home/src/arm/target/bin/../lib/gcc/arm-none-eabi/4.8.2//libgcc.a(_clzsi2.o)
                                                  /home/src/arm/target/bin/../lib/gcc/arm-none-eabi/4.8.2//libgcc.a(_udivdi3.o)
                                                  /home/src/arm/target/bin/../lib/gcc/arm-none-eabi/4.8.2//libgcc.a(_divdi3.o)
__cmpdf2                                          /home/src/arm/target/bin/../lib/gcc/arm-none-eabi/4.8.2//libgcc.a(_arm_cmpdf2.o)
__copybits                                        /home/src/arm/target/bin/../arm-none-eabi/lib//libc.a(lib_a-mprec.o)
__cxa_allocate_dependent_exception                /home/src/arm/target/bin/../arm-none-eabi/lib//libstdc++.a(eh_alloc.o)
__cxa_allocate_exception                          /home/src/arm/target/bin/../arm-none-eabi/lib//libstdc++.a(eh_alloc.o)
                                                  /home/src/arm/target/bin/../arm-none-eabi/lib//libstdc++.a(eh_call.o)
__cxa_begin_catch                                 /home/src/arm/target/bin/../arm-none-eabi/lib//libstdc++.a(eh_catch.o)
                                                  /home/src/arm/target/bin/../arm-none-eabi/lib//libstdc++.a(vterminate.o)
                                                  /home/src/arm/target/bin/../arm-none-eabi/lib//libstdc++.a(eh_throw.o)
                                                  /home/src/arm/target/bin/../arm-none-eabi/lib//libstdc++.a(eh_personality.o)
                                                  /home/src/arm/target/bin/../arm-none-eabi/lib//libstdc++.a(eh_call.o)
                                                  /home/src/arm/target/bin/../arm-none-eabi/lib//libstdc++.a(eh_terminate.o)
__cxa_begin_cleanup                               /home/src/arm/target/bin/../arm-none-eabi/lib//libstdc++.a(eh_arm.o)
                                                  /home/src/arm/target/bin/../lib/gcc/arm-none-eabi/4.8.2//libgcc.a(unwind-arm.o)
                                                  /home/src/arm/target/bin/../arm-none-eabi/lib//libstdc++.a(eh_personality.o)
__cxa_call_terminate                              /home/src/arm/target/bin/../arm-none-eabi/lib//libstdc++.a(eh_call.o)
                                                  /home/src/arm/target/bin/../arm-none-eabi/lib//libstdc++.a(eh_personality.o)
__cxa_call_unexpected                             /home/src/arm/target/bin/../arm-none-eabi/lib//libstdc++.a(eh_call.o)
                                                  /home/src/arm/target/bin/../lib/gcc/arm-none-eabi/4.8.2//libgcc.a(unwind-arm.o)
                                                  /home/src/arm/target/bin/../arm-none-eabi/lib//libstdc++.a(eh_catch.o)
                                                  /home/src/arm/target/bin/../arm-none-eabi/lib//libstdc++.a(eh_terminate.o)
__cxa_current_exception_type                      /home/src/arm/target/bin/../arm-none-eabi/lib//libstdc++.a(eh_type.o)
                                                  /home/src/arm/target/bin/../arm-none-eabi/lib//libstdc++.a(vterminate.o)
__cxa_deleted_virtual                             /home/src/arm/target/bin/../arm-none-eabi/lib//libstdc++.a(pure.o)
__cxa_demangle                                    /home/src/arm/target/bin/../arm-none-eabi/lib//libstdc++.a(cp-demangle.o)
                                                  /home/src/arm/target/bin/../arm-none-eabi/lib//libstdc++.a(vterminate.o)
__cxa_end_catch                                   /home/src/arm/target/bin/../arm-none-eabi/lib//libstdc++.a(eh_catch.o)
                                                  /home/src/arm/target/bin/../arm-none-eabi/lib//libstdc++.a(vterminate.o)
                                                  /home/src/arm/target/bin/../arm-none-eabi/lib//libstdc++.a(eh_call.o)
                                                  /home/src/arm/target/bin/../arm-none-eabi/lib//libstdc++.a(eh_terminate.o)
__cxa_end_cleanup                                 /home/src/arm/target/bin/../arm-none-eabi/lib//libstdc++.a(eh_arm.o)
                                                  /home/src/arm/target/bin/../arm-none-eabi/lib//libstdc++.a(eh_catch.o)
                                                  /home/src/arm/target/bin/../arm-none-eabi/lib//libstdc++.a(vterminate.o)
                                                  /home/src/arm/target/bin/../arm-none-eabi/lib//libstdc++.a(eh_call.o)
                                                  /home/src/arm/target/bin/../arm-none-eabi/lib//libstdc++.a(eh_terminate.o)
__cxa_free_dependent_exception                    /home/src/arm/target/bin/../arm-none-eabi/lib//libstdc++.a(eh_alloc.o)
__cxa_free_exception                              /home/src/arm/target/bin/../arm-none-eabi/lib//libstdc++.a(eh_alloc.o)
                                                  /home/src/arm/target/bin/../arm-none-eabi/lib//libstdc++.a(eh_throw.o)
__cxa_get_exception_ptr                           /home/src/arm/target/bin/../arm-none-eabi/lib//libstdc++.a(eh_catch.o)
__cxa_get_globals                                 /home/src/arm/target/bin/../arm-none-eabi/lib//libstdc++.a(eh_globals.o)
                                                  /home/src/arm/target/bin/../arm-none-eabi/lib//libstdc++.a(eh_type.o)
                                                  /home/src/arm/target/bin/../arm-none-eabi/lib//libstdc++.a(eh_alloc.o)
                                                  /home/src/arm/target/bin/../arm-none-eabi/lib//libstdc++.a(eh_catch.o)
                                                  /home/src/arm/target/bin/../arm-none-eabi/lib//libstdc++.a(eh_throw.o)
                                                  /home/src/arm/target/bin/../arm-none-eabi/lib//libstdc++.a(eh_arm.o)
__cxa_get_globals_fast                            /home/src/arm/target/bin/../arm-none-eabi/lib//libstdc++.a(eh_globals.o)
                                                  /home/src/arm/target/bin/../arm-none-eabi/lib//libstdc++.a(eh_catch.o)
                                                  /home/src/arm/target/bin/../arm-none-eabi/lib//libstdc++.a(eh_call.o)
__cxa_pure_virtual                                /home/src/arm/target/bin/../arm-none-eabi/lib//libstdc++.a(pure.o)
                                                  /home/src/arm/target/bin/../arm-none-eabi/lib//libstdc++.a(eh_exception.o)
                                                  /home/leon/git/swp-report/iMX6_Platform_SDK/output/mx6sdl/lib/libsdk.a(pmu_driver.o)
__cxa_rethrow                                     /home/src/arm/target/bin/../arm-none-eabi/lib//libstdc++.a(eh_throw.o)
                                                  /home/src/arm/target/bin/../arm-none-eabi/lib//libstdc++.a(vterminate.o)
                                                  /home/src/arm/target/bin/../arm-none-eabi/lib//libstdc++.a(eh_call.o)
__cxa_throw                                       /home/src/arm/target/bin/../arm-none-eabi/lib//libstdc++.a(eh_throw.o)
                                                  /home/src/arm/target/bin/../arm-none-eabi/lib//libstdc++.a(eh_call.o)
__cxa_type_match                                  /home/src/arm/target/bin/../arm-none-eabi/lib//libstdc++.a(eh_arm.o)
                                                  /home/src/arm/target/bin/../lib/gcc/arm-none-eabi/4.8.2//libgcc.a(unwind-arm.o)
                                                  /home/src/arm/target/bin/../arm-none-eabi/lib//libstdc++.a(eh_personality.o)
                                                  /home/src/arm/target/bin/../arm-none-eabi/lib//libstdc++.a(eh_call.o)
__cxxabiv1::__class_type_info::__do_catch(std::type_info const*, void**, unsigned int) const /home/src/arm/target/bin/../arm-none-eabi/lib//libstdc++.a(class_type_info.o)
                                                  /home/src/arm/target/bin/../arm-none-eabi/lib//libstdc++.a(si_class_type_info.o)
__cxxabiv1::__class_type_info::__do_dyncast(int, __cxxabiv1::__class_type_info::__sub_kind, __cxxabiv1::__class_type_info const*, void const*, __cxxabiv1::__class_type_info const*, void const*, __cxxabiv1::__class_type_info::__dyncast_result&) const /home/src/arm/target/bin/../arm-none-eabi/lib//libstdc++.a(class_type_info.o)
__cxxabiv1::__class_type_info::__do_find_public_src(int, void const*, __cxxabiv1::__class_type_info const*, void const*) const /home/src/arm/target/bin/../arm-none-eabi/lib//libstdc++.a(class_type_info.o)
__cxxabiv1::__class_type_info::__do_upcast(__cxxabiv1::__class_type_info const*, void const*, __cxxabiv1::__class_type_info::__upcast_result&) const /home/src/arm/target/bin/../arm-none-eabi/lib//libstdc++.a(class_type_info.o)
                                                  /home/src/arm/target/bin/../arm-none-eabi/lib//libstdc++.a(si_class_type_info.o)
__cxxabiv1::__class_type_info::__do_upcast(__cxxabiv1::__class_type_info const*, void**) const /home/src/arm/target/bin/../arm-none-eabi/lib//libstdc++.a(class_type_info.o)
                                                  /home/src/arm/target/bin/../arm-none-eabi/lib//libstdc++.a(si_class_type_info.o)
__cxxabiv1::__class_type_info::~__class_type_info() /home/src/arm/target/bin/../arm-none-eabi/lib//libstdc++.a(class_type_info.o)
__cxxabiv1::__class_type_info::~__class_type_info() /home/src/arm/target/bin/../arm-none-eabi/lib//libstdc++.a(class_type_info.o)
                                                  /home/src/arm/target/bin/../arm-none-eabi/lib//libstdc++.a(si_class_type_info.o)
__cxxabiv1::__class_type_info::~__class_type_info() /home/src/arm/target/bin/../arm-none-eabi/lib//libstdc++.a(class_type_info.o)
__cxxabiv1::__forced_unwind::~__forced_unwind()   /home/src/arm/target/bin/../arm-none-eabi/lib//libstdc++.a(eh_exception.o)
__cxxabiv1::__forced_unwind::~__forced_unwind()   /home/src/arm/target/bin/../arm-none-eabi/lib//libstdc++.a(eh_exception.o)
__cxxabiv1::__forced_unwind::~__forced_unwind()   /home/src/arm/target/bin/../arm-none-eabi/lib//libstdc++.a(eh_exception.o)
__cxxabiv1::__foreign_exception::~__foreign_exception() /home/src/arm/target/bin/../arm-none-eabi/lib//libstdc++.a(eh_exception.o)
__cxxabiv1::__foreign_exception::~__foreign_exception() /home/src/arm/target/bin/../arm-none-eabi/lib//libstdc++.a(eh_exception.o)
__cxxabiv1::__foreign_exception::~__foreign_exception() /home/src/arm/target/bin/../arm-none-eabi/lib//libstdc++.a(eh_exception.o)
__cxxabiv1::__si_class_type_info::__do_dyncast(int, __cxxabiv1::__class_type_info::__sub_kind, __cxxabiv1::__class_type_info const*, void const*, __cxxabiv1::__class_type_info const*, void const*, __cxxabiv1::__class_type_info::__dyncast_result&) const /home/src/arm/target/bin/../arm-none-eabi/lib//libstdc++.a(si_class_type_info.o)
__cxxabiv1::__si_class_type_info::__do_find_public_src(int, void const*, __cxxabiv1::__class_type_info const*, void const*) const /home/src/arm/target/bin/../arm-none-eabi/lib//libstdc++.a(si_class_type_info.o)
__cxxabiv1::__si_class_type_info::__do_upcast(__cxxabiv1::__class_type_info const*, void const*, __cxxabiv1::__class_type_info::__upcast_result&) const /home/src/arm/target/bin/../arm-none-eabi/lib//libstdc++.a(si_class_type_info.o)
__cxxabiv1::__si_class_type_info::~__si_class_type_info() /home/src/arm/target/bin/../arm-none-eabi/lib//libstdc++.a(si_class_type_info.o)
__cxxabiv1::__si_class_type_info::~__si_class_type_info() /home/src/arm/target/bin/../arm-none-eabi/lib//libstdc++.a(si_class_type_info.o)
__cxxabiv1::__si_class_type_info::~__si_class_type_info() /home/src/arm/target/bin/../arm-none-eabi/lib//libstdc++.a(si_class_type_info.o)
__cxxabiv1::__terminate(void (*)())               /home/src/arm/target/bin/../arm-none-eabi/lib//libstdc++.a(eh_terminate.o)
                                                  /home/src/arm/target/bin/../arm-none-eabi/lib//libstdc++.a(eh_throw.o)
                                                  /home/src/arm/target/bin/../arm-none-eabi/lib//libstdc++.a(eh_call.o)
__cxxabiv1::__terminate_handler                   /home/src/arm/target/bin/../arm-none-eabi/lib//libstdc++.a(eh_term_handler.o)
                                                  /home/src/arm/target/bin/../arm-none-eabi/lib//libstdc++.a(eh_throw.o)
                                                  /home/src/arm/target/bin/../arm-none-eabi/lib//libstdc++.a(eh_terminate.o)
__cxxabiv1::__unexpected(void (*)())              /home/src/arm/target/bin/../arm-none-eabi/lib//libstdc++.a(eh_terminate.o)
                                                  /home/src/arm/target/bin/../arm-none-eabi/lib//libstdc++.a(eh_call.o)
__cxxabiv1::__unexpected_handler                  /home/src/arm/target/bin/../arm-none-eabi/lib//libstdc++.a(eh_unex_handler.o)
                                                  /home/src/arm/target/bin/../arm-none-eabi/lib//libstdc++.a(eh_throw.o)
                                                  /home/src/arm/target/bin/../arm-none-eabi/lib//libstdc++.a(eh_terminate.o)
__d2b                                             /home/src/arm/target/bin/../arm-none-eabi/lib//libc.a(lib_a-mprec.o)
                                                  /home/src/arm/target/bin/../arm-none-eabi/lib//libc.a(lib_a-dtoa.o)
__deregister_frame_info                           /home/src/arm/target/bin/../lib/gcc/arm-none-eabi/4.8.2//crtbegin.o
__divdf3                                          /home/src/arm/target/bin/../lib/gcc/arm-none-eabi/4.8.2//libgcc.a(_arm_muldivdf3.o)
__divdi3                                          /home/src/arm/target/bin/../lib/gcc/arm-none-eabi/4.8.2//libgcc.a(_divdi3.o)
                                                  /home/src/arm/target/bin/../lib/gcc/arm-none-eabi/4.8.2//libgcc.a(bpabi.o)
__divsi3                                          /home/src/arm/target/bin/../lib/gcc/arm-none-eabi/4.8.2//libgcc.a(_divsi3.o)
__dso_handle                                      /home/src/arm/target/bin/../lib/gcc/arm-none-eabi/4.8.2//crtbegin.o
__eqdf2                                           /home/src/arm/target/bin/../lib/gcc/arm-none-eabi/4.8.2//libgcc.a(_arm_cmpdf2.o)
__errno                                           /home/src/arm/target/bin/../arm-none-eabi/lib//libc.a(lib_a-errno.o)
                                                  /home/src/arm/target/bin/../arm-none-eabi/lib//libc.a(lib_a-syscalls.o)
__exidx_end                                       /home/src/arm/target/bin/../lib/gcc/arm-none-eabi/4.8.2//libgcc.a(unwind-arm.o)
__exidx_start                                     /home/src/arm/target/bin/../lib/gcc/arm-none-eabi/4.8.2//libgcc.a(unwind-arm.o)
__extendsfdf2                                     /home/src/arm/target/bin/../lib/gcc/arm-none-eabi/4.8.2//libgcc.a(_arm_addsubdf3.o)
__fixdfsi                                         /home/src/arm/target/bin/../lib/gcc/arm-none-eabi/4.8.2//libgcc.a(_arm_fixdfsi.o)
__floatdidf                                       /home/src/arm/target/bin/../lib/gcc/arm-none-eabi/4.8.2//libgcc.a(_arm_addsubdf3.o)
__floatsidf                                       /home/src/arm/target/bin/../lib/gcc/arm-none-eabi/4.8.2//libgcc.a(_arm_addsubdf3.o)
__floatundidf                                     /home/src/arm/target/bin/../lib/gcc/arm-none-eabi/4.8.2//libgcc.a(_arm_addsubdf3.o)
__floatunsidf                                     /home/src/arm/target/bin/../lib/gcc/arm-none-eabi/4.8.2//libgcc.a(_arm_addsubdf3.o)
__fp_lock_all                                     /home/src/arm/target/bin/../arm-none-eabi/lib//libc.a(lib_a-findfp.o)
__fp_unlock_all                                   /home/src/arm/target/bin/../arm-none-eabi/lib//libc.a(lib_a-findfp.o)
__fpclassifyd                                     /home/src/arm/target/bin/../arm-none-eabi/lib//libc.a(lib_a-s_fpclassify.o)
                                                  /home/src/arm/target/bin/../arm-none-eabi/lib//libc.a(lib_a-vfprintf.o)
                                                  /home/src/arm/target/bin/../arm-none-eabi/lib//libc.a(lib_a-svfprintf.o)
__gcclibcxx_demangle_callback                     /home/src/arm/target/bin/../arm-none-eabi/lib//libstdc++.a(cp-demangle.o)
__gedf2                                           /home/src/arm/target/bin/../lib/gcc/arm-none-eabi/4.8.2//libgcc.a(_arm_cmpdf2.o)
__gnu_Unwind_Backtrace                            /home/src/arm/target/bin/../lib/gcc/arm-none-eabi/4.8.2//libgcc.a(unwind-arm.o)
                                                  /home/src/arm/target/bin/../lib/gcc/arm-none-eabi/4.8.2//libgcc.a(libunwind.o)
__gnu_Unwind_Find_exidx                           /home/src/arm/target/bin/../lib/gcc/arm-none-eabi/4.8.2//libgcc.a(unwind-arm.o)
__gnu_Unwind_ForcedUnwind                         /home/src/arm/target/bin/../lib/gcc/arm-none-eabi/4.8.2//libgcc.a(unwind-arm.o)
                                                  /home/src/arm/target/bin/../lib/gcc/arm-none-eabi/4.8.2//libgcc.a(libunwind.o)
__gnu_Unwind_RaiseException                       /home/src/arm/target/bin/../lib/gcc/arm-none-eabi/4.8.2//libgcc.a(unwind-arm.o)
                                                  /home/src/arm/target/bin/../lib/gcc/arm-none-eabi/4.8.2//libgcc.a(libunwind.o)
__gnu_Unwind_Restore_VFP                          /home/src/arm/target/bin/../lib/gcc/arm-none-eabi/4.8.2//libgcc.a(libunwind.o)
                                                  /home/src/arm/target/bin/../lib/gcc/arm-none-eabi/4.8.2//libgcc.a(unwind-arm.o)
__gnu_Unwind_Restore_VFP_D                        /home/src/arm/target/bin/../lib/gcc/arm-none-eabi/4.8.2//libgcc.a(libunwind.o)
                                                  /home/src/arm/target/bin/../lib/gcc/arm-none-eabi/4.8.2//libgcc.a(unwind-arm.o)
__gnu_Unwind_Restore_VFP_D_16_to_31               /home/src/arm/target/bin/../lib/gcc/arm-none-eabi/4.8.2//libgcc.a(libunwind.o)
                                                  /home/src/arm/target/bin/../lib/gcc/arm-none-eabi/4.8.2//libgcc.a(unwind-arm.o)
__gnu_Unwind_Restore_WMMXC                        /home/src/arm/target/bin/../lib/gcc/arm-none-eabi/4.8.2//libgcc.a(libunwind.o)
                                                  /home/src/arm/target/bin/../lib/gcc/arm-none-eabi/4.8.2//libgcc.a(unwind-arm.o)
__gnu_Unwind_Restore_WMMXD                        /home/src/arm/target/bin/../lib/gcc/arm-none-eabi/4.8.2//libgcc.a(libunwind.o)
                                                  /home/src/arm/target/bin/../lib/gcc/arm-none-eabi/4.8.2//libgcc.a(unwind-arm.o)
__gnu_Unwind_Resume                               /home/src/arm/target/bin/../lib/gcc/arm-none-eabi/4.8.2//libgcc.a(unwind-arm.o)
                                                  /home/src/arm/target/bin/../lib/gcc/arm-none-eabi/4.8.2//libgcc.a(libunwind.o)
__gnu_Unwind_Resume_or_Rethrow                    /home/src/arm/target/bin/../lib/gcc/arm-none-eabi/4.8.2//libgcc.a(unwind-arm.o)
                                                  /home/src/arm/target/bin/../lib/gcc/arm-none-eabi/4.8.2//libgcc.a(libunwind.o)
__gnu_Unwind_Save_VFP                             /home/src/arm/target/bin/../lib/gcc/arm-none-eabi/4.8.2//libgcc.a(libunwind.o)
                                                  /home/src/arm/target/bin/../lib/gcc/arm-none-eabi/4.8.2//libgcc.a(unwind-arm.o)
__gnu_Unwind_Save_VFP_D                           /home/src/arm/target/bin/../lib/gcc/arm-none-eabi/4.8.2//libgcc.a(libunwind.o)
                                                  /home/src/arm/target/bin/../lib/gcc/arm-none-eabi/4.8.2//libgcc.a(unwind-arm.o)
__gnu_Unwind_Save_VFP_D_16_to_31                  /home/src/arm/target/bin/../lib/gcc/arm-none-eabi/4.8.2//libgcc.a(libunwind.o)
                                                  /home/src/arm/target/bin/../lib/gcc/arm-none-eabi/4.8.2//libgcc.a(unwind-arm.o)
__gnu_Unwind_Save_WMMXC                           /home/src/arm/target/bin/../lib/gcc/arm-none-eabi/4.8.2//libgcc.a(libunwind.o)
                                                  /home/src/arm/target/bin/../lib/gcc/arm-none-eabi/4.8.2//libgcc.a(unwind-arm.o)
__gnu_Unwind_Save_WMMXD                           /home/src/arm/target/bin/../lib/gcc/arm-none-eabi/4.8.2//libgcc.a(libunwind.o)
                                                  /home/src/arm/target/bin/../lib/gcc/arm-none-eabi/4.8.2//libgcc.a(unwind-arm.o)
__gnu_cxx::__verbose_terminate_handler()          /home/src/arm/target/bin/../arm-none-eabi/lib//libstdc++.a(vterminate.o)
                                                  /home/src/arm/target/bin/../arm-none-eabi/lib//libstdc++.a(eh_term_handler.o)
__gnu_end_cleanup                                 /home/src/arm/target/bin/../arm-none-eabi/lib//libstdc++.a(eh_arm.o)
__gnu_ldivmod_helper                              /home/src/arm/target/bin/../lib/gcc/arm-none-eabi/4.8.2//libgcc.a(bpabi.o)
__gnu_uldivmod_helper                             /home/src/arm/target/bin/../lib/gcc/arm-none-eabi/4.8.2//libgcc.a(bpabi.o)
                                                  /home/src/arm/target/bin/../lib/gcc/arm-none-eabi/4.8.2//libgcc.a(_aeabi_uldivmod.o)
__gnu_unwind_execute                              /home/src/arm/target/bin/../lib/gcc/arm-none-eabi/4.8.2//libgcc.a(pr-support.o)
                                                  /home/src/arm/target/bin/../lib/gcc/arm-none-eabi/4.8.2//libgcc.a(unwind-arm.o)
__gnu_unwind_frame                                /home/src/arm/target/bin/../lib/gcc/arm-none-eabi/4.8.2//libgcc.a(pr-support.o)
                                                  /home/src/arm/target/bin/../arm-none-eabi/lib//libstdc++.a(eh_personality.o)
__gtdf2                                           /home/src/arm/target/bin/../lib/gcc/arm-none-eabi/4.8.2//libgcc.a(_arm_cmpdf2.o)
__gxx_personality_v0                              /home/src/arm/target/bin/../arm-none-eabi/lib//libstdc++.a(eh_personality.o)
                                                  /home/src/arm/target/bin/../arm-none-eabi/lib//libstdc++.a(eh_catch.o)
                                                  /home/src/arm/target/bin/../arm-none-eabi/lib//libstdc++.a(vterminate.o)
                                                  /home/src/arm/target/bin/../arm-none-eabi/lib//libstdc++.a(eh_call.o)
                                                  /home/src/arm/target/bin/../arm-none-eabi/lib//libstdc++.a(eh_terminate.o)
__hab_data                                        /home/leon/git/swp-report/iMX6_Platform_SDK/output/mx6sdl/stream/sabre_ai_rev_c/obj/apps/common/ivt.o
__hi0bits                                         /home/src/arm/target/bin/../arm-none-eabi/lib//libc.a(lib_a-mprec.o)
                                                  /home/src/arm/target/bin/../arm-none-eabi/lib//libc.a(lib_a-dtoa.o)
__i2b                                             /home/src/arm/target/bin/../arm-none-eabi/lib//libc.a(lib_a-mprec.o)
                                                  /home/src/arm/target/bin/../arm-none-eabi/lib//libc.a(lib_a-dtoa.o)
__init_array_end                                  /home/src/arm/target/bin/../arm-none-eabi/lib//libc.a(lib_a-init.o)
__init_array_start                                /home/src/arm/target/bin/../arm-none-eabi/lib//libc.a(lib_a-init.o)
__l1_page_table_start                             /home/leon/git/swp-report/iMX6_Platform_SDK/output/mx6sdl/lib/libsdk.a(mmu.o)
__ledf2                                           /home/src/arm/target/bin/../lib/gcc/arm-none-eabi/4.8.2//libgcc.a(_arm_cmpdf2.o)
__libc_init_array                                 /home/src/arm/target/bin/../arm-none-eabi/lib//libc.a(lib_a-init.o)
                                                  /home/leon/git/swp-report/iMX6_Platform_SDK/output/mx6sdl/lib/libsdk.a(startup.o)
__lo0bits                                         /home/src/arm/target/bin/../arm-none-eabi/lib//libc.a(lib_a-mprec.o)
__locale_charset                                  /home/src/arm/target/bin/../arm-none-eabi/lib//libc.a(lib_a-locale.o)
                                                  /home/src/arm/target/bin/../arm-none-eabi/lib//libc.a(lib_a-wctomb_r.o)
                                                  /home/src/arm/target/bin/../arm-none-eabi/lib//libc.a(lib_a-wcrtomb.o)
__locale_cjk_lang                                 /home/src/arm/target/bin/../arm-none-eabi/lib//libc.a(lib_a-locale.o)
__locale_mb_cur_max                               /home/src/arm/target/bin/../arm-none-eabi/lib//libc.a(lib_a-locale.o)
                                                  /home/src/arm/target/bin/../arm-none-eabi/lib//libc.a(lib_a-fputwc.o)
__locale_msgcharset                               /home/src/arm/target/bin/../arm-none-eabi/lib//libc.a(lib_a-locale.o)
__lshift                                          /home/src/arm/target/bin/../arm-none-eabi/lib//libc.a(lib_a-mprec.o)
                                                  /home/src/arm/target/bin/../arm-none-eabi/lib//libc.a(lib_a-dtoa.o)
__ltdf2                                           /home/src/arm/target/bin/../lib/gcc/arm-none-eabi/4.8.2//libgcc.a(_arm_cmpdf2.o)
__malloc_av_                                      /home/src/arm/target/bin/../arm-none-eabi/lib//libc.a(lib_a-mallocr.o)
                                                  /home/src/arm/target/bin/../arm-none-eabi/lib//libc.a(lib_a-freer.o)
                                                  /home/src/arm/target/bin/../arm-none-eabi/lib//libc.a(lib_a-reallocr.o)
__malloc_current_mallinfo                         /home/src/arm/target/bin/../arm-none-eabi/lib//libc.a(lib_a-mallocr.o)
                                                  /home/src/arm/target/bin/../arm-none-eabi/lib//libc.a(lib_a-freer.o)
__malloc_lock                                     /home/src/arm/target/bin/../arm-none-eabi/lib//libc.a(lib_a-mlock.o)
                                                  /home/src/arm/target/bin/../arm-none-eabi/lib//libc.a(lib_a-freer.o)
                                                  /home/src/arm/target/bin/../arm-none-eabi/lib//libc.a(lib_a-reallocr.o)
                                                  /home/src/arm/target/bin/../arm-none-eabi/lib//libc.a(lib_a-mallocr.o)
__malloc_max_sbrked_mem                           /home/src/arm/target/bin/../arm-none-eabi/lib//libc.a(lib_a-mallocr.o)
__malloc_max_total_mem                            /home/src/arm/target/bin/../arm-none-eabi/lib//libc.a(lib_a-mallocr.o)
__malloc_sbrk_base                                /home/src/arm/target/bin/../arm-none-eabi/lib//libc.a(lib_a-mallocr.o)
                                                  /home/src/arm/target/bin/../arm-none-eabi/lib//libc.a(lib_a-freer.o)
__malloc_top_pad                                  /home/src/arm/target/bin/../arm-none-eabi/lib//libc.a(lib_a-mallocr.o)
                                                  /home/src/arm/target/bin/../arm-none-eabi/lib//libc.a(lib_a-freer.o)
__malloc_trim_threshold                           /home/src/arm/target/bin/../arm-none-eabi/lib//libc.a(lib_a-mallocr.o)
                                                  /home/src/arm/target/bin/../arm-none-eabi/lib//libc.a(lib_a-freer.o)
__malloc_unlock                                   /home/src/arm/target/bin/../arm-none-eabi/lib//libc.a(lib_a-mlock.o)
                                                  /home/src/arm/target/bin/../arm-none-eabi/lib//libc.a(lib_a-freer.o)
                                                  /home/src/arm/target/bin/../arm-none-eabi/lib//libc.a(lib_a-reallocr.o)
                                                  /home/src/arm/target/bin/../arm-none-eabi/lib//libc.a(lib_a-mallocr.o)
__mb_cur_max                                      /home/src/arm/target/bin/../arm-none-eabi/lib//libc.a(lib_a-locale.o)
__mcmp                                            /home/src/arm/target/bin/../arm-none-eabi/lib//libc.a(lib_a-mprec.o)
                                                  /home/src/arm/target/bin/../arm-none-eabi/lib//libc.a(lib_a-dtoa.o)
__mdiff                                           /home/src/arm/target/bin/../arm-none-eabi/lib//libc.a(lib_a-mprec.o)
                                                  /home/src/arm/target/bin/../arm-none-eabi/lib//libc.a(lib_a-dtoa.o)
__mlocale_changed                                 /home/src/arm/target/bin/../arm-none-eabi/lib//libc.a(lib_a-locale.o)
__mprec_bigtens                                   /home/src/arm/target/bin/../arm-none-eabi/lib//libc.a(lib_a-mprec.o)
                                                  /home/src/arm/target/bin/../arm-none-eabi/lib//libc.a(lib_a-dtoa.o)
__mprec_tens                                      /home/src/arm/target/bin/../arm-none-eabi/lib//libc.a(lib_a-mprec.o)
                                                  /home/src/arm/target/bin/../arm-none-eabi/lib//libc.a(lib_a-dtoa.o)
__mprec_tinytens                                  /home/src/arm/target/bin/../arm-none-eabi/lib//libc.a(lib_a-mprec.o)
__muldf3                                          /home/src/arm/target/bin/../lib/gcc/arm-none-eabi/4.8.2//libgcc.a(_arm_muldivdf3.o)
__multadd                                         /home/src/arm/target/bin/../arm-none-eabi/lib//libc.a(lib_a-mprec.o)
                                                  /home/src/arm/target/bin/../arm-none-eabi/lib//libc.a(lib_a-dtoa.o)
__multiply                                        /home/src/arm/target/bin/../arm-none-eabi/lib//libc.a(lib_a-mprec.o)
                                                  /home/src/arm/target/bin/../arm-none-eabi/lib//libc.a(lib_a-dtoa.o)
__nedf2                                           /home/src/arm/target/bin/../lib/gcc/arm-none-eabi/4.8.2//libgcc.a(_arm_cmpdf2.o)
__nlocale_changed                                 /home/src/arm/target/bin/../arm-none-eabi/lib//libc.a(lib_a-locale.o)
__pow5mult                                        /home/src/arm/target/bin/../arm-none-eabi/lib//libc.a(lib_a-mprec.o)
                                                  /home/src/arm/target/bin/../arm-none-eabi/lib//libc.a(lib_a-dtoa.o)
__preinit_array_end                               /home/src/arm/target/bin/../arm-none-eabi/lib//libc.a(lib_a-init.o)
__preinit_array_start                             /home/src/arm/target/bin/../arm-none-eabi/lib//libc.a(lib_a-init.o)
__ram_vectors_end                                 /home/leon/git/swp-report/iMX6_Platform_SDK/output/mx6sdl/lib/libsdk.a(startup.o)
__ram_vectors_start                               /home/leon/git/swp-report/iMX6_Platform_SDK/output/mx6sdl/lib/libsdk.a(startup.o)
__ratio                                           /home/src/arm/target/bin/../arm-none-eabi/lib//libc.a(lib_a-mprec.o)
__register_frame_info                             /home/src/arm/target/bin/../lib/gcc/arm-none-eabi/4.8.2//crtbegin.o
__restore_core_regs                               /home/src/arm/target/bin/../lib/gcc/arm-none-eabi/4.8.2//libgcc.a(libunwind.o)
__s2b                                             /home/src/arm/target/bin/../arm-none-eabi/lib//libc.a(lib_a-mprec.o)
__sclose                                          /home/src/arm/target/bin/../arm-none-eabi/lib//libc.a(lib_a-stdio.o)
                                                  /home/src/arm/target/bin/../arm-none-eabi/lib//libc.a(lib_a-findfp.o)
__seofread                                        /home/src/arm/target/bin/../arm-none-eabi/lib//libc.a(lib_a-stdio.o)
__sflush_r                                        /home/src/arm/target/bin/../arm-none-eabi/lib//libc.a(lib_a-fflush.o)
                                                  /home/src/arm/target/bin/../arm-none-eabi/lib//libc.a(lib_a-refill.o)
__sfmoreglue                                      /home/src/arm/target/bin/../arm-none-eabi/lib//libc.a(lib_a-findfp.o)
__sfp                                             /home/src/arm/target/bin/../arm-none-eabi/lib//libc.a(lib_a-findfp.o)
__sfp_lock_acquire                                /home/src/arm/target/bin/../arm-none-eabi/lib//libc.a(lib_a-findfp.o)
                                                  /home/src/arm/target/bin/../arm-none-eabi/lib//libc.a(lib_a-fclose.o)
__sfp_lock_release                                /home/src/arm/target/bin/../arm-none-eabi/lib//libc.a(lib_a-findfp.o)
                                                  /home/src/arm/target/bin/../arm-none-eabi/lib//libc.a(lib_a-fclose.o)
__sfvwrite_r                                      /home/src/arm/target/bin/../arm-none-eabi/lib//libc.a(lib_a-fvwrite.o)
                                                  /home/src/arm/target/bin/../arm-none-eabi/lib//libc.a(lib_a-vfiprintf.o)
                                                  /home/src/arm/target/bin/../arm-none-eabi/lib//libc.a(lib_a-fwrite.o)
                                                  /home/src/arm/target/bin/../arm-none-eabi/lib//libc.a(lib_a-fputs.o)
__sigtramp                                        /home/src/arm/target/bin/../arm-none-eabi/lib//libc.a(lib_a-signal.o)
__sigtramp_r                                      /home/src/arm/target/bin/../arm-none-eabi/lib//libc.a(lib_a-signal.o)
__sinit                                           /home/src/arm/target/bin/../arm-none-eabi/lib//libc.a(lib_a-findfp.o)
                                                  /home/src/arm/target/bin/../arm-none-eabi/lib//libc.a(lib_a-fclose.o)
                                                  /home/src/arm/target/bin/../arm-none-eabi/lib//libc.a(lib_a-refill.o)
                                                  /home/src/arm/target/bin/../arm-none-eabi/lib//libc.a(lib_a-fputwc.o)
                                                  /home/src/arm/target/bin/../arm-none-eabi/lib//libc.a(lib_a-fflush.o)
                                                  /home/src/arm/target/bin/../arm-none-eabi/lib//libc.a(lib_a-wsetup.o)
                                                  /home/src/arm/target/bin/../arm-none-eabi/lib//libc.a(lib_a-wbuf.o)
                                                  /home/src/arm/target/bin/../arm-none-eabi/lib//libc.a(lib_a-vfprintf.o)
                                                  /home/src/arm/target/bin/../arm-none-eabi/lib//libc.a(lib_a-vfiprintf.o)
                                                  /home/src/arm/target/bin/../arm-none-eabi/lib//libc.a(lib_a-syscalls.o)
                                                  /home/src/arm/target/bin/../arm-none-eabi/lib//libc.a(lib_a-rget.o)
                                                  /home/src/arm/target/bin/../arm-none-eabi/lib//libc.a(lib_a-putc.o)
                                                  /home/src/arm/target/bin/../arm-none-eabi/lib//libc.a(lib_a-fwrite.o)
                                                  /home/src/arm/target/bin/../arm-none-eabi/lib//libc.a(lib_a-fputs.o)
                                                  /home/src/arm/target/bin/../arm-none-eabi/lib//libc.a(lib_a-fputc.o)
__sinit_lock_acquire                              /home/src/arm/target/bin/../arm-none-eabi/lib//libc.a(lib_a-findfp.o)
__sinit_lock_release                              /home/src/arm/target/bin/../arm-none-eabi/lib//libc.a(lib_a-findfp.o)
__smakebuf_r                                      /home/src/arm/target/bin/../arm-none-eabi/lib//libc.a(lib_a-makebuf.o)
                                                  /home/src/arm/target/bin/../arm-none-eabi/lib//libc.a(lib_a-refill.o)
                                                  /home/src/arm/target/bin/../arm-none-eabi/lib//libc.a(lib_a-wsetup.o)
__sprint_r                                        /home/src/arm/target/bin/../arm-none-eabi/lib//libc.a(lib_a-vfiprintf.o)
                                                  /home/src/arm/target/bin/../arm-none-eabi/lib//libc.a(lib_a-vfprintf.o)
__sread                                           /home/src/arm/target/bin/../arm-none-eabi/lib//libc.a(lib_a-stdio.o)
                                                  /home/src/arm/target/bin/../arm-none-eabi/lib//libc.a(lib_a-findfp.o)
__srefill_r                                       /home/src/arm/target/bin/../arm-none-eabi/lib//libc.a(lib_a-refill.o)
                                                  /home/src/arm/target/bin/../arm-none-eabi/lib//libc.a(lib_a-rget.o)
__srget                                           /home/src/arm/target/bin/../arm-none-eabi/lib//libc.a(lib_a-rget.o)
__srget_r                                         /home/src/arm/target/bin/../arm-none-eabi/lib//libc.a(lib_a-rget.o)
                                                  /home/leon/git/swp-report/iMX6_Platform_SDK/output/mx6sdl/lib/libsdk.a(system_util.o)
__sseek                                           /home/src/arm/target/bin/../arm-none-eabi/lib//libc.a(lib_a-stdio.o)
                                                  /home/src/arm/target/bin/../arm-none-eabi/lib//libc.a(lib_a-makebuf.o)
                                                  /home/src/arm/target/bin/../arm-none-eabi/lib//libc.a(lib_a-findfp.o)
__ssprint_r                                       /home/src/arm/target/bin/../arm-none-eabi/lib//libc.a(lib_a-svfiprintf.o)
                                                  /home/src/arm/target/bin/../arm-none-eabi/lib//libc.a(lib_a-svfprintf.o)
__stacks_start                                    /home/leon/git/swp-report/iMX6_Platform_SDK/output/mx6sdl/lib/libsdk.a(startup.o)
__start_boot_data                                 /home/leon/git/swp-report/iMX6_Platform_SDK/output/mx6sdl/stream/sabre_ai_rev_c/obj/apps/common/ivt.o
__subdf3                                          /home/src/arm/target/bin/../lib/gcc/arm-none-eabi/4.8.2//libgcc.a(_arm_addsubdf3.o)
__swbuf                                           /home/src/arm/target/bin/../arm-none-eabi/lib//libc.a(lib_a-wbuf.o)
__swbuf_r                                         /home/src/arm/target/bin/../arm-none-eabi/lib//libc.a(lib_a-wbuf.o)
                                                  /home/src/arm/target/bin/../arm-none-eabi/lib//libc.a(lib_a-fputwc.o)
                                                  /home/src/arm/target/bin/../arm-none-eabi/lib//libc.a(lib_a-putc.o)
__swrite                                          /home/src/arm/target/bin/../arm-none-eabi/lib//libc.a(lib_a-stdio.o)
                                                  /home/src/arm/target/bin/../arm-none-eabi/lib//libc.a(lib_a-findfp.o)
__swsetup_r                                       /home/src/arm/target/bin/../arm-none-eabi/lib//libc.a(lib_a-wsetup.o)
                                                  /home/src/arm/target/bin/../arm-none-eabi/lib//libc.a(lib_a-wbuf.o)
                                                  /home/src/arm/target/bin/../arm-none-eabi/lib//libc.a(lib_a-vfprintf.o)
                                                  /home/src/arm/target/bin/../arm-none-eabi/lib//libc.a(lib_a-vfiprintf.o)
                                                  /home/src/arm/target/bin/../arm-none-eabi/lib//libc.a(lib_a-fvwrite.o)
__udivdi3                                         /home/src/arm/target/bin/../lib/gcc/arm-none-eabi/4.8.2//libgcc.a(_udivdi3.o)
                                                  /home/src/arm/target/bin/../lib/gcc/arm-none-eabi/4.8.2//libgcc.a(bpabi.o)
__udivsi3                                         /home/src/arm/target/bin/../lib/gcc/arm-none-eabi/4.8.2//libgcc.a(_udivsi3.o)
__ulp                                             /home/src/arm/target/bin/../arm-none-eabi/lib//libc.a(lib_a-mprec.o)
__wctomb                                          /home/src/arm/target/bin/../arm-none-eabi/lib//libc.a(lib_a-wctomb_r.o)
                                                  /home/src/arm/target/bin/../arm-none-eabi/lib//libc.a(lib_a-wcrtomb.o)
_calloc_r                                         /home/src/arm/target/bin/../arm-none-eabi/lib//libc.a(lib_a-callocr.o)
                                                  /home/src/arm/target/bin/../arm-none-eabi/lib//libc.a(lib_a-mprec.o)
_cleanup                                          /home/src/arm/target/bin/../arm-none-eabi/lib//libc.a(lib_a-findfp.o)
_cleanup_r                                        /home/src/arm/target/bin/../arm-none-eabi/lib//libc.a(lib_a-findfp.o)
                                                  /home/src/arm/target/bin/../arm-none-eabi/lib//libc.a(lib_a-makebuf.o)
_close                                            /home/src/arm/target/bin/../arm-none-eabi/lib//libc.a(lib_a-syscalls.o)
                                                  /home/src/arm/target/bin/../arm-none-eabi/lib//libc.a(lib_a-closer.o)
_close_r                                          /home/src/arm/target/bin/../arm-none-eabi/lib//libc.a(lib_a-closer.o)
                                                  /home/src/arm/target/bin/../arm-none-eabi/lib//libc.a(lib_a-stdio.o)
_dtoa_r                                           /home/src/arm/target/bin/../arm-none-eabi/lib//libc.a(lib_a-dtoa.o)
                                                  /home/src/arm/target/bin/../arm-none-eabi/lib//libc.a(lib_a-vfprintf.o)
                                                  /home/src/arm/target/bin/../arm-none-eabi/lib//libc.a(lib_a-svfprintf.o)
_exit                                             /home/src/arm/target/bin/../arm-none-eabi/lib//libc.a(lib_a-syscalls.o)
                                                  /home/src/arm/target/bin/../arm-none-eabi/lib//libc.a(lib_a-abort.o)
_fclose_r                                         /home/src/arm/target/bin/../arm-none-eabi/lib//libc.a(lib_a-fclose.o)
_fflush_r                                         /home/src/arm/target/bin/../arm-none-eabi/lib//libc.a(lib_a-fflush.o)
                                                  /home/src/arm/target/bin/../arm-none-eabi/lib//libc.a(lib_a-fclose.o)
                                                  /home/src/arm/target/bin/../arm-none-eabi/lib//libc.a(lib_a-refill.o)
                                                  /home/src/arm/target/bin/../arm-none-eabi/lib//libc.a(lib_a-wbuf.o)
                                                  /home/src/arm/target/bin/../arm-none-eabi/lib//libc.a(lib_a-vfprintf.o)
                                                  /home/src/arm/target/bin/../arm-none-eabi/lib//libc.a(lib_a-vfiprintf.o)
                                                  /home/src/arm/target/bin/../arm-none-eabi/lib//libc.a(lib_a-fvwrite.o)
_fini                                             /home/src/arm/target/bin/../lib/gcc/arm-none-eabi/4.8.2//crti.o
_fiprintf_r                                       /home/src/arm/target/bin/../arm-none-eabi/lib//libc.a(lib_a-fiprintf.o)
_fputc_r                                          /home/src/arm/target/bin/../arm-none-eabi/lib//libc.a(lib_a-fputc.o)
_fputs_r                                          /home/src/arm/target/bin/../arm-none-eabi/lib//libc.a(lib_a-fputs.o)
_fputwc_r                                         /home/src/arm/target/bin/../arm-none-eabi/lib//libc.a(lib_a-fputwc.o)
                                                  /home/src/arm/target/bin/../arm-none-eabi/lib//libc.a(lib_a-vfiprintf.o)
_free_r                                           /home/src/arm/target/bin/../arm-none-eabi/lib//libc.a(lib_a-freer.o)
                                                  /home/src/arm/target/bin/../arm-none-eabi/lib//libc.a(lib_a-fclose.o)
                                                  /home/src/arm/target/bin/../arm-none-eabi/lib//libc.a(lib_a-svfiprintf.o)
                                                  /home/src/arm/target/bin/../arm-none-eabi/lib//libc.a(lib_a-refill.o)
                                                  /home/src/arm/target/bin/../arm-none-eabi/lib//libc.a(lib_a-reent.o)
                                                  /home/src/arm/target/bin/../arm-none-eabi/lib//libc.a(lib_a-fflush.o)
                                                  /home/src/arm/target/bin/../arm-none-eabi/lib//libc.a(lib_a-wsetup.o)
                                                  /home/src/arm/target/bin/../arm-none-eabi/lib//libc.a(lib_a-reallocr.o)
                                                  /home/src/arm/target/bin/../arm-none-eabi/lib//libc.a(lib_a-mallocr.o)
                                                  /home/src/arm/target/bin/../arm-none-eabi/lib//libc.a(lib_a-malloc.o)
                                                  /home/src/arm/target/bin/../arm-none-eabi/lib//libc.a(lib_a-fvwrite.o)
_fstat                                            /home/src/arm/target/bin/../arm-none-eabi/lib//libc.a(lib_a-syscalls.o)
                                                  /home/src/arm/target/bin/../arm-none-eabi/lib//libc.a(lib_a-fstatr.o)
_fstat_r                                          /home/src/arm/target/bin/../arm-none-eabi/lib//libc.a(lib_a-fstatr.o)
                                                  /home/src/arm/target/bin/../arm-none-eabi/lib//libc.a(lib_a-makebuf.o)
_fwalk                                            /home/src/arm/target/bin/../arm-none-eabi/lib//libc.a(lib_a-fwalk.o)
                                                  /home/src/arm/target/bin/../arm-none-eabi/lib//libc.a(lib_a-refill.o)
                                                  /home/src/arm/target/bin/../arm-none-eabi/lib//libc.a(lib_a-findfp.o)
_fwalk_reent                                      /home/src/arm/target/bin/../arm-none-eabi/lib//libc.a(lib_a-fwalk.o)
                                                  /home/src/arm/target/bin/../arm-none-eabi/lib//libc.a(lib_a-fflush.o)
_fwrite_r                                         /home/src/arm/target/bin/../arm-none-eabi/lib//libc.a(lib_a-fwrite.o)
_getpid                                           /home/src/arm/target/bin/../arm-none-eabi/lib//libc.a(lib_a-syscalls.o)
                                                  /home/src/arm/target/bin/../arm-none-eabi/lib//libc.a(lib_a-signalr.o)
_getpid_r                                         /home/src/arm/target/bin/../arm-none-eabi/lib//libc.a(lib_a-signalr.o)
                                                  /home/src/arm/target/bin/../arm-none-eabi/lib//libc.a(lib_a-signal.o)
_gettimeofday                                     /home/src/arm/target/bin/../arm-none-eabi/lib//libc.a(lib_a-syscalls.o)
_global_impure_ptr                                /home/src/arm/target/bin/../arm-none-eabi/lib//libc.a(lib_a-impure.o)
                                                  /home/src/arm/target/bin/../arm-none-eabi/lib//libc.a(lib_a-refill.o)
                                                  /home/src/arm/target/bin/../arm-none-eabi/lib//libc.a(lib_a-findfp.o)
                                                  /home/src/arm/target/bin/../arm-none-eabi/lib//libc.a(lib_a-fflush.o)
_image_size                                       /home/leon/git/swp-report/iMX6_Platform_SDK/output/mx6sdl/stream/sabre_ai_rev_c/obj/apps/common/ivt.o
_impure_ptr                                       /home/src/arm/target/bin/../arm-none-eabi/lib//libc.a(lib_a-impure.o)
                                                  /home/src/arm/target/bin/../arm-none-eabi/lib//libc.a(lib_a-fclose.o)
                                                  /home/src/arm/target/bin/../arm-none-eabi/lib//libc.a(lib_a-wcrtomb.o)
                                                  /home/src/arm/target/bin/../arm-none-eabi/lib//libc.a(lib_a-reent.o)
                                                  /home/src/arm/target/bin/../arm-none-eabi/lib//libc.a(lib_a-locale.o)
                                                  /home/src/arm/target/bin/../arm-none-eabi/lib//libc.a(lib_a-fputwc.o)
                                                  /home/src/arm/target/bin/../arm-none-eabi/lib//libc.a(lib_a-findfp.o)
                                                  /home/src/arm/target/bin/../arm-none-eabi/lib//libc.a(lib_a-fflush.o)
                                                  /home/src/arm/target/bin/../arm-none-eabi/lib//libc.a(lib_a-errno.o)
                                                  /home/src/arm/target/bin/../arm-none-eabi/lib//libc.a(lib_a-wsetup.o)
                                                  /home/src/arm/target/bin/../arm-none-eabi/lib//libc.a(lib_a-wbuf.o)
                                                  /home/src/arm/target/bin/../arm-none-eabi/lib//libc.a(lib_a-vprintf.o)
                                                  /home/src/arm/target/bin/../arm-none-eabi/lib//libc.a(lib_a-vfprintf.o)
                                                  /home/src/arm/target/bin/../arm-none-eabi/lib//libc.a(lib_a-vfiprintf.o)
                                                  /home/src/arm/target/bin/../arm-none-eabi/lib//libc.a(lib_a-syswrite.o)
                                                  /home/src/arm/target/bin/../arm-none-eabi/lib//libc.a(lib_a-syscalls.o)
                                                  /home/src/arm/target/bin/../arm-none-eabi/lib//libc.a(lib_a-sprintf.o)
                                                  /home/src/arm/target/bin/../arm-none-eabi/lib//libc.a(lib_a-signal.o)
                                                  /home/src/arm/target/bin/../arm-none-eabi/lib//libc.a(lib_a-rget.o)
                                                  /home/src/arm/target/bin/../arm-none-eabi/lib//libc.a(lib_a-realloc.o)
                                                  /home/src/arm/target/bin/../arm-none-eabi/lib//libc.a(lib_a-putc.o)
                                                  /home/src/arm/target/bin/../arm-none-eabi/lib//libc.a(lib_a-printf.o)
                                                  /home/src/arm/target/bin/../arm-none-eabi/lib//libc.a(lib_a-malloc.o)
                                                  /home/src/arm/target/bin/../arm-none-eabi/lib//libc.a(lib_a-fwrite.o)
                                                  /home/src/arm/target/bin/../arm-none-eabi/lib//libc.a(lib_a-fputs.o)
                                                  /home/src/arm/target/bin/../arm-none-eabi/lib//libc.a(lib_a-fputc.o)
                                                  /home/src/arm/target/bin/../arm-none-eabi/lib//libc.a(lib_a-fiprintf.o)
                                                  /home/src/arm/target/bin/../arm-none-eabi/lib//libc.a(lib_a-assert.o)
                                                  /home/src/arm/target/bin/../arm-none-eabi/lib//libstdc++.a(vterminate.o)
                                                  /home/leon/git/swp-report/iMX6_Platform_SDK/output/mx6sdl/lib/libsdk.a(system_util.o)
_init                                             /home/src/arm/target/bin/../lib/gcc/arm-none-eabi/4.8.2//crti.o
                                                  /home/src/arm/target/bin/../arm-none-eabi/lib//libc.a(lib_a-init.o)
_init_signal                                      /home/src/arm/target/bin/../arm-none-eabi/lib//libc.a(lib_a-signal.o)
_init_signal_r                                    /home/src/arm/target/bin/../arm-none-eabi/lib//libc.a(lib_a-signal.o)
_isatty                                           /home/src/arm/target/bin/../arm-none-eabi/lib//libc.a(lib_a-syscalls.o)
                                                  /home/src/arm/target/bin/../arm-none-eabi/lib//libc.a(lib_a-isattyr.o)
_isatty_r                                         /home/src/arm/target/bin/../arm-none-eabi/lib//libc.a(lib_a-isattyr.o)
                                                  /home/src/arm/target/bin/../arm-none-eabi/lib//libc.a(lib_a-makebuf.o)
_kill                                             /home/src/arm/target/bin/../arm-none-eabi/lib//libc.a(lib_a-syscalls.o)
                                                  /home/src/arm/target/bin/../arm-none-eabi/lib//libc.a(lib_a-signalr.o)
_kill_r                                           /home/src/arm/target/bin/../arm-none-eabi/lib//libc.a(lib_a-signalr.o)
                                                  /home/src/arm/target/bin/../arm-none-eabi/lib//libc.a(lib_a-signal.o)
_link                                             /home/src/arm/target/bin/../arm-none-eabi/lib//libc.a(lib_a-syscalls.o)
_localeconv_r                                     /home/src/arm/target/bin/../arm-none-eabi/lib//libc.a(lib_a-locale.o)
                                                  /home/src/arm/target/bin/../arm-none-eabi/lib//libc.a(lib_a-vfprintf.o)
                                                  /home/src/arm/target/bin/../arm-none-eabi/lib//libc.a(lib_a-svfprintf.o)
_lseek                                            /home/src/arm/target/bin/../arm-none-eabi/lib//libc.a(lib_a-syscalls.o)
                                                  /home/src/arm/target/bin/../arm-none-eabi/lib//libc.a(lib_a-lseekr.o)
_lseek_r                                          /home/src/arm/target/bin/../arm-none-eabi/lib//libc.a(lib_a-lseekr.o)
                                                  /home/src/arm/target/bin/../arm-none-eabi/lib//libc.a(lib_a-stdio.o)
_malloc_r                                         /home/src/arm/target/bin/../arm-none-eabi/lib//libc.a(lib_a-mallocr.o)
                                                  /home/src/arm/target/bin/../arm-none-eabi/lib//libc.a(lib_a-callocr.o)
                                                  /home/src/arm/target/bin/../arm-none-eabi/lib//libc.a(lib_a-svfiprintf.o)
                                                  /home/src/arm/target/bin/../arm-none-eabi/lib//libc.a(lib_a-makebuf.o)
                                                  /home/src/arm/target/bin/../arm-none-eabi/lib//libc.a(lib_a-findfp.o)
                                                  /home/src/arm/target/bin/../arm-none-eabi/lib//libc.a(lib_a-svfprintf.o)
                                                  /home/src/arm/target/bin/../arm-none-eabi/lib//libc.a(lib_a-signal.o)
                                                  /home/src/arm/target/bin/../arm-none-eabi/lib//libc.a(lib_a-reallocr.o)
                                                  /home/src/arm/target/bin/../arm-none-eabi/lib//libc.a(lib_a-malloc.o)
                                                  /home/src/arm/target/bin/../arm-none-eabi/lib//libc.a(lib_a-fvwrite.o)
_malloc_trim_r                                    /home/src/arm/target/bin/../arm-none-eabi/lib//libc.a(lib_a-freer.o)
_mprec_log10                                      /home/src/arm/target/bin/../arm-none-eabi/lib//libc.a(lib_a-mprec.o)
_open                                             /home/src/arm/target/bin/../arm-none-eabi/lib//libc.a(lib_a-syscalls.o)
_printf_r                                         /home/src/arm/target/bin/../arm-none-eabi/lib//libc.a(lib_a-printf.o)
_putc_r                                           /home/src/arm/target/bin/../arm-none-eabi/lib//libc.a(lib_a-putc.o)
                                                  /home/src/arm/target/bin/../arm-none-eabi/lib//libc.a(lib_a-fputc.o)
_raise                                            /home/src/arm/target/bin/../arm-none-eabi/lib//libc.a(lib_a-syscalls.o)
_raise_r                                          /home/src/arm/target/bin/../arm-none-eabi/lib//libc.a(lib_a-signal.o)
_read                                             /home/src/arm/target/bin/../arm-none-eabi/lib//libc.a(lib_a-syscalls.o)
                                                  /home/src/arm/target/bin/../arm-none-eabi/lib//libc.a(lib_a-readr.o)
_read_r                                           /home/src/arm/target/bin/../arm-none-eabi/lib//libc.a(lib_a-readr.o)
                                                  /home/src/arm/target/bin/../arm-none-eabi/lib//libc.a(lib_a-stdio.o)
_realloc_r                                        /home/src/arm/target/bin/../arm-none-eabi/lib//libc.a(lib_a-reallocr.o)
                                                  /home/src/arm/target/bin/../arm-none-eabi/lib//libc.a(lib_a-svfiprintf.o)
                                                  /home/src/arm/target/bin/../arm-none-eabi/lib//libc.a(lib_a-realloc.o)
                                                  /home/src/arm/target/bin/../arm-none-eabi/lib//libc.a(lib_a-fvwrite.o)
_reclaim_reent                                    /home/src/arm/target/bin/../arm-none-eabi/lib//libc.a(lib_a-reent.o)
_rename                                           /home/src/arm/target/bin/../arm-none-eabi/lib//libc.a(lib_a-syscalls.o)
_sbrk                                             /home/src/arm/target/bin/../arm-none-eabi/lib//libc.a(lib_a-syscalls.o)
                                                  /home/src/arm/target/bin/../arm-none-eabi/lib//libc.a(lib_a-sbrkr.o)
_sbrk_r                                           /home/src/arm/target/bin/../arm-none-eabi/lib//libc.a(lib_a-sbrkr.o)
                                                  /home/src/arm/target/bin/../arm-none-eabi/lib//libc.a(lib_a-freer.o)
                                                  /home/src/arm/target/bin/../arm-none-eabi/lib//libc.a(lib_a-mallocr.o)
_setlocale_r                                      /home/src/arm/target/bin/../arm-none-eabi/lib//libc.a(lib_a-locale.o)
_signal_r                                         /home/src/arm/target/bin/../arm-none-eabi/lib//libc.a(lib_a-signal.o)
_sprintf_r                                        /home/src/arm/target/bin/../arm-none-eabi/lib//libc.a(lib_a-sprintf.o)
_start                                            /home/leon/git/swp-report/iMX6_Platform_SDK/output/mx6sdl/lib/libsdk.a(startup.o)
                                                  /home/leon/git/swp-report/iMX6_Platform_SDK/output/mx6sdl/lib/libsdk.a(vectors.o)
                                                  /home/leon/git/swp-report/iMX6_Platform_SDK/output/mx6sdl/stream/sabre_ai_rev_c/obj/apps/common/ivt.o
_start_image_add                                  /home/leon/git/swp-report/iMX6_Platform_SDK/output/mx6sdl/stream/sabre_ai_rev_c/obj/apps/common/ivt.o
_stat                                             /home/src/arm/target/bin/../arm-none-eabi/lib//libc.a(lib_a-syscalls.o)
_svfiprintf_r                                     /home/src/arm/target/bin/../arm-none-eabi/lib//libc.a(lib_a-svfiprintf.o)
_svfprintf_r                                      /home/src/arm/target/bin/../arm-none-eabi/lib//libc.a(lib_a-svfprintf.o)
                                                  /home/src/arm/target/bin/../arm-none-eabi/lib//libc.a(lib_a-sprintf.o)
_swiclose                                         /home/src/arm/target/bin/../arm-none-eabi/lib//libc.a(lib_a-syscalls.o)
_swilseek                                         /home/src/arm/target/bin/../arm-none-eabi/lib//libc.a(lib_a-syscalls.o)
_swiopen                                          /home/src/arm/target/bin/../arm-none-eabi/lib//libc.a(lib_a-syscalls.o)
_swiread                                          /home/src/arm/target/bin/../arm-none-eabi/lib//libc.a(lib_a-syscalls.o)
_swiwrite                                         /home/src/arm/target/bin/../arm-none-eabi/lib//libc.a(lib_a-syscalls.o)
_sys_exit                                         /home/leon/git/swp-report/iMX6_Platform_SDK/output/mx6sdl/lib/libsdk.a(system_util.o)
                                                  /home/leon/git/swp-report/iMX6_Platform_SDK/output/mx6sdl/lib/libsdk.a(startup.o)
_system                                           /home/src/arm/target/bin/../arm-none-eabi/lib//libc.a(lib_a-syscalls.o)
_times                                            /home/src/arm/target/bin/../arm-none-eabi/lib//libc.a(lib_a-syscalls.o)
_unlink                                           /home/src/arm/target/bin/../arm-none-eabi/lib//libc.a(lib_a-syscalls.o)
_vfiprintf_r                                      /home/src/arm/target/bin/../arm-none-eabi/lib//libc.a(lib_a-vfiprintf.o)
                                                  /home/src/arm/target/bin/../arm-none-eabi/lib//libc.a(lib_a-fiprintf.o)
_vfprintf_r                                       /home/src/arm/target/bin/../arm-none-eabi/lib//libc.a(lib_a-vfprintf.o)
                                                  /home/src/arm/target/bin/../arm-none-eabi/lib//libc.a(lib_a-vprintf.o)
                                                  /home/src/arm/target/bin/../arm-none-eabi/lib//libc.a(lib_a-printf.o)
_vprintf_r                                        /home/src/arm/target/bin/../arm-none-eabi/lib//libc.a(lib_a-vprintf.o)
_wcrtomb_r                                        /home/src/arm/target/bin/../arm-none-eabi/lib//libc.a(lib_a-wcrtomb.o)
                                                  /home/src/arm/target/bin/../arm-none-eabi/lib//libc.a(lib_a-fputwc.o)
_wctomb_r                                         /home/src/arm/target/bin/../arm-none-eabi/lib//libc.a(lib_a-wctomb_r.o)
_write                                            /home/src/arm/target/bin/../arm-none-eabi/lib//libc.a(lib_a-syscalls.o)
                                                  /home/src/arm/target/bin/../arm-none-eabi/lib//libc.a(lib_a-writer.o)
_write_r                                          /home/src/arm/target/bin/../arm-none-eabi/lib//libc.a(lib_a-writer.o)
                                                  /home/src/arm/target/bin/../arm-none-eabi/lib//libc.a(lib_a-stdio.o)
                                                  /home/src/arm/target/bin/../arm-none-eabi/lib//libc.a(lib_a-syswrite.o)
abort                                             /home/src/arm/target/bin/../arm-none-eabi/lib//libc.a(lib_a-abort.o)
                                                  /home/src/arm/target/bin/../lib/gcc/arm-none-eabi/4.8.2//libgcc.a(pr-support.o)
                                                  /home/src/arm/target/bin/../lib/gcc/arm-none-eabi/4.8.2//libgcc.a(unwind-arm.o)
                                                  /home/src/arm/target/bin/../arm-none-eabi/lib//libc.a(lib_a-assert.o)
                                                  /home/src/arm/target/bin/../arm-none-eabi/lib//libstdc++.a(vterminate.o)
                                                  /home/src/arm/target/bin/../arm-none-eabi/lib//libstdc++.a(eh_personality.o)
                                                  /home/src/arm/target/bin/../arm-none-eabi/lib//libstdc++.a(eh_terminate.o)
arm_branch_prediction_disable                     /home/leon/git/swp-report/iMX6_Platform_SDK/output/mx6sdl/lib/libsdk.a(cortexA9.o)
arm_branch_prediction_enable                      /home/leon/git/swp-report/iMX6_Platform_SDK/output/mx6sdl/lib/libsdk.a(cortexA9.o)
arm_branch_target_cache_invalidate                /home/leon/git/swp-report/iMX6_Platform_SDK/output/mx6sdl/lib/libsdk.a(cortexA9.o)
arm_branch_target_cache_invalidate_is             /home/leon/git/swp-report/iMX6_Platform_SDK/output/mx6sdl/lib/libsdk.a(cortexA9.o)
arm_iomux_config                                  /home/leon/git/swp-report/iMX6_Platform_SDK/output/mx6sdl/lib/libboard_sabre_ai_rev_c.a(iomux_config.o)
arm_set_interrupt_state                           /home/leon/git/swp-report/iMX6_Platform_SDK/output/mx6sdl/lib/libsdk.a(cortexA9.o)
                                                  /home/leon/git/swp-report/iMX6_Platform_SDK/output/mx6sdl/stream/sabre_ai_rev_c/obj/apps/common/platform_init.o
arm_unified_tlb_invalidate                        /home/leon/git/swp-report/iMX6_Platform_SDK/output/mx6sdl/lib/libsdk.a(cortexA9.o)
                                                  /home/leon/git/swp-report/iMX6_Platform_SDK/output/mx6sdl/lib/libsdk.a(mmu.o)
arm_unified_tlb_invalidate_is                     /home/leon/git/swp-report/iMX6_Platform_SDK/output/mx6sdl/lib/libsdk.a(cortexA9.o)
asrc_iomux_config                                 /home/leon/git/swp-report/iMX6_Platform_SDK/output/mx6sdl/lib/libboard_sabre_ai_rev_c.a(iomux_config.o)
audmux_iomux_config                               /home/leon/git/swp-report/iMX6_Platform_SDK/output/mx6sdl/lib/libboard_sabre_ai_rev_c.a(audmux_iomux_config.o)
                                                  /home/leon/git/swp-report/iMX6_Platform_SDK/output/mx6sdl/lib/libboard_sabre_ai_rev_c.a(iomux_config.o)
bd                                                /home/leon/git/swp-report/iMX6_Platform_SDK/output/mx6sdl/stream/sabre_ai_rev_c/obj/apps/common/ivt.o
board_description                                 /home/leon/git/swp-report/iMX6_Platform_SDK/output/mx6sdl/lib/libsdk.a(board_id.o)
board_ioexpander_init                             /home/leon/git/swp-report/iMX6_Platform_SDK/output/mx6sdl/lib/libboard_sabre_ai_rev_c.a(board_io_expanders.o)
                                                  /home/leon/git/swp-report/iMX6_Platform_SDK/output/mx6sdl/stream/sabre_ai_rev_c/obj/apps/common/platform_init.o
board_ioexpander_iomux_config                     /home/leon/git/swp-report/iMX6_Platform_SDK/output/mx6sdl/lib/libboard_sabre_ai_rev_c.a(board_io_expanders.o)
board_name                                        /home/leon/git/swp-report/iMX6_Platform_SDK/output/mx6sdl/lib/libsdk.a(board_id.o)
                                                  /home/leon/git/swp-report/iMX6_Platform_SDK/output/mx6sdl/stream/sabre_ai_rev_c/obj/apps/common/print_version.o
board_revision                                    /home/leon/git/swp-report/iMX6_Platform_SDK/output/mx6sdl/lib/libsdk.a(board_id.o)
                                                  /home/leon/git/swp-report/iMX6_Platform_SDK/output/mx6sdl/stream/sabre_ai_rev_c/obj/apps/common/print_version.o
bzero                                             /home/src/arm/target/bin/../arm-none-eabi/lib//libc.a(lib_a-bzero.o)
                                                  /home/leon/git/swp-report/iMX6_Platform_SDK/output/mx6sdl/lib/libsdk.a(mmu.o)
ccm_ccgr_config                                   /home/leon/git/swp-report/iMX6_Platform_SDK/output/mx6sdl/lib/libsdk.a(ccm_pll.o)
ccm_enter_low_power                               /home/leon/git/swp-report/iMX6_Platform_SDK/output/mx6sdl/lib/libsdk.a(ccm_pll.o)
ccm_init                                          /home/leon/git/swp-report/iMX6_Platform_SDK/output/mx6sdl/lib/libsdk.a(ccm_pll.o)
                                                  /home/leon/git/swp-report/iMX6_Platform_SDK/output/mx6sdl/stream/sabre_ai_rev_c/obj/apps/common/platform_init.o
ccm_iomux_config                                  /home/leon/git/swp-report/iMX6_Platform_SDK/output/mx6sdl/lib/libboard_sabre_ai_rev_c.a(ccm_iomux_config.o)
                                                  /home/leon/git/swp-report/iMX6_Platform_SDK/output/mx6sdl/lib/libboard_sabre_ai_rev_c.a(iomux_config.o)
ccm_set_lpm_wakeup_source                         /home/leon/git/swp-report/iMX6_Platform_SDK/output/mx6sdl/lib/libsdk.a(ccm_pll.o)
checkSTREAMresults                                /home/leon/git/swp-report/iMX6_Platform_SDK/output/mx6sdl/stream/sabre_ai_rev_c/obj/apps/stream/src/stream.o
checktick                                         /home/leon/git/swp-report/iMX6_Platform_SDK/output/mx6sdl/stream/sabre_ai_rev_c/obj/apps/stream/src/stream.o
chip_name                                         /home/leon/git/swp-report/iMX6_Platform_SDK/output/mx6sdl/lib/libsdk.a(board_id.o)
                                                  /home/leon/git/swp-report/iMX6_Platform_SDK/output/mx6sdl/stream/sabre_ai_rev_c/obj/apps/common/print_version.o
chip_revision                                     /home/leon/git/swp-report/iMX6_Platform_SDK/output/mx6sdl/lib/libsdk.a(board_id.o)
                                                  /home/leon/git/swp-report/iMX6_Platform_SDK/output/mx6sdl/stream/sabre_ai_rev_c/obj/apps/common/print_version.o
cleanup_glue                                      /home/src/arm/target/bin/../arm-none-eabi/lib//libc.a(lib_a-reent.o)
clock_gating_config                               /home/leon/git/swp-report/iMX6_Platform_SDK/output/mx6sdl/lib/libsdk.a(ccm_pll.o)
                                                  /home/leon/git/swp-report/iMX6_Platform_SDK/output/mx6sdl/lib/libsdk.a(imx_i2c.o)
                                                  /home/leon/git/swp-report/iMX6_Platform_SDK/output/mx6sdl/lib/libsdk.a(imx_uart.o)
                                                  /home/leon/git/swp-report/iMX6_Platform_SDK/output/mx6sdl/lib/libsdk.a(epit.o)
common_abort_handler                              /home/leon/git/swp-report/iMX6_Platform_SDK/output/mx6sdl/lib/libsdk.a(arm_abort.o)
cpu_get_current                                   /home/leon/git/swp-report/iMX6_Platform_SDK/output/mx6sdl/lib/libsdk.a(cortexA9.o)
cpu_workpoint_set                                 /home/leon/git/swp-report/iMX6_Platform_SDK/output/mx6sdl/lib/libsdk.a(cpu_workpoint.o)
                                                  /home/leon/git/swp-report/iMX6_Platform_SDK/output/mx6sdl/stream/sabre_ai_rev_c/obj/apps/stream/src/main.o
data_abort_handler                                /home/leon/git/swp-report/iMX6_Platform_SDK/output/mx6sdl/lib/libsdk.a(arm_abort.o)
                                                  /home/leon/git/swp-report/iMX6_Platform_SDK/output/mx6sdl/lib/libsdk.a(vectors.o)
dcic1_iomux_config                                /home/leon/git/swp-report/iMX6_Platform_SDK/output/mx6sdl/lib/libboard_sabre_ai_rev_c.a(iomux_config.o)
dcic2_iomux_config                                /home/leon/git/swp-report/iMX6_Platform_SDK/output/mx6sdl/lib/libboard_sabre_ai_rev_c.a(iomux_config.o)
default_interrupt_routine                         /home/leon/git/swp-report/iMX6_Platform_SDK/output/mx6sdl/lib/libsdk.a(interrupt.o)
disable_L1_cache                                  /home/leon/git/swp-report/iMX6_Platform_SDK/output/mx6sdl/lib/libsdk.a(cortexA9.o)
disable_interrupt                                 /home/leon/git/swp-report/iMX6_Platform_SDK/output/mx6sdl/lib/libsdk.a(interrupt.o)
                                                  /home/leon/git/swp-report/iMX6_Platform_SDK/output/mx6sdl/lib/libsdk.a(imx_i2c.o)
                                                  /home/leon/git/swp-report/iMX6_Platform_SDK/output/mx6sdl/lib/libsdk.a(imx_uart.o)
                                                  /home/leon/git/swp-report/iMX6_Platform_SDK/output/mx6sdl/lib/libsdk.a(epit.o)
disable_strict_align_check                        /home/leon/git/swp-report/iMX6_Platform_SDK/output/mx6sdl/lib/libsdk.a(cortexA9.o)
                                                  /home/leon/git/swp-report/iMX6_Platform_SDK/output/mx6sdl/stream/sabre_ai_rev_c/obj/apps/common/platform_init.o
dump_regs                                         /home/leon/git/swp-report/iMX6_Platform_SDK/output/mx6sdl/lib/libsdk.a(abort_handler.o)
                                                  /home/leon/git/swp-report/iMX6_Platform_SDK/output/mx6sdl/lib/libsdk.a(arm_abort.o)
ecspi1_iomux_config                               /home/leon/git/swp-report/iMX6_Platform_SDK/output/mx6sdl/lib/libboard_sabre_ai_rev_c.a(ecspi1_iomux_config.o)
                                                  /home/leon/git/swp-report/iMX6_Platform_SDK/output/mx6sdl/lib/libboard_sabre_ai_rev_c.a(iomux_config.o)
ecspi2_iomux_config                               /home/leon/git/swp-report/iMX6_Platform_SDK/output/mx6sdl/lib/libboard_sabre_ai_rev_c.a(iomux_config.o)
ecspi3_iomux_config                               /home/leon/git/swp-report/iMX6_Platform_SDK/output/mx6sdl/lib/libboard_sabre_ai_rev_c.a(iomux_config.o)
ecspi4_iomux_config                               /home/leon/git/swp-report/iMX6_Platform_SDK/output/mx6sdl/lib/libboard_sabre_ai_rev_c.a(iomux_config.o)
eim_iomux_config                                  /home/leon/git/swp-report/iMX6_Platform_SDK/output/mx6sdl/lib/libboard_sabre_ai_rev_c.a(eim_iomux_config.o)
                                                  /home/leon/git/swp-report/iMX6_Platform_SDK/output/mx6sdl/lib/libboard_sabre_ai_rev_c.a(iomux_config.o)
enable_interrupt                                  /home/leon/git/swp-report/iMX6_Platform_SDK/output/mx6sdl/lib/libsdk.a(interrupt.o)
                                                  /home/leon/git/swp-report/iMX6_Platform_SDK/output/mx6sdl/lib/libsdk.a(imx_i2c.o)
                                                  /home/leon/git/swp-report/iMX6_Platform_SDK/output/mx6sdl/lib/libsdk.a(imx_uart.o)
                                                  /home/leon/git/swp-report/iMX6_Platform_SDK/output/mx6sdl/lib/libsdk.a(epit.o)
enable_neon_fpu                                   /home/leon/git/swp-report/iMX6_Platform_SDK/output/mx6sdl/lib/libsdk.a(cortexA9.o)
                                                  /home/leon/git/swp-report/iMX6_Platform_SDK/output/mx6sdl/stream/sabre_ai_rev_c/obj/apps/common/platform_init.o
end                                               /home/src/arm/target/bin/../arm-none-eabi/lib//libc.a(lib_a-syscalls.o)
enet_iomux_config                                 /home/leon/git/swp-report/iMX6_Platform_SDK/output/mx6sdl/lib/libboard_sabre_ai_rev_c.a(enet_iomux_config.o)
                                                  /home/leon/git/swp-report/iMX6_Platform_SDK/output/mx6sdl/lib/libboard_sabre_ai_rev_c.a(iomux_config.o)
epdc_iomux_config                                 /home/leon/git/swp-report/iMX6_Platform_SDK/output/mx6sdl/lib/libboard_sabre_ai_rev_c.a(iomux_config.o)
epit1_iomux_config                                /home/leon/git/swp-report/iMX6_Platform_SDK/output/mx6sdl/lib/libboard_sabre_ai_rev_c.a(iomux_config.o)
epit2_iomux_config                                /home/leon/git/swp-report/iMX6_Platform_SDK/output/mx6sdl/lib/libboard_sabre_ai_rev_c.a(iomux_config.o)
epit_counter_disable                              /home/leon/git/swp-report/iMX6_Platform_SDK/output/mx6sdl/lib/libsdk.a(epit.o)
                                                  /home/leon/git/swp-report/iMX6_Platform_SDK/output/mx6sdl/lib/libsdk.a(timer.o)
epit_counter_enable                               /home/leon/git/swp-report/iMX6_Platform_SDK/output/mx6sdl/lib/libsdk.a(epit.o)
                                                  /home/leon/git/swp-report/iMX6_Platform_SDK/output/mx6sdl/lib/libsdk.a(timer.o)
                                                  /home/leon/git/swp-report/iMX6_Platform_SDK/output/mx6sdl/stream/sabre_ai_rev_c/obj/apps/stream/src/main.o
epit_get_compare_event                            /home/leon/git/swp-report/iMX6_Platform_SDK/output/mx6sdl/lib/libsdk.a(epit.o)
                                                  /home/leon/git/swp-report/iMX6_Platform_SDK/output/mx6sdl/lib/libsdk.a(timer.o)
epit_get_counter_value                            /home/leon/git/swp-report/iMX6_Platform_SDK/output/mx6sdl/lib/libsdk.a(epit.o)
                                                  /home/leon/git/swp-report/iMX6_Platform_SDK/output/mx6sdl/stream/sabre_ai_rev_c/obj/apps/stream/src/main.o
epit_init                                         /home/leon/git/swp-report/iMX6_Platform_SDK/output/mx6sdl/lib/libsdk.a(epit.o)
                                                  /home/leon/git/swp-report/iMX6_Platform_SDK/output/mx6sdl/lib/libsdk.a(timer.o)
                                                  /home/leon/git/swp-report/iMX6_Platform_SDK/output/mx6sdl/stream/sabre_ai_rev_c/obj/apps/stream/src/main.o
epit_reload_counter                               /home/leon/git/swp-report/iMX6_Platform_SDK/output/mx6sdl/lib/libsdk.a(epit.o)
epit_set_compare_event                            /home/leon/git/swp-report/iMX6_Platform_SDK/output/mx6sdl/lib/libsdk.a(epit.o)
epit_setup_interrupt                              /home/leon/git/swp-report/iMX6_Platform_SDK/output/mx6sdl/lib/libsdk.a(epit.o)
                                                  /home/leon/git/swp-report/iMX6_Platform_SDK/output/mx6sdl/stream/sabre_ai_rev_c/obj/apps/stream/src/main.o
errno                                             /home/src/arm/target/bin/../arm-none-eabi/lib//libc.a(lib_a-reent.o)
                                                  /home/src/arm/target/bin/../arm-none-eabi/lib//libc.a(lib_a-readr.o)
                                                  /home/src/arm/target/bin/../arm-none-eabi/lib//libc.a(lib_a-lseekr.o)
                                                  /home/src/arm/target/bin/../arm-none-eabi/lib//libc.a(lib_a-isattyr.o)
                                                  /home/src/arm/target/bin/../arm-none-eabi/lib//libc.a(lib_a-fstatr.o)
                                                  /home/src/arm/target/bin/../arm-none-eabi/lib//libc.a(lib_a-closer.o)
                                                  /home/src/arm/target/bin/../arm-none-eabi/lib//libc.a(lib_a-writer.o)
                                                  /home/src/arm/target/bin/../arm-none-eabi/lib//libc.a(lib_a-signalr.o)
                                                  /home/src/arm/target/bin/../arm-none-eabi/lib//libc.a(lib_a-sbrkr.o)
esai_iomux_config                                 /home/leon/git/swp-report/iMX6_Platform_SDK/output/mx6sdl/lib/libboard_sabre_ai_rev_c.a(esai_iomux_config.o)
                                                  /home/leon/git/swp-report/iMX6_Platform_SDK/output/mx6sdl/lib/libboard_sabre_ai_rev_c.a(iomux_config.o)
exception_handler                                 /home/leon/git/swp-report/iMX6_Platform_SDK/output/mx6sdl/lib/libsdk.a(vectors.o)
fclose                                            /home/src/arm/target/bin/../arm-none-eabi/lib//libc.a(lib_a-fclose.o)
                                                  /home/src/arm/target/bin/../arm-none-eabi/lib//libc.a(lib_a-findfp.o)
fflush                                            /home/src/arm/target/bin/../arm-none-eabi/lib//libc.a(lib_a-fflush.o)
                                                  /home/src/arm/target/bin/../arm-none-eabi/lib//libc.a(lib_a-refill.o)
fiprintf                                          /home/src/arm/target/bin/../arm-none-eabi/lib//libc.a(lib_a-fiprintf.o)
                                                  /home/src/arm/target/bin/../arm-none-eabi/lib//libc.a(lib_a-assert.o)
flexcan1_iomux_config                             /home/leon/git/swp-report/iMX6_Platform_SDK/output/mx6sdl/lib/libboard_sabre_ai_rev_c.a(flexcan1_iomux_config.o)
                                                  /home/leon/git/swp-report/iMX6_Platform_SDK/output/mx6sdl/lib/libboard_sabre_ai_rev_c.a(iomux_config.o)
flexcan2_iomux_config                             /home/leon/git/swp-report/iMX6_Platform_SDK/output/mx6sdl/lib/libboard_sabre_ai_rev_c.a(flexcan2_iomux_config.o)
                                                  /home/leon/git/swp-report/iMX6_Platform_SDK/output/mx6sdl/lib/libboard_sabre_ai_rev_c.a(iomux_config.o)
fputc                                             /home/src/arm/target/bin/../arm-none-eabi/lib//libc.a(lib_a-fputc.o)
                                                  /home/src/arm/target/bin/../arm-none-eabi/lib//libstdc++.a(vterminate.o)
                                                  /home/leon/git/swp-report/iMX6_Platform_SDK/output/mx6sdl/lib/libsdk.a(system_util.o)
fputs                                             /home/src/arm/target/bin/../arm-none-eabi/lib//libc.a(lib_a-fputs.o)
                                                  /home/src/arm/target/bin/../arm-none-eabi/lib//libstdc++.a(vterminate.o)
fputwc                                            /home/src/arm/target/bin/../arm-none-eabi/lib//libc.a(lib_a-fputwc.o)
free                                              /home/src/arm/target/bin/../arm-none-eabi/lib//libc.a(lib_a-malloc.o)
                                                  /home/src/arm/target/bin/../arm-none-eabi/lib//libstdc++.a(eh_alloc.o)
                                                  /home/src/arm/target/bin/../arm-none-eabi/lib//libstdc++.a(cp-demangle.o)
                                                  /home/src/arm/target/bin/../arm-none-eabi/lib//libstdc++.a(del_op.o)
                                                  /home/src/arm/target/bin/../arm-none-eabi/lib//libstdc++.a(vterminate.o)
fwrite                                            /home/src/arm/target/bin/../arm-none-eabi/lib//libc.a(lib_a-fwrite.o)
                                                  /home/src/arm/target/bin/../arm-none-eabi/lib//libstdc++.a(vterminate.o)
g_TextAttributeBlink                              /home/leon/git/swp-report/iMX6_Platform_SDK/output/mx6sdl/lib/libsdk.a(text_color.o)
g_TextAttributeBold                               /home/leon/git/swp-report/iMX6_Platform_SDK/output/mx6sdl/lib/libsdk.a(text_color.o)
                                                  /home/leon/git/swp-report/iMX6_Platform_SDK/output/mx6sdl/lib/libsdk.a(system_util.o)
g_TextAttributeDefault                            /home/leon/git/swp-report/iMX6_Platform_SDK/output/mx6sdl/lib/libsdk.a(text_color.o)
g_TextAttributeDim                                /home/leon/git/swp-report/iMX6_Platform_SDK/output/mx6sdl/lib/libsdk.a(text_color.o)
g_TextAttributeHidden                             /home/leon/git/swp-report/iMX6_Platform_SDK/output/mx6sdl/lib/libsdk.a(text_color.o)
g_TextAttributeReverse                            /home/leon/git/swp-report/iMX6_Platform_SDK/output/mx6sdl/lib/libsdk.a(text_color.o)
g_TextAttributeUnderline                          /home/leon/git/swp-report/iMX6_Platform_SDK/output/mx6sdl/lib/libsdk.a(text_color.o)
g_TextColorBlack                                  /home/leon/git/swp-report/iMX6_Platform_SDK/output/mx6sdl/lib/libsdk.a(text_color.o)
g_TextColorBlue                                   /home/leon/git/swp-report/iMX6_Platform_SDK/output/mx6sdl/lib/libsdk.a(text_color.o)
g_TextColorCyan                                   /home/leon/git/swp-report/iMX6_Platform_SDK/output/mx6sdl/lib/libsdk.a(text_color.o)
g_TextColorGray                                   /home/leon/git/swp-report/iMX6_Platform_SDK/output/mx6sdl/lib/libsdk.a(text_color.o)
g_TextColorGreen                                  /home/leon/git/swp-report/iMX6_Platform_SDK/output/mx6sdl/lib/libsdk.a(text_color.o)
g_TextColorLightBlue                              /home/leon/git/swp-report/iMX6_Platform_SDK/output/mx6sdl/lib/libsdk.a(text_color.o)
g_TextColorMagenta                                /home/leon/git/swp-report/iMX6_Platform_SDK/output/mx6sdl/lib/libsdk.a(text_color.o)
g_TextColorOrange                                 /home/leon/git/swp-report/iMX6_Platform_SDK/output/mx6sdl/lib/libsdk.a(text_color.o)
g_TextColorPurple                                 /home/leon/git/swp-report/iMX6_Platform_SDK/output/mx6sdl/lib/libsdk.a(text_color.o)
g_TextColorRed                                    /home/leon/git/swp-report/iMX6_Platform_SDK/output/mx6sdl/lib/libsdk.a(text_color.o)
                                                  /home/leon/git/swp-report/iMX6_Platform_SDK/output/mx6sdl/lib/libsdk.a(system_util.o)
g_TextColorWhite                                  /home/leon/git/swp-report/iMX6_Platform_SDK/output/mx6sdl/lib/libsdk.a(text_color.o)
g_TextColorYellow                                 /home/leon/git/swp-report/iMX6_Platform_SDK/output/mx6sdl/lib/libsdk.a(text_color.o)
g_debug_uart_port                                 /home/leon/git/swp-report/iMX6_Platform_SDK/output/mx6sdl/lib/libboard_sabre_ai_rev_c.a(hardware_modules.o)
                                                  /home/leon/git/swp-report/iMX6_Platform_SDK/output/mx6sdl/lib/libsdk.a(system_util.o)
                                                  /home/leon/git/swp-report/iMX6_Platform_SDK/output/mx6sdl/stream/sabre_ai_rev_c/obj/apps/common/platform_init.o
g_interrupt_handlers                              /home/leon/git/swp-report/iMX6_Platform_SDK/output/mx6sdl/lib/libsdk.a(interrupt.o)
g_microsecondTimerMultiple                        /home/leon/git/swp-report/iMX6_Platform_SDK/output/mx6sdl/lib/libsdk.a(timer.o)
g_system_timer_port                               /home/leon/git/swp-report/iMX6_Platform_SDK/output/mx6sdl/lib/libboard_sabre_ai_rev_c.a(hardware_modules.o)
                                                  /home/leon/git/swp-report/iMX6_Platform_SDK/output/mx6sdl/lib/libsdk.a(timer.o)
g_vectNum                                         /home/leon/git/swp-report/iMX6_Platform_SDK/output/mx6sdl/lib/libsdk.a(interrupt.o)
get_arm_private_peripheral_base                   /home/leon/git/swp-report/iMX6_Platform_SDK/output/mx6sdl/lib/libsdk.a(cortexA9.o)
                                                  /home/leon/git/swp-report/iMX6_Platform_SDK/output/mx6sdl/lib/libsdk.a(gic.o)
get_board_id                                      /home/leon/git/swp-report/iMX6_Platform_SDK/output/mx6sdl/lib/libsdk.a(board_id.o)
                                                  /home/leon/git/swp-report/iMX6_Platform_SDK/output/mx6sdl/stream/sabre_ai_rev_c/obj/apps/common/print_version.o
get_color_supported                               /home/leon/git/swp-report/iMX6_Platform_SDK/output/mx6sdl/lib/libsdk.a(text_color.o)
get_input_hex                                     /home/leon/git/swp-report/iMX6_Platform_SDK/output/mx6sdl/lib/libsdk.a(system_util.o)
get_main_clock                                    /home/leon/git/swp-report/iMX6_Platform_SDK/output/mx6sdl/lib/libsdk.a(ccm_pll.o)
                                                  /home/leon/git/swp-report/iMX6_Platform_SDK/output/mx6sdl/lib/libsdk.a(imx_i2c.o)
                                                  /home/leon/git/swp-report/iMX6_Platform_SDK/output/mx6sdl/lib/libsdk.a(timer.o)
                                                  /home/leon/git/swp-report/iMX6_Platform_SDK/output/mx6sdl/stream/sabre_ai_rev_c/obj/apps/stream/src/main.o
get_peri_clock                                    /home/leon/git/swp-report/iMX6_Platform_SDK/output/mx6sdl/lib/libsdk.a(ccm_pll.o)
                                                  /home/leon/git/swp-report/iMX6_Platform_SDK/output/mx6sdl/lib/libsdk.a(imx_uart.o)
gic_cpu_enable                                    /home/leon/git/swp-report/iMX6_Platform_SDK/output/mx6sdl/lib/libsdk.a(gic.o)
gic_enable                                        /home/leon/git/swp-report/iMX6_Platform_SDK/output/mx6sdl/lib/libsdk.a(gic.o)
gic_enable_irq                                    /home/leon/git/swp-report/iMX6_Platform_SDK/output/mx6sdl/lib/libsdk.a(gic.o)
                                                  /home/leon/git/swp-report/iMX6_Platform_SDK/output/mx6sdl/lib/libsdk.a(interrupt.o)
gic_init                                          /home/leon/git/swp-report/iMX6_Platform_SDK/output/mx6sdl/lib/libsdk.a(gic.o)
                                                  /home/leon/git/swp-report/iMX6_Platform_SDK/output/mx6sdl/stream/sabre_ai_rev_c/obj/apps/common/platform_init.o
gic_init_cpu                                      /home/leon/git/swp-report/iMX6_Platform_SDK/output/mx6sdl/lib/libsdk.a(gic.o)
gic_read_irq_ack                                  /home/leon/git/swp-report/iMX6_Platform_SDK/output/mx6sdl/lib/libsdk.a(gic.o)
                                                  /home/leon/git/swp-report/iMX6_Platform_SDK/output/mx6sdl/lib/libsdk.a(interrupt.o)
gic_send_sgi                                      /home/leon/git/swp-report/iMX6_Platform_SDK/output/mx6sdl/lib/libsdk.a(gic.o)
gic_set_cpu_priority_mask                         /home/leon/git/swp-report/iMX6_Platform_SDK/output/mx6sdl/lib/libsdk.a(gic.o)
gic_set_cpu_target                                /home/leon/git/swp-report/iMX6_Platform_SDK/output/mx6sdl/lib/libsdk.a(gic.o)
                                                  /home/leon/git/swp-report/iMX6_Platform_SDK/output/mx6sdl/lib/libsdk.a(interrupt.o)
gic_set_irq_priority                              /home/leon/git/swp-report/iMX6_Platform_SDK/output/mx6sdl/lib/libsdk.a(gic.o)
                                                  /home/leon/git/swp-report/iMX6_Platform_SDK/output/mx6sdl/lib/libsdk.a(interrupt.o)
gic_set_irq_security                              /home/leon/git/swp-report/iMX6_Platform_SDK/output/mx6sdl/lib/libsdk.a(gic.o)
                                                  /home/leon/git/swp-report/iMX6_Platform_SDK/output/mx6sdl/lib/libsdk.a(interrupt.o)
gic_write_end_of_irq                              /home/leon/git/swp-report/iMX6_Platform_SDK/output/mx6sdl/lib/libsdk.a(gic.o)
                                                  /home/leon/git/swp-report/iMX6_Platform_SDK/output/mx6sdl/lib/libsdk.a(interrupt.o)
gpio1_iomux_config                                /home/leon/git/swp-report/iMX6_Platform_SDK/output/mx6sdl/lib/libboard_sabre_ai_rev_c.a(gpio1_iomux_config.o)
                                                  /home/leon/git/swp-report/iMX6_Platform_SDK/output/mx6sdl/lib/libboard_sabre_ai_rev_c.a(iomux_config.o)
gpio2_iomux_config                                /home/leon/git/swp-report/iMX6_Platform_SDK/output/mx6sdl/lib/libboard_sabre_ai_rev_c.a(gpio2_iomux_config.o)
                                                  /home/leon/git/swp-report/iMX6_Platform_SDK/output/mx6sdl/lib/libboard_sabre_ai_rev_c.a(iomux_config.o)
gpio3_iomux_config                                /home/leon/git/swp-report/iMX6_Platform_SDK/output/mx6sdl/lib/libboard_sabre_ai_rev_c.a(iomux_config.o)
gpio4_iomux_config                                /home/leon/git/swp-report/iMX6_Platform_SDK/output/mx6sdl/lib/libboard_sabre_ai_rev_c.a(gpio4_iomux_config.o)
                                                  /home/leon/git/swp-report/iMX6_Platform_SDK/output/mx6sdl/lib/libboard_sabre_ai_rev_c.a(iomux_config.o)
gpio5_iomux_config                                /home/leon/git/swp-report/iMX6_Platform_SDK/output/mx6sdl/lib/libboard_sabre_ai_rev_c.a(gpio5_iomux_config.o)
                                                  /home/leon/git/swp-report/iMX6_Platform_SDK/output/mx6sdl/lib/libboard_sabre_ai_rev_c.a(iomux_config.o)
gpio6_iomux_config                                /home/leon/git/swp-report/iMX6_Platform_SDK/output/mx6sdl/lib/libboard_sabre_ai_rev_c.a(gpio6_iomux_config.o)
                                                  /home/leon/git/swp-report/iMX6_Platform_SDK/output/mx6sdl/lib/libboard_sabre_ai_rev_c.a(iomux_config.o)
gpio7_iomux_config                                /home/leon/git/swp-report/iMX6_Platform_SDK/output/mx6sdl/lib/libboard_sabre_ai_rev_c.a(iomux_config.o)
gpio_clear_interrupt                              /home/leon/git/swp-report/iMX6_Platform_SDK/output/mx6sdl/lib/libsdk.a(gpio.o)
gpio_get_direction                                /home/leon/git/swp-report/iMX6_Platform_SDK/output/mx6sdl/lib/libsdk.a(gpio.o)
gpio_get_interrupt_status                         /home/leon/git/swp-report/iMX6_Platform_SDK/output/mx6sdl/lib/libsdk.a(gpio.o)
gpio_get_level                                    /home/leon/git/swp-report/iMX6_Platform_SDK/output/mx6sdl/lib/libsdk.a(gpio.o)
gpio_get_port_count                               /home/leon/git/swp-report/iMX6_Platform_SDK/output/mx6sdl/lib/libsdk.a(gpio.o)
gpio_set_direction                                /home/leon/git/swp-report/iMX6_Platform_SDK/output/mx6sdl/lib/libsdk.a(gpio.o)
                                                  /home/leon/git/swp-report/iMX6_Platform_SDK/output/mx6sdl/lib/libboard_sabre_ai_rev_c.a(board_io_expanders.o)
gpio_set_gpio                                     /home/leon/git/swp-report/iMX6_Platform_SDK/output/mx6sdl/lib/libsdk.a(gpio.o)
                                                  /home/leon/git/swp-report/iMX6_Platform_SDK/output/mx6sdl/lib/libboard_sabre_ai_rev_c.a(board_io_expanders.o)
gpio_set_interrupt_config                         /home/leon/git/swp-report/iMX6_Platform_SDK/output/mx6sdl/lib/libsdk.a(gpio.o)
gpio_set_interrupt_mask                           /home/leon/git/swp-report/iMX6_Platform_SDK/output/mx6sdl/lib/libsdk.a(gpio.o)
gpio_set_level                                    /home/leon/git/swp-report/iMX6_Platform_SDK/output/mx6sdl/lib/libsdk.a(gpio.o)
                                                  /home/leon/git/swp-report/iMX6_Platform_SDK/output/mx6sdl/lib/libboard_sabre_ai_rev_c.a(board_io_expanders.o)
gpmi_iomux_config                                 /home/leon/git/swp-report/iMX6_Platform_SDK/output/mx6sdl/lib/libboard_sabre_ai_rev_c.a(gpmi_iomux_config.o)
                                                  /home/leon/git/swp-report/iMX6_Platform_SDK/output/mx6sdl/lib/libboard_sabre_ai_rev_c.a(iomux_config.o)
gpt_iomux_config                                  /home/leon/git/swp-report/iMX6_Platform_SDK/output/mx6sdl/lib/libboard_sabre_ai_rev_c.a(iomux_config.o)
gpu_clock_config                                  /home/leon/git/swp-report/iMX6_Platform_SDK/output/mx6sdl/lib/libsdk.a(ccm_pll.o)
hal_delay_us                                      /home/leon/git/swp-report/iMX6_Platform_SDK/output/mx6sdl/lib/libsdk.a(timer.o)
hdmi_iomux_config                                 /home/leon/git/swp-report/iMX6_Platform_SDK/output/mx6sdl/lib/libboard_sabre_ai_rev_c.a(iomux_config.o)
i2c1_iomux_config                                 /home/leon/git/swp-report/iMX6_Platform_SDK/output/mx6sdl/lib/libboard_sabre_ai_rev_c.a(iomux_config.o)
                                                  /home/leon/git/swp-report/iMX6_Platform_SDK/output/mx6sdl/lib/libboard_sabre_ai_rev_c.a(i2c_iomux_config.o)
i2c2_iomux_config                                 /home/leon/git/swp-report/iMX6_Platform_SDK/output/mx6sdl/lib/libboard_sabre_ai_rev_c.a(i2c2_iomux_config.o)
                                                  /home/leon/git/swp-report/iMX6_Platform_SDK/output/mx6sdl/lib/libboard_sabre_ai_rev_c.a(i2c_iomux_config.o)
                                                  /home/leon/git/swp-report/iMX6_Platform_SDK/output/mx6sdl/lib/libboard_sabre_ai_rev_c.a(iomux_config.o)
i2c3_iomux_config                                 /home/leon/git/swp-report/iMX6_Platform_SDK/output/mx6sdl/lib/libboard_sabre_ai_rev_c.a(i2c3_iomux_config.o)
                                                  /home/leon/git/swp-report/iMX6_Platform_SDK/output/mx6sdl/lib/libboard_sabre_ai_rev_c.a(i2c_iomux_config.o)
                                                  /home/leon/git/swp-report/iMX6_Platform_SDK/output/mx6sdl/lib/libboard_sabre_ai_rev_c.a(iomux_config.o)
                                                  /home/leon/git/swp-report/iMX6_Platform_SDK/output/mx6sdl/lib/libboard_sabre_ai_rev_c.a(board_io_expanders.o)
i2c4_iomux_config                                 /home/leon/git/swp-report/iMX6_Platform_SDK/output/mx6sdl/lib/libboard_sabre_ai_rev_c.a(iomux_config.o)
                                                  /home/leon/git/swp-report/iMX6_Platform_SDK/output/mx6sdl/lib/libboard_sabre_ai_rev_c.a(i2c_iomux_config.o)
i2c_get_request_instance                          /home/leon/git/swp-report/iMX6_Platform_SDK/output/mx6sdl/lib/libsdk.a(imx_i2c.o)
i2c_init                                          /home/leon/git/swp-report/iMX6_Platform_SDK/output/mx6sdl/lib/libsdk.a(imx_i2c.o)
                                                  /home/leon/git/swp-report/iMX6_Platform_SDK/output/mx6sdl/lib/libsdk.a(max7310.o)
i2c_iomux_config                                  /home/leon/git/swp-report/iMX6_Platform_SDK/output/mx6sdl/lib/libboard_sabre_ai_rev_c.a(i2c_iomux_config.o)
                                                  /home/leon/git/swp-report/iMX6_Platform_SDK/output/mx6sdl/lib/libsdk.a(imx_i2c.o)
i2c_read                                          /home/leon/git/swp-report/iMX6_Platform_SDK/output/mx6sdl/lib/libsdk.a(imx_i2c.o)
                                                  /home/leon/git/swp-report/iMX6_Platform_SDK/output/mx6sdl/lib/libsdk.a(max7310.o)
i2c_setup_interrupt                               /home/leon/git/swp-report/iMX6_Platform_SDK/output/mx6sdl/lib/libsdk.a(imx_i2c.o)
i2c_write                                         /home/leon/git/swp-report/iMX6_Platform_SDK/output/mx6sdl/lib/libsdk.a(imx_i2c.o)
                                                  /home/leon/git/swp-report/iMX6_Platform_SDK/output/mx6sdl/lib/libsdk.a(max7310.o)
i2c_xfer                                          /home/leon/git/swp-report/iMX6_Platform_SDK/output/mx6sdl/lib/libsdk.a(imx_i2c.o)
initialise_monitor_handles                        /home/src/arm/target/bin/../arm-none-eabi/lib//libc.a(lib_a-syscalls.o)
input_dcd                                         /home/leon/git/swp-report/iMX6_Platform_SDK/output/mx6sdl/lib/libboard_sabre_ai_rev_c.a(dcd.o)
input_dcd_hdr                                     /home/leon/git/swp-report/iMX6_Platform_SDK/output/mx6sdl/lib/libboard_sabre_ai_rev_c.a(dcd.o)
                                                  /home/leon/git/swp-report/iMX6_Platform_SDK/output/mx6sdl/stream/sabre_ai_rev_c/obj/apps/common/ivt.o
input_dcd_wrt_cmd                                 /home/leon/git/swp-report/iMX6_Platform_SDK/output/mx6sdl/lib/libboard_sabre_ai_rev_c.a(dcd.o)
input_ivt                                         /home/leon/git/swp-report/iMX6_Platform_SDK/output/mx6sdl/stream/sabre_ai_rev_c/obj/apps/common/ivt.o
iomux_config                                      /home/leon/git/swp-report/iMX6_Platform_SDK/output/mx6sdl/lib/libboard_sabre_ai_rev_c.a(iomux_config.o)
ipu1_iomux_config                                 /home/leon/git/swp-report/iMX6_Platform_SDK/output/mx6sdl/lib/libboard_sabre_ai_rev_c.a(ipu1_iomux_config.o)
                                                  /home/leon/git/swp-report/iMX6_Platform_SDK/output/mx6sdl/lib/libboard_sabre_ai_rev_c.a(iomux_config.o)
ipu_hsp_clk_config                                /home/leon/git/swp-report/iMX6_Platform_SDK/output/mx6sdl/lib/libsdk.a(ccm_pll.o)
is_color_supported                                /home/leon/git/swp-report/iMX6_Platform_SDK/output/mx6sdl/lib/libsdk.a(text_color.o)
is_input_char                                     /home/leon/git/swp-report/iMX6_Platform_SDK/output/mx6sdl/lib/libsdk.a(system_util.o)
jump_to_sdp                                       /home/leon/git/swp-report/iMX6_Platform_SDK/output/mx6sdl/lib/libsdk.a(system_util.o)
k_gpio_mux_registers                              /home/leon/git/swp-report/iMX6_Platform_SDK/output/mx6sdl/lib/libsdk.a(imx6sdl_gpio_map.o)
                                                  /home/leon/git/swp-report/iMX6_Platform_SDK/output/mx6sdl/lib/libsdk.a(gpio.o)
k_sdk_copyright                                   /home/leon/git/swp-report/iMX6_Platform_SDK/output/mx6sdl/lib/libsdk.a(sdk_version.o)
                                                  /home/leon/git/swp-report/iMX6_Platform_SDK/output/mx6sdl/stream/sabre_ai_rev_c/obj/apps/common/print_version.o
k_sdk_version                                     /home/leon/git/swp-report/iMX6_Platform_SDK/output/mx6sdl/lib/libsdk.a(sdk_version.o)
                                                  /home/leon/git/swp-report/iMX6_Platform_SDK/output/mx6sdl/stream/sabre_ai_rev_c/obj/apps/common/print_version.o
kpp_iomux_config                                  /home/leon/git/swp-report/iMX6_Platform_SDK/output/mx6sdl/lib/libboard_sabre_ai_rev_c.a(iomux_config.o)
lcd_iomux_config                                  /home/leon/git/swp-report/iMX6_Platform_SDK/output/mx6sdl/lib/libboard_sabre_ai_rev_c.a(iomux_config.o)
ldb_iomux_config                                  /home/leon/git/swp-report/iMX6_Platform_SDK/output/mx6sdl/lib/libboard_sabre_ai_rev_c.a(iomux_config.o)
localeconv                                        /home/src/arm/target/bin/../arm-none-eabi/lib//libc.a(lib_a-locale.o)
main                                              /home/leon/git/swp-report/iMX6_Platform_SDK/output/mx6sdl/stream/sabre_ai_rev_c/obj/apps/stream/src/main.o
                                                  /home/leon/git/swp-report/iMX6_Platform_SDK/output/mx6sdl/lib/libsdk.a(startup.o)
malloc                                            /home/src/arm/target/bin/../arm-none-eabi/lib//libc.a(lib_a-malloc.o)
                                                  /home/src/arm/target/bin/../arm-none-eabi/lib//libstdc++.a(eh_alloc.o)
                                                  /home/leon/git/swp-report/iMX6_Platform_SDK/output/mx6sdl/lib/libsdk.a(system_util.o)
max7310_i2c_req_array                             /home/leon/git/swp-report/iMX6_Platform_SDK/output/mx6sdl/lib/libboard_sabre_ai_rev_c.a(board_io_expanders.o)
                                                  /home/leon/git/swp-report/iMX6_Platform_SDK/output/mx6sdl/lib/libsdk.a(max7310.o)
max7310_init                                      /home/leon/git/swp-report/iMX6_Platform_SDK/output/mx6sdl/lib/libsdk.a(max7310.o)
                                                  /home/leon/git/swp-report/iMX6_Platform_SDK/output/mx6sdl/lib/libboard_sabre_ai_rev_c.a(board_io_expanders.o)
max7310_reg_read                                  /home/leon/git/swp-report/iMX6_Platform_SDK/output/mx6sdl/lib/libsdk.a(max7310.o)
max7310_reg_write                                 /home/leon/git/swp-report/iMX6_Platform_SDK/output/mx6sdl/lib/libsdk.a(max7310.o)
max7310_set_gpio_output                           /home/leon/git/swp-report/iMX6_Platform_SDK/output/mx6sdl/lib/libsdk.a(max7310.o)
memchr                                            /home/src/arm/target/bin/../arm-none-eabi/lib//libc.a(lib_a-memchr-stub.o)
                                                  /home/src/arm/target/bin/../arm-none-eabi/lib//libc.a(lib_a-svfiprintf.o)
                                                  /home/src/arm/target/bin/../arm-none-eabi/lib//libc.a(lib_a-vfprintf.o)
                                                  /home/src/arm/target/bin/../arm-none-eabi/lib//libc.a(lib_a-vfiprintf.o)
                                                  /home/src/arm/target/bin/../arm-none-eabi/lib//libc.a(lib_a-svfprintf.o)
                                                  /home/src/arm/target/bin/../arm-none-eabi/lib//libc.a(lib_a-fvwrite.o)
memcmp                                            /home/src/arm/target/bin/../arm-none-eabi/lib//libc.a(lib_a-memcmp.o)
                                                  /home/src/arm/target/bin/../arm-none-eabi/lib//libstdc++.a(cp-demangle.o)
memcpy                                            /home/src/arm/target/bin/../arm-none-eabi/lib//libc.a(lib_a-memcpy-stub.o)
                                                  /home/src/arm/target/bin/../lib/gcc/arm-none-eabi/4.8.2//libgcc.a(unwind-arm.o)
                                                  /home/src/arm/target/bin/../arm-none-eabi/lib//libc.a(lib_a-svfiprintf.o)
                                                  /home/src/arm/target/bin/../arm-none-eabi/lib//libc.a(lib_a-mprec.o)
                                                  /home/src/arm/target/bin/../arm-none-eabi/lib//libc.a(lib_a-dtoa.o)
                                                  /home/src/arm/target/bin/../arm-none-eabi/lib//libc.a(lib_a-fvwrite.o)
                                                  /home/src/arm/target/bin/../arm-none-eabi/lib//libstdc++.a(cp-demangle.o)
memmove                                           /home/src/arm/target/bin/../arm-none-eabi/lib//libc.a(lib_a-memmove.o)
                                                  /home/src/arm/target/bin/../arm-none-eabi/lib//libc.a(lib_a-svfiprintf.o)
                                                  /home/src/arm/target/bin/../arm-none-eabi/lib//libc.a(lib_a-reallocr.o)
                                                  /home/src/arm/target/bin/../arm-none-eabi/lib//libc.a(lib_a-fvwrite.o)
memset                                            /home/src/arm/target/bin/../arm-none-eabi/lib//libc.a(lib_a-memset.o)
                                                  /home/src/arm/target/bin/../arm-none-eabi/lib//libc.a(lib_a-callocr.o)
                                                  /home/src/arm/target/bin/../arm-none-eabi/lib//libc.a(lib_a-findfp.o)
                                                  /home/src/arm/target/bin/../arm-none-eabi/lib//libc.a(lib_a-syscalls.o)
                                                  /home/src/arm/target/bin/../arm-none-eabi/lib//libstdc++.a(eh_alloc.o)
                                                  /home/leon/git/swp-report/iMX6_Platform_SDK/output/mx6sdl/lib/libsdk.a(pmu_driver.o)
                                                  /home/leon/git/swp-report/iMX6_Platform_SDK/output/mx6sdl/lib/libsdk.a(board_id.o)
                                                  /home/leon/git/swp-report/iMX6_Platform_SDK/output/mx6sdl/stream/sabre_ai_rev_c/obj/apps/stream/src/stream.o
                                                  /home/leon/git/swp-report/iMX6_Platform_SDK/output/mx6sdl/stream/sabre_ai_rev_c/obj/apps/common/print_version.o
mipi_csi_iomux_config                             /home/leon/git/swp-report/iMX6_Platform_SDK/output/mx6sdl/lib/libboard_sabre_ai_rev_c.a(iomux_config.o)
mipi_dsi_iomux_config                             /home/leon/git/swp-report/iMX6_Platform_SDK/output/mx6sdl/lib/libboard_sabre_ai_rev_c.a(iomux_config.o)
mipi_hsi_iomux_config                             /home/leon/git/swp-report/iMX6_Platform_SDK/output/mx6sdl/lib/libboard_sabre_ai_rev_c.a(iomux_config.o)
mlb_iomux_config                                  /home/leon/git/swp-report/iMX6_Platform_SDK/output/mx6sdl/lib/libboard_sabre_ai_rev_c.a(mlb_iomux_config.o)
                                                  /home/leon/git/swp-report/iMX6_Platform_SDK/output/mx6sdl/lib/libboard_sabre_ai_rev_c.a(iomux_config.o)
mmdc_iomux_config                                 /home/leon/git/swp-report/iMX6_Platform_SDK/output/mx6sdl/lib/libboard_sabre_ai_rev_c.a(mmdc_iomux_config.o)
                                                  /home/leon/git/swp-report/iMX6_Platform_SDK/output/mx6sdl/lib/libboard_sabre_ai_rev_c.a(iomux_config.o)
mmu_disable                                       /home/leon/git/swp-report/iMX6_Platform_SDK/output/mx6sdl/lib/libsdk.a(mmu.o)
mmu_enable                                        /home/leon/git/swp-report/iMX6_Platform_SDK/output/mx6sdl/lib/libsdk.a(mmu.o)
mmu_init                                          /home/leon/git/swp-report/iMX6_Platform_SDK/output/mx6sdl/lib/libsdk.a(mmu.o)
                                                  /home/leon/git/swp-report/iMX6_Platform_SDK/output/mx6sdl/stream/sabre_ai_rev_c/obj/apps/common/platform_init.o
mmu_map_l1_range                                  /home/leon/git/swp-report/iMX6_Platform_SDK/output/mx6sdl/lib/libsdk.a(mmu.o)
mmu_virtual_to_physical                           /home/leon/git/swp-report/iMX6_Platform_SDK/output/mx6sdl/lib/libsdk.a(mmu.o)
mybkpt                                            /home/leon/git/swp-report/iMX6_Platform_SDK/output/mx6sdl/lib/libsdk.a(system_util.o)
mysecond                                          /home/leon/git/swp-report/iMX6_Platform_SDK/output/mx6sdl/stream/sabre_ai_rev_c/obj/apps/stream/src/main.o
                                                  /home/leon/git/swp-report/iMX6_Platform_SDK/output/mx6sdl/stream/sabre_ai_rev_c/obj/apps/stream/src/stream.o
operator delete(void*)                            /home/src/arm/target/bin/../arm-none-eabi/lib//libstdc++.a(del_op.o)
                                                  /home/src/arm/target/bin/../arm-none-eabi/lib//libstdc++.a(class_type_info.o)
                                                  /home/src/arm/target/bin/../arm-none-eabi/lib//libstdc++.a(tinfo.o)
                                                  /home/src/arm/target/bin/../arm-none-eabi/lib//libstdc++.a(si_class_type_info.o)
                                                  /home/src/arm/target/bin/../arm-none-eabi/lib//libstdc++.a(eh_exception.o)
operator new(unsigned int, void*)                 /home/leon/git/swp-report/iMX6_Platform_SDK/output/mx6sdl/lib/libsdk.a(pmu_driver.o)
pcie_iomux_config                                 /home/leon/git/swp-report/iMX6_Platform_SDK/output/mx6sdl/lib/libboard_sabre_ai_rev_c.a(iomux_config.o)
platform_init                                     /home/leon/git/swp-report/iMX6_Platform_SDK/output/mx6sdl/stream/sabre_ai_rev_c/obj/apps/common/platform_init.o
                                                  /home/leon/git/swp-report/iMX6_Platform_SDK/output/mx6sdl/stream/sabre_ai_rev_c/obj/apps/stream/src/main.o
pmu::AnalogRegulator::AnalogRegulator(_hw_pmu_reg_1p1 volatile&) /home/leon/git/swp-report/iMX6_Platform_SDK/output/mx6sdl/lib/libsdk.a(pmu_driver.o)
pmu::AnalogRegulator::AnalogRegulator(_hw_pmu_reg_1p1 volatile&) /home/leon/git/swp-report/iMX6_Platform_SDK/output/mx6sdl/lib/libsdk.a(pmu_driver.o)
pmu::AnalogRegulator::AnalogRegulator<_hw_pmu_reg_2p5>(_hw_pmu_reg_2p5 volatile&) /home/leon/git/swp-report/iMX6_Platform_SDK/output/mx6sdl/lib/libsdk.a(pmu_driver.o)
pmu::AnalogRegulator::AnalogRegulator<_hw_pmu_reg_2p5>(_hw_pmu_reg_2p5 volatile&) /home/leon/git/swp-report/iMX6_Platform_SDK/output/mx6sdl/lib/libsdk.a(pmu_driver.o)
pmu::AnalogRegulator::AnalogRegulator<_hw_pmu_reg_3p0>(_hw_pmu_reg_3p0 volatile&) /home/leon/git/swp-report/iMX6_Platform_SDK/output/mx6sdl/lib/libsdk.a(pmu_driver.o)
pmu::AnalogRegulator::AnalogRegulator<_hw_pmu_reg_3p0>(_hw_pmu_reg_3p0 volatile&) /home/leon/git/swp-report/iMX6_Platform_SDK/output/mx6sdl/lib/libsdk.a(pmu_driver.o)
pmu::AnalogRegulator::getBrownoutMillivolts() const /home/leon/git/swp-report/iMX6_Platform_SDK/output/mx6sdl/lib/libsdk.a(pmu_driver.o)
pmu::AnalogRegulator::getOutputMillivolts() const /home/leon/git/swp-report/iMX6_Platform_SDK/output/mx6sdl/lib/libsdk.a(pmu_driver.o)
pmu::AnalogRegulator::getProperty(_pmu_regulator_properties, void*) /home/leon/git/swp-report/iMX6_Platform_SDK/output/mx6sdl/lib/libsdk.a(pmu_driver.o)
pmu::AnalogRegulator::isBrownoutDetectEnabled() const /home/leon/git/swp-report/iMX6_Platform_SDK/output/mx6sdl/lib/libsdk.a(pmu_driver.o)
pmu::AnalogRegulator::isEnabled() const           /home/leon/git/swp-report/iMX6_Platform_SDK/output/mx6sdl/lib/libsdk.a(pmu_driver.o)
pmu::AnalogRegulator::setBrownoutDetectIsEnabled(bool) /home/leon/git/swp-report/iMX6_Platform_SDK/output/mx6sdl/lib/libsdk.a(pmu_driver.o)
pmu::AnalogRegulator::setBrownoutMillivolts(unsigned long) /home/leon/git/swp-report/iMX6_Platform_SDK/output/mx6sdl/lib/libsdk.a(pmu_driver.o)
pmu::AnalogRegulator::setIsEnabled(bool)          /home/leon/git/swp-report/iMX6_Platform_SDK/output/mx6sdl/lib/libsdk.a(pmu_driver.o)
pmu::AnalogRegulator::setOutputMillivolts(unsigned long) /home/leon/git/swp-report/iMX6_Platform_SDK/output/mx6sdl/lib/libsdk.a(pmu_driver.o)
pmu::AnalogRegulator::setProperty(_pmu_regulator_properties, void const*) /home/leon/git/swp-report/iMX6_Platform_SDK/output/mx6sdl/lib/libsdk.a(pmu_driver.o)
pmu::DigitalRegulator::DigitalRegulator()         /home/leon/git/swp-report/iMX6_Platform_SDK/output/mx6sdl/lib/libsdk.a(pmu_driver.o)
pmu::DigitalRegulator::DigitalRegulator()         /home/leon/git/swp-report/iMX6_Platform_SDK/output/mx6sdl/lib/libsdk.a(pmu_driver.o)
pmu::DigitalRegulator::getBrownoutMillivolts() const /home/leon/git/swp-report/iMX6_Platform_SDK/output/mx6sdl/lib/libsdk.a(pmu_driver.o)
pmu::DigitalRegulator::getOutputMillivolts() const /home/leon/git/swp-report/iMX6_Platform_SDK/output/mx6sdl/lib/libsdk.a(pmu_driver.o)
pmu::DigitalRegulator::getProperty(_pmu_regulator_properties, void*) /home/leon/git/swp-report/iMX6_Platform_SDK/output/mx6sdl/lib/libsdk.a(pmu_driver.o)
pmu::DigitalRegulator::isBypassed() const         /home/leon/git/swp-report/iMX6_Platform_SDK/output/mx6sdl/lib/libsdk.a(pmu_driver.o)
pmu::DigitalRegulator::isEnabled() const          /home/leon/git/swp-report/iMX6_Platform_SDK/output/mx6sdl/lib/libsdk.a(pmu_driver.o)
pmu::DigitalRegulator::setBrownoutMillivolts(unsigned long) /home/leon/git/swp-report/iMX6_Platform_SDK/output/mx6sdl/lib/libsdk.a(pmu_driver.o)
pmu::DigitalRegulator::setIsBypassed(bool)        /home/leon/git/swp-report/iMX6_Platform_SDK/output/mx6sdl/lib/libsdk.a(pmu_driver.o)
pmu::DigitalRegulator::setIsEnabled(bool)         /home/leon/git/swp-report/iMX6_Platform_SDK/output/mx6sdl/lib/libsdk.a(pmu_driver.o)
pmu::DigitalRegulator::setOutputMillivolts(unsigned long) /home/leon/git/swp-report/iMX6_Platform_SDK/output/mx6sdl/lib/libsdk.a(pmu_driver.o)
pmu::DigitalRegulator::setProperty(_pmu_regulator_properties, void const*) /home/leon/git/swp-report/iMX6_Platform_SDK/output/mx6sdl/lib/libsdk.a(pmu_driver.o)
pmu::LDO1p1Regulator::LDO1p1Regulator()           /home/leon/git/swp-report/iMX6_Platform_SDK/output/mx6sdl/lib/libsdk.a(pmu_driver.o)
pmu::LDO1p1Regulator::LDO1p1Regulator()           /home/leon/git/swp-report/iMX6_Platform_SDK/output/mx6sdl/lib/libsdk.a(pmu_driver.o)
pmu::LDO1p1Regulator::getOutputMillivolts() const /home/leon/git/swp-report/iMX6_Platform_SDK/output/mx6sdl/lib/libsdk.a(pmu_driver.o)
pmu::LDO1p1Regulator::getProperty(_pmu_regulator_properties, void*) /home/leon/git/swp-report/iMX6_Platform_SDK/output/mx6sdl/lib/libsdk.a(pmu_driver.o)
pmu::LDO1p1Regulator::isInBrownout() const        /home/leon/git/swp-report/iMX6_Platform_SDK/output/mx6sdl/lib/libsdk.a(pmu_driver.o)
pmu::LDO1p1Regulator::isOK() const                /home/leon/git/swp-report/iMX6_Platform_SDK/output/mx6sdl/lib/libsdk.a(pmu_driver.o)
pmu::LDO1p1Regulator::setOutputMillivolts(unsigned long) /home/leon/git/swp-report/iMX6_Platform_SDK/output/mx6sdl/lib/libsdk.a(pmu_driver.o)
pmu::LDO2p5Regulator::LDO2p5Regulator()           /home/leon/git/swp-report/iMX6_Platform_SDK/output/mx6sdl/lib/libsdk.a(pmu_driver.o)
pmu::LDO2p5Regulator::LDO2p5Regulator()           /home/leon/git/swp-report/iMX6_Platform_SDK/output/mx6sdl/lib/libsdk.a(pmu_driver.o)
pmu::LDO2p5Regulator::isInBrownout() const        /home/leon/git/swp-report/iMX6_Platform_SDK/output/mx6sdl/lib/libsdk.a(pmu_driver.o)
pmu::LDO2p5Regulator::isOK() const                /home/leon/git/swp-report/iMX6_Platform_SDK/output/mx6sdl/lib/libsdk.a(pmu_driver.o)
pmu::LDO3p0Regulator::LDO3p0Regulator()           /home/leon/git/swp-report/iMX6_Platform_SDK/output/mx6sdl/lib/libsdk.a(pmu_driver.o)
pmu::LDO3p0Regulator::LDO3p0Regulator()           /home/leon/git/swp-report/iMX6_Platform_SDK/output/mx6sdl/lib/libsdk.a(pmu_driver.o)
pmu::LDO3p0Regulator::getProperty(_pmu_regulator_properties, void*) /home/leon/git/swp-report/iMX6_Platform_SDK/output/mx6sdl/lib/libsdk.a(pmu_driver.o)
pmu::LDO3p0Regulator::isInBrownout() const        /home/leon/git/swp-report/iMX6_Platform_SDK/output/mx6sdl/lib/libsdk.a(pmu_driver.o)
pmu::LDO3p0Regulator::isOK() const                /home/leon/git/swp-report/iMX6_Platform_SDK/output/mx6sdl/lib/libsdk.a(pmu_driver.o)
pmu::LDO3p0Regulator::setProperty(_pmu_regulator_properties, void const*) /home/leon/git/swp-report/iMX6_Platform_SDK/output/mx6sdl/lib/libsdk.a(pmu_driver.o)
pmu::LDOARMRegulator::LDOARMRegulator()           /home/leon/git/swp-report/iMX6_Platform_SDK/output/mx6sdl/lib/libsdk.a(pmu_driver.o)
pmu::LDOARMRegulator::LDOARMRegulator()           /home/leon/git/swp-report/iMX6_Platform_SDK/output/mx6sdl/lib/libsdk.a(pmu_driver.o)
pmu::LDOARMRegulator::getBrownout() const         /home/leon/git/swp-report/iMX6_Platform_SDK/output/mx6sdl/lib/libsdk.a(pmu_driver.o)
pmu::LDOARMRegulator::getRampRate() const         /home/leon/git/swp-report/iMX6_Platform_SDK/output/mx6sdl/lib/libsdk.a(pmu_driver.o)
pmu::LDOARMRegulator::getTrigger() const          /home/leon/git/swp-report/iMX6_Platform_SDK/output/mx6sdl/lib/libsdk.a(pmu_driver.o)
pmu::LDOARMRegulator::isBrownoutDetectEnabled() const /home/leon/git/swp-report/iMX6_Platform_SDK/output/mx6sdl/lib/libsdk.a(pmu_driver.o)
pmu::LDOARMRegulator::isInBrownout() const        /home/leon/git/swp-report/iMX6_Platform_SDK/output/mx6sdl/lib/libsdk.a(pmu_driver.o)
pmu::LDOARMRegulator::isOK() const                /home/leon/git/swp-report/iMX6_Platform_SDK/output/mx6sdl/lib/libsdk.a(pmu_driver.o)
pmu::LDOARMRegulator::setBrownout(unsigned long)  /home/leon/git/swp-report/iMX6_Platform_SDK/output/mx6sdl/lib/libsdk.a(pmu_driver.o)
pmu::LDOARMRegulator::setBrownoutDetectIsEnabled(bool) /home/leon/git/swp-report/iMX6_Platform_SDK/output/mx6sdl/lib/libsdk.a(pmu_driver.o)
pmu::LDOARMRegulator::setRampRate(unsigned long)  /home/leon/git/swp-report/iMX6_Platform_SDK/output/mx6sdl/lib/libsdk.a(pmu_driver.o)
pmu::LDOARMRegulator::setTrigger(unsigned long)   /home/leon/git/swp-report/iMX6_Platform_SDK/output/mx6sdl/lib/libsdk.a(pmu_driver.o)
pmu::LDOGraphicsRegulator::LDOGraphicsRegulator() /home/leon/git/swp-report/iMX6_Platform_SDK/output/mx6sdl/lib/libsdk.a(pmu_driver.o)
pmu::LDOGraphicsRegulator::LDOGraphicsRegulator() /home/leon/git/swp-report/iMX6_Platform_SDK/output/mx6sdl/lib/libsdk.a(pmu_driver.o)
pmu::LDOGraphicsRegulator::getBrownout() const    /home/leon/git/swp-report/iMX6_Platform_SDK/output/mx6sdl/lib/libsdk.a(pmu_driver.o)
pmu::LDOGraphicsRegulator::getRampRate() const    /home/leon/git/swp-report/iMX6_Platform_SDK/output/mx6sdl/lib/libsdk.a(pmu_driver.o)
pmu::LDOGraphicsRegulator::getTrigger() const     /home/leon/git/swp-report/iMX6_Platform_SDK/output/mx6sdl/lib/libsdk.a(pmu_driver.o)
pmu::LDOGraphicsRegulator::isBrownoutDetectEnabled() const /home/leon/git/swp-report/iMX6_Platform_SDK/output/mx6sdl/lib/libsdk.a(pmu_driver.o)
pmu::LDOGraphicsRegulator::isInBrownout() const   /home/leon/git/swp-report/iMX6_Platform_SDK/output/mx6sdl/lib/libsdk.a(pmu_driver.o)
pmu::LDOGraphicsRegulator::isOK() const           /home/leon/git/swp-report/iMX6_Platform_SDK/output/mx6sdl/lib/libsdk.a(pmu_driver.o)
pmu::LDOGraphicsRegulator::setBrownout(unsigned long) /home/leon/git/swp-report/iMX6_Platform_SDK/output/mx6sdl/lib/libsdk.a(pmu_driver.o)
pmu::LDOGraphicsRegulator::setBrownoutDetectIsEnabled(bool) /home/leon/git/swp-report/iMX6_Platform_SDK/output/mx6sdl/lib/libsdk.a(pmu_driver.o)
pmu::LDOGraphicsRegulator::setRampRate(unsigned long) /home/leon/git/swp-report/iMX6_Platform_SDK/output/mx6sdl/lib/libsdk.a(pmu_driver.o)
pmu::LDOGraphicsRegulator::setTrigger(unsigned long) /home/leon/git/swp-report/iMX6_Platform_SDK/output/mx6sdl/lib/libsdk.a(pmu_driver.o)
pmu::LDOSoCRegulator::LDOSoCRegulator()           /home/leon/git/swp-report/iMX6_Platform_SDK/output/mx6sdl/lib/libsdk.a(pmu_driver.o)
pmu::LDOSoCRegulator::LDOSoCRegulator()           /home/leon/git/swp-report/iMX6_Platform_SDK/output/mx6sdl/lib/libsdk.a(pmu_driver.o)
pmu::LDOSoCRegulator::getBrownout() const         /home/leon/git/swp-report/iMX6_Platform_SDK/output/mx6sdl/lib/libsdk.a(pmu_driver.o)
pmu::LDOSoCRegulator::getRampRate() const         /home/leon/git/swp-report/iMX6_Platform_SDK/output/mx6sdl/lib/libsdk.a(pmu_driver.o)
pmu::LDOSoCRegulator::getTrigger() const          /home/leon/git/swp-report/iMX6_Platform_SDK/output/mx6sdl/lib/libsdk.a(pmu_driver.o)
pmu::LDOSoCRegulator::isBrownoutDetectEnabled() const /home/leon/git/swp-report/iMX6_Platform_SDK/output/mx6sdl/lib/libsdk.a(pmu_driver.o)
pmu::LDOSoCRegulator::isInBrownout() const        /home/leon/git/swp-report/iMX6_Platform_SDK/output/mx6sdl/lib/libsdk.a(pmu_driver.o)
pmu::LDOSoCRegulator::isOK() const                /home/leon/git/swp-report/iMX6_Platform_SDK/output/mx6sdl/lib/libsdk.a(pmu_driver.o)
pmu::LDOSoCRegulator::setBrownout(unsigned long)  /home/leon/git/swp-report/iMX6_Platform_SDK/output/mx6sdl/lib/libsdk.a(pmu_driver.o)
pmu::LDOSoCRegulator::setBrownoutDetectIsEnabled(bool) /home/leon/git/swp-report/iMX6_Platform_SDK/output/mx6sdl/lib/libsdk.a(pmu_driver.o)
pmu::LDOSoCRegulator::setRampRate(unsigned long)  /home/leon/git/swp-report/iMX6_Platform_SDK/output/mx6sdl/lib/libsdk.a(pmu_driver.o)
pmu::LDOSoCRegulator::setTrigger(unsigned long)   /home/leon/git/swp-report/iMX6_Platform_SDK/output/mx6sdl/lib/libsdk.a(pmu_driver.o)
pmu::Regulator::Regulator()                       /home/leon/git/swp-report/iMX6_Platform_SDK/output/mx6sdl/lib/libsdk.a(pmu_driver.o)
pmu::Regulator::Regulator()                       /home/leon/git/swp-report/iMX6_Platform_SDK/output/mx6sdl/lib/libsdk.a(pmu_driver.o)
pmu::Regulator::getBrownoutHandler()              /home/leon/git/swp-report/iMX6_Platform_SDK/output/mx6sdl/lib/libsdk.a(pmu_driver.o)
pmu::Regulator::getProperty(_pmu_regulator_properties, void*) /home/leon/git/swp-report/iMX6_Platform_SDK/output/mx6sdl/lib/libsdk.a(pmu_driver.o)
pmu::Regulator::setBrownoutHandler(void (*)(_pmu_regs)) /home/leon/git/swp-report/iMX6_Platform_SDK/output/mx6sdl/lib/libsdk.a(pmu_driver.o)
pmu::Regulator::setProperty(_pmu_regulator_properties, void const*) /home/leon/git/swp-report/iMX6_Platform_SDK/output/mx6sdl/lib/libsdk.a(pmu_driver.o)
pmu::Regulator::setVoltageRange(unsigned long, unsigned long, unsigned long) /home/leon/git/swp-report/iMX6_Platform_SDK/output/mx6sdl/lib/libsdk.a(pmu_driver.o)
pmu::_pmu_info::_pmu_info()                       /home/leon/git/swp-report/iMX6_Platform_SDK/output/mx6sdl/lib/libsdk.a(pmu_driver.o)
pmu::_pmu_info::_pmu_info()                       /home/leon/git/swp-report/iMX6_Platform_SDK/output/mx6sdl/lib/libsdk.a(pmu_driver.o)
pmu_get_property                                  /home/leon/git/swp-report/iMX6_Platform_SDK/output/mx6sdl/lib/libsdk.a(pmu_driver.o)
pmu_init                                          /home/leon/git/swp-report/iMX6_Platform_SDK/output/mx6sdl/lib/libsdk.a(pmu_driver.o)
                                                  /home/leon/git/swp-report/iMX6_Platform_SDK/output/mx6sdl/lib/libsdk.a(cpu_workpoint.o)
pmu_iomux_config                                  /home/leon/git/swp-report/iMX6_Platform_SDK/output/mx6sdl/lib/libboard_sabre_ai_rev_c.a(iomux_config.o)
pmu_set_property                                  /home/leon/git/swp-report/iMX6_Platform_SDK/output/mx6sdl/lib/libsdk.a(pmu_driver.o)
                                                  /home/leon/git/swp-report/iMX6_Platform_SDK/output/mx6sdl/lib/libsdk.a(cpu_workpoint.o)
prefetch_abort_handler                            /home/leon/git/swp-report/iMX6_Platform_SDK/output/mx6sdl/lib/libsdk.a(arm_abort.o)
                                                  /home/leon/git/swp-report/iMX6_Platform_SDK/output/mx6sdl/lib/libsdk.a(vectors.o)
print_version                                     /home/leon/git/swp-report/iMX6_Platform_SDK/output/mx6sdl/stream/sabre_ai_rev_c/obj/apps/common/print_version.o
                                                  /home/leon/git/swp-report/iMX6_Platform_SDK/output/mx6sdl/stream/sabre_ai_rev_c/obj/apps/stream/src/main.o
printf                                            /home/src/arm/target/bin/../arm-none-eabi/lib//libc.a(lib_a-printf.o)
                                                  /home/leon/git/swp-report/iMX6_Platform_SDK/output/mx6sdl/lib/libsdk.a(gpio.o)
                                                  /home/leon/git/swp-report/iMX6_Platform_SDK/output/mx6sdl/lib/libsdk.a(abort_handler.o)
                                                  /home/leon/git/swp-report/iMX6_Platform_SDK/output/mx6sdl/lib/libsdk.a(interrupt.o)
                                                  /home/leon/git/swp-report/iMX6_Platform_SDK/output/mx6sdl/lib/libsdk.a(cpu_workpoint.o)
                                                  /home/leon/git/swp-report/iMX6_Platform_SDK/output/mx6sdl/lib/libsdk.a(board_id.o)
                                                  /home/leon/git/swp-report/iMX6_Platform_SDK/output/mx6sdl/lib/libsdk.a(text_color.o)
                                                  /home/leon/git/swp-report/iMX6_Platform_SDK/output/mx6sdl/lib/libsdk.a(system_util.o)
                                                  /home/leon/git/swp-report/iMX6_Platform_SDK/output/mx6sdl/stream/sabre_ai_rev_c/obj/apps/stream/src/stream.o
                                                  /home/leon/git/swp-report/iMX6_Platform_SDK/output/mx6sdl/stream/sabre_ai_rev_c/obj/apps/stream/src/main.o
                                                  /home/leon/git/swp-report/iMX6_Platform_SDK/output/mx6sdl/stream/sabre_ai_rev_c/obj/apps/common/print_version.o
printf_color                                      /home/leon/git/swp-report/iMX6_Platform_SDK/output/mx6sdl/lib/libsdk.a(text_color.o)
                                                  /home/leon/git/swp-report/iMX6_Platform_SDK/output/mx6sdl/lib/libsdk.a(system_util.o)
putc                                              /home/src/arm/target/bin/../arm-none-eabi/lib//libc.a(lib_a-putc.o)
pwm1_iomux_config                                 /home/leon/git/swp-report/iMX6_Platform_SDK/output/mx6sdl/lib/libboard_sabre_ai_rev_c.a(iomux_config.o)
pwm2_iomux_config                                 /home/leon/git/swp-report/iMX6_Platform_SDK/output/mx6sdl/lib/libboard_sabre_ai_rev_c.a(iomux_config.o)
pwm3_iomux_config                                 /home/leon/git/swp-report/iMX6_Platform_SDK/output/mx6sdl/lib/libboard_sabre_ai_rev_c.a(pwm3_iomux_config.o)
                                                  /home/leon/git/swp-report/iMX6_Platform_SDK/output/mx6sdl/lib/libboard_sabre_ai_rev_c.a(iomux_config.o)
pwm4_iomux_config                                 /home/leon/git/swp-report/iMX6_Platform_SDK/output/mx6sdl/lib/libboard_sabre_ai_rev_c.a(pwm4_iomux_config.o)
                                                  /home/leon/git/swp-report/iMX6_Platform_SDK/output/mx6sdl/lib/libboard_sabre_ai_rev_c.a(iomux_config.o)
raise                                             /home/src/arm/target/bin/../arm-none-eabi/lib//libc.a(lib_a-signal.o)
                                                  /home/src/arm/target/bin/../arm-none-eabi/lib//libc.a(lib_a-abort.o)
read_input_string                                 /home/leon/git/swp-report/iMX6_Platform_SDK/output/mx6sdl/lib/libsdk.a(system_util.o)
read_int                                          /home/leon/git/swp-report/iMX6_Platform_SDK/output/mx6sdl/lib/libsdk.a(system_util.o)
realloc                                           /home/src/arm/target/bin/../arm-none-eabi/lib//libc.a(lib_a-realloc.o)
                                                  /home/src/arm/target/bin/../arm-none-eabi/lib//libstdc++.a(cp-demangle.o)
                                                  /home/leon/git/swp-report/iMX6_Platform_SDK/output/mx6sdl/lib/libsdk.a(system_util.o)
register_interrupt_routine                        /home/leon/git/swp-report/iMX6_Platform_SDK/output/mx6sdl/lib/libsdk.a(interrupt.o)
                                                  /home/leon/git/swp-report/iMX6_Platform_SDK/output/mx6sdl/lib/libsdk.a(imx_i2c.o)
                                                  /home/leon/git/swp-report/iMX6_Platform_SDK/output/mx6sdl/lib/libsdk.a(imx_uart.o)
                                                  /home/leon/git/swp-report/iMX6_Platform_SDK/output/mx6sdl/lib/libsdk.a(epit.o)
                                                  /home/leon/git/swp-report/iMX6_Platform_SDK/output/mx6sdl/lib/libsdk.a(pmu_driver.o)
restore_core_regs                                 /home/src/arm/target/bin/../lib/gcc/arm-none-eabi/4.8.2//libgcc.a(libunwind.o)
                                                  /home/src/arm/target/bin/../lib/gcc/arm-none-eabi/4.8.2//libgcc.a(unwind-arm.o)
scu_disable_maintenance_broadcast                 /home/leon/git/swp-report/iMX6_Platform_SDK/output/mx6sdl/lib/libsdk.a(cortexA9.o)
scu_enable                                        /home/leon/git/swp-report/iMX6_Platform_SDK/output/mx6sdl/lib/libsdk.a(cortexA9.o)
scu_enable_maintenance_broadcast                  /home/leon/git/swp-report/iMX6_Platform_SDK/output/mx6sdl/lib/libsdk.a(cortexA9.o)
scu_get_cpus_in_smp                               /home/leon/git/swp-report/iMX6_Platform_SDK/output/mx6sdl/lib/libsdk.a(cortexA9.o)
scu_join_smp                                      /home/leon/git/swp-report/iMX6_Platform_SDK/output/mx6sdl/lib/libsdk.a(cortexA9.o)
scu_leave_smp                                     /home/leon/git/swp-report/iMX6_Platform_SDK/output/mx6sdl/lib/libsdk.a(cortexA9.o)
scu_secure_invalidate                             /home/leon/git/swp-report/iMX6_Platform_SDK/output/mx6sdl/lib/libsdk.a(cortexA9.o)
sdma_iomux_config                                 /home/leon/git/swp-report/iMX6_Platform_SDK/output/mx6sdl/lib/libboard_sabre_ai_rev_c.a(iomux_config.o)
setlocale                                         /home/src/arm/target/bin/../arm-none-eabi/lib//libc.a(lib_a-locale.o)
show_board_id                                     /home/leon/git/swp-report/iMX6_Platform_SDK/output/mx6sdl/lib/libsdk.a(board_id.o)
signal                                            /home/src/arm/target/bin/../arm-none-eabi/lib//libc.a(lib_a-signal.o)
sjc_iomux_config                                  /home/leon/git/swp-report/iMX6_Platform_SDK/output/mx6sdl/lib/libboard_sabre_ai_rev_c.a(sjc_iomux_config.o)
                                                  /home/leon/git/swp-report/iMX6_Platform_SDK/output/mx6sdl/lib/libboard_sabre_ai_rev_c.a(iomux_config.o)
snvs_iomux_config                                 /home/leon/git/swp-report/iMX6_Platform_SDK/output/mx6sdl/lib/libboard_sabre_ai_rev_c.a(iomux_config.o)
spdif_iomux_config                                /home/leon/git/swp-report/iMX6_Platform_SDK/output/mx6sdl/lib/libboard_sabre_ai_rev_c.a(spdif_iomux_config.o)
                                                  /home/leon/git/swp-report/iMX6_Platform_SDK/output/mx6sdl/lib/libboard_sabre_ai_rev_c.a(iomux_config.o)
sprintf                                           /home/src/arm/target/bin/../arm-none-eabi/lib//libc.a(lib_a-sprintf.o)
                                                  /home/src/arm/target/bin/../arm-none-eabi/lib//libstdc++.a(cp-demangle.o)
                                                  /home/leon/git/swp-report/iMX6_Platform_SDK/output/mx6sdl/lib/libsdk.a(board_id.o)
src_iomux_config                                  /home/leon/git/swp-report/iMX6_Platform_SDK/output/mx6sdl/lib/libboard_sabre_ai_rev_c.a(iomux_config.o)
std::bad_exception::what() const                  /home/src/arm/target/bin/../arm-none-eabi/lib//libstdc++.a(eh_exception.o)
std::bad_exception::~bad_exception()              /home/src/arm/target/bin/../arm-none-eabi/lib//libstdc++.a(eh_exception.o)
std::bad_exception::~bad_exception()              /home/src/arm/target/bin/../arm-none-eabi/lib//libstdc++.a(eh_exception.o)
                                                  /home/src/arm/target/bin/../arm-none-eabi/lib//libstdc++.a(eh_call.o)
std::bad_exception::~bad_exception()              /home/src/arm/target/bin/../arm-none-eabi/lib//libstdc++.a(eh_exception.o)
std::exception::what() const                      /home/src/arm/target/bin/../arm-none-eabi/lib//libstdc++.a(eh_exception.o)
std::exception::~exception()                      /home/src/arm/target/bin/../arm-none-eabi/lib//libstdc++.a(eh_exception.o)
std::exception::~exception()                      /home/src/arm/target/bin/../arm-none-eabi/lib//libstdc++.a(eh_exception.o)
std::exception::~exception()                      /home/src/arm/target/bin/../arm-none-eabi/lib//libstdc++.a(eh_exception.o)
std::set_terminate(void (*)())                    /home/src/arm/target/bin/../arm-none-eabi/lib//libstdc++.a(eh_terminate.o)
std::set_unexpected(void (*)())                   /home/src/arm/target/bin/../arm-none-eabi/lib//libstdc++.a(eh_terminate.o)
std::terminate()                                  /home/src/arm/target/bin/../arm-none-eabi/lib//libstdc++.a(eh_terminate.o)
                                                  /home/src/arm/target/bin/../arm-none-eabi/lib//libstdc++.a(eh_alloc.o)
                                                  /home/src/arm/target/bin/../arm-none-eabi/lib//libstdc++.a(eh_catch.o)
                                                  /home/src/arm/target/bin/../arm-none-eabi/lib//libstdc++.a(eh_throw.o)
                                                  /home/src/arm/target/bin/../arm-none-eabi/lib//libstdc++.a(eh_unex_handler.o)
                                                  /home/src/arm/target/bin/../arm-none-eabi/lib//libstdc++.a(eh_personality.o)
                                                  /home/src/arm/target/bin/../arm-none-eabi/lib//libstdc++.a(eh_call.o)
                                                  /home/src/arm/target/bin/../arm-none-eabi/lib//libstdc++.a(eh_arm.o)
                                                  /home/src/arm/target/bin/../arm-none-eabi/lib//libstdc++.a(pure.o)
std::type_info::__do_catch(std::type_info const*, void**, unsigned int) const /home/src/arm/target/bin/../arm-none-eabi/lib//libstdc++.a(tinfo.o)
std::type_info::__do_upcast(__cxxabiv1::__class_type_info const*, void**) const /home/src/arm/target/bin/../arm-none-eabi/lib//libstdc++.a(tinfo.o)
std::type_info::__is_function_p() const           /home/src/arm/target/bin/../arm-none-eabi/lib//libstdc++.a(tinfo.o)
                                                  /home/src/arm/target/bin/../arm-none-eabi/lib//libstdc++.a(class_type_info.o)
                                                  /home/src/arm/target/bin/../arm-none-eabi/lib//libstdc++.a(si_class_type_info.o)
std::type_info::__is_pointer_p() const            /home/src/arm/target/bin/../arm-none-eabi/lib//libstdc++.a(tinfo.o)
                                                  /home/src/arm/target/bin/../arm-none-eabi/lib//libstdc++.a(class_type_info.o)
                                                  /home/src/arm/target/bin/../arm-none-eabi/lib//libstdc++.a(si_class_type_info.o)
std::type_info::operator==(std::type_info const&) const /home/src/arm/target/bin/../arm-none-eabi/lib//libstdc++.a(tinfo.o)
                                                  /home/src/arm/target/bin/../arm-none-eabi/lib//libstdc++.a(class_type_info.o)
                                                  /home/src/arm/target/bin/../arm-none-eabi/lib//libstdc++.a(si_class_type_info.o)
std::type_info::~type_info()                      /home/src/arm/target/bin/../arm-none-eabi/lib//libstdc++.a(tinfo.o)
std::type_info::~type_info()                      /home/src/arm/target/bin/../arm-none-eabi/lib//libstdc++.a(tinfo.o)
std::type_info::~type_info()                      /home/src/arm/target/bin/../arm-none-eabi/lib//libstdc++.a(tinfo.o)
                                                  /home/src/arm/target/bin/../arm-none-eabi/lib//libstdc++.a(class_type_info.o)
std::uncaught_exception()                         /home/src/arm/target/bin/../arm-none-eabi/lib//libstdc++.a(eh_catch.o)
std::unexpected()                                 /home/src/arm/target/bin/../arm-none-eabi/lib//libstdc++.a(eh_terminate.o)
                                                  /home/src/arm/target/bin/../arm-none-eabi/lib//libstdc++.a(eh_personality.o)
                                                  /home/src/arm/target/bin/../arm-none-eabi/lib//libstdc++.a(eh_call.o)
strcmp                                            /home/src/arm/target/bin/../arm-none-eabi/lib//libc.a(lib_a-strcmp.o)
                                                  /home/src/arm/target/bin/../arm-none-eabi/lib//libc.a(lib_a-locale.o)
                                                  /home/src/arm/target/bin/../arm-none-eabi/lib//libstdc++.a(cp-demangle.o)
                                                  /home/src/arm/target/bin/../arm-none-eabi/lib//libstdc++.a(tinfo.o)
streammain                                        /home/leon/git/swp-report/iMX6_Platform_SDK/output/mx6sdl/stream/sabre_ai_rev_c/obj/apps/stream/src/stream.o
                                                  /home/leon/git/swp-report/iMX6_Platform_SDK/output/mx6sdl/stream/sabre_ai_rev_c/obj/apps/stream/src/main.o
strlen                                            /home/src/arm/target/bin/../arm-none-eabi/lib//libc.a(lib_a-strlen.o)
                                                  /home/src/arm/target/bin/../arm-none-eabi/lib//libc.a(lib_a-svfiprintf.o)
                                                  /home/src/arm/target/bin/../arm-none-eabi/lib//libc.a(lib_a-vfprintf.o)
                                                  /home/src/arm/target/bin/../arm-none-eabi/lib//libc.a(lib_a-vfiprintf.o)
                                                  /home/src/arm/target/bin/../arm-none-eabi/lib//libc.a(lib_a-syscalls.o)
                                                  /home/src/arm/target/bin/../arm-none-eabi/lib//libc.a(lib_a-svfprintf.o)
                                                  /home/src/arm/target/bin/../arm-none-eabi/lib//libc.a(lib_a-fputs.o)
                                                  /home/src/arm/target/bin/../arm-none-eabi/lib//libstdc++.a(cp-demangle.o)
strncmp                                           /home/src/arm/target/bin/../arm-none-eabi/lib//libc.a(lib_a-strncmp.o)
                                                  /home/src/arm/target/bin/../arm-none-eabi/lib//libstdc++.a(cp-demangle.o)
system_time_init                                  /home/leon/git/swp-report/iMX6_Platform_SDK/output/mx6sdl/lib/libsdk.a(timer.o)
                                                  /home/leon/git/swp-report/iMX6_Platform_SDK/output/mx6sdl/stream/sabre_ai_rev_c/obj/apps/common/platform_init.o
time_get_microseconds                             /home/leon/git/swp-report/iMX6_Platform_SDK/output/mx6sdl/lib/libsdk.a(timer.o)
top_of_stacks                                     /home/leon/git/swp-report/iMX6_Platform_SDK/output/mx6sdl/lib/libsdk.a(startup.o)
tuned_STREAM_Add                                  /home/leon/git/swp-report/iMX6_Platform_SDK/output/mx6sdl/stream/sabre_ai_rev_c/obj/apps/stream/src/stream.o
tuned_STREAM_Copy                                 /home/leon/git/swp-report/iMX6_Platform_SDK/output/mx6sdl/stream/sabre_ai_rev_c/obj/apps/stream/src/stream.o
tuned_STREAM_Scale                                /home/leon/git/swp-report/iMX6_Platform_SDK/output/mx6sdl/stream/sabre_ai_rev_c/obj/apps/stream/src/stream.o
tuned_STREAM_Triad                                /home/leon/git/swp-report/iMX6_Platform_SDK/output/mx6sdl/stream/sabre_ai_rev_c/obj/apps/stream/src/stream.o
typeinfo for __cxxabiv1::__class_type_info        /home/src/arm/target/bin/../arm-none-eabi/lib//libstdc++.a(class_type_info.o)
                                                  /home/src/arm/target/bin/../arm-none-eabi/lib//libstdc++.a(si_class_type_info.o)
typeinfo for __cxxabiv1::__forced_unwind          /home/src/arm/target/bin/../arm-none-eabi/lib//libstdc++.a(eh_exception.o)
                                                  /home/src/arm/target/bin/../arm-none-eabi/lib//libstdc++.a(eh_arm.o)
typeinfo for __cxxabiv1::__foreign_exception      /home/src/arm/target/bin/../arm-none-eabi/lib//libstdc++.a(eh_exception.o)
                                                  /home/src/arm/target/bin/../arm-none-eabi/lib//libstdc++.a(eh_arm.o)
typeinfo for __cxxabiv1::__si_class_type_info     /home/src/arm/target/bin/../arm-none-eabi/lib//libstdc++.a(si_class_type_info.o)
typeinfo for std::bad_exception                   /home/src/arm/target/bin/../arm-none-eabi/lib//libstdc++.a(eh_exception.o)
                                                  /home/src/arm/target/bin/../arm-none-eabi/lib//libstdc++.a(eh_call.o)
typeinfo for std::exception                       /home/src/arm/target/bin/../arm-none-eabi/lib//libstdc++.a(eh_exception.o)
                                                  /home/src/arm/target/bin/../arm-none-eabi/lib//libstdc++.a(vterminate.o)
typeinfo for std::type_info                       /home/src/arm/target/bin/../arm-none-eabi/lib//libstdc++.a(tinfo.o)
                                                  /home/src/arm/target/bin/../arm-none-eabi/lib//libstdc++.a(class_type_info.o)
typeinfo name for __cxxabiv1::__class_type_info   /home/src/arm/target/bin/../arm-none-eabi/lib//libstdc++.a(class_type_info.o)
typeinfo name for __cxxabiv1::__forced_unwind     /home/src/arm/target/bin/../arm-none-eabi/lib//libstdc++.a(eh_exception.o)
typeinfo name for __cxxabiv1::__foreign_exception /home/src/arm/target/bin/../arm-none-eabi/lib//libstdc++.a(eh_exception.o)
typeinfo name for __cxxabiv1::__si_class_type_info /home/src/arm/target/bin/../arm-none-eabi/lib//libstdc++.a(si_class_type_info.o)
typeinfo name for std::bad_exception              /home/src/arm/target/bin/../arm-none-eabi/lib//libstdc++.a(eh_exception.o)
typeinfo name for std::exception                  /home/src/arm/target/bin/../arm-none-eabi/lib//libstdc++.a(eh_exception.o)
typeinfo name for std::type_info                  /home/src/arm/target/bin/../arm-none-eabi/lib//libstdc++.a(tinfo.o)
uart1_iomux_config                                /home/leon/git/swp-report/iMX6_Platform_SDK/output/mx6sdl/lib/libboard_sabre_ai_rev_c.a(iomux_config.o)
                                                  /home/leon/git/swp-report/iMX6_Platform_SDK/output/mx6sdl/lib/libboard_sabre_ai_rev_c.a(uart_iomux_config.o)
uart2_iomux_config                                /home/leon/git/swp-report/iMX6_Platform_SDK/output/mx6sdl/lib/libboard_sabre_ai_rev_c.a(uart2_iomux_config.o)
                                                  /home/leon/git/swp-report/iMX6_Platform_SDK/output/mx6sdl/lib/libboard_sabre_ai_rev_c.a(iomux_config.o)
                                                  /home/leon/git/swp-report/iMX6_Platform_SDK/output/mx6sdl/lib/libboard_sabre_ai_rev_c.a(uart_iomux_config.o)
uart3_iomux_config                                /home/leon/git/swp-report/iMX6_Platform_SDK/output/mx6sdl/lib/libboard_sabre_ai_rev_c.a(uart3_iomux_config.o)
                                                  /home/leon/git/swp-report/iMX6_Platform_SDK/output/mx6sdl/lib/libboard_sabre_ai_rev_c.a(iomux_config.o)
                                                  /home/leon/git/swp-report/iMX6_Platform_SDK/output/mx6sdl/lib/libboard_sabre_ai_rev_c.a(uart_iomux_config.o)
uart4_iomux_config                                /home/leon/git/swp-report/iMX6_Platform_SDK/output/mx6sdl/lib/libboard_sabre_ai_rev_c.a(uart4_iomux_config.o)
                                                  /home/leon/git/swp-report/iMX6_Platform_SDK/output/mx6sdl/lib/libboard_sabre_ai_rev_c.a(iomux_config.o)
                                                  /home/leon/git/swp-report/iMX6_Platform_SDK/output/mx6sdl/lib/libboard_sabre_ai_rev_c.a(uart_iomux_config.o)
uart5_iomux_config                                /home/leon/git/swp-report/iMX6_Platform_SDK/output/mx6sdl/lib/libboard_sabre_ai_rev_c.a(iomux_config.o)
                                                  /home/leon/git/swp-report/iMX6_Platform_SDK/output/mx6sdl/lib/libboard_sabre_ai_rev_c.a(uart_iomux_config.o)
uart_get_reffreq                                  /home/leon/git/swp-report/iMX6_Platform_SDK/output/mx6sdl/lib/libsdk.a(imx_uart.o)
uart_getchar                                      /home/leon/git/swp-report/iMX6_Platform_SDK/output/mx6sdl/lib/libsdk.a(imx_uart.o)
                                                  /home/leon/git/swp-report/iMX6_Platform_SDK/output/mx6sdl/lib/libsdk.a(system_util.o)
                                                  /home/leon/git/swp-report/iMX6_Platform_SDK/output/mx6sdl/stream/sabre_ai_rev_c/obj/apps/common/platform_init.o
uart_init                                         /home/leon/git/swp-report/iMX6_Platform_SDK/output/mx6sdl/lib/libsdk.a(imx_uart.o)
                                                  /home/leon/git/swp-report/iMX6_Platform_SDK/output/mx6sdl/stream/sabre_ai_rev_c/obj/apps/common/platform_init.o
uart_iomux_config                                 /home/leon/git/swp-report/iMX6_Platform_SDK/output/mx6sdl/lib/libboard_sabre_ai_rev_c.a(uart_iomux_config.o)
                                                  /home/leon/git/swp-report/iMX6_Platform_SDK/output/mx6sdl/lib/libsdk.a(imx_uart.o)
uart_putchar                                      /home/leon/git/swp-report/iMX6_Platform_SDK/output/mx6sdl/lib/libsdk.a(imx_uart.o)
uart_set_FIFO_mode                                /home/leon/git/swp-report/iMX6_Platform_SDK/output/mx6sdl/lib/libsdk.a(imx_uart.o)
uart_set_loopback_mode                            /home/leon/git/swp-report/iMX6_Platform_SDK/output/mx6sdl/lib/libsdk.a(imx_uart.o)
uart_setup_interrupt                              /home/leon/git/swp-report/iMX6_Platform_SDK/output/mx6sdl/lib/libsdk.a(imx_uart.o)
usb_iomux_config                                  /home/leon/git/swp-report/iMX6_Platform_SDK/output/mx6sdl/lib/libboard_sabre_ai_rev_c.a(iomux_config.o)
usdhc1_iomux_config                               /home/leon/git/swp-report/iMX6_Platform_SDK/output/mx6sdl/lib/libboard_sabre_ai_rev_c.a(usdhc1_iomux_config.o)
                                                  /home/leon/git/swp-report/iMX6_Platform_SDK/output/mx6sdl/lib/libboard_sabre_ai_rev_c.a(iomux_config.o)
usdhc2_iomux_config                               /home/leon/git/swp-report/iMX6_Platform_SDK/output/mx6sdl/lib/libboard_sabre_ai_rev_c.a(iomux_config.o)
usdhc3_iomux_config                               /home/leon/git/swp-report/iMX6_Platform_SDK/output/mx6sdl/lib/libboard_sabre_ai_rev_c.a(usdhc3_iomux_config.o)
                                                  /home/leon/git/swp-report/iMX6_Platform_SDK/output/mx6sdl/lib/libboard_sabre_ai_rev_c.a(iomux_config.o)
usdhc4_iomux_config                               /home/leon/git/swp-report/iMX6_Platform_SDK/output/mx6sdl/lib/libboard_sabre_ai_rev_c.a(iomux_config.o)
vectors                                           /home/leon/git/swp-report/iMX6_Platform_SDK/output/mx6sdl/lib/libsdk.a(vectors.o)
                                                  /home/leon/git/swp-report/iMX6_Platform_SDK/output/mx6sdl/lib/libsdk.a(startup.o)
vfiprintf                                         /home/src/arm/target/bin/../arm-none-eabi/lib//libc.a(lib_a-vfiprintf.o)
vfprintf                                          /home/src/arm/target/bin/../arm-none-eabi/lib//libc.a(lib_a-vfprintf.o)
vprintf                                           /home/src/arm/target/bin/../arm-none-eabi/lib//libc.a(lib_a-vprintf.o)
                                                  /home/leon/git/swp-report/iMX6_Platform_SDK/output/mx6sdl/lib/libsdk.a(imx_i2c.o)
                                                  /home/leon/git/swp-report/iMX6_Platform_SDK/output/mx6sdl/lib/libsdk.a(gpio.o)
                                                  /home/leon/git/swp-report/iMX6_Platform_SDK/output/mx6sdl/lib/libsdk.a(text_color.o)
vtable for __cxxabiv1::__class_type_info          /home/src/arm/target/bin/../arm-none-eabi/lib//libstdc++.a(class_type_info.o)
                                                  /home/src/arm/target/bin/../arm-none-eabi/lib//libstdc++.a(tinfo.o)
                                                  /home/src/arm/target/bin/../arm-none-eabi/lib//libstdc++.a(eh_exception.o)
vtable for __cxxabiv1::__forced_unwind            /home/src/arm/target/bin/../arm-none-eabi/lib//libstdc++.a(eh_exception.o)
vtable for __cxxabiv1::__foreign_exception        /home/src/arm/target/bin/../arm-none-eabi/lib//libstdc++.a(eh_exception.o)
vtable for __cxxabiv1::__si_class_type_info       /home/src/arm/target/bin/../arm-none-eabi/lib//libstdc++.a(si_class_type_info.o)
                                                  /home/src/arm/target/bin/../arm-none-eabi/lib//libstdc++.a(class_type_info.o)
                                                  /home/src/arm/target/bin/../arm-none-eabi/lib//libstdc++.a(eh_exception.o)
vtable for pmu::AnalogRegulator                   /home/leon/git/swp-report/iMX6_Platform_SDK/output/mx6sdl/lib/libsdk.a(pmu_driver.o)
vtable for pmu::DigitalRegulator                  /home/leon/git/swp-report/iMX6_Platform_SDK/output/mx6sdl/lib/libsdk.a(pmu_driver.o)
vtable for pmu::LDO1p1Regulator                   /home/leon/git/swp-report/iMX6_Platform_SDK/output/mx6sdl/lib/libsdk.a(pmu_driver.o)
vtable for pmu::LDO2p5Regulator                   /home/leon/git/swp-report/iMX6_Platform_SDK/output/mx6sdl/lib/libsdk.a(pmu_driver.o)
vtable for pmu::LDO3p0Regulator                   /home/leon/git/swp-report/iMX6_Platform_SDK/output/mx6sdl/lib/libsdk.a(pmu_driver.o)
vtable for pmu::LDOARMRegulator                   /home/leon/git/swp-report/iMX6_Platform_SDK/output/mx6sdl/lib/libsdk.a(pmu_driver.o)
vtable for pmu::LDOGraphicsRegulator              /home/leon/git/swp-report/iMX6_Platform_SDK/output/mx6sdl/lib/libsdk.a(pmu_driver.o)
vtable for pmu::LDOSoCRegulator                   /home/leon/git/swp-report/iMX6_Platform_SDK/output/mx6sdl/lib/libsdk.a(pmu_driver.o)
vtable for pmu::Regulator                         /home/leon/git/swp-report/iMX6_Platform_SDK/output/mx6sdl/lib/libsdk.a(pmu_driver.o)
vtable for std::bad_exception                     /home/src/arm/target/bin/../arm-none-eabi/lib//libstdc++.a(eh_exception.o)
                                                  /home/src/arm/target/bin/../arm-none-eabi/lib//libstdc++.a(eh_call.o)
vtable for std::exception                         /home/src/arm/target/bin/../arm-none-eabi/lib//libstdc++.a(eh_exception.o)
vtable for std::type_info                         /home/src/arm/target/bin/../arm-none-eabi/lib//libstdc++.a(tinfo.o)
wcrtomb                                           /home/src/arm/target/bin/../arm-none-eabi/lib//libc.a(lib_a-wcrtomb.o)
wdog1_iomux_config                                /home/leon/git/swp-report/iMX6_Platform_SDK/output/mx6sdl/lib/libboard_sabre_ai_rev_c.a(wdog1_iomux_config.o)
                                                  /home/leon/git/swp-report/iMX6_Platform_SDK/output/mx6sdl/lib/libboard_sabre_ai_rev_c.a(iomux_config.o)
wdog2_iomux_config                                /home/leon/git/swp-report/iMX6_Platform_SDK/output/mx6sdl/lib/libboard_sabre_ai_rev_c.a(iomux_config.o)
write                                             /home/src/arm/target/bin/../arm-none-eabi/lib//libc.a(lib_a-syswrite.o)
                                                  /home/src/arm/target/bin/../arm-none-eabi/lib//libstdc++.a(pure.o)
xtalosc_iomux_config                              /home/leon/git/swp-report/iMX6_Platform_SDK/output/mx6sdl/lib/libboard_sabre_ai_rev_c.a(iomux_config.o)
